            ICON.LST						Sourcer	v8.01  20-Jul-2026 12:15 am   Page 1


				PAGE  59,132

				;ŰŰŰŰŰŰŰŰŰŰŰŰŰŰŰŰŰŰŰŰŰŰŰŰŰŰŰŰŰŰŰŰŰŰŰŰŰŰŰŰŰŰŰŰŰŰŰŰŰŰŰŰŰŰŰŰŰŰŰŰŰŰŰŰŰŰŰŰŰŰŰŰŰŰ
				;ŰŰ					                                 ŰŰ
				;ŰŰ				ICON	                                 ŰŰ
				;ŰŰ					                                 ŰŰ
				;ŰŰ      Created:   20-Jul-26		                                 ŰŰ
				;ŰŰ      Passes:    2          Analysis	Options on: none                 ŰŰ
				;ŰŰ      Warning:   The stack segment is in the code segment.   For      ŰŰ
				;ŰŰ                 program reassembly,	when linking the file, the       ŰŰ
				;ŰŰ                 option  /STACK:0X0080  must be used.                 ŰŰ
				;ŰŰ					                                 ŰŰ
				;ŰŰŰŰŰŰŰŰŰŰŰŰŰŰŰŰŰŰŰŰŰŰŰŰŰŰŰŰŰŰŰŰŰŰŰŰŰŰŰŰŰŰŰŰŰŰŰŰŰŰŰŰŰŰŰŰŰŰŰŰŰŰŰŰŰŰŰŰŰŰŰŰŰŰ

				.err     Target Assembler set to NONE, re-assembly not recommended


				; The following equates show data references outside the range of the program.

     = 0004			data_1e		equ	4			; (0000:0004=0F4h)
     = 0007			data_2e		equ	7			; (0000:0007=0F400h)
     = 0040			data_3e		equ	40h			; (0000:0040=20h)
     = 004C			data_4e		equ	4Ch			; (0000:004C=40h)
     = 00C4			data_5e		equ	0C4h			; (0000:00C4=60h)
     = 00DE			data_6e		equ	0DEh			; (0000:00DE=0)
     = 0200			data_7e		equ	200h			; (0000:0200=0)
     = 04DE			data_8e		equ	4DEh			; (0000:04DE=0)
     = 0720			data_9e		equ	720h			;*(0000:0720=0)
     = 0909			data_10e	equ	909h			;*(0000:0909=0)
     = 0B00			data_11e	equ	0B00h			;*(0000:0B00=0)
     = 1010			data_12e	equ	1010h			;*(0000:1010=0)
     = 1012			data_13e	equ	1012h			;*(0000:1012=0)
     = 1210			data_14e	equ	1210h			;*(0000:1210=42h)
     = 2007			data_15e	equ	2007h			;*(0000:2007=0BE02h)
     = 2020			data_16e	equ	2020h			;*(0000:2020=80h)
     = 2707			data_17e	equ	2707h			;*(0000:2707=8807h)
     = 44DE			data_18e	equ	44DEh			;*(0000:44DE=0C7h)
     = 6369			data_19e	equ	6369h			;*(0000:6369=26h)
     = 66DE			data_20e	equ	66DEh			;*(0000:66DE=90DBh)
     = 6907			data_21e	equ	6907h			;*(0000:6907=46h)
     = 8207			data_22e	equ	8207h			;*(0000:8207=2650h)
     = 8D07			data_23e	equ	8D07h			;*(0000:8D07=74FFh)
     = A107			data_24e	equ	0A107h			;*(0000:A107=57h)
     = A507			data_25e	equ	0A507h			;*(0000:A507=1313h)
     = B307			data_26e	equ	0B307h			;*(0000:B307=0F3h)
     = B308			data_27e	equ	0B308h			;*(0000:B308=0)
     = C2C4			data_28e	equ	0C2C4h			;*(0000:C2C4=0C657h)
     = CCDE			data_29e	equ	0CCDEh			;*(0000:CCDE=5E06h)
     = EEDE			data_30e	equ	0EEDEh			;*(0000:EEDE=474h)
     = EFDE			data_31e	equ	0EFDEh			;*(0000:EFDE=0C43Ch)
     = FEDE			data_32e	equ	0FEDEh			;*(0000:FEDE=0A321h)
     = FFDE			data_33e	equ	0FFDEh			;*(0000:FFDE=0F607h)
     = 5DF4			data_34e	equ	5DF4h			;*(0074:5DF4=0B850h)
     = 0002			data_35e	equ	2			;*(007D:0002=0)
     = 83AF			data_36e	equ	83AFh			;*(007D:83AF=1689h)
     = 2BF2			data_37e	equ	2BF2h			;*(06B4:2BF2=26C7h)
           ICON.LST				Sourcer	v8.01  20-Jul-2026 12:15 am   Page 2

     = 2BF4			data_38e	equ	2BF4h			;*(06B4:2BF4=3E3Bh)
     = 0006			data_39e	equ	6			;*(0C80:0006=142h)
     = 0009			data_40e	equ	9			;*(0C80:0009=0F726h)
     = 000C			data_41e	equ	0Ch			;*(0C80:000C=3D3Ch)
     = 000E			data_42e	equ	0Eh			;*(0C80:000E=2)
     = 000F			data_43e	equ	0Fh			;*(0C80:000F=7400h)
     = 0012			data_44e	equ	12h			;*(0C80:0012=0E086h)
     = 0015			data_45e	equ	15h			;*(0C80:0015=0FCh)
     = 0040			data_46e	equ	40h			;*(0C80:0040=1C76h)
     = 8272			data_47e	equ	8272h			;*(2073:8272=0)
     = 0000			data_48e	equ	0			; (2916:0000=0)
     = 0002			PSP_free_seg	equ	2			; (2916:0002=0)
     = 8B4F			data_376e	equ	8B4Fh			;*(2926:8B4F=0)
     = 8B51			data_377e	equ	8B51h			;*(2926:8B51=0)
     = 8B55			data_378e	equ	8B55h			;*(2926:8B55=0)
     = 90DE			data_379e	equ	90DEh			;*(2926:90DE=0)
     = A4DE			data_380e	equ	0A4DEh			;*(2926:A4DE=0)
     = A4FE			data_381e	equ	0A4FEh			;*(2926:A4FE=0)
     = AA07			data_382e	equ	0AA07h			;*(2926:AA07=0)
     = B0DE			data_383e	equ	0B0DEh			;*(2926:B0DE=0)
     = B1B1			data_384e	equ	0B1B1h			;*(2926:B1B1=0)
     = C4C0			data_385e	equ	0C4C0h			;*(2926:C4C0=0)
     = C4DA			data_386e	equ	0C4DAh			;*(2926:C4DA=0)
     = CF1F			data_387e	equ	0CF1Fh			;*(2926:CF1F=0)
     = DE07			data_388e	equ	0DE07h			;*(2926:DE07=0)
     = DE10			data_389e	equ	0DE10h			;*(2926:DE10=0)
     = DEB0			data_390e	equ	0DEB0h			;*(2926:DEB0=0)
     = DEDE			data_392e	equ	0DEDEh			;*(2926:DEDE=0)
     = E61F			data_393e	equ	0E61Fh			;*(2926:E61F=0)
     = EEDE			data_394e	equ	0EEDEh			;*(2926:EEDE=0)
     = EFDE			data_395e	equ	0EFDEh			;*(2926:EFDE=0)
     = FEDE			data_396e	equ	0FEDEh			;*(2926:FEDE=0)
     = FFDD			data_397e	equ	0FFDDh			;*(2926:FFDD=0)
     = FFDF			data_398e	equ	0FFDFh			;*(2926:FFDF=0)
     = FFFF			data_399e	equ	0FFFFh			;*(2926:FFFF)

				;------------------------------------------------------------  seg_a   ----

				seg_a		segment	byte public
						assume cs:seg_a  , ds:seg_a


				;ŰŰŰŰŰŰŰŰŰŰŰŰŰŰŰŰŰŰŰŰŰŰŰŰŰŰŰŰŰŰŰŰŰŰŰŰŰŰŰŰŰŰŰŰŰŰŰŰŰŰŰŰŰŰŰŰŰŰŰŰŰŰŰŰŰŰŰŰŰŰŰŰŰŰ
				;
				;                       Program	Entry Point
				;
				;ŰŰŰŰŰŰŰŰŰŰŰŰŰŰŰŰŰŰŰŰŰŰŰŰŰŰŰŰŰŰŰŰŰŰŰŰŰŰŰŰŰŰŰŰŰŰŰŰŰŰŰŰŰŰŰŰŰŰŰŰŰŰŰŰŰŰŰŰŰŰŰŰŰŰ


				ICON		proc	far

2926:0000			start:
2926:0000  E8 6528		;*		call	sub_121			; (652B)
2926:0000  E8 28 65				db	0E8h, 28h, 65h
2926:0003  0C80			data_51		dw	0C80h
2926:0005  08B0			data_53		dw	8B0h
2926:0007  0090			data_54		dw	90h
           ICON.LST				Sourcer	v8.01  20-Jul-2026 12:15 am   Page 3

2926:0009  0000			data_55		dw	0
2926:000B  00 00 00 00 00			db	0, 0, 0, 0, 0
2926:0010  00			data_57		db	0
2926:0011  0009[00]				db	9 dup (0)
2926:001A  00			data_58		db	0
2926:001B  00			data_59		db	0
2926:001C  00					db	0
2926:001D  00			data_60		db	0
2926:001E  0022[00]				db	34 dup (0)
2926:0040  00			data_61		db	0			; Data table (indexed access)
2926:0041  000B[00]				db	11 dup (0)
2926:004C  00			data_62		db	0			; Data table (indexed access)
2926:004D  00 00 00 00				db	0, 0, 0, 0
2926:0051  00			data_63		db	0			; Data table (indexed access)
2926:0052  001A[00]				db	26 dup (0)
2926:006C  0000			data_64		dw	0
2926:006E  000F[00]				db	15 dup (0)
2926:007D  00			data_65		db	0
2926:007E  00 00				db	0, 0
2926:0080  0010[90]				db	16 dup (90h)
2926:0090  E9 F2 17 E9 3F 00			db	0E9h,0F2h, 17h,0E9h, 3Fh, 00h

				ICON		endp

				;ßßßßßßßßßßßßßßßßßßßßßßßßßßßßßßßßßßßßßßßßßßßßßßßßßßßßßßßßßßßßßßßßßßßßßßßßßß
				;                              SUBROUTINE
				;ÜÜÜÜÜÜÜÜÜÜÜÜÜÜÜÜÜÜÜÜÜÜÜÜÜÜÜÜÜÜÜÜÜÜÜÜÜÜÜÜÜÜÜÜÜÜÜÜÜÜÜÜÜÜÜÜÜÜÜÜÜÜÜÜÜÜÜÜÜÜÜÜÜÜ

2926:0096			sub_2		proc	near
2926:0096  E9 0081				jmp	loc_5			; (011A)
2926:0099  E9 00AD				jmp	loc_7			; (0149)

				;ßßßß External Entry into Subroutine ßßßßßßßßßßßßßßßßßßßßßßßßßßßßßßßßßßßßßß

2926:009C			sub_3:
2926:009C  E9 00D0				jmp	loc_10			; (016F)

				;ßßßß External Entry into Subroutine ßßßßßßßßßßßßßßßßßßßßßßßßßßßßßßßßßßßßßß

2926:009F			sub_4:
2926:009F  E9 010B				jmp	loc_14			; (01AD)

				;ßßßß External Entry into Subroutine ßßßßßßßßßßßßßßßßßßßßßßßßßßßßßßßßßßßßßß

2926:00A2			sub_5:
2926:00A2  E9 012D				jmp	loc_18			; (01D2)

				;ßßßß External Entry into Subroutine ßßßßßßßßßßßßßßßßßßßßßßßßßßßßßßßßßßßßßß

2926:00A5			sub_6:
2926:00A5  E9 0210				jmp	loc_19			; (02B8)

				;ßßßß External Entry into Subroutine ßßßßßßßßßßßßßßßßßßßßßßßßßßßßßßßßßßßßßß

2926:00A8			sub_7:
2926:00A8  E9 07E7				jmp	loc_51			; (0892)

           ICON.LST				Sourcer	v8.01  20-Jul-2026 12:15 am   Page 4

				;ßßßß External Entry into Subroutine ßßßßßßßßßßßßßßßßßßßßßßßßßßßßßßßßßßßßßß

2926:00AB			sub_8:
2926:00AB  E9 0284				jmp	loc_20			; (0332)

				;ßßßß External Entry into Subroutine ßßßßßßßßßßßßßßßßßßßßßßßßßßßßßßßßßßßßßß

2926:00AE			sub_9:
2926:00AE  E9 040A				jmp	loc_34			; (04BB)

				;ßßßß External Entry into Subroutine ßßßßßßßßßßßßßßßßßßßßßßßßßßßßßßßßßßßßßß

2926:00B1			sub_10:
2926:00B1  E9 0A80				jmp	loc_64			; (0B34)

				;ßßßß External Entry into Subroutine ßßßßßßßßßßßßßßßßßßßßßßßßßßßßßßßßßßßßßß

2926:00B4			sub_11:
2926:00B4  E9 0AF8				jmp	loc_71			; (0BAF)

				;ßßßß External Entry into Subroutine ßßßßßßßßßßßßßßßßßßßßßßßßßßßßßßßßßßßßßß

2926:00B7			sub_12:
2926:00B7  E9 0B4B				jmp	loc_72			; (0C05)
2926:00BA  E9 0ECC				jmp	loc_95			; (0F89)

				;ßßßß External Entry into Subroutine ßßßßßßßßßßßßßßßßßßßßßßßßßßßßßßßßßßßßßß

2926:00BD			sub_13:
2926:00BD  E9 0FA4				jmp	loc_105			; (1064)

				;ßßßß External Entry into Subroutine ßßßßßßßßßßßßßßßßßßßßßßßßßßßßßßßßßßßßßß

2926:00C0			sub_14:
2926:00C0  E9 1198				jmp	loc_126			; (125B) Register jump

				;ßßßß External Entry into Subroutine ßßßßßßßßßßßßßßßßßßßßßßßßßßßßßßßßßßßßßß

2926:00C3			sub_15:
2926:00C3  E9 1347				jmp	loc_150			; (140D)

				;ßßßß External Entry into Subroutine ßßßßßßßßßßßßßßßßßßßßßßßßßßßßßßßßßßßßßß

2926:00C6			sub_16:
2926:00C6  E9 139E				jmp	loc_154			; (1467)

				;ßßßß External Entry into Subroutine ßßßßßßßßßßßßßßßßßßßßßßßßßßßßßßßßßßßßßß

2926:00C9			sub_17:
2926:00C9  E9 1590				jmp	loc_169			; (165C)

				;ßßßß External Entry into Subroutine ßßßßßßßßßßßßßßßßßßßßßßßßßßßßßßßßßßßßßß

2926:00CC			sub_18:
2926:00CC  E9 160B				jmp	loc_172			; (16DA)

				;ßßßß External Entry into Subroutine ßßßßßßßßßßßßßßßßßßßßßßßßßßßßßßßßßßßßßß
           ICON.LST				Sourcer	v8.01  20-Jul-2026 12:15 am   Page 5


2926:00CF			sub_19:
2926:00CF  E9 1628				jmp	loc_173			; (16FA)

				;ßßßß External Entry into Subroutine ßßßßßßßßßßßßßßßßßßßßßßßßßßßßßßßßßßßßßß

2926:00D2			sub_20:
2926:00D2  E9 16DF				jmp	loc_174			; (17B4)
2926:00D5			loc_2:
2926:00D5  55					push	bp
2926:00D6  8B EC				mov	bp,sp
2926:00D8  55					push	bp
2926:00D9  81 EC 0002				sub	sp,2
2926:00DD  F6 46 06 01				test	byte ptr [bp+6],1
2926:00E1  75 03				jnz	loc_3			; Jump if not zero
2926:00E3  E9 002E				jmp	loc_4			; (0114)
2926:00E6			loc_3:
2926:00E6  E8 7FC8				call	sub_177			; (80B1)
2926:00E9  0E E8 0012				callf	sub_21			; (00FF)
2926:00ED  11 50 61				adc	[bx+si+61h],dx
2926:00F0  73 63				jnc	loc_8			; Jump if carry=0
2926:00F2  61 6C 20 4D 54 2B			db	'al MT+ Error '
2926:00F8  20 45 72 72 6F 72
2926:00FE  20

				;ßßßß External Entry into Subroutine ßßßßßßßßßßßßßßßßßßßßßßßßßßßßßßßßßßßßßß

2926:00FF			sub_21:
2926:00FF  E8 7FB5				call	sub_179			; (80B7)
2926:0102  8B 46 04				mov	ax,[bp+4]
2926:0105  05 0030				add	ax,30h
2926:0108  50					push	ax
2926:0109  E8 7FA8				call	sub_178			; (80B4)
2926:010C  E8 7F9F				call	sub_176			; (80AE)
2926:010F  53			data_69		db	53h
2926:0110  50 E8 91 FF				db	 50h,0E8h, 91h,0FFh
2926:0114			loc_4:
2926:0114  8B E5				mov	sp,bp
2926:0116  5D					pop	bp
2926:0117  C2 0004				retn	4
2926:011A			loc_5:
2926:011A  55					push	bp
2926:011B  8B EC				mov	bp,sp
2926:011D  55					push	bp
2926:011E  81 EC 0002				sub	sp,2
2926:0122  04A1			data_71		dw	4A1h
2926:0124  5029			data_72		dw	5029h
2926:0126  468B			data_73		dw	468Bh
2926:0128  04 93 B8 0F 00 23			db	 04h, 93h,0B8h, 0Fh, 00h, 23h
2926:012E  C3 50 A1 04 29 93			db	0C3h, 50h,0A1h, 04h, 29h, 93h
2926:0134  B8 07 00 23 C3 50			db	0B8h, 07h, 00h, 23h,0C3h, 50h
2926:013A  E8 70 81 5B 03 C3			db	0E8h, 70h, 81h, 5Bh, 03h,0C3h
2926:0140  A3 04 29 8B E5 5D			db	0A3h, 04h, 29h, 8Bh,0E5h, 5Dh
2926:0146  C2 02 00				db	0C2h, 02h, 00h
2926:0149			loc_7:
2926:0149  55					push	bp
2926:014A  8B EC				mov	bp,sp
           ICON.LST				Sourcer	v8.01  20-Jul-2026 12:15 am   Page 6

2926:014C  55					push	bp
2926:014D  81 EC 0002				sub	sp,2
2926:0151  C4 3E 206C				les	di,dword ptr ds:[206Ch]	; (2916:206C=260Eh) Load seg:offset pt
2926:0155			loc_8:
2926:0155  06					push	es
2926:0156  57					push	di
2926:0157  58					pop	ax
2926:0158  05 0000				add	ax,0
2926:015B  05 0000				add	ax,0
2926:015E  50					push	ax
2926:015F  B8 0FA0				mov	ax,0FA0h
2926:0162  50					push	ax
2926:0163  FF 76 04				push	word ptr [bp+4]
2926:0166  E8 1BD9				call	sub_70			; (1D42)
2926:0169  8B E5				mov	sp,bp
2926:016B  5D					pop	bp
2926:016C  C2 0002				retn	2
2926:016F			loc_10:
2926:016F  55					push	bp
2926:0170  8B EC				mov	bp,sp
2926:0172  55					push	bp
2926:0173  81 EC 0006				sub	sp,6
2926:0177  C7 46 FC 0000			mov	word ptr [bp-4],0
2926:017C  C7 46 FA 0082			mov	word ptr [bp-6],82h
2926:0181			loc_11:
2926:0181  FF 46 FC				inc	word ptr [bp-4]
2926:0184  FF 4E FA				dec	word ptr [bp-6]
2926:0187  7D 03				jge	loc_12			; Jump if > or =
2926:0189  E9 001D				jmp	loc_13			; (01A9)
2926:018C			loc_12:
2926:018C  1E					push	ds
2926:018D  B8 5A9C				mov	ax,5A9Ch
2926:0190  50					push	ax
2926:0191  8B 46 FC				mov	ax,[bp-4]
2926:0194  48					dec	ax
2926:0195  BB 0006				mov	bx,6
2926:0198  F7 E3				mul	bx			; dx:ax = reg * ax
2926:019A  5B					pop	bx
2926:019B  03 C3				add	ax,bx
2926:019D  05 0004				add	ax,4
2926:01A0  97					xchg	di,ax
2926:01A1  07					pop	es
2926:01A2  26: C7 05 FFFF			mov	word ptr es:[di],0FFFFh
2926:01A7  EB D8				jmp	short loc_11		; (0181)
2926:01A9			loc_13:
2926:01A9  8B E5				mov	sp,bp
2926:01AB  5D					pop	bp
2926:01AC  C3					retn
2926:01AD			loc_14:
2926:01AD  55					push	bp
2926:01AE  8B EC				mov	bp,sp
2926:01B0  55					push	bp
2926:01B1  81 EC 0002				sub	sp,2
2926:01B5			loc_15:
2926:01B5  A1 8272				mov	ax,word ptr ds:[8272h]	; (2916:8272=0B800h)
2926:01B8  50					push	ax
2926:01B9  8B 46 04				mov	ax,[bp+4]
           ICON.LST				Sourcer	v8.01  20-Jul-2026 12:15 am   Page 7

2926:01BC  5B					pop	bx
2926:01BD  3B D8				cmp	bx,ax
2926:01BF  7C 03				jl	loc_16			; Jump if <
2926:01C1  E9 0002				jmp	loc_17			; (01C6)
2926:01C4			loc_16:
2926:01C4  EB EF				jmp	short loc_15		; (01B5)
2926:01C6			loc_17:
2926:01C6  C7 06 8272 0000			mov	word ptr ds:[8272h],0	; (2916:8272=0B800h)
2926:01CC  8B E5				mov	sp,bp
2926:01CE  5D					pop	bp
2926:01CF  C2 0002				retn	2
2926:01D2			loc_18:
2926:01D2  55					push	bp
2926:01D3  8B EC				mov	bp,sp
2926:01D5  55					push	bp
2926:01D6  81 EC 0002				sub	sp,2
2926:01DA  E8 1D3D				call	sub_74			; (1F1A)
2926:01DD  1E					push	ds
2926:01DE  24B8			data_74		dw	24B8h			; Data table (indexed access)
2926:01E0  2B 50 B8 80 00 50			db	 2Bh, 50h,0B8h, 80h, 00h, 50h
2926:01E6  1E B8 22 5E 50 E8			db	 1Eh,0B8h, 22h, 5Eh, 50h,0E8h
2926:01EC  3F 66 1E B8 FD 82			db	 3Fh, 66h, 1Eh,0B8h,0FDh, 82h
2926:01F2  50 E8 86 67 E8 CF			db	 50h,0E8h, 86h, 67h,0E8h,0CFh
2926:01F8  75 1E B8 FD 82 50			db	 75h, 1Eh,0B8h,0FDh, 82h, 50h
2926:01FE  E8					db	0E8h
2926:01FF  7B					db	7Bh
2926:0200  0E67 42E8		data_75		dw	0E67h, 42E8h		; Data table (indexed access)
2926:0204  00					db	0
2926:0205  41 47 61 6D 65 20	data_76		db	'AGame save file is corrupt - ple'
2926:020B  73 61 76 65 20 66
2926:0211  69 6C 65 20 69 73
2926:0217  20 63 6F 72 72 75
2926:021D  70 74 20 2D 20 70
2926:0223  6C 65
2926:0225  61 73 65 20 64 6F			db	'ase do not try to edit game file'
2926:022B  20 6E 6F 74 20 74
2926:0231  72 79 20 74 6F 20
2926:0237  65 64 69 74 20 67
2926:023D  61 6D 65 20 66 69
2926:0243  6C 65
2926:0245  73 2E				db	's.'

				;ßßßß External Entry into Subroutine ßßßßßßßßßßßßßßßßßßßßßßßßßßßßßßßßßßßßßß

2926:0247			sub_22:
2926:0247  B8 FFFF				mov	ax,0FFFFh
2926:024A  50					push	ax
2926:024B  B8 FFFF				mov	ax,0FFFFh
2926:024E  50					push	ax
2926:024F  E8 7CE5				call	sub_171			; (7F37)
2926:0252  E8 7573				call	sub_158			; (77C8)
2926:0255  1E					push	ds
2926:0256  B8 82FD				mov	ax,82FDh
2926:0259  50					push	ax
2926:025A  E8 671F				call	sub_143			; (697C)
2926:025D  0E E8 0042				callf	sub_23			; (02A3)
2926:0261  41 54 68 65 20 66			db	'AThe file has been deleted for y'
           ICON.LST				Sourcer	v8.01  20-Jul-2026 12:15 am   Page 8

2926:0267  69 6C 65 20 68 61
2926:026D  73 20 62 65 65 6E
2926:0273  20 64 65 6C 65 74
2926:0279  65 64 20 66 6F 72
2926:027F  20 79
2926:0281  6F 75 72 20 70 72			db	'our protection; please start ove'
2926:0287  6F 74 65 63 74 69
2926:028D  6F 6E 3B 20 70 6C
2926:0293  65 61 73 65 20 73
2926:0299  74 61 72 74 20 6F
2926:029F  76 65
2926:02A1  72 2E				db	'r.'

				;ßßßß External Entry into Subroutine ßßßßßßßßßßßßßßßßßßßßßßßßßßßßßßßßßßßßßß

2926:02A3			sub_23:
2926:02A3  B8 FFFF				mov	ax,0FFFFh
2926:02A6  50					push	ax
2926:02A7  B8 FFFF				mov	ax,0FFFFh
2926:02AA  50					push	ax
2926:02AB  E8 7C89				call	sub_171			; (7F37)
2926:02AE  E8 7517				call	sub_158			; (77C8)
2926:02B1  E8 809F				call	sub_191			; (8353)
2926:02B4  8B E5				mov	sp,bp
2926:02B6  5D					pop	bp
2926:02B7  C3					retn
2926:02B8			loc_19:
2926:02B8  55					push	bp
2926:02B9  8B EC				mov	bp,sp
2926:02BB  55					push	bp
2926:02BC  81 EC 0076				sub	sp,76h
2926:02C0  16					push	ss
2926:02C1  8D 46 AD				lea	ax,[bp-53h]		; Load effective addr
2926:02C4  50					push	ax
2926:02C5  8B 46 06				mov	ax,[bp+6]
2926:02C8  50					push	ax
2926:02C9  8B 46 04				mov	ax,[bp+4]
2926:02CC  50					push	ax
2926:02CD  B8 0051				mov	ax,51h
2926:02D0  50					push	ax
2926:02D1  E8 633E				call	sub_124			; (6612)
2926:02D4  B8 0000				mov	ax,0
2926:02D7  50					push	ax
2926:02D8  B8 0000				mov	ax,0
2926:02DB  50					push	ax
2926:02DC  E8 56AF				call	sub_108			; (598E)
2926:02DF  E8 1BB9				call	sub_73			; (1E9B)
2926:02E2  E8 1C35				call	sub_74			; (1F1A)
2926:02E5  1E					push	ds
2926:02E6  B8 82FD				mov	ax,82FDh
2926:02E9  50					push	ax
2926:02EA  E8 668F				call	sub_143			; (697C)
2926:02ED  0E E8 0006				callf	sub_24			; (02F7)
2926:02F1  05 5245				add	ax,5245h
2926:02F4  52					push	dx
2926:02F5  4F					dec	di
2926:02F6  52					push	dx
           ICON.LST				Sourcer	v8.01  20-Jul-2026 12:15 am   Page 9


				;ßßßß External Entry into Subroutine ßßßßßßßßßßßßßßßßßßßßßßßßßßßßßßßßßßßßßß

2926:02F7			sub_24:
2926:02F7  B8 FFFF				mov	ax,0FFFFh
2926:02FA  50					push	ax
2926:02FB  B8 FFFF				mov	ax,0FFFFh
2926:02FE  50					push	ax
2926:02FF  E8 7C35				call	sub_171			; (7F37)
2926:0302  E8 74C3				call	sub_158			; (77C8)
2926:0305  16					push	ss
2926:0306  8D 46 AD				lea	ax,[bp-53h]		; Load effective addr
2926:0309  50					push	ax
2926:030A  1E					push	ds
2926:030B  B8 82FD				mov	ax,82FDh
2926:030E  50					push	ax
2926:030F  E8 666A				call	sub_143			; (697C)
2926:0312  B8 FFFF				mov	ax,0FFFFh
2926:0315  50					push	ax
2926:0316  B8 FFFF				mov	ax,0FFFFh
2926:0319  50					push	ax
2926:031A  E8 7C1A				call	sub_171			; (7F37)
2926:031D  E8 74A8				call	sub_158			; (77C8)
2926:0320  E8 1A37				call	sub_71			; (1D5A)
2926:0323  E8 54F5				call	sub_103			; (581B)
2926:0326  89 46 AA				mov	[bp-56h],ax
2926:0329  E8 8027				call	sub_191			; (8353)
2926:032C  8B E5				mov	sp,bp
2926:032E  5D					pop	bp
2926:032F  C2 0004				retn	4
2926:0332			loc_20:
2926:0332  55					push	bp
2926:0333  8B C4				mov	ax,sp
2926:0335  FF 76 FE				push	word ptr [bp-2]
2926:0338  8B E8				mov	bp,ax
2926:033A  55					push	bp
2926:033B  81 EC 0014				sub	sp,14h
2926:033F  C7 46 FA 0000			mov	word ptr [bp-6],0
2926:0344  C7 46 F4 0001			mov	word ptr [bp-0Ch],1
2926:0349			loc_21:
2926:0349  81 7E F4 0004			cmp	word ptr [bp-0Ch],4
2926:034E  7C 03				jl	loc_22			; Jump if <
2926:0350  E9 0039				jmp	loc_25			; (038C)
2926:0353			loc_22:
2926:0353  1E					push	ds
2926:0354  B8 5A9C				mov	ax,5A9Ch
2926:0357  50					push	ax
2926:0358  8B 46 F4				mov	ax,[bp-0Ch]
2926:035B  48					dec	ax
2926:035C  93					xchg	bx,ax
2926:035D  B8 0004				mov	ax,4
2926:0360  F7 EB				imul	bx			; dx:ax = reg * ax
2926:0362  40					inc	ax
2926:0363  40					inc	ax
2926:0364  48					dec	ax
2926:0365  BB 0006				mov	bx,6
2926:0368  F7 E3				mul	bx			; dx:ax = reg * ax
           ICON.LST				Sourcer	v8.01  20-Jul-2026 12:15 am   Page 10

2926:036A  5B					pop	bx
2926:036B  03 C3				add	ax,bx
2926:036D  05 0004				add	ax,4
2926:0370  97					xchg	di,ax
2926:0371  07					pop	es
2926:0372  26: 8B 05				mov	ax,es:[di]
2926:0375  3D FFFF				cmp	ax,0FFFFh
2926:0378  74 03				je	loc_23			; Jump if equal
2926:037A  E9 0006				jmp	loc_24			; (0383)
2926:037D			loc_23:
2926:037D  8B 46 F4				mov	ax,[bp-0Ch]
2926:0380  89 46 FA				mov	[bp-6],ax
2926:0383			loc_24:
2926:0383  8B 46 F4				mov	ax,[bp-0Ch]
2926:0386  40					inc	ax
2926:0387  89 46 F4				mov	[bp-0Ch],ax
2926:038A  EB BD				jmp	short loc_21		; (0349)
2926:038C			loc_25:
2926:038C  81 7E FA 0000			cmp	word ptr [bp-6],0
2926:0391  75 03				jne	loc_26			; Jump if not equal
2926:0393  E9 011F				jmp	loc_33			; (04B5)
2926:0396			loc_26:
2926:0396  8B 5E FE				mov	bx,[bp-2]
2926:0399  16					push	ss
2926:039A  8D 87 FFE6				lea	ax,cs:[0FFE6h][bx]	; Load effective addr
2926:039E  50					push	ax
2926:039F  8B 46 FA				mov	ax,[bp-6]
2926:03A2  48					dec	ax
2926:03A3  BB 0006				mov	bx,6
2926:03A6  F7 E3				mul	bx			; dx:ax = reg * ax
2926:03A8  5B					pop	bx
2926:03A9  03 C3				add	ax,bx
2926:03AB  89 46 F0				mov	[bp-10h],ax
2926:03AE  58					pop	ax
2926:03AF  89 46 F2				mov	[bp-0Eh],ax
2926:03B2  C4 7E F0				les	di,dword ptr [bp-10h]	; Load seg:offset ptr
2926:03B5  83 C7 04				add	di,4
2926:03B8  06					push	es
2926:03B9  57					push	di
2926:03BA  E8 25F2				call	sub_90			; (29AF)
2926:03BD  93					xchg	bx,ax
2926:03BE  B8 03E8				mov	ax,3E8h
2926:03C1  93					xchg	bx,ax
2926:03C2  99					cwd				; Word to double word
2926:03C3  F7 FB				idiv	bx			; ax,dx rem=dx:ax/reg
2926:03C5  5F					pop	di
2926:03C6  07					pop	es
2926:03C7  26: 89 05				mov	es:[di],ax
2926:03CA  E8 25E2				call	sub_90			; (29AF)
2926:03CD  3D 1388				cmp	ax,1388h
2926:03D0  7C 03				jl	loc_27			; Jump if <
2926:03D2  E9 0018				jmp	loc_28			; (03ED)
2926:03D5			loc_27:
2926:03D5  C4 7E F0				les	di,dword ptr [bp-10h]	; Load seg:offset ptr
2926:03D8  83 C7 04				add	di,4
2926:03DB  06					push	es
2926:03DC  57					push	di
           ICON.LST				Sourcer	v8.01  20-Jul-2026 12:15 am   Page 11

2926:03DD  C4 7E F0				les	di,dword ptr [bp-10h]	; Load seg:offset ptr
2926:03E0  83 C7 04				add	di,4
2926:03E3  26: 8B 05				mov	ax,es:[di]
2926:03E6  F7 D8				neg	ax
2926:03E8  5F					pop	di
2926:03E9  07					pop	es
2926:03EA  26: 89 05				mov	es:[di],ax
2926:03ED			loc_28:
2926:03ED  C4 7E F0				les	di,dword ptr [bp-10h]	; Load seg:offset ptr
2926:03F0  83 C7 02				add	di,2
2926:03F3  26: C7 05 0001			mov	word ptr es:[di],1
2926:03F8  E8 25B4				call	sub_90			; (29AF)
2926:03FB  3D 1388				cmp	ax,1388h
2926:03FE  7C 03				jl	loc_29			; Jump if <
2926:0400  E9 0018				jmp	loc_30			; (041B)
2926:0403			loc_29:
2926:0403  C4 7E F0				les	di,dword ptr [bp-10h]	; Load seg:offset ptr
2926:0406  83 C7 02				add	di,2
2926:0409  06					push	es
2926:040A  57					push	di
2926:040B  C4 7E F0				les	di,dword ptr [bp-10h]	; Load seg:offset ptr
2926:040E  83 C7 02				add	di,2
2926:0411  26: 8B 05				mov	ax,es:[di]
2926:0414  F7 D8				neg	ax
2926:0416  5F					pop	di
2926:0417  07					pop	es
2926:0418  26: 89 05				mov	es:[di],ax
2926:041B			loc_30:
2926:041B  C4 7E F0				les	di,dword ptr [bp-10h]	; Load seg:offset ptr
2926:041E  90					nop
2926:041F  90					nop
2926:0420  8B 46 04				mov	ax,[bp+4]
2926:0423  26: 89 05				mov	es:[di],ax
2926:0426  E8 2586				call	sub_90			; (29AF)
2926:0429  93					xchg	bx,ax
2926:042A  B8 07D0				mov	ax,7D0h
2926:042D  93					xchg	bx,ax
2926:042E  99					cwd				; Word to double word
2926:042F  F7 FB				idiv	bx			; ax,dx rem=dx:ax/reg
2926:0431  50					push	ax
2926:0432  8B 5E FE				mov	bx,[bp-2]
2926:0435  36: 8B 87 FFDD			mov	ax,ss:data_397e[bx]	; (2926:FFDD=0)
2926:043A  5B					pop	bx
2926:043B  03 C3				add	ax,bx
2926:043D  89 46 F6				mov	[bp-0Ah],ax
2926:0440  B8 0001				mov	ax,1
2926:0443  50					push	ax
2926:0444  E8 FC58				call	sub_4			; (009F)
2926:0447  E8 5547				call	sub_109			; (5991)
2926:044A  8B 46 FA				mov	ax,[bp-6]
2926:044D  48					dec	ax
2926:044E  50					push	ax
2926:044F  B8 0002				mov	ax,2
2926:0452  50					push	ax
2926:0453  E8 7E57				call	sub_186			; (82AD)
2926:0456  05 0006				add	ax,6
2926:0459  89 46 F8				mov	[bp-8],ax
           ICON.LST				Sourcer	v8.01  20-Jul-2026 12:15 am   Page 12

2926:045C  8B 46 F8				mov	ax,[bp-8]
2926:045F  2D 0004				sub	ax,4
2926:0462  89 46 F4				mov	[bp-0Ch],ax
2926:0465			loc_31:
2926:0465  8B 46 F4				mov	ax,[bp-0Ch]
2926:0468  93					xchg	bx,ax
2926:0469  8B 46 F8				mov	ax,[bp-8]
2926:046C  3B D8				cmp	bx,ax
2926:046E  7C 03				jl	loc_32			; Jump if <
2926:0470  E9 0042				jmp	loc_33			; (04B5)
2926:0473			loc_32:
2926:0473  1E					push	ds
2926:0474  B8 5A9C				mov	ax,5A9Ch
2926:0477  50					push	ax
2926:0478  8B 46 F4				mov	ax,[bp-0Ch]
2926:047B  48					dec	ax
2926:047C  BB 0006				mov	bx,6
2926:047F  F7 E3				mul	bx			; dx:ax = reg * ax
2926:0481  5B					pop	bx
2926:0482  03 C3				add	ax,bx
2926:0484  89 46 EC				mov	[bp-14h],ax
2926:0487  58					pop	ax
2926:0488  89 46 EE				mov	[bp-12h],ax
2926:048B  C4 7E EC				les	di,dword ptr [bp-14h]	; Load seg:offset ptr
2926:048E  83 C7 04				add	di,4
2926:0491  90					nop
2926:0492  90					nop
2926:0493  8B 46 F6				mov	ax,[bp-0Ah]
2926:0496  26: 89 05				mov	es:[di],ax
2926:0499  C4 7E EC				les	di,dword ptr [bp-14h]	; Load seg:offset ptr
2926:049C  26: C7 05 0024			mov	word ptr es:[di],24h
2926:04A1  C4 7E EC				les	di,dword ptr [bp-14h]	; Load seg:offset ptr
2926:04A4  83 C7 02				add	di,2
2926:04A7  26: C7 05 002E			mov	word ptr es:[di],2Eh
2926:04AC  8B 46 F4				mov	ax,[bp-0Ch]
2926:04AF  40					inc	ax
2926:04B0  89 46 F4				mov	[bp-0Ch],ax
2926:04B3  EB B0				jmp	short loc_31		; (0465)
2926:04B5			loc_33:
2926:04B5  8B E5				mov	sp,bp
2926:04B7  5D					pop	bp
2926:04B8  C2 0002				retn	2
				sub_2		endp

2926:04BB			loc_34:
2926:04BB  55					push	bp
2926:04BC  8B C4				mov	ax,sp
2926:04BE  FF 76 FE				push	word ptr [bp-2]
2926:04C1  8B E8				mov	bp,ax
2926:04C3  55					push	bp
2926:04C4  81 EC 0016				sub	sp,16h
2926:04C8  C7 46 F8 0000			mov	word ptr [bp-8],0
2926:04CD  C7 46 F4 0003			mov	word ptr [bp-0Ch],3
2926:04D2			loc_35:
2926:04D2  FF 46 F8				inc	word ptr [bp-8]
2926:04D5  FF 4E F4				dec	word ptr [bp-0Ch]
2926:04D8  7D 03				jge	loc_36			; Jump if > or =
           ICON.LST				Sourcer	v8.01  20-Jul-2026 12:15 am   Page 13

2926:04DA  E9 03AC				jmp	loc_50			; (0889)
2926:04DD			loc_36:
2926:04DD  8B 46 F8				mov	ax,[bp-8]
2926:04E0  48					dec	ax
2926:04E1  93					xchg	bx,ax
2926:04E2  B8 0004				mov	ax,4
2926:04E5  F7 EB				imul	bx			; dx:ax = reg * ax
2926:04E7  40					inc	ax
2926:04E8  40					inc	ax
2926:04E9  89 46 FA				mov	[bp-6],ax
2926:04EC  8B 5E FE				mov	bx,[bp-2]
2926:04EF  16					push	ss
2926:04F0  8D 87 FFE6				lea	ax,cs:[0FFE6h][bx]	; Load effective addr
2926:04F4  50					push	ax
2926:04F5  8B 46 F8				mov	ax,[bp-8]
2926:04F8  48					dec	ax
2926:04F9  BB 0006				mov	bx,6
2926:04FC  F7 E3				mul	bx			; dx:ax = reg * ax
2926:04FE  5B					pop	bx
2926:04FF  03 C3				add	ax,bx
2926:0501  89			data_83		db	89h
2926:0502  46 F0 58 89 46 F2			db	 46h,0F0h, 58h, 89h, 46h,0F2h
2926:0508  1E B8				db	 1Eh,0B8h
2926:050A  9C			data_84		db	9Ch			; Data table (indexed access)
2926:050B  5A 50				db	 5Ah, 50h
2926:050D  468B			data_85		dw	468Bh
2926:050F  FA 48 BB 06 00 F7			db	0FAh, 48h,0BBh, 06h, 00h,0F7h
2926:0515  E3 5B 03 C3 97 07			db	0E3h, 5Bh, 03h,0C3h, 97h, 07h
2926:051B  26 8B 05 3D 50 00			db	 26h, 8Bh, 05h, 3Dh, 50h, 00h
2926:0521  B8 00 00 7C 01			db	0B8h, 00h, 00h, 7Ch, 01h
2926:0526  40					db	40h
2926:0527			loc_37:
2926:0527  50					push	ax
2926:0528  1E					push	ds
2926:0529  B8 5A9C				mov	ax,5A9Ch
2926:052C  50					push	ax
2926:052D  8B 46 FA				mov	ax,[bp-6]
2926:0530  48					dec	ax
2926:0531  BB 0006				mov	bx,6
2926:0534  F7 E3				mul	bx			; dx:ax = reg * ax
2926:0536  5B					pop	bx
2926:0537  03 C3				add	ax,bx
2926:0539  97					xchg	di,ax
2926:053A  07					pop	es
2926:053B  26: 8B 05				mov	ax,es:[di]
2926:053E  3D 0000				cmp	ax,0
2926:0541  B8 0000				mov	ax,0
2926:0544  7F 01				jg	loc_38			; Jump if >
2926:0546  40					inc	ax
2926:0547			loc_38:
2926:0547  5B					pop	bx
2926:0548  0B C3				or	ax,bx
2926:054A  50					push	ax
2926:054B  1E					push	ds
2926:054C  B8 5A9C				mov	ax,5A9Ch
2926:054F  50					push	ax
2926:0550  8B 46 FA				mov	ax,[bp-6]
           ICON.LST				Sourcer	v8.01  20-Jul-2026 12:15 am   Page 14

2926:0553  48					dec	ax
2926:0554  BB 0006				mov	bx,6
2926:0557  F7 E3				mul	bx			; dx:ax = reg * ax
2926:0559  5B					pop	bx
2926:055A  03 C3				add	ax,bx
2926:055C  40					inc	ax
2926:055D  40					inc	ax
2926:055E  97					xchg	di,ax
2926:055F  07					pop	es
2926:0560  26: 8B 05				mov	ax,es:[di]
2926:0563  3D 0063				cmp	ax,63h
2926:0566  B8 0000				mov	ax,0
2926:0569  7C 01				jl	loc_39			; Jump if <
2926:056B  40					inc	ax
2926:056C			loc_39:
2926:056C  5B					pop	bx
2926:056D  0B C3				or	ax,bx
2926:056F  50					push	ax
2926:0570  1E					push	ds
2926:0571  B8 5A9C				mov	ax,5A9Ch
2926:0574  50					push	ax
2926:0575  8B 46 FA				mov	ax,[bp-6]
2926:0578  48					dec	ax
2926:0579  BB 0006				mov	bx,6
2926:057C  F7 E3				mul	bx			; dx:ax = reg * ax
2926:057E  5B					pop	bx
2926:057F  03 C3				add	ax,bx
2926:0581  40					inc	ax
2926:0582  40					inc	ax
2926:0583  97					xchg	di,ax
2926:0584  07					pop	es
2926:0585  26: 8B 05				mov	ax,es:[di]
2926:0588  3D 0000				cmp	ax,0
2926:058B  B8 0000				mov	ax,0
2926:058E  7F 01				jg	loc_40			; Jump if >
2926:0590  40					inc	ax
2926:0591			loc_40:
2926:0591  5B					pop	bx
2926:0592  0B C3				or	ax,bx
2926:0594  50					push	ax
2926:0595  8B 46 04				mov	ax,[bp+4]
2926:0598  50					push	ax
2926:0599  C4 7E F0				les	di,dword ptr [bp-10h]	; Load seg:offset ptr
2926:059C  26: 8B 05				mov	ax,es:[di]
2926:059F  5B					pop	bx
2926:05A0  23 C3				and	ax,bx
2926:05A2  50					push	ax
2926:05A3  8B 46 04				mov	ax,[bp+4]
2926:05A6  F7 D0				not	ax
2926:05A8  50					push	ax
2926:05A9  C4 7E F0				les	di,dword ptr [bp-10h]	; Load seg:offset ptr
2926:05AC  26: 8B 05				mov	ax,es:[di]
2926:05AF  F7 D0				not	ax
2926:05B1  5B					pop	bx
2926:05B2  23 C3				and	ax,bx
2926:05B4  5B					pop	bx
2926:05B5  0B C3				or	ax,bx
           ICON.LST				Sourcer	v8.01  20-Jul-2026 12:15 am   Page 15

2926:05B7  5B					pop	bx
2926:05B8  23 C3				and	ax,bx
2926:05BA  D0 D8				rcr	al,1			; Rotate thru carry
2926:05BC  72 03				jc	loc_41			; Jump if carry Set
2926:05BE  E9 00BC				jmp	loc_48			; (067D)
2926:05C1			loc_41:
2926:05C1  1E					push	ds
2926:05C2  B8 5A9C				mov	ax,5A9Ch
2926:05C5  50					push	ax
2926:05C6  8B 46 FA				mov	ax,[bp-6]
2926:05C9  48					dec	ax
2926:05CA  BB 0006				mov	bx,6
2926:05CD  F7 E3				mul	bx			; dx:ax = reg * ax
2926:05CF  5B					pop	bx
2926:05D0  03 C3				add	ax,bx
2926:05D2  05 0004				add	ax,4
2926:05D5  97					xchg	di,ax
2926:05D6  07					pop	es
2926:05D7  26: 8B 05				mov	ax,es:[di]
2926:05DA  50					push	ax
2926:05DB  8B 5E FE				mov	bx,[bp-2]
2926:05DE  36: 8B 87 FFDF			mov	ax,ss:data_398e[bx]	; (2926:FFDF=0)
2926:05E3  5B					pop	bx
2926:05E4  3B D8				cmp	bx,ax
2926:05E6  75 03				jne	loc_42			; Jump if not equal
2926:05E8  E9 0074				jmp	loc_46			; (065F)
2926:05EB			loc_42:
2926:05EB  C4 7E F0				les	di,dword ptr [bp-10h]	; Load seg:offset ptr
2926:05EE  90					nop
2926:05EF  90					nop
2926:05F0  8B 46 04				mov	ax,[bp+4]
2926:05F3  26: 89 05				mov	es:[di],ax
2926:05F6  8B 46 FA				mov	ax,[bp-6]
2926:05F9  50					push	ax
2926:05FA  8B 46 FA				mov	ax,[bp-6]
2926:05FD  05 0003				add	ax,3
2926:0600  5B					pop	bx
2926:0601  93					xchg	bx,ax
2926:0602  89 46 F6				mov	[bp-0Ah],ax
2926:0605  93					xchg	bx,ax
2926:0606  FF 4E F6				dec	word ptr [bp-0Ah]
2926:0609  2B C3				sub	ax,bx
2926:060B  40					inc	ax
2926:060C  89 46 EE				mov	[bp-12h],ax
2926:060F			loc_43:
2926:060F  FF 46 F6				inc	word ptr [bp-0Ah]
2926:0612  FF 4E EE				dec	word ptr [bp-12h]
2926:0615  7D 03				jge	loc_44			; Jump if > or =
2926:0617  E9 0042				jmp	loc_45			; (065C)
2926:061A			loc_44:
2926:061A  1E					push	ds
2926:061B  B8 5A9C				mov	ax,5A9Ch
2926:061E  50					push	ax
2926:061F  8B 46 F6				mov	ax,[bp-0Ah]
2926:0622  48					dec	ax
2926:0623  BB 0006				mov	bx,6
2926:0626  F7 E3				mul	bx			; dx:ax = reg * ax
           ICON.LST				Sourcer	v8.01  20-Jul-2026 12:15 am   Page 16

2926:0628  5B					pop	bx
2926:0629  03 C3				add	ax,bx
2926:062B  89 46 EA				mov	[bp-16h],ax
2926:062E  58					pop	ax
2926:062F  89 46 EC				mov	[bp-14h],ax
2926:0632  C4 7E EA				les	di,dword ptr [bp-16h]	; Load seg:offset ptr
2926:0635  83 C7 04				add	di,4
2926:0638  06					push	es
2926:0639  57					push	di
2926:063A  8B 5E FE				mov	bx,[bp-2]
2926:063D  36: 8B 87 FFDF			mov	ax,ss:data_398e[bx]	; (2926:FFDF=0)
2926:0642  5F					pop	di
2926:0643  07					pop	es
2926:0644  26: 89 05				mov	es:[di],ax
2926:0647  C4 7E EA				les	di,dword ptr [bp-16h]	; Load seg:offset ptr
2926:064A  26: C7 05 0024			mov	word ptr es:[di],24h
2926:064F  C4 7E EA				les	di,dword ptr [bp-16h]	; Load seg:offset ptr
2926:0652  83 C7 02				add	di,2
2926:0655  26: C7 05 002E			mov	word ptr es:[di],2Eh
2926:065A  EB B3				jmp	short loc_43		; (060F)
2926:065C			loc_45:
2926:065C  E9 001B				jmp	loc_47			; (067A)
2926:065F			loc_46:
2926:065F  1E					push	ds
2926:0660  B8 5A9C				mov	ax,5A9Ch
2926:0663  50					push	ax
2926:0664  8B 46 FA				mov	ax,[bp-6]
2926:0667  48					dec	ax
2926:0668  BB 0006				mov	bx,6
2926:066B  F7 E3				mul	bx			; dx:ax = reg * ax
2926:066D  5B					pop	bx
2926:066E  03 C3				add	ax,bx
2926:0670  05 0004				add	ax,4
2926:0673  97					xchg	di,ax
2926:0674  07					pop	es
2926:0675  26: C7 05 FFFF			mov	word ptr es:[di],0FFFFh
2926:067A			loc_47:
2926:067A  E9 01FF				jmp	loc_49			; (087C)
2926:067D			loc_48:
2926:067D  C4 7E F0				les	di,dword ptr [bp-10h]	; Load seg:offset ptr
2926:0680  83 C7 02				add	di,2
2926:0683  26: 8B 05				mov	ax,es:[di]
2926:0686  50					push	ax
2926:0687  8B 46 04				mov	ax,[bp+4]
2926:068A  50					push	ax
2926:068B  C4 7E F0				les	di,dword ptr [bp-10h]	; Load seg:offset ptr
2926:068E  26: 8B 05				mov	ax,es:[di]
2926:0691  5B					pop	bx
2926:0692  2B D8				sub	bx,ax
2926:0694  93					xchg	bx,ax
2926:0695  5B					pop	bx
2926:0696  F7 EB				imul	bx			; dx:ax = reg * ax
2926:0698  89 46 F6				mov	[bp-0Ah],ax
2926:069B  1E					push	ds
2926:069C  B8 5A9C				mov	ax,5A9Ch
2926:069F  50					push	ax
2926:06A0  8B 46 FA				mov	ax,[bp-6]
           ICON.LST				Sourcer	v8.01  20-Jul-2026 12:15 am   Page 17

2926:06A3  48					dec	ax
2926:06A4  BB 0006				mov	bx,6
2926:06A7  F7 E3				mul	bx			; dx:ax = reg * ax
2926:06A9  5B					pop	bx
2926:06AA  03 C3				add	ax,bx
2926:06AC  50					push	ax
2926:06AD  1E					push	ds
2926:06AE  B8 5A9C				mov	ax,5A9Ch
2926:06B1  50					push	ax
2926:06B2  8B 46 FA				mov	ax,[bp-6]
2926:06B5  48					dec	ax
2926:06B6  BB 0006				mov	bx,6
2926:06B9  F7 E3				mul	bx			; dx:ax = reg * ax
2926:06BB  5B					pop	bx
2926:06BC  03 C3				add	ax,bx
2926:06BE  97					xchg	di,ax
2926:06BF  07					pop	es
2926:06C0  26: 8B 05				mov	ax,es:[di]
2926:06C3  50					push	ax
2926:06C4  8B 46 F6				mov	ax,[bp-0Ah]
2926:06C7  5B					pop	bx
2926:06C8  03 C3				add	ax,bx
2926:06CA  5F					pop	di
2926:06CB  07					pop	es
2926:06CC  26: 89 05				mov	es:[di],ax
2926:06CF  1E					push	ds
2926:06D0  B8 5A9C				mov	ax,5A9Ch
2926:06D3  50					push	ax
2926:06D4  8B 46 FA				mov	ax,[bp-6]
2926:06D7  48					dec	ax
2926:06D8  BB 0006				mov	bx,6
2926:06DB  F7 E3				mul	bx			; dx:ax = reg * ax
2926:06DD  5B					pop	bx
2926:06DE  03 C3				add	ax,bx
2926:06E0  40					inc	ax
2926:06E1  40					inc	ax
2926:06E2  50					push	ax
2926:06E3  1E					push	ds
2926:06E4  B8 5A9C				mov	ax,5A9Ch
2926:06E7  50					push	ax
2926:06E8  8B 46 FA				mov	ax,[bp-6]
2926:06EB  48					dec	ax
2926:06EC  BB 0006				mov	bx,6
2926:06EF  F7 E3				mul	bx			; dx:ax = reg * ax
2926:06F1  5B					pop	bx
2926:06F2  03 C3				add	ax,bx
2926:06F4  40					inc	ax
2926:06F5  40					inc	ax
2926:06F6  97					xchg	di,ax
2926:06F7  07					pop	es
2926:06F8  26: 8B 05				mov	ax,es:[di]
2926:06FB  50					push	ax
2926:06FC  C4 7E F0				les	di,dword ptr [bp-10h]	; Load seg:offset ptr
2926:06FF  83 C7 04				add	di,4
2926:0702  26: 8B 05				mov	ax,es:[di]
2926:0705  5B					pop	bx
2926:0706  03 C3				add	ax,bx
           ICON.LST				Sourcer	v8.01  20-Jul-2026 12:15 am   Page 18

2926:0708  5F					pop	di
2926:0709  07					pop	es
2926:070A  26: 89 05				mov	es:[di],ax
2926:070D  8B 46 FA				mov	ax,[bp-6]
2926:0710  40					inc	ax
2926:0711  89 46 FA				mov	[bp-6],ax
2926:0714  1E					push	ds
2926:0715  B8 5A9C				mov	ax,5A9Ch
2926:0718  50					push	ax
2926:0719  8B 46 FA				mov	ax,[bp-6]
2926:071C  48					dec	ax
2926:071D  BB 0006				mov	bx,6
2926:0720  F7 E3				mul	bx			; dx:ax = reg * ax
2926:0722  5B					pop	bx
2926:0723  03 C3				add	ax,bx
2926:0725  50					push	ax
2926:0726  1E					push	ds
2926:0727  B8 5A9C				mov	ax,5A9Ch
2926:072A  50					push	ax
2926:072B  8B 46 FA				mov	ax,[bp-6]
2926:072E  48					dec	ax
2926:072F  BB 0006				mov	bx,6
2926:0732  F7 E3				mul	bx			; dx:ax = reg * ax
2926:0734  5B					pop	bx
2926:0735  03 C3				add	ax,bx
2926:0737  97					xchg	di,ax
2926:0738  07					pop	es
2926:0739  26: 8B 05				mov	ax,es:[di]
2926:073C  50					push	ax
2926:073D  C4 7E F0				les	di,dword ptr [bp-10h]	; Load seg:offset ptr
2926:0740  83 C7 04				add	di,4
2926:0743  26: 8B 05				mov	ax,es:[di]
2926:0746  5B					pop	bx
2926:0747  2B D8				sub	bx,ax
2926:0749  93					xchg	bx,ax
2926:074A  5F					pop	di
2926:074B  07					pop	es
2926:074C  26: 89 05				mov	es:[di],ax
2926:074F  1E					push	ds
2926:0750  B8 5A9C				mov	ax,5A9Ch
2926:0753  50					push	ax
2926:0754  8B 46 FA				mov	ax,[bp-6]
2926:0757  48					dec	ax
2926:0758  BB 0006				mov	bx,6
2926:075B  F7 E3				mul	bx			; dx:ax = reg * ax
2926:075D  5B					pop	bx
2926:075E  03 C3				add	ax,bx
2926:0760  40					inc	ax
2926:0761  40					inc	ax
2926:0762  50					push	ax
2926:0763  1E					push	ds
2926:0764  B8 5A9C				mov	ax,5A9Ch
2926:0767  50					push	ax
2926:0768  8B 46 FA				mov	ax,[bp-6]
2926:076B  48					dec	ax
2926:076C  BB 0006				mov	bx,6
2926:076F  F7 E3				mul	bx			; dx:ax = reg * ax
           ICON.LST				Sourcer	v8.01  20-Jul-2026 12:15 am   Page 19

2926:0771  5B					pop	bx
2926:0772  03 C3				add	ax,bx
2926:0774  40					inc	ax
2926:0775  40					inc	ax
2926:0776  97					xchg	di,ax
2926:0777  07					pop	es
2926:0778  26: 8B 05				mov	ax,es:[di]
2926:077B  50					push	ax
2926:077C  8B 46 F6				mov	ax,[bp-0Ah]
2926:077F  5B					pop	bx
2926:0780  03 C3				add	ax,bx
2926:0782  5F					pop	di
2926:0783  07					pop	es
2926:0784  26: 89 05				mov	es:[di],ax
2926:0787  8B 46 FA				mov	ax,[bp-6]
2926:078A  40					inc	ax
2926:078B  89 46 FA				mov	[bp-6],ax
2926:078E  1E					push	ds
2926:078F  B8 5A9C				mov	ax,5A9Ch
2926:0792  50					push	ax
2926:0793  8B 46 FA				mov	ax,[bp-6]
2926:0796  48					dec	ax
2926:0797  BB 0006				mov	bx,6
2926:079A  F7 E3				mul	bx			; dx:ax = reg * ax
2926:079C  5B					pop	bx
2926:079D  03 C3				add	ax,bx
2926:079F  50					push	ax
2926:07A0  1E					push	ds
2926:07A1  B8 5A9C				mov	ax,5A9Ch
2926:07A4  50					push	ax
2926:07A5  8B 46 FA				mov	ax,[bp-6]
2926:07A8  48					dec	ax
2926:07A9  BB 0006				mov	bx,6
2926:07AC  F7 E3				mul	bx			; dx:ax = reg * ax
2926:07AE  5B					pop	bx
2926:07AF  03 C3				add	ax,bx
2926:07B1  97					xchg	di,ax
2926:07B2  07					pop	es
2926:07B3  26: 8B 05				mov	ax,es:[di]
2926:07B6  50					push	ax
2926:07B7  8B 46 F6				mov	ax,[bp-0Ah]
2926:07BA  5B					pop	bx
2926:07BB  2B D8				sub	bx,ax
2926:07BD  93					xchg	bx,ax
2926:07BE  5F					pop	di
2926:07BF  07					pop	es
2926:07C0  26: 89 05				mov	es:[di],ax
2926:07C3  1E					push	ds
2926:07C4  B8 5A9C				mov	ax,5A9Ch
2926:07C7  50					push	ax
2926:07C8  8B 46 FA				mov	ax,[bp-6]
2926:07CB  48					dec	ax
2926:07CC  BB 0006				mov	bx,6
2926:07CF  F7 E3				mul	bx			; dx:ax = reg * ax
2926:07D1  5B					pop	bx
2926:07D2  03 C3				add	ax,bx
2926:07D4  40					inc	ax
           ICON.LST				Sourcer	v8.01  20-Jul-2026 12:15 am   Page 20

2926:07D5  40					inc	ax
2926:07D6  50					push	ax
2926:07D7  1E					push	ds
2926:07D8  B8 5A9C				mov	ax,5A9Ch
2926:07DB  50					push	ax
2926:07DC  8B 46 FA				mov	ax,[bp-6]
2926:07DF  48					dec	ax
2926:07E0  BB 0006				mov	bx,6
2926:07E3  F7 E3				mul	bx			; dx:ax = reg * ax
2926:07E5  5B					pop	bx
2926:07E6  03 C3				add	ax,bx
2926:07E8  40					inc	ax
2926:07E9  40					inc	ax
2926:07EA  97					xchg	di,ax
2926:07EB  07					pop	es
2926:07EC  26: 8B 05				mov	ax,es:[di]
2926:07EF  50					push	ax
2926:07F0  C4 7E F0				les	di,dword ptr [bp-10h]	; Load seg:offset ptr
2926:07F3  83 C7 04				add	di,4
2926:07F6  26: 8B 05				mov	ax,es:[di]
2926:07F9  5B					pop	bx
2926:07FA  2B D8				sub	bx,ax
2926:07FC  93					xchg	bx,ax
2926:07FD  5F					pop	di
2926:07FE  07					pop	es
2926:07FF  26: 89		data_87		db	89h
2926:0801  05 8B 46 FA 40 89			db	 05h, 8Bh, 46h,0FAh, 40h, 89h
2926:0807  46					db	 46h
2926:0808  FA			data_88		db	0FAh
2926:0809  1E B8 9C 5A 50			db	 1Eh,0B8h, 9Ch, 5Ah, 50h
2926:080E  468B			data_89		dw	468Bh
2926:0810  FA 48				db	0FAh, 48h
2926:0812  BB			data_90		db	0BBh
2926:0813  06 00 F7 E3 5B 03			db	 06h, 00h,0F7h,0E3h, 5Bh, 03h
2926:0819  C3 50 1E B8 9C 5A			db	0C3h, 50h, 1Eh,0B8h, 9Ch, 5Ah
2926:081F  50 8B 46 FA 48 BB			db	 50h, 8Bh, 46h,0FAh, 48h,0BBh
2926:0825  06 00 F7 E3 5B 03			db	 06h, 00h,0F7h,0E3h, 5Bh, 03h
2926:082B  C3 97 07 26 8B 05			db	0C3h, 97h, 07h, 26h, 8Bh, 05h
2926:0831  50 C4 7E F0 83 C7			db	 50h,0C4h, 7Eh,0F0h, 83h,0C7h
2926:0837  04 26 8B 05 5B 03			db	 04h, 26h, 8Bh, 05h, 5Bh, 03h
2926:083D  C3 5F 07 26 89 05			db	0C3h, 5Fh, 07h, 26h, 89h, 05h
2926:0843  1E B8 9C 5A 50 8B			db	 1Eh,0B8h, 9Ch, 5Ah, 50h, 8Bh
2926:0849  46 FA 48 BB 06 00			db	 46h,0FAh, 48h,0BBh, 06h, 00h
2926:084F  F7 E3 5B 03 C3 40			db	0F7h,0E3h, 5Bh, 03h,0C3h, 40h
2926:0855  40 50 1E B8 9C 5A			db	 40h, 50h, 1Eh,0B8h, 9Ch, 5Ah
2926:085B  50 8B 46 FA 48 BB			db	 50h, 8Bh, 46h,0FAh, 48h,0BBh
2926:0861  06 00 F7 E3 5B 03			db	 06h, 00h,0F7h,0E3h, 5Bh, 03h
2926:0867  C3 40 40 97 07 26			db	0C3h, 40h, 40h, 97h, 07h, 26h
2926:086D  8B 05 50 8B 46 F6			db	 8Bh, 05h, 50h, 8Bh, 46h,0F6h
2926:0873  5B 2B D8 93 5F 07			db	 5Bh, 2Bh,0D8h, 93h, 5Fh, 07h
2926:0879  26 89 05				db	 26h, 89h, 05h
2926:087C			loc_49:
2926:087C  B8 0001				mov	ax,1
2926:087F  50					push	ax
2926:0880  E8 F81C				call	sub_4			; (009F)
2926:0883  E8 510B				call	sub_109			; (5991)
2926:0886  E9 FC49				jmp	loc_35			; (04D2)
           ICON.LST				Sourcer	v8.01  20-Jul-2026 12:15 am   Page 21

2926:0889			loc_50:
2926:0889  E8 586F				call	sub_115			; (60FB)
2926:088C  8B E5				mov	sp,bp
2926:088E  5D					pop	bp
2926:088F  C2 0002				retn	2
2926:0892			loc_51:
2926:0892  55					push	bp
2926:0893  8B EC				mov	bp,sp
2926:0895  55					push	bp
2926:0896  81 EC 0023				sub	sp,23h
2926:089A  C7 06 5A26 000E			mov	data_275,0Eh		; (2926:5A26=0AB8h)
2926:08A0  E8 4F75				call	sub_102			; (5818)
2926:08A3  F7 D0				not	ax
2926:08A5  D0 D8				rcr	al,1			; Rotate thru carry
2926:08A7  72 03				jc	loc_52			; Jump if carry Set
2926:08A9  E9 01A2				jmp	loc_55			; (0A4E)
2926:08AC			loc_52:
2926:08AC  0E E8 000B				callf	sub_25			; (08BB)
2926:08B0  0A 65 74				or	ah,[di+74h]
2926:08B3  68 65 72 65 61			db	 68h, 65h, 72h, 65h, 61h
2926:08B8			loc_53:
2926:08B8  6C 20 31				db	 6Ch, 20h, 31h

				;ßßßßßßßßßßßßßßßßßßßßßßßßßßßßßßßßßßßßßßßßßßßßßßßßßßßßßßßßßßßßßßßßßßßßßßßßßß
				;                              SUBROUTINE
				;ÜÜÜÜÜÜÜÜÜÜÜÜÜÜÜÜÜÜÜÜÜÜÜÜÜÜÜÜÜÜÜÜÜÜÜÜÜÜÜÜÜÜÜÜÜÜÜÜÜÜÜÜÜÜÜÜÜÜÜÜÜÜÜÜÜÜÜÜÜÜÜÜÜÜ

2926:08BB			sub_25		proc	near
2926:08BB  E8 F7F3				call	sub_10			; (00B1)
2926:08BE  89 46 DD				mov	[bp-23h],ax
2926:08C1  0E E8 000A				callf	sub_26			; (08CF)
2926:08C5  09 62 6C				or	[bp+si+6Ch],sp
2926:08C8  61 63 6B 20 6F 75			db	 61h, 63h, 6Bh, 20h, 6Fh, 75h
2926:08CE  74					db	 74h

				;ßßßß External Entry into Subroutine ßßßßßßßßßßßßßßßßßßßßßßßßßßßßßßßßßßßßßß

2926:08CF			sub_26:
2926:08CF  E8 F7DF				call	sub_10			; (00B1)
2926:08D2  89 46 DF				mov	[bp-21h],ax
2926:08D5  E8 F7C4				call	sub_3			; (009C)
2926:08D8  B8 B800				mov	ax,0B800h
2926:08DB  50					push	ax
2926:08DC  B8 0000				mov	ax,0
2926:08DF  50					push	ax
2926:08E0  B8 2000				mov	ax,2000h
2926:08E3  50					push	ax
2926:08E4  B8 0720				mov	ax,720h
2926:08E7  50					push	ax
2926:08E8  E8 1457				call	sub_70			; (1D42)
2926:08EB  B8 0016				mov	ax,16h
2926:08EE  50					push	ax
2926:08EF  B8 000F				mov	ax,0Fh
2926:08F2  50					push	ax
2926:08F3  B8 0002				mov	ax,2
2926:08F6  50					push	ax
2926:08F7  E8 F7D2				call	sub_18			; (00CC)
           ICON.LST				Sourcer	v8.01  20-Jul-2026 12:15 am   Page 22

2926:08FA  B8 0017				mov	ax,17h
2926:08FD  50					push	ax
2926:08FE  B8 0001				mov	ax,1
2926:0901  50					push	ax
2926:0902  B8 000B				mov	ax,0Bh
2926:0905  50					push	ax
2926:0906  E8 F7C3				call	sub_18			; (00CC)
2926:0909  B8 0018				mov	ax,18h
2926:090C  50					push	ax
2926:090D  B8 0002				mov	ax,2
2926:0910  50					push	ax
2926:0911  B8 0003				mov	ax,3
2926:0914  50					push	ax
2926:0915  E8 F7B4				call	sub_18			; (00CC)
2926:0918  B8 001A				mov	ax,1Ah
2926:091B  50					push	ax
2926:091C			loc_54:
2926:091C  B8 0000				mov	ax,0
2926:091F  50					push	ax
2926:0920  B8 0000				mov	ax,0
2926:0923  50					push	ax
2926:0924  E8 F7A5				call	sub_18			; (00CC)
2926:0927  B8 001B				mov	ax,1Bh
2926:092A  50					push	ax
2926:092B  B8 0004				mov	ax,4
2926:092E  50					push	ax
2926:092F  B8 000E				mov	ax,0Eh
2926:0932  50					push	ax
2926:0933  E8 F796				call	sub_18			; (00CC)
2926:0936  B8 001C				mov	ax,1Ch
2926:0939  50					push	ax
2926:093A  B8 0003				mov	ax,3
2926:093D  50					push	ax
2926:093E  B8 0001				mov	ax,1
2926:0941  50					push	ax
2926:0942  E8 F787				call	sub_18			; (00CC)
2926:0945  B8 001D				mov	ax,1Dh
2926:0948  50					push	ax
2926:0949  B8 0005				mov	ax,5
2926:094C  50					push	ax
2926:094D  B8 0004				mov	ax,4
2926:0950  50					push	ax
2926:0951  E8 F778				call	sub_18			; (00CC)
2926:0954  0E E8 0007				callf	sub_27			; (095F)
2926:0958  06					push	es
2926:0959  4F					dec	di
2926:095A  32 4C 38				xor	cl,[si+38h]
2926:095D  46					inc	si
2926:095E  23 B8 0001				and	di,word ptr ds:[1][bx+si]	; (2926:0001=6528h)
2926:0962  50					push	ax
2926:0963  E8 5034				call	sub_112			; (599A)
2926:0966  E8 5028				call	sub_109			; (5991)
2926:0969  B8 0000				mov	ax,0
2926:096C  50					push	ax
2926:096D  E8 F72F				call	sub_4			; (009F)
2926:0970  0E E8 003B				callf	sub_28			; (09AF)
2926:0974  3A 42 2E 4C 31 36			db	':B.L16F#L8BL4>D.<B.L8>D.L16<BL8D'
           ICON.LST				Sourcer	v8.01  20-Jul-2026 12:15 am   Page 23

2926:097A  46 23 4C 38 42 4C
2926:0980  34 3E 44 2E 3C 42
2926:0986  2E 4C 38 3E 44 2E
2926:098C  4C 31 36 3C 42 4C
2926:0992  38 44
2926:0994  4C 34 46 23 2E 44			db	'L4F#.D.L8F#.L16DL8F#L4A.<A.'
2926:099A  2E 4C 38 46 23 2E
2926:09A0  4C 31 36 44 4C 38
2926:09A6  46 23 4C 34 41 2E
2926:09AC  3C 41 2E

				;ßßßß External Entry into Subroutine ßßßßßßßßßßßßßßßßßßßßßßßßßßßßßßßßßßßßßß

2926:09AF			sub_28:
2926:09AF  B8 0001				mov	ax,1
2926:09B2  50					push	ax
2926:09B3  E8 4FE4				call	sub_112			; (599A)
2926:09B6  0E E8 0014				callf	sub_29			; (09CE)
2926:09BA  13 4C 38				adc	cx,[si+38h]
2926:09BD  3E 44 2E 4C 31 36			db	'>D.L16<AL8>DL2F#.'
2926:09C3  3C 41 4C 38 3E 44
2926:09C9  4C 32 46 23 2E

				;ßßßß External Entry into Subroutine ßßßßßßßßßßßßßßßßßßßßßßßßßßßßßßßßßßßßßß

2926:09CE			sub_29:
2926:09CE  B8 0001				mov	ax,1
2926:09D1  50					push	ax
2926:09D2  E8 4FC5				call	sub_112			; (599A)
2926:09D5  B8 FFFF				mov	ax,0FFFFh
2926:09D8  50					push	ax
2926:09D9  B8 0003				mov	ax,3
2926:09DC  50					push	ax
2926:09DD  E8 4FAE				call	sub_108			; (598E)
2926:09E0  0E E8 0030				callf	sub_30			; (0A14)
2926:09E4  2F 4C 38 3C 41 3E	data_93		db	'/L8<A>D.L16<AL8>DL4F#.D.L8F#.L16'
2926:09EA  44 2E 4C 31 36 3C
2926:09F0  41 4C 38 3E 44 4C
2926:09F6  34 46 23 2E 44 2E
2926:09FC  4C 38 46 23 2E 4C
2926:0A02  31 36
2926:0A04  44 4C 38 46 23 4C			db	'DL8F#L4A.F#.L8A.'
2926:0A0A  34 41 2E 46 23 2E
2926:0A10  4C 38 41 2E

				;ßßßß External Entry into Subroutine ßßßßßßßßßßßßßßßßßßßßßßßßßßßßßßßßßßßßßß

2926:0A14			sub_30:
2926:0A14  B8 0001				mov	ax,1
2926:0A17  50					push	ax
2926:0A18  E8 4F7F				call	sub_112			; (599A)
2926:0A1B  0E E8 0028				callf	sub_31			; (0A47)
2926:0A1F  27 4C 31 36 3C 46			db	27h, 'L16<F#L8>AL4>C#.<C#.L8F#.L1'
2926:0A25  23 4C 38 3E 41 4C
2926:0A2B  34 3E 43 23 2E 3C
2926:0A31  43 23 2E 4C 38 46
2926:0A37  23 2E 4C 31
           ICON.LST				Sourcer	v8.01  20-Jul-2026 12:15 am   Page 24

2926:0A3B  36 43 23 4C 38 46			db	'6C#L8F#L2A#.'
2926:0A41  23 4C 32 41 23 2E

				;ßßßß External Entry into Subroutine ßßßßßßßßßßßßßßßßßßßßßßßßßßßßßßßßßßßßßß

2926:0A47			sub_31:
2926:0A47  B8 0001				mov	ax,1
2926:0A4A  50					push	ax
2926:0A4B  E8 4F4C				call	sub_112			; (599A)
2926:0A4E			loc_55:
2926:0A4E  C7 46 E2 0000			mov	word ptr [bp-1Eh],0
2926:0A53			loc_56:
2926:0A53  E8 4DC2				call	sub_102			; (5818)
2926:0A56  F7 D0				not	ax
2926:0A58  50					push	ax
2926:0A59  E8 4F29				call	sub_105			; (5985)
2926:0A5C  F7 D0				not	ax
2926:0A5E  5B					pop	bx
2926:0A5F  23 C3				and	ax,bx
2926:0A61  50					push	ax
2926:0A62  E8 1CBD				call	sub_88			; (2722)
2926:0A65  93					xchg	bx,ax
2926:0A66  B8 0003				mov	ax,3
2926:0A69  23 C3				and	ax,bx
2926:0A6B  3D 0000				cmp	ax,0
2926:0A6E  B8 0000				mov	ax,0
2926:0A71  75 01				jnz	loc_57			; Jump if not zero
2926:0A73  40					inc	ax
2926:0A74			loc_57:
2926:0A74  5B					pop	bx
2926:0A75  23 C3				and	ax,bx
2926:0A77  50					push	ax
2926:0A78  E8 24C4				call	sub_97			; (2F3F)
2926:0A7B  F7 D0				not	ax
2926:0A7D  5B					pop	bx
2926:0A7E  23 C3				and	ax,bx
2926:0A80  D0 D8				rcr	al,1			; Rotate thru carry
2926:0A82  72 03				jc	loc_58			; Jump if carry Set
2926:0A84  E9 003C				jmp	loc_59			; (0AC3)
2926:0A87			loc_58:
2926:0A87  B8 001E				mov	ax,1Eh
2926:0A8A  50					push	ax
2926:0A8B  8B 46 E2				mov	ax,[bp-1Eh]
2926:0A8E  93					xchg	bx,ax
2926:0A8F  B8 0005				mov	ax,5
2926:0A92  93					xchg	bx,ax
2926:0A93  99					cwd				; Word to double word
2926:0A94  F7 FB				idiv	bx			; ax,dx rem=dx:ax/reg
2926:0A96  8B C2				mov	ax,dx
2926:0A98  40					inc	ax
2926:0A99  50					push	ax
2926:0A9A  8B 46 E2				mov	ax,[bp-1Eh]
2926:0A9D  93					xchg	bx,ax
2926:0A9E  B8 0005				mov	ax,5
2926:0AA1  93					xchg	bx,ax
2926:0AA2  99					cwd				; Word to double word
2926:0AA3  F7 FB				idiv	bx			; ax,dx rem=dx:ax/reg
           ICON.LST				Sourcer	v8.01  20-Jul-2026 12:15 am   Page 25

2926:0AA5  8B C2				mov	ax,dx
2926:0AA7  05 0009				add	ax,9
2926:0AAA  50					push	ax
2926:0AAB  E8 F61E				call	sub_18			; (00CC)
2926:0AAE  FF 76 E2				push	word ptr [bp-1Eh]
2926:0AB1  E8 F5FA				call	sub_9			; (00AE)
2926:0AB4  FF 76 E2				push	word ptr [bp-1Eh]
2926:0AB7  E8 F5F1				call	sub_8			; (00AB)
2926:0ABA  8B 46 E2				mov	ax,[bp-1Eh]
2926:0ABD  40					inc	ax
2926:0ABE  89 46 E2				mov	[bp-1Eh],ax
2926:0AC1  EB 90				jmp	short loc_56		; (0A53)
2926:0AC3			loc_59:
2926:0AC3  E8 4D52				call	sub_102			; (5818)
2926:0AC6  D0 D8				rcr	al,1			; Rotate thru carry
2926:0AC8  72 03				jc	loc_60			; Jump if carry Set
2926:0ACA  E9 0022				jmp	loc_63			; (0AEF)
2926:0ACD			loc_60:
2926:0ACD  E8 4D45				call	sub_101			; (5815)
2926:0AD0  88 46 E1				mov	[bp-1Fh],al
2926:0AD3  8A 46 E1				mov	al,[bp-1Fh]
2926:0AD6  32 E4				xor	ah,ah			; Zero register
2926:0AD8  81 F8 00C7				cmp	ax,0C7h
2926:0ADC  B8 0000				mov	ax,0
2926:0ADF  75 01				jnz	loc_61			; Jump if not zero
2926:0AE1  40					inc	ax
2926:0AE2			loc_61:
2926:0AE2  D0 D8				rcr	al,1			; Rotate thru carry
2926:0AE4  72 03				jc	loc_62			; Jump if carry Set
2926:0AE6  E9 0006				jmp	loc_63			; (0AEF)
2926:0AE9			loc_62:
2926:0AE9  E8 142E				call	sub_74			; (1F1A)
2926:0AEC  E8 7864				call	sub_191			; (8353)
2926:0AEF			loc_63:
2926:0AEF  B8 0000				mov	ax,0
2926:0AF2  50					push	ax
2926:0AF3  B8 0000				mov	ax,0
2926:0AF6  50					push	ax
2926:0AF7  E8 4E94				call	sub_108			; (598E)
2926:0AFA  B8 0016				mov	ax,16h
2926:0AFD  50					push	ax
2926:0AFE  B8 0010				mov	ax,10h
2926:0B01  50					push	ax
2926:0B02  B8 0010				mov	ax,10h
2926:0B05  50					push	ax
2926:0B06  E8 F5C3				call	sub_18			; (00CC)
2926:0B09  B8 0017				mov	ax,17h
2926:0B0C  50					push	ax
2926:0B0D  B8 0010				mov	ax,10h
2926:0B10  50			data_97		db	50h
2926:0B11  B8 10 00 50 E8 B4			db	0B8h, 10h, 00h, 50h,0E8h,0B4h
2926:0B17  F5 B8 18 00 50 B8			db	0F5h,0B8h, 18h, 00h, 50h,0B8h
2926:0B1D  10 00 50 B8 10 00			db	 10h, 00h, 50h,0B8h, 10h, 00h
2926:0B23  50 E8 A5 F5 E8 72			db	 50h,0E8h,0A5h,0F5h,0E8h, 72h
2926:0B29  F5 C7 06 26 5A 82			db	0F5h,0C7h, 06h, 26h, 5Ah, 82h
2926:0B2F  00 8B E5 5D C3			db	 00h, 8Bh,0E5h, 5Dh,0C3h
2926:0B34			loc_64:
           ICON.LST				Sourcer	v8.01  20-Jul-2026 12:15 am   Page 26

2926:0B34  55					push	bp
2926:0B35  8B EC				mov	bp,sp
2926:0B37  55					push	bp
2926:0B38  81 EC 0081				sub	sp,81h
2926:0B3C  16					push	ss
2926:0B3D  8D 46 AD				lea	ax,[bp-53h]		; Load effective addr
2926:0B40  50					push	ax
2926:0B41  8B 46 06				mov	ax,[bp+6]
2926:0B44  50					push	ax
2926:0B45  8B 46 04				mov	ax,[bp+4]
2926:0B48  50					push	ax
2926:0B49  B8 0051				mov	ax,51h
2926:0B4C  50					push	ax
2926:0B4D  E8 5AC2				call	sub_124			; (6612)
2926:0B50  B8 0001				mov	ax,1
2926:0B53  93					xchg	bx,ax
2926:0B54  A1 2DA6				mov	ax,data_169		; (2926:2DA6=6572h)
2926:0B57  93					xchg	bx,ax
2926:0B58  89 46 A1				mov	[bp-5Fh],ax
2926:0B5B  93					xchg	bx,ax
2926:0B5C  FF 4E A1				dec	word ptr [bp-5Fh]
2926:0B5F  2B C3				sub	ax,bx
2926:0B61  40					inc	ax
2926:0B62  89 86 FF7F				mov	[bp-81h],ax
2926:0B66			loc_65:
2926:0B66  FF 46 A1				inc	word ptr [bp-5Fh]
2926:0B69  FF 8E FF7F				dec	word ptr [bp-81h]
2926:0B6D  7D 03				jge	loc_66			; Jump if > or =
2926:0B6F  E9 002F				jmp	loc_69			; (0BA1)
2926:0B72			loc_66:
2926:0B72  16					push	ss
2926:0B73  8D 46 AD				lea	ax,[bp-53h]		; Load effective addr
2926:0B76  50					push	ax
2926:0B77  1E					push	ds
2926:0B78  B8 601C				mov	ax,601Ch
2926:0B7B  50					push	ax
2926:0B7C  8B 46 A1				mov	ax,[bp-5Fh]
2926:0B7F  48					dec	ax
2926:0B80  BB 001D				mov	bx,1Dh
2926:0B83  F7 E3				mul	bx			; dx:ax = reg * ax
2926:0B85  5B					pop	bx
2926:0B86  03 C3				add	ax,bx
2926:0B88  05 0008				add	ax,8
2926:0B8B  50					push	ax
2926:0B8C  E8 715F				call	sub_170			; (7CEE)
2926:0B8F  D0 D8				rcr	al,1			; Rotate thru carry
2926:0B91  72 03				jc	loc_67			; Jump if carry Set
2926:0B93  E9 0009				jmp	loc_68			; (0B9F)
2926:0B96			loc_67:
2926:0B96  8B 46 A1				mov	ax,[bp-5Fh]
2926:0B99  89 46 F4				mov	[bp-0Ch],ax
2926:0B9C  E9 0007				jmp	loc_70			; (0BA6)
2926:0B9F			loc_68:
2926:0B9F  EB C5				jmp	short loc_65		; (0B66)
2926:0BA1			loc_69:
2926:0BA1  C7 46 F4 FFFF			mov	word ptr [bp-0Ch],0FFFFh
2926:0BA6			loc_70:
           ICON.LST				Sourcer	v8.01  20-Jul-2026 12:15 am   Page 27

2926:0BA6  8B 46 F4				mov	ax,[bp-0Ch]
2926:0BA9  8B E5				mov	sp,bp
2926:0BAB  5D					pop	bp
2926:0BAC  C2 0004				retn	4
				sub_25		endp

2926:0BAF			loc_71:
2926:0BAF  55					push	bp
2926:0BB0  8B EC				mov	bp,sp
2926:0BB2  55					push	bp
2926:0BB3  81 EC 0002				sub	sp,2
2926:0BB7  C4 7E 04				les	di,dword ptr [bp+4]	; Load seg:offset ptr
2926:0BBA  06					push	es
2926:0BBB  57					push	di
2926:0BBC  1E					push	ds
2926:0BBD  B8 2B24				mov	ax,2B24h
2926:0BC0  50					push	ax
2926:0BC1  B8 0080				mov	ax,80h
2926:0BC4  50					push	ax
2926:0BC5  E8 6DB1				call	sub_161			; (7979)
2926:0BC8  5F					pop	di
2926:0BC9  07					pop	es
2926:0BCA  26: 89 05				mov	es:[di],ax
2926:0BCD  C4 7E 04				les	di,dword ptr [bp+4]	; Load seg:offset ptr
2926:0BD0  06					push	es
2926:0BD1  57					push	di
2926:0BD2  C4 7E 04				les	di,dword ptr [bp+4]	; Load seg:offset ptr
2926:0BD5  26: 8B 05				mov	ax,es:[di]
2926:0BD8  50					push	ax
2926:0BD9  1E					push	ds
2926:0BDA  B8 2B24				mov	ax,2B24h
2926:0BDD  50					push	ax
2926:0BDE  B8 0080				mov	ax,80h
2926:0BE1  50					push	ax
2926:0BE2  E8 6D94				call	sub_161			; (7979)
2926:0BE5  50					push	ax
2926:0BE6  B8 0008				mov	ax,8
2926:0BE9  50					push	ax
2926:0BEA  E8 76C0				call	sub_186			; (82AD)
2926:0BED  5B					pop	bx
2926:0BEE  03 C3				add	ax,bx
2926:0BF0  5F					pop	di
2926:0BF1  07					pop	es
2926:0BF2  26: 89 05				mov	es:[di],ax
2926:0BF5  C4 7E 04				les	di,dword ptr [bp+4]	; Load seg:offset ptr
2926:0BF8  26: 8B 05				mov	ax,es:[di]
2926:0BFB  50					push	ax
2926:0BFC  E8 F497				call	sub_2			; (0096)
2926:0BFF  8B E5				mov	sp,bp
2926:0C01  5D					pop	bp
2926:0C02  C2 0004				retn	4
2926:0C05			loc_72:
2926:0C05  55					push	bp
2926:0C06  8B EC				mov	bp,sp
2926:0C08  55					push	bp
2926:0C09  81 EC 0057				sub	sp,57h
2926:0C0D  E8 4D87				call	sub_111			; (5997)
           ICON.LST				Sourcer	v8.01  20-Jul-2026 12:15 am   Page 28

2926:0C10  E8 1362				call	sub_75			; (1F75)
2926:0C13  A0 8256				mov	al,data_330		; (2926:8256=4Eh)
2926:0C16  D0 D8				rcr	al,1			; Rotate thru carry
2926:0C18  72 03				jc	loc_73			; Jump if carry Set
2926:0C1A  E9 0023				jmp	loc_74			; (0C40)
2926:0C1D			loc_73:
2926:0C1D  0E E8 0015				callf	sub_32			; (0C36)
2926:0C21  14 49				adc	al,49h			; 'I'
2926:0C23  73 20				jnc	loc_75			; Jump if carry=0
2926:0C25  74 68				jz	loc_78			; Jump if zero
2926:0C27  69 73 20 61 6E 20			db	'is an IBM PC Jr'
2926:0C2D  49 42 4D 20 50 43
2926:0C33  20 4A 72

				;ßßßßßßßßßßßßßßßßßßßßßßßßßßßßßßßßßßßßßßßßßßßßßßßßßßßßßßßßßßßßßßßßßßßßßßßßßß
				;                              SUBROUTINE
				;ÜÜÜÜÜÜÜÜÜÜÜÜÜÜÜÜÜÜÜÜÜÜÜÜÜÜÜÜÜÜÜÜÜÜÜÜÜÜÜÜÜÜÜÜÜÜÜÜÜÜÜÜÜÜÜÜÜÜÜÜÜÜÜÜÜÜÜÜÜÜÜÜÜÜ

2926:0C36			sub_32		proc	near
2926:0C36  B8 0059				mov	ax,59h
2926:0C39  50					push	ax
2926:0C3A  E8 F483				call	sub_14			; (00C0)
2926:0C3D  A2 8256				mov	data_330,al		; (2926:8256=4Eh)
2926:0C40			loc_74:
2926:0C40  E8 4BD5				call	sub_102			; (5818)
2926:0C43  F7 D0				not	ax
2926:0C45			loc_75:
2926:0C45  D0 D8				rcr	al,1			; Rotate thru carry
2926:0C47  72 03				jc	loc_77			; Jump if carry Set
2926:0C49  E9 0137				jmp	loc_83			; (0D83)
2926:0C4C			loc_77:
2926:0C4C  0E					push	cs
2926:0C4D  B8 23E0				mov	ax,23E0h
2926:0C50  93					xchg	bx,ax
2926:0C51  B8 0BD0				mov	ax,0BD0h
2926:0C54  03 C3				add	ax,bx
2926:0C56  50					push	ax
2926:0C57  A1 206E				mov	ax,word ptr data_139+2	; (2926:206E=6B4h)
2926:0C5A  50					push	ax
2926:0C5B  A1 206C				mov	ax,data_139		; (2926:206C=1F21h)
2926:0C5E  50					push	ax
2926:0C5F  E8 23A7				call	sub_100			; (3009)
2926:0C62  B8 0082				mov	ax,82h
2926:0C65  50					push	ax
2926:0C66  E8 5495				call	sub_116			; (60FE)
2926:0C69  0E E8 0004				callf	sub_33			; (0C71)
2926:0C6D  03 4C 33				add	cx,[si+33h]
2926:0C70  32 B8 0001				xor	bh,byte ptr ds:[1][bx+si]	; (2926:0001=28h)
2926:0C74  50					push	ax
2926:0C75  E8 4D22				call	sub_112			; (599A)
2926:0C78  0E E8 003D				callf	sub_34			; (0CB9)
2926:0C7C  3C 4F 31 5B 31 36			db	'<O1[16F#G]B>C#DEO2['
2926:0C82  46 23 47 5D 42 3E
2926:0C88  43 23 44 45 4F 32
2926:0C8E  5B
2926:0C8F			loc_78:
2926:0C8F  31 36 46 23 47 5D			db	'16F#G]B>C#DEO3[16F#G]B>C#DEO2[16'
           ICON.LST				Sourcer	v8.01  20-Jul-2026 12:15 am   Page 29

2926:0C95  42 3E 43 23 44 45
2926:0C9B  4F 33 5B 31 36 46
2926:0CA1  23 47 5D 42 3E 43
2926:0CA7  23 44 45 4F 32 5B
2926:0CAD  31 36
2926:0CAF  46 23 47 5D 42 3E			db	'F#G]B>C#DE'
2926:0CB5  43 23 44 45

				;ßßßß External Entry into Subroutine ßßßßßßßßßßßßßßßßßßßßßßßßßßßßßßßßßßßßßß

2926:0CB9			sub_34:
2926:0CB9  B8 0001				mov	ax,1
2926:0CBC  50					push	ax
2926:0CBD  E8 4CDA				call	sub_112			; (599A)
2926:0CC0  1E					push	ds
2926:0CC1  B8 5A9C				mov	ax,5A9Ch
2926:0CC4  05 0000				add	ax,0
2926:0CC7  89 46 AB				mov	[bp-55h],ax
2926:0CCA  58					pop	ax
2926:0CCB  89 46 AD				mov	[bp-53h],ax
2926:0CCE  C4 7E AB				les	di,dword ptr [bp-55h]	; Load seg:offset ptr
2926:0CD1  83 C7 04				add	di,4
2926:0CD4  06					push	es
2926:0CD5  57					push	di
2926:0CD6  0E E8 0009				callf	sub_35			; (0CE3)
2926:0CDA  08 64 6F				or	[si+6Fh],ah
2926:0CDD  74 20				jz	loc_79			; Jump if zero
2926:0CDF  6F 6E 20 69				db	 6Fh, 6Eh, 20h, 69h

				;ßßßß External Entry into Subroutine ßßßßßßßßßßßßßßßßßßßßßßßßßßßßßßßßßßßßßß

2926:0CE3			sub_35:
2926:0CE3  E8 F3CB				call	sub_10			; (00B1)
2926:0CE6  5F					pop	di
2926:0CE7  07					pop	es
2926:0CE8  26: 89 05				mov	es:[di],ax
2926:0CEB  C4 7E AB				les	di,dword ptr [bp-55h]	; Load seg:offset ptr
2926:0CEE  26: C7 05 001A			mov	word ptr es:[di],1Ah
2926:0CF3  C4 7E AB				les	di,dword ptr [bp-55h]	; Load seg:offset ptr
2926:0CF6  83 C7 02				add	di,2
2926:0CF9  26: C7 05 0026			mov	word ptr es:[di],26h
2926:0CFE  E8 53F7				call	sub_114			; (60F8)
2926:0D01  C7 46 F6 FFFF			mov	word ptr [bp-0Ah],0FFFFh
2926:0D06  C7 46 A9 0010			mov	word ptr [bp-57h],10h
2926:0D0B			loc_80:
2926:0D0B  FF 46 F6				inc	word ptr [bp-0Ah]
2926:0D0E  FF 4E A9				dec	word ptr [bp-57h]
2926:0D11  7D 03				jge	loc_81			; Jump if > or =
2926:0D13  E9 006A				jmp	loc_82			; (0D80)
2926:0D16			loc_81:
2926:0D16  16					push	ss
2926:0D17  8D 46 B6				lea	ax,[bp-4Ah]		; Load effective addr
2926:0D1A  50					push	ax
2926:0D1B  8B 46 F6				mov	ax,[bp-0Ah]
2926:0D1E  D1 E0				shl	ax,1			; Shift w/zeros fill
2926:0D20  5B					pop	bx
2926:0D21  03 C3				add	ax,bx
           ICON.LST				Sourcer	v8.01  20-Jul-2026 12:15 am   Page 30

2926:0D23  50					push	ax
2926:0D24  C4 3E 206C				les	di,dword ptr data_139	; (2926:206C=1F21h) Load seg:offset pt
2926:0D28  06					push	es
2926:0D29  57					push	di
2926:0D2A  B8 001A				mov	ax,1Ah
2926:0D2D  50					push	ax
2926:0D2E  FF 76 F6				push	word ptr [bp-0Ah]
2926:0D31  58					pop	ax
2926:0D32  5B					pop	bx
2926:0D33  03 C3				add	ax,bx
2926:0D35  BB 0050				mov	bx,50h
2926:0D38  F7 E3				mul	bx			; dx:ax = reg * ax
2926:0D3A  5B					pop	bx
2926:0D3B  03 C3				add	ax,bx
2926:0D3D  05 0018				add	ax,18h
2926:0D40  97					xchg	di,ax
2926:0D41  07					pop	es
2926:0D42  26: 8B 05				mov	ax,es:[di]
2926:0D45  5F					pop	di
2926:0D46  07					pop	es
2926:0D47  26: 89 05				mov	es:[di],ax
2926:0D4A  16					push	ss
2926:0D4B  8D 46 D6				lea	ax,[bp-2Ah]		; Load effective addr
2926:0D4E  50					push	ax
2926:0D4F  8B 46 F6				mov	ax,[bp-0Ah]
2926:0D52  D1 E0				shl	ax,1			; Shift w/zeros fill
2926:0D54  5B					pop	bx
2926:0D55  03 C3				add	ax,bx
2926:0D57  50					push	ax
2926:0D58  C4 3E 206C				les	di,dword ptr data_139	; (2926:206C=1F21h) Load seg:offset pt
2926:0D5C  06					push	es
2926:0D5D  57					push	di
2926:0D5E  B8 003B				mov	ax,3Bh
2926:0D61  50					push	ax
2926:0D62  FF 76 F6				push	word ptr [bp-0Ah]
2926:0D65  58					pop	ax
2926:0D66  5B					pop	bx
2926:0D67  03 C3				add	ax,bx
2926:0D69  BB 0050				mov	bx,50h
2926:0D6C  F7 E3				mul	bx			; dx:ax = reg * ax
2926:0D6E  5B					pop	bx
2926:0D6F  03 C3				add	ax,bx
2926:0D71  05 0018				add	ax,18h
2926:0D74  97					xchg	di,ax
2926:0D75  07					pop	es
2926:0D76  26: 8B 05				mov	ax,es:[di]
2926:0D79  5F					pop	di
2926:0D7A  07					pop	es
2926:0D7B  26: 89 05				mov	es:[di],ax
2926:0D7E  EB 8B				jmp	short loc_80		; (0D0B)
2926:0D80			loc_82:
2926:0D80  E9 0007				jmp	loc_84			; (0D8A)
2926:0D83			loc_83:
2926:0D83  B8 0082				mov	ax,82h
2926:0D86  50					push	ax
2926:0D87  E8 5374				call	sub_116			; (60FE)
2926:0D8A			loc_84:
           ICON.LST				Sourcer	v8.01  20-Jul-2026 12:15 am   Page 31

2926:0D8A  C7 46 FA 0000			mov	word ptr [bp-6],0
2926:0D8F  C7 46 F8 0001			mov	word ptr [bp-8],1
2926:0D94			loc_85:
2926:0D94  E8 4A81				call	sub_102			; (5818)
2926:0D97  F7 D0				not	ax
2926:0D99  50					push	ax
2926:0D9A  A0 5A38				mov	al,data_279		; (2926:5A38=2Bh)
2926:0D9D  32 E4				xor	ah,ah			; Zero register
2926:0D9F  F7 D0				not	ax
2926:0DA1  5B					pop	bx
2926:0DA2  23 C3				and	ax,bx
2926:0DA4  50					push	ax
2926:0DA5  E8 2197				call	sub_97			; (2F3F)
2926:0DA8  F7 D0				not	ax
2926:0DAA  5B					pop	bx
2926:0DAB  23 C3				and	ax,bx
2926:0DAD  D0 D8				rcr	al,1			; Rotate thru carry
2926:0DAF  72 03				jc	loc_86			; Jump if carry Set
2926:0DB1  E9 00FD				jmp	loc_90			; (0EB1)
2926:0DB4			loc_86:
2926:0DB4  B8 0001				mov	ax,1
2926:0DB7  50					push	ax
2926:0DB8  E8 F2E4				call	sub_4			; (009F)
2926:0DBB  16					push	ss
2926:0DBC  8D 46 B6				lea	ax,[bp-4Ah]		; Load effective addr
2926:0DBF  05 001E				add	ax,1Eh
2926:0DC2  97					xchg	di,ax
2926:0DC3  07					pop	es
2926:0DC4  26: 8B 05				mov	ax,es:[di]
2926:0DC7  89 46 B4				mov	[bp-4Ch],ax
2926:0DCA  16					push	ss
2926:0DCB  8D 46 B6				lea	ax,[bp-4Ah]		; Load effective addr
2926:0DCE  05 0000				add	ax,0
2926:0DD1  50					push	ax
2926:0DD2  16					push	ss
2926:0DD3  8D 46 B6				lea	ax,[bp-4Ah]		; Load effective addr
2926:0DD6  05 0002				add	ax,2
2926:0DD9  50					push	ax
2926:0DDA  B8 001E				mov	ax,1Eh
2926:0DDD  50					push	ax
2926:0DDE  E8 7460				call	sub_183			; (8241)
2926:0DE1  16					push	ss
2926:0DE2  8D 46 B6				lea	ax,[bp-4Ah]		; Load effective addr
2926:0DE5  05 0000				add	ax,0
2926:0DE8  97					xchg	di,ax
2926:0DE9  8B 46 B4				mov	ax,[bp-4Ch]
2926:0DEC  07					pop	es
2926:0DED  26: 89 05				mov	es:[di],ax
2926:0DF0  16					push	ss
2926:0DF1  8D 46 D6				lea	ax,[bp-2Ah]		; Load effective addr
2926:0DF4  05 0000				add	ax,0
2926:0DF7  97					xchg	di,ax
2926:0DF8  07					pop	es
2926:0DF9  26: 8B 05				mov	ax,es:[di]
2926:0DFC  89 46 B4				mov	[bp-4Ch],ax
2926:0DFF  16					push	ss
2926:0E00  8D			data_101	db	8Dh
           ICON.LST				Sourcer	v8.01  20-Jul-2026 12:15 am   Page 32

2926:0E01  46 D6 05 02 00 50			db	 46h,0D6h, 05h, 02h, 00h, 50h
2926:0E07  16 8D 46 D6 05			db	 16h, 8Dh, 46h,0D6h, 05h
2926:0E0C  00			data_102	db	0
2926:0E0D  00 50 B8				db	 00h, 50h,0B8h
2926:0E10  1E			data_103	db	1Eh
2926:0E11  00 50 E8 F1 73 16			db	 00h, 50h,0E8h,0F1h, 73h, 16h
2926:0E17  8D 46 D6 05 1E 00			db	 8Dh, 46h,0D6h, 05h, 1Eh, 00h
2926:0E1D  97 8B 46 B4 07 26			db	 97h, 8Bh, 46h,0B4h, 07h, 26h
2926:0E23  89 05 C7 46 F6 00			db	 89h, 05h,0C7h, 46h,0F6h, 00h
2926:0E29  00					db	 00h
2926:0E2A			loc_87:
2926:0E2A  81 7E F6 000E			cmp	word ptr [bp-0Ah],0Eh
2926:0E2F  7E 03				jle	loc_88			; Jump if < or =
2926:0E31  E9 006D				jmp	loc_89			; (0EA1)
2926:0E34			loc_88:
2926:0E34  C4 3E 206C				les	di,dword ptr data_139	; (2926:206C=1F21h) Load seg:offset pt
2926:0E38  06					push	es
2926:0E39  57					push	di
2926:0E3A  8B 46 F6				mov	ax,[bp-0Ah]
2926:0E3D  05 001A				add	ax,1Ah
2926:0E40  BB 0050				mov	bx,50h
2926:0E43  F7 E3				mul	bx			; dx:ax = reg * ax
2926:0E45  5B					pop	bx
2926:0E46  03 C3				add	ax,bx
2926:0E48  05 0018				add	ax,18h
2926:0E4B  50					push	ax
2926:0E4C  B8 0010				mov	ax,10h
2926:0E4F  50					push	ax
2926:0E50  16					push	ss
2926:0E51  8D 46 B6				lea	ax,[bp-4Ah]		; Load effective addr
2926:0E54  50					push	ax
2926:0E55  8B 46 F6				mov	ax,[bp-0Ah]
2926:0E58  D1 E0				shl	ax,1			; Shift w/zeros fill
2926:0E5A  5B					pop	bx
2926:0E5B  03 C3				add	ax,bx
2926:0E5D  97					xchg	di,ax
2926:0E5E  07					pop	es
2926:0E5F  26: 8B 05				mov	ax,es:[di]
2926:0E62  50					push	ax
2926:0E63  E8 0EDC				call	sub_70			; (1D42)
2926:0E66  C4 3E 206C				les	di,dword ptr data_139	; (2926:206C=1F21h) Load seg:offset pt
2926:0E6A  06					push	es
2926:0E6B  57					push	di
2926:0E6C  8B 46 F6				mov	ax,[bp-0Ah]
2926:0E6F  05 003B				add	ax,3Bh
2926:0E72  BB 0050				mov	bx,50h
2926:0E75  F7 E3				mul	bx			; dx:ax = reg * ax
2926:0E77  5B					pop	bx
2926:0E78  03 C3				add	ax,bx
2926:0E7A  05 0018				add	ax,18h
2926:0E7D  50					push	ax
2926:0E7E  B8 0010				mov	ax,10h
2926:0E81  50					push	ax
2926:0E82  16					push	ss
2926:0E83  8D 46 D6				lea	ax,[bp-2Ah]		; Load effective addr
2926:0E86  50					push	ax
2926:0E87  8B 46 F6				mov	ax,[bp-0Ah]
           ICON.LST				Sourcer	v8.01  20-Jul-2026 12:15 am   Page 33

2926:0E8A  D1 E0				shl	ax,1			; Shift w/zeros fill
2926:0E8C  5B					pop	bx
2926:0E8D  03 C3				add	ax,bx
2926:0E8F  97					xchg	di,ax
2926:0E90  07					pop	es
2926:0E91  26: 8B 05				mov	ax,es:[di]
2926:0E94  50					push	ax
2926:0E95  E8 0EAA				call	sub_70			; (1D42)
2926:0E98  8B 46 F6				mov	ax,[bp-0Ah]
2926:0E9B  40					inc	ax
2926:0E9C  89 46 F6				mov	[bp-0Ah],ax
2926:0E9F  EB 89				jmp	short loc_87		; (0E2A)
2926:0EA1			loc_89:
2926:0EA1  E8 4AED				call	sub_109			; (5991)
2926:0EA4  E8 5251				call	sub_114			; (60F8)
2926:0EA7  8B 46 F8				mov	ax,[bp-8]
2926:0EAA  40					inc	ax
2926:0EAB  89 46 F8				mov	[bp-8],ax
2926:0EAE  E9 FEE3				jmp	loc_85			; (0D94)
2926:0EB1			loc_90:
2926:0EB1  1E					push	ds
2926:0EB2  B8 5A9C				mov	ax,5A9Ch
2926:0EB5  05 0000				add	ax,0
2926:0EB8  05 0004				add	ax,4
2926:0EBB  97					xchg	di,ax
2926:0EBC  07					pop	es
2926:0EBD  26: C7 05 FFFF			mov	word ptr es:[di],0FFFFh
2926:0EC2  E8 4953				call	sub_102			; (5818)
2926:0EC5  D0 D8				rcr	al,1			; Rotate thru carry
2926:0EC7  72 03				jc	loc_91			; Jump if carry Set
2926:0EC9  E9 002D				jmp	loc_94			; (0EF9)
2926:0ECC			loc_91:
2926:0ECC  E8 494C				call	sub_103			; (581B)
2926:0ECF  88 46 B3				mov	[bp-4Dh],al
2926:0ED2  B8 0000				mov	ax,0
2926:0ED5  50					push	ax
2926:0ED6  B8 0000				mov	ax,0
2926:0ED9  50					push	ax
2926:0EDA  E8 4AB1				call	sub_108			; (598E)
2926:0EDD  8A 46 B3				mov	al,[bp-4Dh]
2926:0EE0  32 E4				xor	ah,ah			; Zero register
2926:0EE2  81 F8 00C7				cmp	ax,0C7h
2926:0EE6  B8 0000				mov	ax,0
2926:0EE9  75 01				jnz	loc_92			; Jump if not zero
2926:0EEB  40					inc	ax
2926:0EEC			loc_92:
2926:0EEC  D0 D8				rcr	al,1			; Rotate thru carry
2926:0EEE  72 03				jc	loc_93			; Jump if carry Set
2926:0EF0  E9 0006				jmp	loc_94			; (0EF9)
2926:0EF3			loc_93:
2926:0EF3  E8 1024				call	sub_74			; (1F1A)
2926:0EF6  E8 745A				call	sub_191			; (8353)
2926:0EF9			loc_94:
2926:0EF9  C6 06 5E30 00			mov	byte ptr data_294,0	; (2926:5E30=5)
2926:0EFE  B8 0013				mov	ax,13h
2926:0F01  50					push	ax
2926:0F02  B8 0001				mov	ax,1
           ICON.LST				Sourcer	v8.01  20-Jul-2026 12:15 am   Page 34

2926:0F05  50					push	ax
2926:0F06  B8 0003				mov	ax,3
2926:0F09  50					push	ax
2926:0F0A  E8 F1BF				call	sub_18			; (00CC)
2926:0F0D  B8 0014				mov	ax,14h
2926:0F10  50					push	ax
2926:0F11  B8 0004				mov	ax,4
2926:0F14  50					push	ax
2926:0F15  B8 000D				mov	ax,0Dh
2926:0F18  50					push	ax
2926:0F19  E8 F1B0				call	sub_18			; (00CC)
2926:0F1C  B8 0015				mov	ax,15h
2926:0F1F  50					push	ax
2926:0F20  B8 0001				mov	ax,1
2926:0F23  50					push	ax
2926:0F24  B8 0004				mov	ax,4
2926:0F27  50					push	ax
2926:0F28  E8 F1A1				call	sub_18			; (00CC)
2926:0F2B  B8 0019				mov	ax,19h
2926:0F2E  50					push	ax
2926:0F2F  B8 000B				mov	ax,0Bh
2926:0F32  50					push	ax
2926:0F33  B8 000F				mov	ax,0Fh
2926:0F36  50					push	ax
2926:0F37  E8 F192				call	sub_18			; (00CC)
2926:0F3A  B8 001F				mov	ax,1Fh
2926:0F3D  50					push	ax
2926:0F3E  B8 0006				mov	ax,6
2926:0F41  50					push	ax
2926:0F42  B8 000E				mov	ax,0Eh
2926:0F45  50					push	ax
2926:0F46  E8 F183				call	sub_18			; (00CC)
2926:0F49  16					push	ss
2926:0F4A  8D 46 F6				lea	ax,[bp-0Ah]		; Load effective addr
2926:0F4D  50					push	ax
2926:0F4E  16					push	ss
2926:0F4F  8D 46 F8				lea	ax,[bp-8]		; Load effective addr
2926:0F52  50					push	ax
2926:0F53  16					push	ss
2926:0F54  8D 46 FA				lea	ax,[bp-6]		; Load effective addr
2926:0F57  50					push	ax
2926:0F58  16					push	ss
2926:0F59  8D 46 FC				lea	ax,[bp-4]		; Load effective addr
2926:0F5C  50					push	ax
2926:0F5D  E8 7642				call	sub_201			; (85A2)
2926:0F60  8B 46 FC				mov	ax,[bp-4]
2926:0F63  50					push	ax
2926:0F64  8B 46 FA				mov	ax,[bp-6]
2926:0F67  93					xchg	bx,ax
2926:0F68  B8 0064				mov	ax,64h
2926:0F6B  F7 EB				imul	bx			; dx:ax = reg * ax
2926:0F6D  5B					pop	bx
2926:0F6E  03 C3				add	ax,bx
2926:0F70  50					push	ax
2926:0F71  8B 46 F8				mov	ax,[bp-8]
2926:0F74  93					xchg	bx,ax
2926:0F75  B8 012C				mov	ax,12Ch
           ICON.LST				Sourcer	v8.01  20-Jul-2026 12:15 am   Page 35

2926:0F78  F7 EB				imul	bx			; dx:ax = reg * ax
2926:0F7A  5B					pop	bx
2926:0F7B  03 C3				add	ax,bx
2926:0F7D  A3 826D				mov	data_342,ax		; (2926:826D=45ECh)
2926:0F80  C6 06 2DA8 20			mov	byte ptr data_170,20h	; (2926:2DA8=2Eh) ' '
2926:0F85  8B E5				mov	sp,bp
2926:0F87  5D					pop	bp
2926:0F88  C3					retn
				sub_32		endp

2926:0F89			loc_95:
2926:0F89  55					push	bp
2926:0F8A  8B EC				mov	bp,sp
2926:0F8C  55					push	bp
2926:0F8D  81 EC 0003				sub	sp,3
2926:0F91  C4 7E 04				les	di,dword ptr [bp+4]	; Load seg:offset ptr
2926:0F94  06					push	es
2926:0F95  57					push	di
2926:0F96  0E E8 0001				callf	sub_36			; (0F9B)
2926:0F9A  00 B8 0051				add	data_63[bx+si],bh	; (2926:0051=0)
2926:0F9E  50					push	ax
2926:0F9F  E8 5670				call	sub_124			; (6612)
2926:0FA2  81 7E 08 0000			cmp	word ptr [bp+8],0
2926:0FA7  B8 0000				mov	ax,0
2926:0FAA  7D 01				jge	loc_96			; Jump if > or =
2926:0FAC  40					inc	ax
2926:0FAD			loc_96:
2926:0FAD  88 46 FD				mov	[bp-3],al
2926:0FB0  8B 46 08				mov	ax,[bp+8]
2926:0FB3  0B C0				or	ax,ax			; Zero ?
2926:0FB5  79 02				jns	loc_97			; Jump if not sign
2926:0FB7  F7 D8				neg	ax
2926:0FB9			loc_97:
2926:0FB9  89 46 08				mov	[bp+8],ax
2926:0FBC			loc_98:
2926:0FBC  81 7E 08 0000			cmp	word ptr [bp+8],0
2926:0FC1  75 03				jne	loc_99			; Jump if not equal
2926:0FC3  E9 0040				jmp	loc_100			; (1006)
2926:0FC6			loc_99:
2926:0FC6  C4 7E 04				les	di,dword ptr [bp+4]	; Load seg:offset ptr
2926:0FC9  06					push	es
2926:0FCA  57					push	di
2926:0FCB  E8 70E3				call	sub_177			; (80B1)
2926:0FCE  8B 46 08				mov	ax,[bp+8]
2926:0FD1  93					xchg	bx,ax
2926:0FD2  B8 000A				mov	ax,0Ah
2926:0FD5  93					xchg	bx,ax
2926:0FD6  99					cwd				; Word to double word
2926:0FD7  F7 FB				idiv	bx			; ax,dx rem=dx:ax/reg
2926:0FD9  8B C2				mov	ax,dx
2926:0FDB  05 0030				add	ax,30h
2926:0FDE  50					push	ax
2926:0FDF  E8 70D2				call	sub_178			; (80B4)
2926:0FE2  C4 7E 04				les	di,dword ptr [bp+4]	; Load seg:offset ptr
2926:0FE5  06					push	es
2926:0FE6  57					push	di
2926:0FE7  E8 70CD				call	sub_179			; (80B7)
           ICON.LST				Sourcer	v8.01  20-Jul-2026 12:15 am   Page 36

2926:0FEA  E8 70C1				call	sub_176			; (80AE)
2926:0FED  53					push	bx
2926:0FEE  50					push	ax
2926:0FEF  B8 0051				mov	ax,51h
2926:0FF2  50					push	ax
2926:0FF3  E8 561C				call	sub_124			; (6612)
2926:0FF6  8B 46 08				mov	ax,[bp+8]
2926:0FF9  93					xchg	bx,ax
2926:0FFA  B8 000A				mov	ax,0Ah
2926:0FFD  93					xchg	bx,ax
2926:0FFE  99					cwd				; Word to double word
2926:0FFF  F7 FB				idiv	bx			; ax,dx rem=dx:ax/reg
2926:1001  89 46 08				mov	[bp+8],ax
2926:1004  EB			data_109	db	0EBh
2926:1005  B6					db	0B6h
2926:1006			loc_100:
2926:1006  C4 7E 04				les	di,dword ptr [bp+4]	; Load seg:offset ptr
2926:1009  06					push	es
2926:100A  57					push	di
2926:100B  0E E8 0001				callf	sub_37			; (1010)
2926:100F  00 E8				add	al,ch
2926:1011  DB 6C D0				fld	tbyte ptr [si-30h]	; Push onto stack
2926:1014  D8 72 03				fdiv	dword ptr [bp+si+3]	; st = st / memory
2926:1017  E9 0018				jmp	loc_102			; (1032)
2926:101A			loc_101:
2926:101A  C4 7E 04				les	di,dword ptr [bp+4]	; Load seg:offset ptr
2926:101D  06					push	es
2926:101E  B857			data_114	dw	0B857h
2926:1020  30 00 50 B8 FF FF			db	 30h, 00h, 50h,0B8h,0FFh,0FFh
2926:1026  50 58 5B 50 53 B8			db	 50h, 58h, 5Bh, 50h, 53h,0B8h
2926:102C  51 00 50 E8 E0			db	 51h, 00h, 50h,0E8h,0E0h
2926:1031  55					db	55h
2926:1032			loc_102:
2926:1032  F6 46 FD 01				test	byte ptr [bp-3],1
2926:1036  75 03				jnz	loc_103			; Jump if not zero
2926:1038  E9 0023				jmp	loc_104			; (105E)
2926:103B			loc_103:
2926:103B  C4 7E 04				les	di,dword ptr [bp+4]	; Load seg:offset ptr
2926:103E  06					push	es
2926:103F  57					push	di
2926:1040  E8 706E				call	sub_177			; (80B1)
2926:1043  B8 002D				mov	ax,2Dh
2926:1046  50					push	ax
2926:1047  E8 706A				call	sub_178			; (80B4)
2926:104A  C4 7E 04				les	di,dword ptr [bp+4]	; Load seg:offset ptr
2926:104D  06					push	es
2926:104E  57					push	di
2926:104F  E8 7065				call	sub_179			; (80B7)
2926:1052  E8 7059				call	sub_176			; (80AE)
2926:1055  53					push	bx
2926:1056  50					push	ax
2926:1057  B8 0051				mov	ax,51h
2926:105A  50					push	ax
2926:105B  E8 55B4				call	sub_124			; (6612)
2926:105E			loc_104:
2926:105E  8B E5				mov	sp,bp
2926:1060  5D					pop	bp
           ICON.LST				Sourcer	v8.01  20-Jul-2026 12:15 am   Page 37

2926:1061  C2 0006				retn	6
2926:1064			loc_105:
2926:1064  55					push	bp
2926:1065  8B EC				mov	bp,sp
2926:1067  55					push	bp
2926:1068  81 EC 0007				sub	sp,7
2926:106C  1E					push	ds
2926:106D  B8 82FD				mov	ax,82FDh
2926:1070  50					push	ax
2926:1071  E8 5908				call	sub_143			; (697C)
2926:1074  E8 6751				call	sub_158			; (77C8)
2926:1077  1E					push	ds
2926:1078  B8 82FD				mov	ax,82FDh
2926:107B  50					push	ax
2926:107C  E8 58FD				call	sub_143			; (697C)
2926:107F  E8 6746				call	sub_158			; (77C8)
2926:1082  1E					push	ds
2926:1083  B8 82FD				mov	ax,82FDh
2926:1086  50					push	ax
2926:1087  E8 58F2				call	sub_143			; (697C)
2926:108A  0E E8 0027				callf	sub_38			; (10B5)
2926:108E  26 20 45 6E 74 65			db	'& Enter the game save number (0,'
2926:1094  72 20 74 68 65 20
2926:109A  67 61 6D 65 20 73
2926:10A0  61 76 65 20 6E 75
2926:10A6  6D 62 65 72 20 28
2926:10AC  30 2C
2926:10AE  20 31 2D 39 29 3F			db	' 1-9)? '
2926:10B4  20

				;ßßßßßßßßßßßßßßßßßßßßßßßßßßßßßßßßßßßßßßßßßßßßßßßßßßßßßßßßßßßßßßßßßßßßßßßßßß
				;                              SUBROUTINE
				;ÜÜÜÜÜÜÜÜÜÜÜÜÜÜÜÜÜÜÜÜÜÜÜÜÜÜÜÜÜÜÜÜÜÜÜÜÜÜÜÜÜÜÜÜÜÜÜÜÜÜÜÜÜÜÜÜÜÜÜÜÜÜÜÜÜÜÜÜÜÜÜÜÜÜ

2926:10B5			sub_38		proc	near
2926:10B5  B8 FFFF				mov	ax,0FFFFh
2926:10B8  50					push	ax
2926:10B9  B8 FFFF				mov	ax,0FFFFh
2926:10BC  50					push	ax
2926:10BD  E8 6E77				call	sub_171			; (7F37)
2926:10C0			loc_106:
2926:10C0  E8 4758				call	sub_103			; (581B)
2926:10C3  88 46 F9				mov	[bp-7],al
2926:10C6  8A 46 F9				mov	al,[bp-7]
2926:10C9  32 E4				xor	ah,ah			; Zero register
2926:10CB  81 F8 0030				cmp	ax,30h
2926:10CF  B8 0000				mov	ax,0
2926:10D2  7D 01				jge	loc_107			; Jump if > or =
2926:10D4  40					inc	ax
2926:10D5			loc_107:
2926:10D5  50					push	ax
2926:10D6  8A 46 F9				mov	al,[bp-7]
2926:10D9  32 E4				xor	ah,ah			; Zero register
2926:10DB  81 F8 0039				cmp	ax,39h
2926:10DF  B8 0000				mov	ax,0
2926:10E2  7E 01				jle	loc_108			; Jump if < or =
2926:10E4  40					inc	ax
           ICON.LST				Sourcer	v8.01  20-Jul-2026 12:15 am   Page 38

2926:10E5			loc_108:
2926:10E5  5B					pop	bx
2926:10E6  0B C3				or	ax,bx
2926:10E8  D0 D8				rcr	al,1			; Rotate thru carry
2926:10EA  72 03				jc	loc_109			; Jump if carry Set
2926:10EC  E9 0003				jmp	loc_110			; (10F2)
2926:10EF			loc_109:
2926:10EF  E9 0163				jmp	loc_124			; (1255)
2926:10F2			loc_110:
2926:10F2  8A 46 F9				mov	al,[bp-7]
2926:10F5  32 E4				xor	ah,ah			; Zero register
2926:10F7  50					push	ax
2926:10F8  1E					push	ds
2926:10F9  B8 82FD				mov	ax,82FDh
2926:10FC  50					push	ax
2926:10FD  E8 587C				call	sub_143			; (697C)
2926:1100  B8			data_117	db	0B8h
2926:1101  FF FF 50 B8 FF FF			db	0FFh,0FFh, 50h,0B8h,0FFh,0FFh
2926:1107  50 E8 5C 6E E8 BA			db	 50h,0E8h, 5Ch, 6Eh,0E8h,0BAh
2926:110D  66 C4 7E 04 06 57			db	 66h,0C4h, 7Eh, 04h, 06h, 57h
2926:1113  E8 9B 6F 0E E8 05			db	0E8h, 9Bh, 6Fh, 0Eh,0E8h, 05h
2926:1119  00 04				db	 00h, 04h
2926:111B  49 43 4F 4E				db	 49h, 43h, 4Fh, 4Eh

				;ßßßß External Entry into Subroutine ßßßßßßßßßßßßßßßßßßßßßßßßßßßßßßßßßßßßßß

2926:111F			sub_39:
2926:111F  E8 6F95				call	sub_179			; (80B7)
2926:1122  8A 46 F9				mov	al,[bp-7]
2926:1125  32 E4				xor	ah,ah			; Zero register
2926:1127  50					push	ax
2926:1128  E8 6F89				call	sub_178			; (80B4)
2926:112B  0E E8 0005				callf	sub_40			; (1134)
2926:112F  04 2E				add	al,2Eh			; '.'
2926:1131  47					inc	di
2926:1132  41					inc	cx
2926:1133  4D					dec	bp

				;ßßßß External Entry into Subroutine ßßßßßßßßßßßßßßßßßßßßßßßßßßßßßßßßßßßßßß

2926:1134			sub_40:
2926:1134  E8 6F80				call	sub_179			; (80B7)
2926:1137  E8 6F74				call	sub_176			; (80AE)
2926:113A  53					push	bx
2926:113B  50					push	ax
2926:113C  B8 0051				mov	ax,51h
2926:113F  50					push	ax
2926:1140  E8 54CF				call	sub_124			; (6612)
2926:1143  1E					push	ds
2926:1144  B8 82FD				mov	ax,82FDh
2926:1147  50					push	ax
2926:1148  E8 5831				call	sub_143			; (697C)
2926:114B  0E E8 0022				callf	sub_41			; (1171)
2926:114F  21 20 45 6E 74 65			db	'! Enter the disk drive (A, B, C)'
2926:1155  72 20 74 68 65 20
2926:115B  64 69 73 6B 20 64
2926:1161  72 69 76 65 20 28
           ICON.LST				Sourcer	v8.01  20-Jul-2026 12:15 am   Page 39

2926:1167  41 2C 20 42 2C 20
2926:116D  43 29
2926:116F  3F 20				db	'? '

				;ßßßß External Entry into Subroutine ßßßßßßßßßßßßßßßßßßßßßßßßßßßßßßßßßßßßßß

2926:1171			sub_41:
2926:1171  B8 FFFF				mov	ax,0FFFFh
2926:1174  50					push	ax
2926:1175  B8 FFFF				mov	ax,0FFFFh
2926:1178  50					push	ax
2926:1179  E8 6DBB				call	sub_171			; (7F37)
2926:117C			loc_111:
2926:117C  E8 469C				call	sub_103			; (581B)
2926:117F  88 46 F9				mov	[bp-7],al
2926:1182  8A 46 F9				mov	al,[bp-7]
2926:1185  32 E4				xor	ah,ah			; Zero register
2926:1187  81 F8 000D				cmp	ax,0Dh
2926:118B  B8 0000				mov	ax,0
2926:118E  75 01				jnz	loc_112			; Jump if not zero
2926:1190  40					inc	ax
2926:1191			loc_112:
2926:1191  50					push	ax
2926:1192  8A 46 F9				mov	al,[bp-7]
2926:1195  32 E4				xor	ah,ah			; Zero register
2926:1197  81 F8 0020				cmp	ax,20h
2926:119B  B8 0000				mov	ax,0
2926:119E  75 01				jnz	loc_113			; Jump if not zero
2926:11A0  40					inc	ax
2926:11A1			loc_113:
2926:11A1  5B					pop	bx
2926:11A2  0B C3				or	ax,bx
2926:11A4  D0 D8				rcr	al,1			; Rotate thru carry
2926:11A6  72 03				jc	loc_114			; Jump if carry Set
2926:11A8  E9 0003				jmp	loc_115			; (11AE)
2926:11AB			loc_114:
2926:11AB  E9 00A1				jmp	loc_123			; (124F)
2926:11AE			loc_115:
2926:11AE  8A 46 F9				mov	al,[bp-7]
2926:11B1  32 E4				xor	ah,ah			; Zero register
2926:11B3  81 F8 0061				cmp	ax,61h
2926:11B7  B8 0000				mov	ax,0
2926:11BA  7C 01				jl	loc_116			; Jump if <
2926:11BC  40					inc	ax
2926:11BD			loc_116:
2926:11BD  D0 D8				rcr	al,1			; Rotate thru carry
2926:11BF  72 03				jc	loc_117			; Jump if carry Set
2926:11C1  E9 000B				jmp	loc_118			; (11CF)
2926:11C4			loc_117:
2926:11C4  8A 46 F9				mov	al,[bp-7]
2926:11C7  32 E4				xor	ah,ah			; Zero register
2926:11C9  2D 0020				sub	ax,20h
2926:11CC  88 46 F9				mov	[bp-7],al
2926:11CF			loc_118:
2926:11CF  8A 46 F9				mov	al,[bp-7]
2926:11D2  32 E4				xor	ah,ah			; Zero register
2926:11D4  81 F8 0041				cmp	ax,41h
           ICON.LST				Sourcer	v8.01  20-Jul-2026 12:15 am   Page 40

2926:11D8  B8 0000				mov	ax,0
2926:11DB  7D 01				jge	loc_119			; Jump if > or =
2926:11DD  40					inc	ax
2926:11DE			loc_119:
2926:11DE  8A50			data_119	dw	8A50h			; Data table (indexed access)
2926:11E0  46 F9 32 E4 81 F8			db	 46h,0F9h, 32h,0E4h, 81h,0F8h
2926:11E6  5A 00 B8 00 00 7E			db	 5Ah, 00h,0B8h, 00h, 00h, 7Eh
2926:11EC  01					db	 01h
2926:11ED  40					db	40h
2926:11EE			loc_120:
2926:11EE  5B					pop	bx
2926:11EF  0B C3				or	ax,bx
2926:11F1  D0 D8				rcr	al,1			; Rotate thru carry
2926:11F3  72 03				jc	loc_121			; Jump if carry Set
2926:11F5  E9 0003				jmp	loc_122			; (11FB)
2926:11F8			loc_121:
2926:11F8  E9 005D				jmp	loc_125			; (1258)
2926:11FB			loc_122:
2926:11FB  8A 46 F9				mov	al,[bp-7]
2926:11FE  32 E4				xor	ah,ah			; Zero register
2926:1200  50					push	ax
2926:1201  1E					push	ds
2926:1202  B8 82FD				mov	ax,82FDh
2926:1205  50					push	ax
2926:1206  E8 5773				call	sub_143			; (697C)
2926:1209  B8 FFFF				mov	ax,0FFFFh
2926:120C  50					push	ax
2926:120D  B8 FFFF				mov	ax,0FFFFh
2926:1210  50			data_121	db	50h
2926:1211  E8					db	0E8h
2926:1212  53			data_122	db	53h			; Data table (indexed access)
2926:1213  6D B8 3A 00 50 B8			db	 6Dh,0B8h, 3Ah, 00h, 50h,0B8h
2926:1219  FF FF 50 B8 FF FF			db	0FFh,0FFh, 50h,0B8h,0FFh,0FFh
2926:121F  50 E8 44 6D C4 7E			db	 50h,0E8h, 44h, 6Dh,0C4h, 7Eh
2926:1225  04 06 57 E8 86 6E			db	 04h, 06h, 57h,0E8h, 86h, 6Eh
2926:122B  8A 46 F9 32 E4 50			db	 8Ah, 46h,0F9h, 32h,0E4h, 50h
2926:1231  E8 80 6E B8 3A 00			db	0E8h, 80h, 6Eh,0B8h, 3Ah, 00h
2926:1237  50 E8 79 6E C4 7E			db	 50h,0E8h, 79h, 6Eh,0C4h, 7Eh
2926:123D  04 06 57 E8 74 6E			db	 04h, 06h, 57h,0E8h, 74h, 6Eh
2926:1243  E8 68 6E 53 50 B8			db	0E8h, 68h, 6Eh, 53h, 50h,0B8h
2926:1249  51 00 50 E8 C3			db	 51h, 00h, 50h,0E8h,0C3h
2926:124E  53					db	53h
2926:124F			loc_123:
2926:124F  8B E5				mov	sp,bp
2926:1251  5D					pop	bp
2926:1252  C2 0004				retn	4
2926:1255			loc_124:
2926:1255  E9 FE68				jmp	loc_106			; (10C0)
2926:1258			loc_125:
2926:1258  E9 FF21				jmp	loc_111			; (117C)
				sub_38		endp

2926:125B			loc_126:
2926:125B  55					push	bp
2926:125C  8B EC				mov	bp,sp
2926:125E  55					push	bp
2926:125F  81 EC 007E				sub	sp,7Eh
           ICON.LST				Sourcer	v8.01  20-Jul-2026 12:15 am   Page 41

2926:1263  16					push	ss
2926:1264  8D 46 AD				lea	ax,[bp-53h]		; Load effective addr
2926:1267  50					push	ax
2926:1268  8B 46 08				mov	ax,[bp+8]
2926:126B  50					push	ax
2926:126C  8B 46 06				mov	ax,[bp+6]
2926:126F  50					push	ax
2926:1270  B8 0051				mov	ax,51h
2926:1273  50					push	ax
2926:1274  E8 539B				call	sub_124			; (6612)
2926:1277  16					push	ss
2926:1278  8D 46 AD				lea	ax,[bp-53h]		; Load effective addr
2926:127B  50					push	ax
2926:127C  1E					push	ds
2926:127D  B8 82FD				mov	ax,82FDh
2926:1280  50					push	ax
2926:1281  E8 56F8				call	sub_143			; (697C)
2926:1284  B8 FFFF				mov	ax,0FFFFh
2926:1287  50					push	ax
2926:1288  B8 FFFF				mov	ax,0FFFFh
2926:128B  50					push	ax
2926:128C  E8 6CA8				call	sub_171			; (7F37)
2926:128F  1E					push	ds
2926:1290  B8 82FD				mov	ax,82FDh
2926:1293  50					push	ax
2926:1294  E8 56E5				call	sub_143			; (697C)
2926:1297  0E E8 0003				callf	sub_42			; (129E)
2926:129B  02 20				add	ah,[bx+si]
2926:129D  28 B8 FFFF				sub	ds:data_399e[bx+si],bh	; (2926:FFFF=0)
2926:12A1  50					push	ax
2926:12A2  B8 FFFF				mov	ax,0FFFFh
2926:12A5  50					push	ax
2926:12A6  E8 6C8E				call	sub_171			; (7F37)
2926:12A9  8A 46 04				mov	al,[bp+4]
2926:12AC  32 E4				xor	ah,ah			; Zero register
2926:12AE  81 F8 0059				cmp	ax,59h
2926:12B2  B8 0000				mov	ax,0
2926:12B5  75 01				jnz	loc_127			; Jump if not zero
2926:12B7  40					inc	ax
2926:12B8			loc_127:
2926:12B8  D0 D8				rcr	al,1			; Rotate thru carry
2926:12BA  72 03				jc	loc_128			; Jump if carry Set
2926:12BC  E9 001E				jmp	loc_129			; (12DD)
2926:12BF			loc_128:
2926:12BF  1E					push	ds
2926:12C0  B8 82FD				mov	ax,82FDh
2926:12C3  50					push	ax
2926:12C4  E8 56B5				call	sub_143			; (697C)
2926:12C7  0E E8 0004				callf	sub_43			; (12CF)
2926:12CB  03 59 2F				add	bx,[bx+di+2Fh]
2926:12CE  4E					dec	si

				;ßßßßßßßßßßßßßßßßßßßßßßßßßßßßßßßßßßßßßßßßßßßßßßßßßßßßßßßßßßßßßßßßßßßßßßßßßß
				;                              SUBROUTINE
				;ÜÜÜÜÜÜÜÜÜÜÜÜÜÜÜÜÜÜÜÜÜÜÜÜÜÜÜÜÜÜÜÜÜÜÜÜÜÜÜÜÜÜÜÜÜÜÜÜÜÜÜÜÜÜÜÜÜÜÜÜÜÜÜÜÜÜÜÜÜÜÜÜÜÜ

2926:12CF			sub_43		proc	near
           ICON.LST				Sourcer	v8.01  20-Jul-2026 12:15 am   Page 42

2926:12CF  B8 FFFF				mov	ax,0FFFFh
2926:12D2  50					push	ax
2926:12D3  B8 FFFF				mov	ax,0FFFFh
2926:12D6  50					push	ax
2926:12D7  E8 6C5D				call	sub_171			; (7F37)
2926:12DA  E9 001B				jmp	loc_130			; (12F8)
2926:12DD			loc_129:
2926:12DD  1E					push	ds
2926:12DE  B8 82FD				mov	ax,82FDh
2926:12E1  50					push	ax
2926:12E2  E8 5697				call	sub_143			; (697C)
2926:12E5  0E E8 0004				callf	sub_44			; (12ED)
2926:12E9  03 4E 2F				add	cx,[bp+2Fh]
2926:12EC  59					pop	cx

				;ßßßß External Entry into Subroutine ßßßßßßßßßßßßßßßßßßßßßßßßßßßßßßßßßßßßßß

2926:12ED			sub_44:
2926:12ED  B8 FFFF				mov	ax,0FFFFh
2926:12F0  50					push	ax
2926:12F1  B8 FFFF				mov	ax,0FFFFh
2926:12F4  50					push	ax
2926:12F5  E8 6C3F				call	sub_171			; (7F37)
2926:12F8			loc_130:
2926:12F8  1E					push	ds
2926:12F9  B8 82FD				mov	ax,82FDh
2926:12FC  50					push	ax
2926:12FD  E8 567C				call	sub_143			; (697C)
2926:1300  0E E8 0004				callf	sub_45			; (1308)
2926:1304  03 29				add	bp,[bx+di]
2926:1306  3F					aas				; Ascii adjust
2926:1307  20 B8 FFFF				and	ds:data_399e[bx+si],bh	; (2926:FFFF=0)
2926:130B  50					push	ax
2926:130C  B8 FFFF				mov	ax,0FFFFh
2926:130F  50					push	ax
2926:1310  E8 6C24				call	sub_171			; (7F37)
2926:1313			loc_131:
2926:1313  E8 4505				call	sub_103			; (581B)
2926:1316  88 46 A2				mov	[bp-5Eh],al
2926:1319  8A 46 A2				mov	al,[bp-5Eh]
2926:131C  32 E4				xor	ah,ah			; Zero register
2926:131E  81 F8 0079				cmp	ax,79h
2926:1322  B8 0000				mov	ax,0
2926:1325  75 01				jnz	loc_132			; Jump if not zero
2926:1327  40					inc	ax
2926:1328			loc_132:
2926:1328  D0 D8				rcr	al,1			; Rotate thru carry
2926:132A  72 03				jc	loc_133			; Jump if carry Set
2926:132C  E9 0007				jmp	loc_134			; (1336)
2926:132F			loc_133:
2926:132F  C6 46 A2 59				mov	byte ptr [bp-5Eh],59h	; 'Y'
2926:1333  E9 001A				jmp	loc_137			; (1350)
2926:1336			loc_134:
2926:1336  8A 46 A2				mov	al,[bp-5Eh]
2926:1339  32 E4				xor	ah,ah			; Zero register
2926:133B  81 F8 006E				cmp	ax,6Eh
2926:133F  B8 0000				mov	ax,0
           ICON.LST				Sourcer	v8.01  20-Jul-2026 12:15 am   Page 43

2926:1342  75 01				jnz	loc_135			; Jump if not zero
2926:1344  40					inc	ax
2926:1345			loc_135:
2926:1345  D0 D8				rcr	al,1			; Rotate thru carry
2926:1347  72 03				jc	loc_136			; Jump if carry Set
2926:1349  E9 0004				jmp	loc_137			; (1350)
2926:134C			loc_136:
2926:134C  C6 46 A2 4E				mov	byte ptr [bp-5Eh],4Eh	; 'N'
2926:1350			loc_137:
2926:1350  8A 46 A2				mov	al,[bp-5Eh]
2926:1353  32 E4				xor	ah,ah			; Zero register
2926:1355  81 F8 00C7				cmp	ax,0C7h
2926:1359  B8 0000				mov	ax,0
2926:135C  75 01				jnz	loc_138			; Jump if not zero
2926:135E  40					inc	ax
2926:135F			loc_138:
2926:135F  D0 D8				rcr	al,1			; Rotate thru carry
2926:1361  72 03				jc	loc_139			; Jump if carry Set
2926:1363  E9 0006				jmp	loc_140			; (136C)
2926:1366			loc_139:
2926:1366  E8 0BB1				call	sub_74			; (1F1A)
2926:1369  E8 6FE7				call	sub_191			; (8353)
2926:136C			loc_140:
2926:136C  8A 46 A2				mov	al,[bp-5Eh]
2926:136F  32 E4				xor	ah,ah			; Zero register
2926:1371  81 F8 0059				cmp	ax,59h
2926:1375  B8 0000				mov	ax,0
2926:1378  75 01				jnz	loc_141			; Jump if not zero
2926:137A  40					inc	ax
2926:137B			loc_141:
2926:137B  50					push	ax
2926:137C  8A 46 A2				mov	al,[bp-5Eh]
2926:137F  32 E4				xor	ah,ah			; Zero register
2926:1381  81 F8 004E				cmp	ax,4Eh
2926:1385  B8 0000				mov	ax,0
2926:1388  75 01				jnz	loc_142			; Jump if not zero
2926:138A  40					inc	ax
2926:138B			loc_142:
2926:138B  5B					pop	bx
2926:138C  0B C3				or	ax,bx
2926:138E  50					push	ax
2926:138F  8A 46 A2				mov	al,[bp-5Eh]
2926:1392  32 E4				xor	ah,ah			; Zero register
2926:1394  81 F8 000D				cmp	ax,0Dh
2926:1398  B8 0000				mov	ax,0
2926:139B  75 01				jnz	loc_143			; Jump if not zero
2926:139D  40					inc	ax
2926:139E			loc_143:
2926:139E  5B					pop	bx
2926:139F  0B C3				or	ax,bx
2926:13A1  D0 D8				rcr	al,1			; Rotate thru carry
2926:13A3  72 03				jc	loc_144			; Jump if carry Set
2926:13A5  E9 FF6B				jmp	loc_131			; (1313)
2926:13A8			loc_144:
2926:13A8  8A 46 A2				mov	al,[bp-5Eh]
2926:13AB  32 E4				xor	ah,ah			; Zero register
2926:13AD  81 F8 0059				cmp	ax,59h
           ICON.LST				Sourcer	v8.01  20-Jul-2026 12:15 am   Page 44

2926:13B1  B8 0000				mov	ax,0
2926:13B4  74 01				jz	loc_145			; Jump if zero
2926:13B6  40					inc	ax
2926:13B7			loc_145:
2926:13B7  50					push	ax
2926:13B8  8A 46 A2				mov	al,[bp-5Eh]
2926:13BB  32 E4				xor	ah,ah			; Zero register
2926:13BD  81 F8 004E				cmp	ax,4Eh
2926:13C1  B8 0000				mov	ax,0
2926:13C4  74 01				jz	loc_146			; Jump if zero
2926:13C6  40					inc	ax
2926:13C7			loc_146:
2926:13C7  5B					pop	bx
2926:13C8  23 C3				and	ax,bx
2926:13CA  D0 D8				rcr	al,1			; Rotate thru carry
2926:13CC  72 03				jc	loc_147			; Jump if carry Set
2926:13CE  E9 0006				jmp	loc_148			; (13D7)
2926:13D1			loc_147:
2926:13D1  8A 46 04				mov	al,[bp+4]
2926:13D4  88 46 A2				mov	[bp-5Eh],al
2926:13D7			loc_148:
2926:13D7  8A 46 A2				mov	al,[bp-5Eh]
2926:13DA  32 E4				xor	ah,ah			; Zero register
2926:13DC  50					push	ax
2926:13DD  1E					push	ds
2926:13DE  B8 82FD				mov	ax,82FDh
2926:13E1  50					push	ax
2926:13E2  E8 5597				call	sub_143			; (697C)
2926:13E5  B8 FFFF				mov	ax,0FFFFh
2926:13E8  50					push	ax
2926:13E9  B8 FFFF				mov	ax,0FFFFh
2926:13EC  50					push	ax
2926:13ED  E8 6B77				call	sub_172			; (7F67)
2926:13F0  8A 46 A2				mov	al,[bp-5Eh]
2926:13F3  32 E4				xor	ah,ah			; Zero register
2926:13F5  81 F8 0059				cmp	ax,59h
2926:13F9  B8 0000				mov	ax,0
2926:13FC  75 01				jnz	loc_149			; Jump if not zero
2926:13FE  40					inc	ax
2926:13FF			loc_149:
2926:13FF  88 46 F4				mov	[bp-0Ch],al
2926:1402  8A 46 F4				mov	al,[bp-0Ch]
2926:1405  32 E4				xor	ah,ah			; Zero register
2926:1407  8B E5				mov	sp,bp
2926:1409  5D					pop	bp
2926:140A  C2 0006				retn	6
				sub_43		endp

2926:140D			loc_150:
2926:140D  55					push	bp
2926:140E  8B EC				mov	bp,sp
2926:1410  55					push	bp
2926:1411  81 EC 0053				sub	sp,53h
2926:1415  16					push	ss
2926:1416  8D 46 AD				lea	ax,[bp-53h]		; Load effective addr
2926:1419  50					push	ax
2926:141A  8B 46 06				mov	ax,[bp+6]
           ICON.LST				Sourcer	v8.01  20-Jul-2026 12:15 am   Page 45

2926:141D  50					push	ax
2926:141E  8B 46 04				mov	ax,[bp+4]
2926:1421  50					push	ax
2926:1422  B8 0051				mov	ax,51h
2926:1425  50					push	ax
2926:1426  E8 51E9				call	sub_124			; (6612)
2926:1429  E8 662C				call	sub_163			; (7A58)
2926:142C  3D 0000				cmp	ax,0
2926:142F  75 03				jne	loc_151			; Jump if not equal
2926:1431  E9 002D				jmp	loc_152			; (1461)
2926:1434			loc_151:
2926:1434  E8 6C7A				call	sub_177			; (80B1)
2926:1437  0E E8 0013				callf	sub_46			; (144E)
2926:143B  12 43 61				adc	al,[bp+di+61h]
2926:143E  6E 27 74 20 6F 70			db	'n', 27h, 't open file - '
2926:1444  65 6E 20 66 69 6C
2926:144A  65 20 2D 20

				;ßßßßßßßßßßßßßßßßßßßßßßßßßßßßßßßßßßßßßßßßßßßßßßßßßßßßßßßßßßßßßßßßßßßßßßßßßß
				;                              SUBROUTINE
				;ÜÜÜÜÜÜÜÜÜÜÜÜÜÜÜÜÜÜÜÜÜÜÜÜÜÜÜÜÜÜÜÜÜÜÜÜÜÜÜÜÜÜÜÜÜÜÜÜÜÜÜÜÜÜÜÜÜÜÜÜÜÜÜÜÜÜÜÜÜÜÜÜÜÜ

2926:144E			sub_46		proc	near
2926:144E  E8 6C66				call	sub_179			; (80B7)
2926:1451  16					push	ss
2926:1452  8D 46 AD				lea	ax,[bp-53h]		; Load effective addr
2926:1455  50					push	ax
2926:1456  E8 6C5E				call	sub_179			; (80B7)
2926:1459  E8 6C52				call	sub_176			; (80AE)
2926:145C  53					push	bx
2926:145D  50					push	ax
2926:145E  E8 EC44				call	sub_6			; (00A5)
2926:1461			loc_152:
2926:1461  8B E5				mov	sp,bp
2926:1463  5D					pop	bp
2926:1464  C2 0004				retn	4
				sub_46		endp

2926:1467			loc_154:
2926:1467  55					push	bp
2926:1468  8B EC				mov	bp,sp
2926:146A  55					push	bp
2926:146B  81 EC 0059				sub	sp,59h
2926:146F  16					push	ss
2926:1470  8D 46 AD				lea	ax,[bp-53h]		; Load effective addr
2926:1473  50					push	ax
2926:1474  E8 EC46				call	sub_13			; (00BD)
2926:1477  1E					push	ds
2926:1478  B8 2B24				mov	ax,2B24h
2926:147B  50					push	ax
2926:147C  B8 0080				mov	ax,80h
2926:147F  50					push	ax
2926:1480  16					push	ss
2926:1481  8D 46 AD				lea	ax,[bp-53h]		; Load effective addr
2926:1484  50					push	ax
2926:1485  E8 6EEC				call	sub_193			; (8374)
2926:1488  1E					push	ds
           ICON.LST				Sourcer	v8.01  20-Jul-2026 12:15 am   Page 46

2926:1489  B8 2B24				mov	ax,2B24h
2926:148C  50					push	ax
2926:148D  B8 0080				mov	ax,80h
2926:1490  50					push	ax
2926:1491  E8 51B7				call	sub_125			; (664B)
2926:1494  E8 65C1				call	sub_163			; (7A58)
2926:1497  3D 0000				cmp	ax,0
2926:149A  75 03				jne	loc_155			; Jump if not equal
2926:149C  E9 00E2				jmp	loc_159			; (1581)
2926:149F			loc_155:
2926:149F  E8 0A78				call	sub_74			; (1F1A)
2926:14A2  1E					push	ds
2926:14A3  B8 82FD				mov	ax,82FDh
2926:14A6  50					push	ax
2926:14A7  E8 54D2				call	sub_143			; (697C)
2926:14AA			loc_156:
2926:14AA  E8 631B				call	sub_158			; (77C8)
2926:14AD  1E					push	ds
2926:14AE  B8 82FD				mov	ax,82FDh
2926:14B1  50					push	ax
2926:14B2  E8 54C7				call	sub_143			; (697C)
2926:14B5  0E E8 001C				callf	sub_47			; (14D5)
2926:14B9  1B 43 61				sbb	ax,[bp+di+61h]
2926:14BC  6E 27 74 20 66 69			db	'n', 27h, 't find saved game file'
2926:14C2  6E 64 20 73 61 76
2926:14C8  65 64 20 67 61 6D
2926:14CE  65 20 66 69 6C 65
2926:14D4  2E					db	'.'

				;ßßßßßßßßßßßßßßßßßßßßßßßßßßßßßßßßßßßßßßßßßßßßßßßßßßßßßßßßßßßßßßßßßßßßßßßßßß
				;                              SUBROUTINE
				;ÜÜÜÜÜÜÜÜÜÜÜÜÜÜÜÜÜÜÜÜÜÜÜÜÜÜÜÜÜÜÜÜÜÜÜÜÜÜÜÜÜÜÜÜÜÜÜÜÜÜÜÜÜÜÜÜÜÜÜÜÜÜÜÜÜÜÜÜÜÜÜÜÜÜ

2926:14D5			sub_47		proc	near
2926:14D5  B8 FFFF				mov	ax,0FFFFh
2926:14D8  50					push	ax
2926:14D9  B8 FFFF				mov	ax,0FFFFh
2926:14DC  50					push	ax
2926:14DD  E8 6A57				call	sub_171			; (7F37)
2926:14E0			loc_157:
2926:14E0  E8 62E5				call	sub_158			; (77C8)
2926:14E3  1E					push	ds
2926:14E4  B8 82FD				mov	ax,82FDh
2926:14E7  50					push	ax
2926:14E8  E8 5491				call	sub_143			; (697C)
2926:14EB  E8 62DA				call	sub_158			; (77C8)
2926:14EE  1E					push	ds
2926:14EF  B8 82FD				mov	ax,82FDh
2926:14F2  50					push	ax
2926:14F3  E8 5486				call	sub_143			; (697C)
2926:14F6  0E E8 0033				callf	sub_48			; (152D)
2926:14FA  32 44 6F 20 79 6F			db	'2Do you have the correct disk in'
2926:1500  75 20 68 61 76 65
2926:1506  20 74 68 65 20 63
2926:150C  6F 72 72 65 63 74
2926:1512  20 64 69 73 6B 20
2926:1518  69 6E
           ICON.LST				Sourcer	v8.01  20-Jul-2026 12:15 am   Page 47

2926:151A  20 74 68 65 20 64			db	' the default drive?'
2926:1520  65 66 61 75 6C 74
2926:1526  20 64 72 69 76 65
2926:152C  3F

				;ßßßß External Entry into Subroutine ßßßßßßßßßßßßßßßßßßßßßßßßßßßßßßßßßßßßßß

2926:152D			sub_48:
2926:152D  B8 FFFF				mov	ax,0FFFFh
2926:1530  50					push	ax
2926:1531  B8 FFFF				mov	ax,0FFFFh
2926:1534  50					push	ax
2926:1535  E8 69FF				call	sub_171			; (7F37)
2926:1538  E8 628D				call	sub_158			; (77C8)
2926:153B  1E					push	ds
2926:153C  B8 82FD				mov	ax,82FDh
2926:153F  50					push	ax
2926:1540  E8 5439				call	sub_143			; (697C)
2926:1543  0E E8 0029				callf	sub_49			; (1570)
2926:1547  28 44 69 64 20 79			db	'(Did you enter the file number c'
2926:154D  6F 75 20 65 6E 74
2926:1553  65 72 20 74 68 65
2926:1559  20 66 69 6C 65 20
2926:155F  6E 75 6D 62 65 72
2926:1565  20 63
2926:1567  6F 72 72 65 63 74			db	'orrectly?'
2926:156D  6C 79 3F

				;ßßßß External Entry into Subroutine ßßßßßßßßßßßßßßßßßßßßßßßßßßßßßßßßßßßßßß

2926:1570			sub_49:
2926:1570  B8 FFFF				mov	ax,0FFFFh
2926:1573  50					push	ax
2926:1574  B8 FFFF				mov	ax,0FFFFh
2926:1577  50					push	ax
2926:1578  E8 69BC				call	sub_171			; (7F37)
2926:157B  E8 624A				call	sub_158			; (77C8)
2926:157E  E8 6DD2				call	sub_191			; (8353)
2926:1581			loc_159:
2926:1581  C7 06 2904 0000			mov	data_147,0		; (2926:2904=6F63h)
2926:1587  1E					push	ds
2926:1588  B8 2B24				mov	ax,2B24h
2926:158B  50					push	ax
2926:158C  B8 0080				mov	ax,80h
2926:158F  50					push	ax
2926:1590  E8 63E6				call	sub_161			; (7979)
2926:1593  89 46 A9				mov	[bp-57h],ax
2926:1596  C7 46 AB FFFF			mov	word ptr [bp-55h],0FFFFh
2926:159B  C7 46 A7 0009			mov	word ptr [bp-59h],9
2926:15A0			loc_160:
2926:15A0  FF 46 AB				inc	word ptr [bp-55h]
2926:15A3  FF 4E A7				dec	word ptr [bp-59h]
2926:15A6  7D 03				jge	loc_161			; Jump if > or =
2926:15A8  E9 001F				jmp	loc_162			; (15CA)
2926:15AB			loc_161:
2926:15AB  16					push	ss
2926:15AC  8D 46 AD				lea	ax,[bp-53h]		; Load effective addr
           ICON.LST				Sourcer	v8.01  20-Jul-2026 12:15 am   Page 48

2926:15AF  50					push	ax
2926:15B0  8B 46 AB				mov	ax,[bp-55h]
2926:15B3  5B					pop	bx
2926:15B4  03 C3				add	ax,bx
2926:15B6  50					push	ax
2926:15B7  1E					push	ds
2926:15B8  B8 2B24				mov	ax,2B24h
2926:15BB  50					push	ax
2926:15BC  B8 0080				mov	ax,80h
2926:15BF  50					push	ax
2926:15C0  E8 63B6				call	sub_161			; (7979)
2926:15C3  5F					pop	di
2926:15C4  07					pop	es
2926:15C5  26: 88 05				mov	es:[di],al
2926:15C8  EB D6				jmp	short loc_160		; (15A0)
2926:15CA			loc_162:
2926:15CA  16					push	ss
2926:15CB  8D 46 AD				lea	ax,[bp-53h]		; Load effective addr
2926:15CE  50					push	ax
2926:15CF  0E E8 0009				callf	sub_50			; (15DC)
2926:15D3  08 49 43				or	[bx+di+43h],cl
2926:15D6  4F					dec	di
2926:15D7  4E					dec	si
2926:15D8  20 31				and	[bx+di],dh
2926:15DA  2E 31				db	 2Eh, 31h

				;ßßßß External Entry into Subroutine ßßßßßßßßßßßßßßßßßßßßßßßßßßßßßßßßßßßßßß

2926:15DC			sub_50:
2926:15DC  E8 6712				call	$+6715h
2926:15DF  D0 D8				rcr	al,1			; Rotate thru carry
2926:15E1  72 03				jc	loc_163			; Jump if carry Set
2926:15E3  E9 001F				jmp	loc_164			; (1605)
2926:15E6			loc_163:
2926:15E6  0E E8 0018				callf	sub_51			; (1602)
2926:15EA  17					pop	ss
2926:15EB  49					dec	cx
2926:15EC  6E 63 6F 6D 70 61			db	'ncompatible saved game'
2926:15F2  74 69 62 6C 65 20
2926:15F8  73 61 76 65 64 20
2926:15FE  67 61 6D 65

				;ßßßß External Entry into Subroutine ßßßßßßßßßßßßßßßßßßßßßßßßßßßßßßßßßßßßßß

2926:1602			sub_51:
2926:1602  E8 EAA0				call	sub_6			; (00A5)
2926:1605			loc_164:
2926:1605  16					push	ss
2926:1606  8D 46 A9				lea	ax,[bp-57h]		; Load effective addr
2926:1609  50					push	ax
2926:160A  E8 EAA7				call	sub_11			; (00B4)
2926:160D  8B 46 A9				mov	ax,[bp-57h]
2926:1610  A2 2DA8				mov	data_170,al		; (2926:2DA8=2Eh)
2926:1613  1E					push	ds
2926:1614  B8 5E2E				mov	ax,5E2Eh
2926:1617  50					push	ax
2926:1618  E8 EA99				call	sub_11			; (00B4)
           ICON.LST				Sourcer	v8.01  20-Jul-2026 12:15 am   Page 49

2926:161B  16					push	ss
2926:161C  8D 46 A9				lea	ax,[bp-57h]		; Load effective addr
2926:161F  50					push	ax
2926:1620  E8 EA91				call	sub_11			; (00B4)
2926:1623  81 7E A9 0001			cmp	word ptr [bp-57h],1
2926:1628  B8 0000				mov	ax,0
2926:162B  75 01				jnz	loc_165			; Jump if not zero
2926:162D  40					inc	ax
2926:162E			loc_165:
2926:162E  A2 2070				mov	data_141,al		; (2926:2070=5Bh)
2926:1631  1E					push	ds
2926:1632  B8 2A46				mov	ax,2A46h
2926:1635  50					push	ax
2926:1636  E8 EA7B				call	sub_11			; (00B4)
2926:1639  A1 2904				mov	ax,data_147		; (2926:2904=6F63h)
2926:163C  89 46 A9				mov	[bp-57h],ax
2926:163F  16					push	ss
2926:1640  8D 46 AB				lea	ax,[bp-55h]		; Load effective addr
2926:1643  50					push	ax
2926:1644  E8 EA6D				call	sub_11			; (00B4)
2926:1647  8B 46 A9				mov	ax,[bp-57h]
2926:164A  93					xchg	bx,ax
2926:164B  8B 46 AB				mov	ax,[bp-55h]
2926:164E  3B D8				cmp	bx,ax
2926:1650  75 03				jne	loc_167			; Jump if not equal
2926:1652  E9 0003				jmp	loc_168			; (1658)
2926:1655			loc_167:
2926:1655  E8 EA4A				call	sub_5			; (00A2)
2926:1658			loc_168:
2926:1658  8B E5				mov	sp,bp
2926:165A  5D					pop	bp
2926:165B  C3					retn
				sub_47		endp

2926:165C			loc_169:
2926:165C  55					push	bp
2926:165D			loc_170:
2926:165D  8B EC				mov	bp,sp
2926:165F  55					push	bp
2926:1660  81 EC 0002				sub	sp,2
2926:1664  1E					push	ds
2926:1665  B8 2906				mov	ax,2906h
2926:1668  50					push	ax
2926:1669  FF 76 0C				push	word ptr [bp+0Ch]
2926:166C  58					pop	ax
2926:166D  BB 0004				mov	bx,4
2926:1670  F7 E3				mul	bx			; dx:ax = reg * ax
2926:1672  5B					pop	bx
2926:1673  03 C3				add	ax,bx
2926:1675  05 0000				add	ax,0
2926:1678  97					xchg	di,ax
2926:1679  8B 46 0A				mov	ax,[bp+0Ah]
2926:167C  07					pop	es
2926:167D  26: 88 05				mov	es:[di],al
2926:1680  1E					push	ds
2926:1681  B8 2906				mov	ax,2906h
2926:1684  50					push	ax
           ICON.LST				Sourcer	v8.01  20-Jul-2026 12:15 am   Page 50

2926:1685  FF 76 0C				push	word ptr [bp+0Ch]
2926:1688  58					pop	ax
2926:1689  BB 0004				mov	bx,4
2926:168C  F7 E3				mul	bx			; dx:ax = reg * ax
2926:168E  5B					pop	bx
2926:168F  03 C3				add	ax,bx
2926:1691  05 0001				add	ax,1
2926:1694  97					xchg	di,ax
2926:1695  8B 46 08				mov	ax,[bp+8]
2926:1698  07					pop	es
2926:1699  26: 88 05				mov	es:[di],al
2926:169C  1E					push	ds
2926:169D  B8 2906				mov	ax,2906h
2926:16A0  50					push	ax
2926:16A1  FF 76 0C				push	word ptr [bp+0Ch]
2926:16A4  58					pop	ax
2926:16A5  BB 0004				mov	bx,4
2926:16A8  F7 E3				mul	bx			; dx:ax = reg * ax
2926:16AA  5B					pop	bx
2926:16AB  03 C3				add	ax,bx
2926:16AD  05 0002				add	ax,2
2926:16B0  97					xchg	di,ax
2926:16B1  8B 46 06				mov	ax,[bp+6]
2926:16B4  07					pop	es
2926:16B5  26: 88 05				mov	es:[di],al
2926:16B8  1E					push	ds
2926:16B9  B8 2906				mov	ax,2906h
2926:16BC  50					push	ax
2926:16BD  FF 76 0C				push	word ptr [bp+0Ch]
2926:16C0  58					pop	ax
2926:16C1  BB 0004				mov	bx,4
2926:16C4  F7 E3				mul	bx			; dx:ax = reg * ax
2926:16C6  5B					pop	bx
2926:16C7  03 C3				add	ax,bx
2926:16C9  05 0003				add	ax,3
2926:16CC  97					xchg	di,ax
2926:16CD  8B 46 04				mov	ax,[bp+4]
2926:16D0  07					pop	es
2926:16D1  26: 88 05				mov	es:[di],al
2926:16D4  8B E5				mov	sp,bp
2926:16D6  5D					pop	bp
2926:16D7  C2 000A				retn	0Ah
2926:16DA			loc_172:
2926:16DA  55					push	bp
2926:16DB  8B EC				mov	bp,sp
2926:16DD  55					push	bp
2926:16DE  81 EC 0022				sub	sp,22h
2926:16E2  FF 76 08				push	word ptr [bp+8]
2926:16E5  FF 76 06				push	word ptr [bp+6]
2926:16E8  FF 76 04				push	word ptr [bp+4]
2926:16EB  FF 76 06				push	word ptr [bp+6]
2926:16EE  FF 76 04				push	word ptr [bp+4]
2926:16F1  E8 E9D5				call	sub_17			; (00C9)
2926:16F4  8B E5				mov	sp,bp
2926:16F6  5D					pop	bp
2926:16F7  C2 0006				retn	6
2926:16FA			loc_173:
           ICON.LST				Sourcer	v8.01  20-Jul-2026 12:15 am   Page 51

2926:16FA  55					push	bp
2926:16FB  8B EC				mov	bp,sp
2926:16FD  55					push	bp
2926:16FE  81 EC 0010				sub	sp,10h
2926:1702  0E					push	cs
2926:1703  B8 2814				mov	ax,2814h
2926:1706  93					xchg	bx,ax
2926:1707  B8 1686				mov	ax,1686h
2926:170A  03 C3				add	ax,bx
2926:170C  89 46 F6				mov	[bp-0Ah],ax
2926:170F  58					pop	ax
2926:1710  89 46 F8				mov	[bp-8],ax
2926:1713  0E					push	cs
2926:1714  B8 390D				mov	ax,390Dh
2926:1717  93					xchg	bx,ax
2926:1718  B8 1697				mov	ax,1697h
2926:171B  03 C3				add	ax,bx
2926:171D  89 46 FA				mov	[bp-6],ax
2926:1720  58					pop	ax
2926:1721  89 46 FC				mov	[bp-4],ax
2926:1724  8B 46 FA				mov	ax,[bp-6]
2926:1727  93					xchg	bx,ax
2926:1728  8B 46 F6				mov	ax,[bp-0Ah]
2926:172B  2B D8				sub	bx,ax
2926:172D  53					push	bx
2926:172E  B8 0002				mov	ax,2
2926:1731  5B					pop	bx
2926:1732  93					xchg	bx,ax
2926:1733  99					cwd				; Word to double word
2926:1734  F7 FB				idiv	bx			; ax,dx rem=dx:ax/reg
2926:1736  89 46 F4				mov	[bp-0Ch],ax
2926:1739  1E					push	ds
2926:173A  B8 680A				mov	ax,680Ah
2926:173D  89 46 F0				mov	[bp-10h],ax
2926:1740  58					pop	ax
2926:1741  89 46 F2				mov	[bp-0Eh],ax
2926:1744  FF 76 F8				push	word ptr [bp-8]
2926:1747  FF 76 F6				push	word ptr [bp-0Ah]
2926:174A  FF 76 F2				push	word ptr [bp-0Eh]
2926:174D  FF 76 F0				push	word ptr [bp-10h]
2926:1750  FF 76 F4				push	word ptr [bp-0Ch]
2926:1753  E8 08BC				call	sub_76			; (2012)
2926:1756  0E					push	cs
2926:1757  B8 38CA				mov	ax,38CAh
2926:175A  93					xchg	bx,ax
2926:175B  B8 16DA				mov	ax,16DAh
2926:175E  03 C3				add	ax,bx
2926:1760  89 46 F6				mov	[bp-0Ah],ax
2926:1763  58					pop	ax
2926:1764  89 46 F8				mov	[bp-8],ax
2926:1767  0E					push	cs
2926:1768  B8 40A7				mov	ax,40A7h
2926:176B  93					xchg	bx,ax
2926:176C  B8 16EB				mov	ax,16EBh
2926:176F  03 C3				add	ax,bx
2926:1771  89 46 FA				mov	[bp-6],ax
2926:1774  58					pop	ax
           ICON.LST				Sourcer	v8.01  20-Jul-2026 12:15 am   Page 52

2926:1775  89 46 FC				mov	[bp-4],ax
2926:1778  8B 46 FA				mov	ax,[bp-6]
2926:177B  93					xchg	bx,ax
2926:177C  8B 46 F6				mov	ax,[bp-0Ah]
2926:177F  2B D8				sub	bx,ax
2926:1781  53					push	bx
2926:1782  B8 0002				mov	ax,2
2926:1785  5B					pop	bx
2926:1786  93					xchg	bx,ax
2926:1787  99					cwd				; Word to double word
2926:1788  F7 FB				idiv	bx			; ax,dx rem=dx:ax/reg
2926:178A  89 46 F4				mov	[bp-0Ch],ax
2926:178D  1E					push	ds
2926:178E  B8 601C				mov	ax,601Ch
2926:1791  89 46 F0				mov	[bp-10h],ax
2926:1794  58					pop	ax
2926:1795  89 46 F2				mov	[bp-0Eh],ax
2926:1798  FF 76 F8				push	word ptr [bp-8]
2926:179B  FF 76 F6				push	word ptr [bp-0Ah]
2926:179E  FF 76 F2				push	word ptr [bp-0Eh]
2926:17A1  FF 76 F0				push	word ptr [bp-10h]
2926:17A4  FF 76 F4				push	word ptr [bp-0Ch]
2926:17A7  E8 0868				call	sub_76			; (2012)
2926:17AA  C7 06 2DA6 0047			mov	data_169,47h		; (2926:2DA6=6572h)
2926:17B0  8B E5				mov	sp,bp
2926:17B2  5D					pop	bp
2926:17B3  C3					retn
2926:17B4			loc_174:
2926:17B4  55					push	bp
2926:17B5  8B EC				mov	bp,sp
2926:17B7  55					push	bp
2926:17B8  81 EC 0002				sub	sp,2
2926:17BC  E8 06DC				call	sub_73			; (1E9B)
2926:17BF  E8 12AB				call	sub_92			; (2A6D)
2926:17C2  C6 06 5E20 00			mov	byte ptr data_292,0	; (2926:5E20=26h)
2926:17C7  C6 06 2070 01			mov	byte ptr data_141,1	; (2926:2070=5Bh)
2926:17CC  0E E8 0029				callf	sub_52			; (17F9)
2926:17D0  28 20 44 6F 20 79			db	'( Do you want to restart a saved'
2926:17D6  6F 75 20 77 61 6E
2926:17DC  74 20 74 6F 20 72
2926:17E2  65 73 74 61 72 74
2926:17E8  20 61 20 73 61 76
2926:17EE  65 64
2926:17F0  20 67 61 6D 65 20			db	' game    '
2926:17F6  20 20 20

				;ßßßßßßßßßßßßßßßßßßßßßßßßßßßßßßßßßßßßßßßßßßßßßßßßßßßßßßßßßßßßßßßßßßßßßßßßßß
				;                              SUBROUTINE
				;ÜÜÜÜÜÜÜÜÜÜÜÜÜÜÜÜÜÜÜÜÜÜÜÜÜÜÜÜÜÜÜÜÜÜÜÜÜÜÜÜÜÜÜÜÜÜÜÜÜÜÜÜÜÜÜÜÜÜÜÜÜÜÜÜÜÜÜÜÜÜÜÜÜÜ

2926:17F9			sub_52		proc	near
2926:17F9  B8 004E				mov	ax,4Eh
2926:17FC  50					push	ax
2926:17FD  E8 E8C0				call	sub_14			; (00C0)
2926:1800  D0 D8				rcr	al,1			; Rotate thru carry
2926:1802  72 03				jc	loc_175			; Jump if carry Set
2926:1804  E9 000B				jmp	loc_176			; (1812)
           ICON.LST				Sourcer	v8.01  20-Jul-2026 12:15 am   Page 53

2926:1807			loc_175:
2926:1807  E8 E8BC				call	sub_16			; (00C6)
2926:180A  C6 06 5E20 01			mov	byte ptr data_292,1	; (2926:5E20=26h)
2926:180F  E9 0056				jmp	loc_178			; (1868)
2926:1812			loc_176:
2926:1812  1E					push	ds
2926:1813  B8 82FD				mov	ax,82FDh
2926:1816  50					push	ax
2926:1817  E8 5162				call	sub_143			; (697C)
2926:181A  E8 5FAB				call	sub_158			; (77C8)
2926:181D  1E					push	ds
2926:181E  B8 82FD				mov	ax,82FDh
2926:1821  50					push	ax
2926:1822  E8 5157				call	sub_143			; (697C)
2926:1825  E8 5FA0				call	sub_158			; (77C8)
2926:1828  0E E8 0029				callf	sub_53			; (1855)
2926:182C  28 20 44 6F 20 79			db	'( Do you want to play an advance'
2926:1832  6F 75 20 77 61 6E
2926:1838  74 20 74 6F 20 70
2926:183E  6C 61 79 20 61 6E
2926:1844  20 61 64 76 61 6E
2926:184A  63 65
2926:184C  64 20 67 61 6D 65			db	'd game   '
2926:1852  20 20 20

				;ßßßß External Entry into Subroutine ßßßßßßßßßßßßßßßßßßßßßßßßßßßßßßßßßßßßßß

2926:1855			sub_53:
2926:1855  B8 004E				mov	ax,4Eh
2926:1858  50					push	ax
2926:1859  E8 E864				call	sub_14			; (00C0)
2926:185C  D0 D8				rcr	al,1			; Rotate thru carry
2926:185E  72 03				jc	loc_177			; Jump if carry Set
2926:1860  E9 0005				jmp	loc_178			; (1868)
2926:1863			loc_177:
2926:1863  C6 06 2070 00			mov	byte ptr data_141,0	; (2926:2070=5Bh)
2926:1868			loc_178:
2926:1868  A0 5E20				mov	al,data_292		; (2926:5E20=26h)
2926:186B  32 E4				xor	ah,ah			; Zero register
2926:186D  F7 D0				not	ax
2926:186F  D0 D8				rcr	al,1			; Rotate thru carry
2926:1871  72 03				jc	loc_179			; Jump if carry Set
2926:1873  E9 000B				jmp	loc_180			; (1881)
2926:1876			loc_179:
2926:1876  C6 06 2DA8 61			mov	byte ptr data_170,61h	; (2926:2DA8=2Eh) 'a'
2926:187B  C7 06 5E2E 0000			mov	data_293,0		; (2926:5E2E=0C726h)
2926:1881			loc_180:
2926:1881  8B E5				mov	sp,bp
2926:1883  5D					pop	bp
2926:1884  C3					retn
				sub_52		endp

2926:1885			loc_181:
2926:1885  E8 4B37				call	sub_117			; (63BF)
2926:1888  8B EC				mov	bp,sp
2926:188A  4D					dec	bp
2926:188B  4D					dec	bp
           ICON.LST				Sourcer	v8.01  20-Jul-2026 12:15 am   Page 54

2926:188C  55					push	bp
2926:188D  C6 06 5DF4 00			mov	byte ptr data_291,0	; (2926:5DF4=97h)
2926:1892  E8 083A				call	sub_78			; (20CF)
2926:1895  F7 D0				not	ax
2926:1897  D0 D8				rcr	al,1			; Rotate thru carry
2926:1899  72 03				jc	loc_182			; Jump if carry Set
2926:189B  E9 0140				jmp	loc_183			; (19DE)
2926:189E			loc_182:
2926:189E  1E					push	ds
2926:189F  B8 82FD				mov	ax,82FDh
2926:18A2  50					push	ax
2926:18A3  E8 50D6				call	sub_143			; (697C)
2926:18A6  E8 5F1F				call	sub_158			; (77C8)
2926:18A9  1E					push	ds
2926:18AA  B8 82FD				mov	ax,82FDh
2926:18AD  50					push	ax
2926:18AE  E8 50CB				call	sub_143			; (697C)
2926:18B1  0E E8 0025				callf	sub_54			; (18DA)
2926:18B5  24					db	'$'
2926:18B6  59 6F 75 20 6D 75			db	'You must be using the Color Grap'
2926:18BC  73 74 20 62 65 20
2926:18C2  75 73 69 6E 67 20
2926:18C8  74 68 65 20 43 6F
2926:18CE  6C 6F 72 20 47 72
2926:18D4  61 70
2926:18D6  68 69 63 73				db	'hics'

				;ßßßßßßßßßßßßßßßßßßßßßßßßßßßßßßßßßßßßßßßßßßßßßßßßßßßßßßßßßßßßßßßßßßßßßßßßßß
				;                              SUBROUTINE
				;ÜÜÜÜÜÜÜÜÜÜÜÜÜÜÜÜÜÜÜÜÜÜÜÜÜÜÜÜÜÜÜÜÜÜÜÜÜÜÜÜÜÜÜÜÜÜÜÜÜÜÜÜÜÜÜÜÜÜÜÜÜÜÜÜÜÜÜÜÜÜÜÜÜÜ

2926:18DA			sub_54		proc	near
2926:18DA  B8 FFFF				mov	ax,0FFFFh
2926:18DD  50					push	ax
2926:18DE  B8 FFFF				mov	ax,0FFFFh
2926:18E1  50					push	ax
2926:18E2  E8 6652				call	sub_171			; (7F37)
2926:18E5  E8 5EE0				call	sub_158			; (77C8)
2926:18E8  1E					push	ds
2926:18E9  B8 82FD				mov	ax,82FDh
2926:18EC  50					push	ax
2926:18ED  E8 508C				call	sub_143			; (697C)
2926:18F0  0E E8 0029				callf	sub_55			; (191D)
2926:18F4  28 41 64 61 70 74			db	'(Adapter to run ICON: Quest for '
2926:18FA  65 72 20 74 6F 20
2926:1900  72 75 6E 20 49 43
2926:1906  4F 4E 3A 20 51 75
2926:190C  65 73 74 20 66 6F
2926:1912  72 20
2926:1914  74 68 65 20 52 69			db	'the Ring.'
2926:191A  6E 67 2E

				;ßßßß External Entry into Subroutine ßßßßßßßßßßßßßßßßßßßßßßßßßßßßßßßßßßßßßß

2926:191D			sub_55:
2926:191D  B8 FFFF				mov	ax,0FFFFh
2926:1920  50					push	ax
           ICON.LST				Sourcer	v8.01  20-Jul-2026 12:15 am   Page 55

2926:1921  B8 FFFF				mov	ax,0FFFFh
2926:1924  50					push	ax
2926:1925  E8 660F				call	sub_171			; (7F37)
2926:1928  E8 5E9D				call	sub_158			; (77C8)
2926:192B  1E					push	ds
2926:192C  B8 82FD				mov	ax,82FDh
2926:192F  50					push	ax
2926:1930  E8 5049				call	sub_143			; (697C)
2926:1933  E8 5E92				call	sub_158			; (77C8)
2926:1936  1E					push	ds
2926:1937  B8 82FD				mov	ax,82FDh
2926:193A  50					push	ax
2926:193B  E8 503E				call	sub_143			; (697C)
2926:193E  0E E8 0028				callf	sub_56			; (196A)
2926:1942  27 49 6E 73 65 72			db	27h, 'Insert your DOS disk and ty'
2926:1948  74 20 79 6F 75 72
2926:194E  20 44 4F 53 20 64
2926:1954  69 73 6B 20 61 6E
2926:195A  64 20 74 79
2926:195E  70 65 20 4D 4F 44			db	'pe MODE CO40'
2926:1964  45 20 43 4F 34 30

				;ßßßß External Entry into Subroutine ßßßßßßßßßßßßßßßßßßßßßßßßßßßßßßßßßßßßßß

2926:196A			sub_56:
2926:196A  B8 FFFF				mov	ax,0FFFFh
2926:196D  50					push	ax
2926:196E  B8 FFFF				mov	ax,0FFFFh
2926:1971  50					push	ax
2926:1972  E8 65C2				call	sub_171			; (7F37)
2926:1975  E8 5E50				call	sub_158			; (77C8)
2926:1978  1E					push	ds
2926:1979  B8 82FD				mov	ax,82FDh
2926:197C  50					push	ax
2926:197D  E8 4FFC				call	sub_143			; (697C)
2926:1980  0E E8 0028				callf	sub_57			; (19AC)
2926:1984  27 61 6E 64 20 70			db	27h, 'and press the enter key.  T'
2926:198A  72 65 73 73 20 74
2926:1990  68 65 20 65 6E 74
2926:1996  65 72 20 6B 65 79
2926:199C  2E 20 20 54
2926:19A0  68 65 6E 20 72 75			db	'hen run ICON'
2926:19A6  6E 20 49 43 4F 4E

				;ßßßß External Entry into Subroutine ßßßßßßßßßßßßßßßßßßßßßßßßßßßßßßßßßßßßßß

2926:19AC			sub_57:
2926:19AC  B8 FFFF				mov	ax,0FFFFh
2926:19AF  50					push	ax
2926:19B0  B8 FFFF				mov	ax,0FFFFh
2926:19B3  50					push	ax
2926:19B4  E8 6580				call	sub_171			; (7F37)
2926:19B7  E8 5E0E				call	sub_158			; (77C8)
2926:19BA  1E					push	ds
2926:19BB  B8 82FD				mov	ax,82FDh
2926:19BE  50					push	ax
2926:19BF  E8 4FBA				call	sub_143			; (697C)
           ICON.LST				Sourcer	v8.01  20-Jul-2026 12:15 am   Page 56

2926:19C2  0E E8 0007				callf	sub_58			; (19CD)
2926:19C6  06					push	es
2926:19C7  61 67 61 69 6E 2E			db	 61h, 67h, 61h, 69h, 6Eh, 2Eh

				;ßßßß External Entry into Subroutine ßßßßßßßßßßßßßßßßßßßßßßßßßßßßßßßßßßßßßß

2926:19CD			sub_58:
2926:19CD  B8 FFFF				mov	ax,0FFFFh
2926:19D0  50					push	ax
2926:19D1  B8 FFFF				mov	ax,0FFFFh
2926:19D4  50					push	ax
2926:19D5  E8 655F				call	sub_171			; (7F37)
2926:19D8  E8 5DED				call	sub_158			; (77C8)
2926:19DB  E9 034C				jmp	loc_202			; (1D2A)
				sub_54		endp

2926:19DE			loc_183:
2926:19DE  1E					push	ds
2926:19DF  B8 82FD				mov	ax,82FDh
2926:19E2  50					push	ax
2926:19E3  E8 4F96				call	sub_143			; (697C)
2926:19E6  E8 5DDF				call	sub_158			; (77C8)
2926:19E9  B8 B800				mov	ax,0B800h
2926:19EC  50					push	ax
2926:19ED  B8 0000				mov	ax,0
2926:19F0  97					xchg	di,ax
2926:19F1  07					pop	es
2926:19F2  26: C7 05 0001			mov	word ptr es:[di],1
2926:19F7  B8 001B				mov	ax,1Bh
2926:19FA  50					push	ax
2926:19FB  1E					push	ds
2926:19FC  B8 82FD				mov	ax,82FDh
2926:19FF  50					push	ax
2926:1A00  E8 4F79				call	sub_143			; (697C)
2926:1A03  B8 FFFF				mov	ax,0FFFFh
2926:1A06  50					push	ax
2926:1A07  FFB8			data_132	dw	0FFB8h
2926:1A09  FF 50 E8 59 65 0E			db	0FFh, 50h,0E8h, 59h, 65h, 0Eh
2926:1A0F  E8 04 00 03				db	0E8h, 04h, 00h, 03h
2926:1A13  5B 32 4A				db	 5Bh, 32h, 4Ah

				;ßßßßßßßßßßßßßßßßßßßßßßßßßßßßßßßßßßßßßßßßßßßßßßßßßßßßßßßßßßßßßßßßßßßßßßßßßß
				;                              SUBROUTINE
				;ÜÜÜÜÜÜÜÜÜÜÜÜÜÜÜÜÜÜÜÜÜÜÜÜÜÜÜÜÜÜÜÜÜÜÜÜÜÜÜÜÜÜÜÜÜÜÜÜÜÜÜÜÜÜÜÜÜÜÜÜÜÜÜÜÜÜÜÜÜÜÜÜÜÜ

2926:1A16			sub_59		proc	near
2926:1A16  B8 FFFF				mov	ax,0FFFFh
2926:1A19  50					push	ax
2926:1A1A  B8 FFFF				mov	ax,0FFFFh
2926:1A1D  50					push	ax
2926:1A1E  E8 6516				call	sub_171			; (7F37)
2926:1A21  B8 0008				mov	ax,8
2926:1A24  50					push	ax
2926:1A25  B8 FFFF				mov	ax,0FFFFh
2926:1A28  50					push	ax
2926:1A29  B8 FFFF				mov	ax,0FFFFh
2926:1A2C  50					push	ax
           ICON.LST				Sourcer	v8.01  20-Jul-2026 12:15 am   Page 57

2926:1A2D  E8 6537				call	sub_172			; (7F67)
2926:1A30  B8 0008				mov	ax,8
2926:1A33  50					push	ax
2926:1A34  B8 FFFF				mov	ax,0FFFFh
2926:1A37  50					push	ax
2926:1A38  B8 FFFF				mov	ax,0FFFFh
2926:1A3B  50					push	ax
2926:1A3C  E8 6528				call	sub_172			; (7F67)
2926:1A3F  B8 0008				mov	ax,8
2926:1A42  50					push	ax
2926:1A43  B8 FFFF				mov	ax,0FFFFh
2926:1A46  50					push	ax
2926:1A47  B8 FFFF				mov	ax,0FFFFh
2926:1A4A  50					push	ax
2926:1A4B  E8 6519				call	sub_172			; (7F67)
2926:1A4E  B8 0008				mov	ax,8
2926:1A51  50					push	ax
2926:1A52  B8 FFFF				mov	ax,0FFFFh
2926:1A55  50					push	ax
2926:1A56  B8 FFFF				mov	ax,0FFFFh
2926:1A59  50					push	ax
2926:1A5A  E8 650A				call	sub_172			; (7F67)
2926:1A5D  0E E8 0005				callf	sub_60			; (1A66)
2926:1A61  04 20				add	al,20h			; ' '
2926:1A63  20 20				and	[bx+si],ah
2926:1A65  20 B8 FFFF				and	ds:data_399e[bx+si],bh	; (2926:FFFF=0)
2926:1A69  50					push	ax
2926:1A6A  B8 FFFF				mov	ax,0FFFFh
2926:1A6D  50					push	ax
2926:1A6E  E8 64C6				call	sub_171			; (7F37)
2926:1A71  B8 B800				mov	ax,0B800h
2926:1A74  50					push	ax
2926:1A75  B8 0000				mov	ax,0
2926:1A78  97					xchg	di,ax
2926:1A79  07					pop	es
2926:1A7A  26: 8B 05				mov	ax,es:[di]
2926:1A7D  A3 2C18				mov	data_168,ax		; (2926:2C18=6557h)
2926:1A80  A1 2C18				mov	ax,data_168		; (2926:2C18=6557h)
2926:1A83  8A C4				mov	al,ah
2926:1A85  32 E4				xor	ah,ah			; Zero register
2926:1A87  93					xchg	bx,ax
2926:1A88  B8 000F				mov	ax,0Fh
2926:1A8B  23 C3				and	ax,bx
2926:1A8D  A3 0124				mov	data_72,ax		; (2926:0124=5029h)
2926:1A90  A1 2C18				mov	ax,data_168		; (2926:2C18=6557h)
2926:1A93  8A C4				mov	al,ah
2926:1A95  32 E4				xor	ah,ah			; Zero register
2926:1A97  93					xchg	bx,ax
2926:1A98  B8 00F0				mov	ax,0F0h
2926:1A9B  23 C3				and	ax,bx
2926:1A9D  50					push	ax
2926:1A9E  B8 0004				mov	ax,4
2926:1AA1  50					push	ax
2926:1AA2  E8 6801				call	sub_185			; (82A6)
2926:1AA5  A3 0126				mov	data_73,ax		; (2926:0126=468Bh)
2926:1AA8  C6 06 0122 00			mov	byte ptr data_71,0	; (2926:0122=0A1h)
2926:1AAD  A1 2C18				mov	ax,data_168		; (2926:2C18=6557h)
           ICON.LST				Sourcer	v8.01  20-Jul-2026 12:15 am   Page 58

2926:1AB0  3D 0001				cmp	ax,1
2926:1AB3  75 03				jne	loc_184			; Jump if not equal
2926:1AB5  E9 00D7				jmp	loc_187			; (1B8F)
2926:1AB8			loc_184:
2926:1AB8  B8 001B				mov	ax,1Bh
2926:1ABB  50					push	ax
2926:1ABC  1E					push	ds
2926:1ABD  B8 82FD				mov	ax,82FDh
2926:1AC0  50					push	ax
2926:1AC1  E8 4EB8				call	sub_143			; (697C)
2926:1AC4  B8 FFFF				mov	ax,0FFFFh
2926:1AC7  50					push	ax
2926:1AC8  B8 FFFF				mov	ax,0FFFFh
2926:1ACB  50					push	ax
2926:1ACC  E8 6498				call	sub_172			; (7F67)
2926:1ACF  0E E8 0007				callf	sub_61			; (1ADA)
2926:1AD3  06					push	es
2926:1AD4  5B					pop	bx
2926:1AD5  30 3B				xor	[bp+di],bh
2926:1AD7  30 48 30				xor	[bx+si+30h],cl

				;ßßßß External Entry into Subroutine ßßßßßßßßßßßßßßßßßßßßßßßßßßßßßßßßßßßßßß

2926:1ADA			sub_61:
2926:1ADA  B8 FFFF				mov	ax,0FFFFh
2926:1ADD  50					push	ax
2926:1ADE  B8 FFFF				mov	ax,0FFFFh
2926:1AE1  50					push	ax
2926:1AE2  E8 6452				call	sub_171			; (7F37)
2926:1AE5  B8 B800				mov	ax,0B800h
2926:1AE8  50					push	ax
2926:1AE9  B8 0000				mov	ax,0
2926:1AEC  97					xchg	di,ax
2926:1AED  07					pop	es
2926:1AEE  26: 8B 05				mov	ax,es:[di]
2926:1AF1  32 E4				xor	ah,ah			; Zero register
2926:1AF3  A3 2C18				mov	data_168,ax		; (2926:2C18=6557h)
2926:1AF6  A1 2C18				mov	ax,data_168		; (2926:2C18=6557h)
2926:1AF9  3D 0030				cmp	ax,30h
2926:1AFC  74 03				je	loc_185			; Jump if equal
2926:1AFE  E9 0005				jmp	loc_186			; (1B06)
2926:1B01			loc_185:
2926:1B01  C6 06 0122 01			mov	byte ptr data_71,1	; (2926:0122=0A1h)
2926:1B06			loc_186:
2926:1B06  B8 0008				mov	ax,8
2926:1B09  50					push	ax
2926:1B0A  1E					push	ds
2926:1B0B  B8 82FD				mov	ax,82FDh
2926:1B0E  50					push	ax
2926:1B0F  E8 4E6A				call	sub_143			; (697C)
2926:1B12  B8 FFFF				mov	ax,0FFFFh
2926:1B15  50					push	ax
2926:1B16  B8 FFFF				mov	ax,0FFFFh
2926:1B19  50					push	ax
2926:1B1A  E8 644A				call	sub_172			; (7F67)
2926:1B1D  B8 0008				mov	ax,8
2926:1B20  50					push	ax
           ICON.LST				Sourcer	v8.01  20-Jul-2026 12:15 am   Page 59

2926:1B21  B8 FFFF				mov	ax,0FFFFh
2926:1B24  50					push	ax
2926:1B25  B8 FFFF				mov	ax,0FFFFh
2926:1B28  50					push	ax
2926:1B29  E8 643B				call	sub_172			; (7F67)
2926:1B2C  B8 0008				mov	ax,8
2926:1B2F  50					push	ax
2926:1B30  B8 FFFF				mov	ax,0FFFFh
2926:1B33  50					push	ax
2926:1B34  B8 FFFF				mov	ax,0FFFFh
2926:1B37  50					push	ax
2926:1B38  E8 642C				call	sub_172			; (7F67)
2926:1B3B  B8 0008				mov	ax,8
2926:1B3E  50					push	ax
2926:1B3F  B8 FFFF				mov	ax,0FFFFh
2926:1B42  50					push	ax
2926:1B43  B8 FFFF				mov	ax,0FFFFh
2926:1B46  50					push	ax
2926:1B47  E8 641D				call	sub_172			; (7F67)
2926:1B4A  B8 0008				mov	ax,8
2926:1B4D  50					push	ax
2926:1B4E  B8 FFFF				mov	ax,0FFFFh
2926:1B51  50					push	ax
2926:1B52  B8 FFFF				mov	ax,0FFFFh
2926:1B55  50					push	ax
2926:1B56  E8 640E				call	sub_172			; (7F67)
2926:1B59  B8 0008				mov	ax,8
2926:1B5C  50					push	ax
2926:1B5D  B8 FFFF				mov	ax,0FFFFh
2926:1B60  50					push	ax
2926:1B61  B8 FFFF				mov	ax,0FFFFh
2926:1B64  50					push	ax
2926:1B65  E8 63FF				call	sub_172			; (7F67)
2926:1B68  B8 0008				mov	ax,8
2926:1B6B  50					push	ax
2926:1B6C  B8 FFFF				mov	ax,0FFFFh
2926:1B6F  50					push	ax
2926:1B70  B8 FFFF				mov	ax,0FFFFh
2926:1B73  50					push	ax
2926:1B74  E8 63F0				call	sub_172			; (7F67)
2926:1B77  0E E8 0009				callf	sub_62			; (1B84)
2926:1B7B  08 20				or	[bx+si],ah
2926:1B7D  0007[20]				db	7 dup (20h)

				;ßßßß External Entry into Subroutine ßßßßßßßßßßßßßßßßßßßßßßßßßßßßßßßßßßßßßß

2926:1B84			sub_62:
2926:1B84  B8 FFFF				mov	ax,0FFFFh
2926:1B87  50					push	ax
2926:1B88  B8 FFFF				mov	ax,0FFFFh
2926:1B8B  50					push	ax
2926:1B8C  E8 63A8				call	sub_171			; (7F37)
2926:1B8F			loc_187:
2926:1B8F  E8 E53D				call	sub_19			; (00CF)
2926:1B92  1E					push	ds
2926:1B93  B8 012C				mov	ax,12Ch
2926:1B96  A3 206C				mov	data_139,ax		; (2926:206C=1F21h)
           ICON.LST				Sourcer	v8.01  20-Jul-2026 12:15 am   Page 60

2926:1B99  58					pop	ax
2926:1B9A  A3 206E				mov	word ptr data_139+2,ax	; (2926:206E=6B4h)
2926:1B9D  C6 06 2A3E 00			mov	byte ptr data_156,0	; (2926:2A3E=0E9h)
2926:1BA2  C7 06 31BE 0005			mov	data_178,5		; (2926:31BE=200h)
2926:1BA8  C6 06 0120 01			mov	byte ptr ds:[120h],1	; (2926:0120=2)
2926:1BAD  C6 06 5A36 01			mov	byte ptr data_278,1	; (2926:5A36=30h)
2926:1BB2  C6 06 298C 00			mov	byte ptr data_153,0	; (2926:298C=70h)
2926:1BB7  E8 E4FD				call	sub_12			; (00B7)
2926:1BBA  E8 E4EB				call	sub_7			; (00A8)
2926:1BBD  E8 E512				call	sub_20			; (00D2)
2926:1BC0  A0 2070				mov	al,data_141		; (2926:2070=5Bh)
2926:1BC3  D0 D8				rcr	al,1			; Rotate thru carry
2926:1BC5  72 03				jc	loc_191			; Jump if carry Set
2926:1BC7  E9 0018				jmp	loc_192			; (1BE2)
2926:1BCA			loc_191:
2926:1BCA  1E					push	ds
2926:1BCB  B8 2A54				mov	ax,2A54h
2926:1BCE  50					push	ax
2926:1BCF  0E E8 0005				callf	sub_63			; (1BD8)
2926:1BD3  04 2E				add	al,2Eh			; '.'
2926:1BD5  64 61 74				db	 64h, 61h, 74h

				;ßßßß External Entry into Subroutine ßßßßßßßßßßßßßßßßßßßßßßßßßßßßßßßßßßßßßß

2926:1BD8			sub_63:
2926:1BD8  B8 0004				mov	ax,4
2926:1BDB  50					push	ax
2926:1BDC  E8 4A33				call	sub_124			; (6612)
2926:1BDF  E9 0015				jmp	loc_193			; (1BF7)
2926:1BE2			loc_192:
2926:1BE2  1E					push	ds
2926:1BE3  B8 2A54				mov	ax,2A54h
2926:1BE6  50					push	ax
2926:1BE7  0E E8 0005				callf	sub_64			; (1BF0)
2926:1BEB  04 2E				add	al,2Eh			; '.'
2926:1BED  61 64 76				db	 61h, 64h, 76h

				;ßßßß External Entry into Subroutine ßßßßßßßßßßßßßßßßßßßßßßßßßßßßßßßßßßßßßß

2926:1BF0			sub_64:
2926:1BF0  B8 0004				mov	ax,4
2926:1BF3  50					push	ax
2926:1BF4  E8 4A1B				call	sub_124			; (6612)
2926:1BF7			loc_193:
2926:1BF7  C7 06 2B22 0003			mov	data_165,3		; (2926:2B22=616Dh)
2926:1BFD  1E					push	ds
2926:1BFE  B8 58E4				mov	ax,58E4h
2926:1C01  50					push	ax
2926:1C02  0E E8 0007				callf	sub_65			; (1C0D)
2926:1C06  06					push	es
2926:1C07  6C 3F 2E 6D 61 70			db	 6Ch, 3Fh, 2Eh, 6Dh, 61h, 70h

				;ßßßß External Entry into Subroutine ßßßßßßßßßßßßßßßßßßßßßßßßßßßßßßßßßßßßßß

2926:1C0D			sub_65:
2926:1C0D  B8 0006				mov	ax,6
2926:1C10  50					push	ax
           ICON.LST				Sourcer	v8.01  20-Jul-2026 12:15 am   Page 61

2926:1C11  E8 49FE				call	sub_124			; (6612)
2926:1C14  A0 298C				mov	al,data_153		; (2926:298C=70h)
2926:1C17  D0 D8				rcr	al,1			; Rotate thru carry
2926:1C19  72 03				jc	loc_194			; Jump if carry Set
2926:1C1B  E9 0086				jmp	loc_199			; (1CA4)
2926:1C1E			loc_194:
2926:1C1E  E8 0E86				call	sub_93			; (2AA7)
2926:1C21  3D 0001				cmp	ax,1
2926:1C24  75 03				jne	loc_195			; Jump if not equal
2926:1C26  E9 0078				jmp	loc_198			; (1CA1)
2926:1C29			loc_195:
2926:1C29  1E					push	ds
2926:1C2A  B8 82FD				mov	ax,82FDh
2926:1C2D  50					push	ax
2926:1C2E  E8 4D4B				call	sub_143			; (697C)
2926:1C31  0E E8 0020				callf	sub_66			; (1C55)
2926:1C35  1F					pop	ds
2926:1C36  54					push	sp
2926:1C37  68 69 73 20 69 73			db	'his is an illegal copy of ICON'
2926:1C3D  20 61 6E 20 69 6C
2926:1C43  6C 65 67 61 6C 20
2926:1C49  63 6F 70 79 20 6F
2926:1C4F  66 20 49 43 4F 4E

				;ßßßß External Entry into Subroutine ßßßßßßßßßßßßßßßßßßßßßßßßßßßßßßßßßßßßßß

2926:1C55			sub_66:
2926:1C55  B8 FFFF				mov	ax,0FFFFh
2926:1C58  50					push	ax
2926:1C59  B8 FFFF				mov	ax,0FFFFh
2926:1C5C  50					push	ax
2926:1C5D  E8 62D7				call	sub_171			; (7F37)
2926:1C60  E8 5B65				call	sub_158			; (77C8)
2926:1C63  1E					push	ds
2926:1C64  B8 82FD				mov	ax,82FDh
2926:1C67  50					push	ax
2926:1C68  E8 4D11				call	sub_143			; (697C)
2926:1C6B  0E E8 0024				callf	sub_67			; (1C93)
2926:1C6F  23 59 6F 75 20 73			db	'#You should be ashamed of yourse'
2926:1C75  68 6F 75 6C 64 20
2926:1C7B  62 65 20 61 73 68
2926:1C81  61 6D 65 64 20 6F
2926:1C87  66 20 79 6F 75 72
2926:1C8D  73 65
2926:1C8F  6C 66 21 20				db	'lf! '

				;ßßßß External Entry into Subroutine ßßßßßßßßßßßßßßßßßßßßßßßßßßßßßßßßßßßßßß

2926:1C93			sub_67:
2926:1C93  B8 FFFF				mov	ax,0FFFFh
2926:1C96  50					push	ax
2926:1C97  B8 FFFF				mov	ax,0FFFFh
2926:1C9A  50					push	ax
2926:1C9B  E8 6299				call	sub_171			; (7F37)
2926:1C9E  E8 5B27				call	sub_158			; (77C8)
2926:1CA1			loc_198:
2926:1CA1  E9 0083				jmp	loc_201			; (1D27)
           ICON.LST				Sourcer	v8.01  20-Jul-2026 12:15 am   Page 62

2926:1CA4			loc_199:
2926:1CA4  B8 0000				mov	ax,0
2926:1CA7  50					push	ax
2926:1CA8  B8 0000				mov	ax,0
2926:1CAB  50					push	ax
2926:1CAC  E8 0E14				call	sub_94			; (2AC3)
2926:1CAF  B8 B800				mov	ax,0B800h
2926:1CB2  50					push	ax
2926:1CB3  B8 0000				mov	ax,0
2926:1CB6  50					push	ax
2926:1CB7  B8 03E8				mov	ax,3E8h
2926:1CBA  50					push	ax
2926:1CBB  B8 1F20				mov	ax,1F20h
2926:1CBE  50					push	ax
2926:1CBF  E8 0080				call	sub_70			; (1D42)
2926:1CC2  1E					push	ds
2926:1CC3  B8 5A3A				mov	ax,5A3Ah
2926:1CC6			loc_200:
2926:1CC6  50					push	ax
2926:1CC7  B8 0000				mov	ax,0
2926:1CCA  50					push	ax
2926:1CCB  0E E8 000A				callf	sub_68			; (1CD9)
2926:1CCF  09 69 63				or	[bx+di+63h],bp
2926:1CD2  6F 6E 30 2E 6F 76			db	 6Fh, 6Eh, 30h, 2Eh, 6Fh, 76h
2926:1CD8  6C					db	 6Ch

				;ßßßß External Entry into Subroutine ßßßßßßßßßßßßßßßßßßßßßßßßßßßßßßßßßßßßßß

2926:1CD9			sub_68:
2926:1CD9  E8 6698				call	sub_193			; (8374)
2926:1CDC  1E					push	ds
2926:1CDD  B8 5A3A				mov	ax,5A3Ah
2926:1CE0  50					push	ax
2926:1CE1  B8 0000				mov	ax,0
2926:1CE4  50					push	ax
2926:1CE5  E8 4963				call	sub_125			; (664B)
2926:1CE8  0E E8 000A				callf	sub_69			; (1CF6)
2926:1CEC  09 69 63				or	[bx+di+63h],bp
2926:1CEF  6F 6E 30 2E 6F 76			db	 6Fh, 6Eh, 30h, 2Eh, 6Fh, 76h
2926:1CF5  6C					db	 6Ch

				;ßßßß External Entry into Subroutine ßßßßßßßßßßßßßßßßßßßßßßßßßßßßßßßßßßßßßß

2926:1CF6			sub_69:
2926:1CF6  E8 E3CA				call	sub_15			; (00C3)
2926:1CF9  1E					push	ds
2926:1CFA  B8 833E				mov	ax,833Eh
2926:1CFD  50					push	ax
2926:1CFE  B8 0001				mov	ax,1
2926:1D01  50					push	ax
2926:1D02  1E					push	ds
2926:1D03  B8 5E22				mov	ax,5E22h
2926:1D06  50					push	ax
2926:1D07  E8 4B20				call	sub_129			; (682A)
2926:1D0A  1E					push	ds
2926:1D0B  B8 82FD				mov	ax,82FDh
2926:1D0E  50					push	ax
           ICON.LST				Sourcer	v8.01  20-Jul-2026 12:15 am   Page 63

2926:1D0F  B8 0001				mov	ax,1
2926:1D12  50					push	ax
2926:1D13  1E					push	ds
2926:1D14  B8 5E22				mov	ax,5E22h
2926:1D17  50					push	ax
2926:1D18  E8 4B0F				call	sub_129			; (682A)
2926:1D1B  1E					push	ds
2926:1D1C  B8 5A3A				mov	ax,5A3Ah
2926:1D1F  50					push	ax
2926:1D20  B8 0000				mov	ax,0
2926:1D23  50					push	ax
2926:1D24  E8 4C64				call	sub_148			; (698B)
2926:1D27			loc_201:
2926:1D27  E8 01F0				call	sub_74			; (1F1A)
2926:1D2A			loc_202:
2926:1D2A  E8 6626				call	sub_191			; (8353)
2926:1D2D  E9 FFF7				jmp	loc_201			; (1D27)
				sub_59		endp

2926:1D30  E9 0000				jmp	loc_203			; (1D33)
2926:1D33			loc_203:
2926:1D33  E9 0000				jmp	loc_204			; (1D36)
2926:1D36			loc_204:
2926:1D36  55					push	bp
2926:1D37  8B EC				mov	bp,sp
2926:1D39  55					push	bp
2926:1D3A  81 EC 0002				sub	sp,2
2926:1D3E  8B E5				mov	sp,bp
2926:1D40  5D					pop	bp
2926:1D41  C3					retn

				;ßßßßßßßßßßßßßßßßßßßßßßßßßßßßßßßßßßßßßßßßßßßßßßßßßßßßßßßßßßßßßßßßßßßßßßßßßß
				;                              SUBROUTINE
				;ÜÜÜÜÜÜÜÜÜÜÜÜÜÜÜÜÜÜÜÜÜÜÜÜÜÜÜÜÜÜÜÜÜÜÜÜÜÜÜÜÜÜÜÜÜÜÜÜÜÜÜÜÜÜÜÜÜÜÜÜÜÜÜÜÜÜÜÜÜÜÜÜÜÜ

2926:1D42			sub_70		proc	near
2926:1D42  5B					pop	bx
2926:1D43  58					pop	ax
2926:1D44  59					pop	cx
2926:1D45  5F					pop	di
2926:1D46  07					pop	es

2926:1D47			locloop_205:
2926:1D47  AB					stosw				; Store ax to es:[di]
2926:1D48  E2 FD				loop	locloop_205		; Loop if cx > 0

2926:1D4A  FF E3				jmp	bx			;*
							                        ;* No entry point to code
2926:1D4C  A1 5DDC				mov	ax,data_287		; (2926:5DDC=0EA05h)
2926:1D4F  24 01				and	al,1
2926:1D51  D0 E0				shl	al,1			; Shift w/zeros fill
2926:1D53  D0 E0				shl	al,1			; Shift w/zeros fill
2926:1D55  B4 05				mov	ah,5
2926:1D57  CD 10				int	10h			; Video display   ah=functn 05h
										;  set display page al
2926:1D59  C3					retn
				sub_70		endp
           ICON.LST				Sourcer	v8.01  20-Jul-2026 12:15 am   Page 64



				;ßßßßßßßßßßßßßßßßßßßßßßßßßßßßßßßßßßßßßßßßßßßßßßßßßßßßßßßßßßßßßßßßßßßßßßßßßß
				;                              SUBROUTINE
				;ÜÜÜÜÜÜÜÜÜÜÜÜÜÜÜÜÜÜÜÜÜÜÜÜÜÜÜÜÜÜÜÜÜÜÜÜÜÜÜÜÜÜÜÜÜÜÜÜÜÜÜÜÜÜÜÜÜÜÜÜÜÜÜÜÜÜÜÜÜÜÜÜÜÜ

2926:1D5A			sub_71		proc	near
2926:1D5A  B8 0C06				mov	ax,0C06h
2926:1D5D  B2 FF				mov	dl,0FFh
2926:1D5F  CD 21				int	21h			; DOS Services  ah=function 0Ch
										;  clear keybd buffer & input al
2926:1D61  C3					retn
				sub_71		endp


				;ßßßßßßßßßßßßßßßßßßßßßßßßßßßßßßßßßßßßßßßßßßßßßßßßßßßßßßßßßßßßßßßßßßßßßßßßßß
				;                              SUBROUTINE
				;ÜÜÜÜÜÜÜÜÜÜÜÜÜÜÜÜÜÜÜÜÜÜÜÜÜÜÜÜÜÜÜÜÜÜÜÜÜÜÜÜÜÜÜÜÜÜÜÜÜÜÜÜÜÜÜÜÜÜÜÜÜÜÜÜÜÜÜÜÜÜÜÜÜÜ

2926:1D62			sub_72		proc	near
2926:1D62  33 DB				xor	bx,bx			; Zero register
2926:1D64  8E C3				mov	es,bx
2926:1D66  BF 0074				mov	di,74h
2926:1D69  8D 06 8275				lea	ax,cs:[8275h]		; Load effective addr
2926:1D6D  26: 89 05				mov	es:[di],ax
2926:1D70  83 C7 02				add	di,2
2926:1D73  8C DB				mov	bx,ds
2926:1D75  26: 89 1D				mov	es:[di],bx
2926:1D78  8C DB				mov	bx,ds
2926:1D7A  FC					cld				; Clear direction
2926:1D7B  8B 36 8262				mov	si,data_336		; (2926:8262=8358h)
2926:1D7F  8E 1E 8264				mov	ds,data_337		; (2926:8264=20ECh)
2926:1D83  8B F8				mov	di,ax
2926:1D85  8E C3				mov	es,bx
2926:1D87  B9 0040				mov	cx,40h
2926:1D8A  F3/ A5				rep	movsw			; Rep when cx >0 Mov [si] to es:[di]
2926:1D8C  8E DB				mov	ds,bx
2926:1D8E  8B F8				mov	di,ax
2926:1D90  83 C7 04				add	di,4
2926:1D93  C6 05 7F				mov	byte ptr [di],7Fh
2926:1D96  83 C7 02				add	di,2
2926:1D99  C6 05 64				mov	byte ptr [di],64h	; 'd'
2926:1D9C  83 C7 01				add	di,1
2926:1D9F  C6 05 70				mov	byte ptr [di],70h	; 'p'
2926:1DA2  83 C7 02				add	di,2
2926:1DA5  C6 05 01				mov	byte ptr [di],1
2926:1DA8  83 C7 08				add	di,8
2926:1DAB  C6 05 01				mov	byte ptr [di],1
2926:1DAE  83 C7 03				add	di,3
2926:1DB1  C6 05 7F				mov	byte ptr [di],7Fh
2926:1DB4  83 C7 02				add	di,2
2926:1DB7  C6 05 01				mov	byte ptr [di],1
2926:1DBA  47					inc	di
2926:1DBB  C6 05 70				mov	byte ptr [di],70h	; 'p'
2926:1DBE  83 C7 02				add	di,2
2926:1DC1  C6 05 01				mov	byte ptr [di],1
2926:1DC4  33 C0				xor	ax,ax			; Zero register
           ICON.LST				Sourcer	v8.01  20-Jul-2026 12:15 am   Page 65

2926:1DC6  CD 10				int	10h			; Video display   ah=functn 00h
										;  set display mode in al
2926:1DC8  B9 0040				mov	cx,40h
2926:1DCB  8E C1				mov	es,cx
2926:1DCD  BF 0065				mov	di,65h
2926:1DD0  26: 8A 1D				mov	bl,es:[di]
2926:1DD3  80 FB 2C				cmp	bl,2Ch			; ','
2926:1DD6  75 13				jne	loc_206			; Jump if not equal
2926:1DD8  B8 0001				mov	ax,1
2926:1DDB  CD 10				int	10h			; Video display   ah=functn 00h
										;  set display mode in al
2926:1DDD  26: 8A 1D				mov	bl,es:[di]
2926:1DE0  80 FB 28				cmp	bl,28h			; '('
2926:1DE3  75 06				jne	loc_206			; Jump if not equal
2926:1DE5  80 E3 1F				and	bl,1Fh
2926:1DE8  26: 88 1D				mov	es:[di],bl
2926:1DEB			loc_206:
2926:1DEB  B4 0B				mov	ah,0Bh
2926:1DED  33 DB				xor	bx,bx			; Zero register
2926:1DEF  CD 10				int	10h			; Video display   ah=functn 0Bh
										;  set color from bx (CGA modes)
2926:1DF1  80 3E 8256 01			cmp	byte ptr data_330,1	; (2926:8256=4Eh)
2926:1DF6  75 12				jne	loc_207			; Jump if not equal
2926:1DF8  B8 0001				mov	ax,1
2926:1DFB  CD 10				int	10h			; Video display   ah=functn 00h
										;  set display mode in al
2926:1DFD  BA 03DA				mov	dx,3DAh
2926:1E00  EC					in	al,dx			; port 3DAh, CGA/EGA vid status
2926:1E01  B0 03				mov	al,3
2926:1E03  EE					out	dx,al			; port 3DAh, VGA feature contrl
2926:1E04  B0 00				mov	al,0
2926:1E06  EE					out	dx,al			; port 3DAh, VGA feature contrl
2926:1E07  E9 003B				jmp	loc_208			; (1E45)
2926:1E0A			loc_207:
2926:1E0A  B8 0001				mov	ax,1
2926:1E0D  CD 10				int	10h			; Video display   ah=functn 00h
										;  set display mode in al
2926:1E0F  B8 1130				mov	ax,1130h
2926:1E12  B7 FF				mov	bh,0FFh
2926:1E14  CD 10				int	10h			; Video display   ah=functn 11h
										;  get font type bh info into
										;   cx=points,dl=rows, es:bp=ptr
2926:1E16  80 FF FF				cmp	bh,0FFh
2926:1E19  75 2A				jne	loc_208			; Jump if not equal
2926:1E1B  B8 1102				mov	ax,1102h
2926:1E1E  BB 0000				mov	bx,0
2926:1E21  CD 10				int	10h			; Video display   ah=functn 11h
										;  load 8x8 font, bl=block
2926:1E23  B8 1102				mov	ax,1102h
2926:1E26  BB 0001				mov	bx,1
2926:1E29  CD 10				int	10h			; Video display   ah=functn 11h
										;  load 8x8 font, bl=block
2926:1E2B  BA 03DA				mov	dx,3DAh
2926:1E2E  EC					in	al,dx			; port 3DAh, CGA/EGA vid status
2926:1E2F  BA 03C0				mov	dx,3C0h
2926:1E32  B0 30				mov	al,30h			; '0'
2926:1E34  EE					out	dx,al			; port 3C0h, EGA attributes
           ICON.LST				Sourcer	v8.01  20-Jul-2026 12:15 am   Page 66

2926:1E35  B0 00				mov	al,0
2926:1E37  EE					out	dx,al			; port 3C0h, EGA attributes
2926:1E38  BA 03D4				mov	dx,3D4h
2926:1E3B  B0 09				mov	al,9
2926:1E3D  EE					out	dx,al			; port 3D4h, CGA/EGA reg index
										;  al = 9, max raster address
2926:1E3E  B0 81				mov	al,81h
2926:1E40  42					inc	dx
2926:1E41  EE					out	dx,al			; port 3D5h, CGA/EGA indxd data
2926:1E42  90					nop
2926:1E43  90					nop
2926:1E44  90					nop
2926:1E45			loc_208:
2926:1E45  BA 03DA				mov	dx,3DAh
2926:1E48  EC					in	al,dx			; port 3DAh, CGA/EGA vid status
2926:1E49  BA 03C0				mov	dx,3C0h
2926:1E4C  B0 10				mov	al,10h
2926:1E4E  EE					out	dx,al			; port 3C0h, EGA attributes
										;  al = 10h, mode control
2926:1E4F  B0 04				mov	al,4
2926:1E51  EE					out	dx,al			; port 3C0h, EGA attributes
2926:1E52  BA 03DA				mov	dx,3DAh
2926:1E55  EC					in	al,dx			; port 3DAh, CGA/EGA vid status
2926:1E56  BA 03C0				mov	dx,3C0h

2926:1E59			locloop_209:
2926:1E59  B0 20				mov	al,20h			; ' '
2926:1E5B  EE					out	dx,al			; port 3C0h, EGA attributes
2926:1E5C  E9 000D				jmp	loc_210			; (1E6C)
							                        ;* No entry point to code
2926:1E5F  8A 05				mov	al,[di]
2926:1E61  EE					out	dx,al			; port 3C0h, EGA attributes
2926:1E62  47					inc	di
2926:1E63  4A					dec	dx
2926:1E64  E2 F3				loop	locloop_209		; Loop if cx > 0

2926:1E66  B0 08				mov	al,8
2926:1E68  BA 03D8				mov	dx,3D8h
2926:1E6B  90					nop
2926:1E6C			loc_210:
2926:1E6C  E8 108D				call	sub_95			; (2EFC)
2926:1E6F  E8 1166				call	sub_98			; (2FD8)
2926:1E72  33 DB				xor	bx,bx			; Zero register
2926:1E74  8E C3				mov	es,bx
2926:1E76  BF 006C				mov	di,6Ch
2926:1E79  FA					cli				; Disable interrupts
2926:1E7A  B9 1F83				mov	cx,1F83h
2926:1E7D  26: 89 0D				mov	es:[di],cx
2926:1E80  83 C7 02				add	di,2
2926:1E83  26: 8C 0D				mov	es:[di],cs
2926:1E86  BF 008C				mov	di,8Ch
2926:1E89  BB 1F83				mov	bx,1F83h
2926:1E8C  26: 89 1D				mov	es:[di],bx
2926:1E8F  47					inc	di
2926:1E90  47					inc	di
2926:1E91  26: 8C 0D				mov	es:[di],cs
2926:1E94  FB					sti				; Enable interrupts
           ICON.LST				Sourcer	v8.01  20-Jul-2026 12:15 am   Page 67

2926:1E95  2E: 8C 1E 1F81			mov	cs:data_137,ds		; (2926:1F81=74h)
2926:1E9A  C3					retn
				sub_72		endp


				;ßßßßßßßßßßßßßßßßßßßßßßßßßßßßßßßßßßßßßßßßßßßßßßßßßßßßßßßßßßßßßßßßßßßßßßßßßß
				;                              SUBROUTINE
				;ÜÜÜÜÜÜÜÜÜÜÜÜÜÜÜÜÜÜÜÜÜÜÜÜÜÜÜÜÜÜÜÜÜÜÜÜÜÜÜÜÜÜÜÜÜÜÜÜÜÜÜÜÜÜÜÜÜÜÜÜÜÜÜÜÜÜÜÜÜÜÜÜÜÜ

2926:1E9B			sub_73		proc	near
2926:1E9B  33 DB				xor	bx,bx			; Zero register
2926:1E9D  8E C3				mov	es,bx
2926:1E9F  BF 0074				mov	di,74h
2926:1EA2  8B 1E 8262				mov	bx,data_336		; (2926:8262=8358h)
2926:1EA6  26: 89 1D				mov	es:[di],bx
2926:1EA9  83 C7 02				add	di,2
2926:1EAC  8B 1E 8264				mov	bx,data_337		; (2926:8264=20ECh)
2926:1EB0  26: 89 1D				mov	es:[di],bx
2926:1EB3  B8 0001				mov	ax,1
2926:1EB6  CD 10				int	10h			; Video display   ah=functn 00h
										;  set display mode in al
2926:1EB8  B4 0B				mov	ah,0Bh
2926:1EBA  BB 0001				mov	bx,1
2926:1EBD  CD 10				int	10h			; Video display   ah=functn 0Bh
										;  set color from bx (CGA modes)
2926:1EBF  B8 0500				mov	ax,500h
2926:1EC2  CD 10				int	10h			; Video display   ah=functn 05h
										;  set display page al
2926:1EC4  BB B800				mov	bx,0B800h
2926:1EC7  53					push	bx
2926:1EC8  33 DB				xor	bx,bx			; Zero register
2926:1ECA  53					push	bx
2926:1ECB  BB 0800				mov	bx,800h
2926:1ECE  53					push	bx
2926:1ECF  BB 1F20				mov	bx,1F20h
2926:1ED2  53					push	bx
2926:1ED3  E8 FE6C				call	sub_70			; (1D42)
2926:1ED6  BB B800				mov	bx,0B800h
2926:1ED9  53					push	bx
2926:1EDA  BB 07D0				mov	bx,7D0h
2926:1EDD  53					push	bx
2926:1EDE  BB 03F2				mov	bx,3F2h
2926:1EE1  53					push	bx
2926:1EE2  BB 1120				mov	bx,1120h
2926:1EE5  53					push	bx
2926:1EE6  E8 FE59				call	sub_70			; (1D42)
2926:1EE9  BB 0001				mov	bx,1
2926:1EEC  53					push	bx
2926:1EED  BB 000F				mov	bx,0Fh
2926:1EF0  53					push	bx
2926:1EF1  E8 0157				call	sub_77			; (204B)
2926:1EF4  33 DB				xor	bx,bx			; Zero register
2926:1EF6  8E C3				mov	es,bx
2926:1EF8  BF 006C				mov	di,6Ch
2926:1EFB  FA					cli				; Disable interrupts
2926:1EFC  B9 0188				mov	cx,188h
2926:1EFF  26: 89 0D				mov	es:[di],cx
           ICON.LST				Sourcer	v8.01  20-Jul-2026 12:15 am   Page 68

2926:1F02  47					inc	di
2926:1F03  47					inc	di
2926:1F04  26: 89 1D				mov	es:[di],bx
2926:1F07  BF 008C				mov	di,8Ch
2926:1F0A  26: 89 0D				mov	es:[di],cx
2926:1F0D  47					inc	di
2926:1F0E  47					inc	di
2926:1F0F  26: 89 1D				mov	es:[di],bx
2926:1F12  FB					sti				; Enable interrupts
2926:1F13  E8 1011				call	sub_96			; (2F27)
2926:1F16  E8 10DE				call	sub_99			; (2FF7)
2926:1F19  C3					retn
				sub_73		endp


				;ßßßßßßßßßßßßßßßßßßßßßßßßßßßßßßßßßßßßßßßßßßßßßßßßßßßßßßßßßßßßßßßßßßßßßßßßßß
				;                              SUBROUTINE
				;ÜÜÜÜÜÜÜÜÜÜÜÜÜÜÜÜÜÜÜÜÜÜÜÜÜÜÜÜÜÜÜÜÜÜÜÜÜÜÜÜÜÜÜÜÜÜÜÜÜÜÜÜÜÜÜÜÜÜÜÜÜÜÜÜÜÜÜÜÜÜÜÜÜÜ

2926:1F1A			sub_74		proc	near
2926:1F1A  B4 0B				mov	ah,0Bh
2926:1F1C  33 DB				xor	bx,bx			; Zero register
2926:1F1E  CD 10				int	10h			; Video display   ah=functn 0Bh
										;  set color from bx (CGA modes)
2926:1F20  32 E4				xor	ah,ah			; Zero register
2926:1F22  A0 8261				mov	al,data_335		; (2926:8261=5Bh)
2926:1F25  CD 10				int	10h			; Video display   ah=functn 00h
										;  set display mode in al
2926:1F27  33 DB				xor	bx,bx			; Zero register
2926:1F29  8E C3				mov	es,bx
2926:1F2B  BF 006C				mov	di,6Ch
2926:1F2E  8B 1E 8232				mov	bx,data_312		; (2926:8232=76C5h)
2926:1F32  FA					cli				; Disable interrupts
2926:1F33  26: 89 1D				mov	es:[di],bx
2926:1F36  47					inc	di
2926:1F37  47					inc	di
2926:1F38  8B 1E 8234				mov	bx,data_313		; (2926:8234=302h)
2926:1F3C  26: 89 1D				mov	es:[di],bx
2926:1F3F  BF 008C				mov	di,8Ch
2926:1F42  8B 1E 824A				mov	bx,data_324		; (2926:824A=0C41Eh)
2926:1F46  26: 89 1D				mov	es:[di],bx
2926:1F49  8B 1E 824C				mov	bx,data_325		; (2926:824C=27Eh)
2926:1F4D  47					inc	di
2926:1F4E  47					inc	di
2926:1F4F  26: 89 1D				mov	es:[di],bx
2926:1F52  BF 0014				mov	di,14h
2926:1F55  8B 1E 8269				mov	bx,data_340		; (2926:8269=5253h)
2926:1F59  26: 89 1D				mov	es:[di],bx
2926:1F5C  47					inc	di
2926:1F5D  47					inc	di
2926:1F5E  8B 1E 826B				mov	bx,data_341		; (2926:826B=8B55h)
2926:1F62  26: 89 1D				mov	es:[di],bx
2926:1F65  FB					sti				; Enable interrupts
2926:1F66  FB					sti				; Enable interrupts
2926:1F67  8B 1E 0124				mov	bx,data_72		; (2926:0124=5029h)
2926:1F6B  8B 0E 0126				mov	cx,data_73		; (2926:0126=468Bh)
2926:1F6F  51					push	cx
           ICON.LST				Sourcer	v8.01  20-Jul-2026 12:15 am   Page 69

2926:1F70  53					push	bx
2926:1F71  E8 00D7				call	sub_77			; (204B)
2926:1F74  C3					retn
				sub_74		endp


				;ßßßßßßßßßßßßßßßßßßßßßßßßßßßßßßßßßßßßßßßßßßßßßßßßßßßßßßßßßßßßßßßßßßßßßßßßßß
				;                              SUBROUTINE
				;ÜÜÜÜÜÜÜÜÜÜÜÜÜÜÜÜÜÜÜÜÜÜÜÜÜÜÜÜÜÜÜÜÜÜÜÜÜÜÜÜÜÜÜÜÜÜÜÜÜÜÜÜÜÜÜÜÜÜÜÜÜÜÜÜÜÜÜÜÜÜÜÜÜÜ

2926:1F75			sub_75		proc	near
2926:1F75  B4 0F				mov	ah,0Fh
2926:1F77  CD 10				int	10h			; Video display   ah=functn 0Fh
										;  get state, al=mode, bh=page
										;   ah=columns on screen
2926:1F79  A2 8261				mov	data_335,al		; (2926:8261=5Bh)
2926:1F7C  33 DB				xor	bx,bx			; Zero register
2926:1F7E  8E C3				mov	es,bx
2926:1F80  BF 0074				mov	di,74h
2926:1F83  26: 8B 1D				mov	bx,es:[di]
2926:1F86  89 1E 8262				mov	data_336,bx		; (2926:8262=8358h)
2926:1F8A  83 C7 02				add	di,2
2926:1F8D  26: 8B 1D				mov	bx,es:[di]
2926:1F90  89 1E 8264				mov	data_337,bx		; (2926:8264=20ECh)
2926:1F94  FA					cli				; Disable interrupts
2926:1F95  33 DB				xor	bx,bx			; Zero register
2926:1F97  8E C3				mov	es,bx
2926:1F99  BF 006C				mov	di,6Ch
2926:1F9C  26: 8B 1D				mov	bx,es:[di]
2926:1F9F  89 1E 8232				mov	data_312,bx		; (2926:8232=76C5h)
2926:1FA3  47					inc	di
2926:1FA4  47					inc	di
2926:1FA5  26: 8B 1D				mov	bx,es:[di]
2926:1FA8  89 1E 8234				mov	data_313,bx		; (2926:8234=302h)
2926:1FAC  BF 008C				mov	di,8Ch
2926:1FAF  26: 8B 1D				mov	bx,es:[di]
2926:1FB2  89 1E 824A				mov	data_324,bx		; (2926:824A=0C41Eh)
2926:1FB6  47					inc	di
2926:1FB7  47					inc	di
2926:1FB8  26: 8B 1D				mov	bx,es:[di]
2926:1FBB  89 1E 824C				mov	data_325,bx		; (2926:824C=27Eh)
2926:1FBF  BF 0188				mov	di,188h
2926:1FC2  B3 CF				mov	bl,0CFh
2926:1FC4  26: 88 1D				mov	es:[di],bl
2926:1FC7  BF 0014				mov	di,14h
2926:1FCA  26: 8B 1D				mov	bx,es:[di]
2926:1FCD  89 1E 8269				mov	data_340,bx		; (2926:8269=5253h)
2926:1FD1  BB 0188				mov	bx,188h
2926:1FD4  26: 89 1D				mov	es:[di],bx
2926:1FD7  47					inc	di
2926:1FD8  47					inc	di
2926:1FD9  26: 8B 1D				mov	bx,es:[di]
2926:1FDC  89 1E 826B				mov	data_341,bx		; (2926:826B=8B55h)
2926:1FE0  8C C3				mov	bx,es
2926:1FE2  26: 89 1D				mov	es:[di],bx
2926:1FE5  FB					sti				; Enable interrupts
2926:1FE6  C6 06 8256 00			mov	byte ptr data_330,0	; (2926:8256=4Eh)
           ICON.LST				Sourcer	v8.01  20-Jul-2026 12:15 am   Page 70

2926:1FEB  B9 FFFF				mov	cx,0FFFFh
2926:1FEE  8E C1				mov	es,cx
2926:1FF0  BF 000E				mov	di,0Eh
2926:1FF3  26: 8A 1D				mov	bl,es:[di]
2926:1FF6  80 FB FD				cmp	bl,0FDh
2926:1FF9  75 05				jne	loc_211			; Jump if not equal
2926:1FFB  C6 06 8256 01			mov	byte ptr data_330,1	; (2926:8256=4Eh)
2926:2000			loc_211:
2926:2000  C3					retn
				sub_75		endp

2926:2001  00 00 FB 1E 2E 8E			db	 00h, 00h,0FBh, 1Eh, 2Eh, 8Eh
2926:2007  1E 81 1F C7 06 F4			db	 1Eh, 81h, 1Fh,0C7h, 06h,0F4h
2926:200D  5D 01 00 1F CF			db	 5Dh, 01h, 00h, 1Fh,0CFh

				;ßßßßßßßßßßßßßßßßßßßßßßßßßßßßßßßßßßßßßßßßßßßßßßßßßßßßßßßßßßßßßßßßßßßßßßßßßß
				;                              SUBROUTINE
				;ÜÜÜÜÜÜÜÜÜÜÜÜÜÜÜÜÜÜÜÜÜÜÜÜÜÜÜÜÜÜÜÜÜÜÜÜÜÜÜÜÜÜÜÜÜÜÜÜÜÜÜÜÜÜÜÜÜÜÜÜÜÜÜÜÜÜÜÜÜÜÜÜÜÜ

2926:2012			sub_76		proc	near
2926:2012  FC					cld				; Clear direction
2926:2013  5B					pop	bx
2926:2014  59					pop	cx
2926:2015  5F					pop	di
2926:2016  07					pop	es
2926:2017  5E					pop	si
2926:2018  58					pop	ax
2926:2019  8C DA				mov	dx,ds
2926:201B  8E D8				mov	ds,ax
2926:201D  F3/ A5				rep	movsw			; Rep when cx >0 Mov [si] to es:[di]
2926:201F  8E DA				mov	ds,dx
2926:2021  FF E3				jmp	bx			;*
							                        ;* No entry point to code
2926:2023  5B					pop	bx
2926:2024  59					pop	cx
2926:2025  5F					pop	di
2926:2026  07					pop	es
2926:2027  5E					pop	si
2926:2028  58					pop	ax
2926:2029  8C DA				mov	dx,ds
2926:202B  8E D8				mov	ds,ax
2926:202D  8B C1				mov	ax,cx
2926:202F  48					dec	ax
2926:2030  D1 E0				shl	ax,1			; Shift w/zeros fill
2926:2032  03 F8				add	di,ax
2926:2034  03 F0				add	si,ax
2926:2036  FD					std				; Set direction flag
2926:2037  F3/ A5				rep	movsw			; Rep when cx >0 Mov [si] to es:[di]
2926:2039  FC					cld				; Clear direction
2926:203A  8E DA				mov	ds,dx
2926:203C  FF E3				jmp	bx			;*
							                        ;* No entry point to code
2926:203E  1B 5B 30				sbb	bx,[bp+di+30h]
2926:2041  3B 24				cmp	sp,[si]
2926:2043  00 04				add	[si],al
2926:2045  02 06 0501				add	al,data_83		; (2926:0501=89h)
2926:2049  03 07				add	ax,[bx]
           ICON.LST				Sourcer	v8.01  20-Jul-2026 12:15 am   Page 71


				;ßßßß External Entry into Subroutine ßßßßßßßßßßßßßßßßßßßßßßßßßßßßßßßßßßßßßß

2926:204B			sub_77:
2926:204B  B4 03				mov	ah,3
2926:204D  33 DB				xor	bx,bx			; Zero register
2926:204F  CD 10				int	10h			; Video display   ah=functn 03h
										;  get cursor loc in dx, mode cx
2926:2051  5B					pop	bx
2926:2052  58					pop	ax
2926:2053  59					pop	cx
2926:2054  53					push	bx
2926:2055  8B 1E 0122				mov	bx,data_71		; (2926:0122=4A1h)
2926:2059  0B DB				or	bx,bx			; Zero ?
2926:205B  75 01				jnz	loc_212			; Jump if not zero
2926:205D  C3					retn
2926:205E			loc_212:
2926:205E  52					push	dx
2926:205F  51					push	cx
2926:2060  50					push	ax
2926:2061  B4 09				mov	ah,9
2926:2063  1E					push	ds
2926:2064  8C CA				mov	dx,cs
2926:2066  8E DA				mov	ds,dx
2926:2068  BA 1FBE				mov	dx,1FBEh
2926:206B  CD 21				int	21h			; DOS Services  ah=function 09h
										;  display char string at ds:dx
2926:206D  1F					pop	ds
2926:206E  06B4					dw	6B4h
2926:2070  5B			data_141	db	5Bh
2926:2071  80 FB 08 7C 0B B2			db	 80h,0FBh, 08h, 7Ch, 0Bh,0B2h
2926:2077  31 CD 21 B2 3B CD			db	 31h,0CDh, 21h,0B2h, 3Bh,0CDh
2926:207D  21 80 EB				db	 21h, 80h,0EBh
2926:2080  08					db	8
2926:2081			loc_213:
2926:2081  B2 33				mov	dl,33h			; '3'
2926:2083  CD 21				int	21h			; DOS Services  ah=function 09h
										;  display char string at ds:dx
2926:2085  8A C3				mov	al,bl
2926:2087  BB 1FC3				mov	bx,1FC3h
2926:208A  2E: D7				xlat	cs:[bx]			; al=[al+[bx]] table
2926:208C  8A D0				mov	dl,al
2926:208E  80 C2 30				add	dl,30h			; '0'
2926:2091  B4 06				mov	ah,6
2926:2093  CD 21				int	21h			; DOS Services  ah=function 06h
										;  special char i/o, dl=subfunc
2926:2095  B2 3B				mov	dl,3Bh			; ';'
2926:2097  CD 21				int	21h			; DOS Services  ah=function 06h
										;  special char i/o, dl=subfunc
2926:2099  5B					pop	bx
2926:209A  80 FB 08				cmp	bl,8
2926:209D  7C 0B				jl	loc_214			; Jump if <
2926:209F  B2 35				mov	dl,35h			; '5'
2926:20A1  CD 21				int	21h			; DOS Services  ah=function 06h
										;  special char i/o, dl=subfunc
2926:20A3  B2 3B				mov	dl,3Bh			; ';'
2926:20A5  CD 21				int	21h			; DOS Services  ah=function 06h
           ICON.LST				Sourcer	v8.01  20-Jul-2026 12:15 am   Page 72

										;  special char i/o, dl=subfunc
2926:20A7  80 EB 08				sub	bl,8
2926:20AA			loc_214:
2926:20AA  B2 34				mov	dl,34h			; '4'
2926:20AC  CD 21				int	21h			; DOS Services  ah=function 06h
										;  special char i/o, dl=subfunc
2926:20AE  8A C3				mov	al,bl
2926:20B0  BB 1FC3				mov	bx,1FC3h
2926:20B3  2E: D7				xlat	cs:[bx]			; al=[al+[bx]] table
2926:20B5  8A D0				mov	dl,al
2926:20B7  80 C2 30				add	dl,30h			; '0'
2926:20BA  B4 06				mov	ah,6
2926:20BC  CD 21				int	21h			; DOS Services  ah=function 06h
										;  special char i/o, dl=subfunc
2926:20BE  B2 6D				mov	dl,6Dh			; 'm'
2926:20C0  CD 21				int	21h			; DOS Services  ah=function 06h
										;  special char i/o, dl=subfunc
2926:20C2  B8 0500				mov	ax,500h
2926:20C5  CD 10				int	10h			; Video display   ah=functn 05h
										;  set display page al
2926:20C7  B4 02				mov	ah,2
2926:20C9  33 DB				xor	bx,bx			; Zero register
2926:20CB  5A					pop	dx
2926:20CC  CD 10				int	10h			; Video display   ah=functn 02h
										;  set cursor location in dx
2926:20CE  C3					retn
				sub_76		endp


				;ßßßßßßßßßßßßßßßßßßßßßßßßßßßßßßßßßßßßßßßßßßßßßßßßßßßßßßßßßßßßßßßßßßßßßßßßßß
				;                              SUBROUTINE
				;ÜÜÜÜÜÜÜÜÜÜÜÜÜÜÜÜÜÜÜÜÜÜÜÜÜÜÜÜÜÜÜÜÜÜÜÜÜÜÜÜÜÜÜÜÜÜÜÜÜÜÜÜÜÜÜÜÜÜÜÜÜÜÜÜÜÜÜÜÜÜÜÜÜÜ

2926:20CF			sub_78		proc	near
2926:20CF  B8 09CE				mov	ax,9CEh
2926:20D2  BB 0000				mov	bx,0
2926:20D5  B9 0001				mov	cx,1
2926:20D8  CD 10				int	10h			; Video display   ah=functn 09h
										;  set char al & attrib bl @curs
										;   cx=# of chars to replicate
2926:20DA  B8 0920				mov	ax,920h
2926:20DD  BB 0007				mov	bx,7
2926:20E0  B9 0001				mov	cx,1
2926:20E3  CD 10				int	10h			; Video display   ah=functn 09h
										;  set char al & attrib bl @curs
										;   cx=# of chars to replicate
2926:20E5  B8 B800				mov	ax,0B800h
2926:20E8  8E C0				mov	es,ax
2926:20EA  33 C0				xor	ax,ax			; Zero register
2926:20EC  8B F8				mov	di,ax
2926:20EE  B8 00CE				mov	ax,0CEh
2926:20F1  B9 07DA				mov	cx,7DAh
2926:20F4  F3/ AF				repe	scasw			; Rep zf=1+cx >0 Scan es:[di] for ax
2926:20F6  0B C9				or	cx,cx			; Zero ?
2926:20F8  75 03				jnz	loc_215			; Jump if not zero
2926:20FA  33 C0				xor	ax,ax			; Zero register
2926:20FC  C3					retn
           ICON.LST				Sourcer	v8.01  20-Jul-2026 12:15 am   Page 73

2926:20FD			loc_215:
2926:20FD  33 C0				xor	ax,ax			; Zero register
2926:20FF  F7 D0				not	ax
2926:2101  C3					retn
				sub_78		endp


				;ßßßßßßßßßßßßßßßßßßßßßßßßßßßßßßßßßßßßßßßßßßßßßßßßßßßßßßßßßßßßßßßßßßßßßßßßßß
				;                              SUBROUTINE
				;ÜÜÜÜÜÜÜÜÜÜÜÜÜÜÜÜÜÜÜÜÜÜÜÜÜÜÜÜÜÜÜÜÜÜÜÜÜÜÜÜÜÜÜÜÜÜÜÜÜÜÜÜÜÜÜÜÜÜÜÜÜÜÜÜÜÜÜÜÜÜÜÜÜÜ

2926:2102			sub_79		proc	near
2926:2102  8C DB				mov	bx,ds
2926:2104  FC					cld				; Clear direction
2926:2105  8B 36 206C				mov	si,word ptr ds:[206Ch]	; (2926:206C=1F21h)
2926:2109  8E 1E 206E				mov	ds,word ptr ds:[206Eh]	; (2926:206E=6B4h)
2926:210D  8B 3E 2BF2				mov	di,ds:data_37e		; (06B4:2BF2=26C7h)
2926:2111  8E 06 2BF4				mov	es,ds:data_38e		; (06B4:2BF4=3E3Bh)
2926:2115  B9 0FA0				mov	cx,0FA0h
2926:2118  F3/ A5				rep	movsw			; Rep when cx >0 Mov [si] to es:[di]
2926:211A  8E DB				mov	ds,bx
2926:211C  C3					retn
				sub_79		endp


				;ßßßßßßßßßßßßßßßßßßßßßßßßßßßßßßßßßßßßßßßßßßßßßßßßßßßßßßßßßßßßßßßßßßßßßßßßßß
				;                              SUBROUTINE
				;ÜÜÜÜÜÜÜÜÜÜÜÜÜÜÜÜÜÜÜÜÜÜÜÜÜÜÜÜÜÜÜÜÜÜÜÜÜÜÜÜÜÜÜÜÜÜÜÜÜÜÜÜÜÜÜÜÜÜÜÜÜÜÜÜÜÜÜÜÜÜÜÜÜÜ

2926:211D			sub_80		proc	near
2926:211D  A1 5DDC				mov	ax,data_287		; (2926:5DDC=0EA05h)
2926:2120  24 01				and	al,1
2926:2122  D0 E0				shl	al,1			; Shift w/zeros fill
2926:2124  D0 E0				shl	al,1			; Shift w/zeros fill
2926:2126  B4 05				mov	ah,5
2926:2128  CD 10				int	10h			; Video display   ah=functn 05h
										;  set display page al
2926:212A  C3					retn
				sub_80		endp

2926:212B  B9 06 00				db	0B9h, 06h, 00h
2926:212E			loc_216:
2926:212E  8C D8				mov	ax,ds
2926:2130  8E C0				mov	es,ax
2926:2132  8B 36 5DE4				mov	si,data_288		; (2926:5DE4=12h)
2926:2136  BB 0000				mov	bx,0
2926:2139  B2 50				mov	dl,50h			; 'P'

2926:213B			locloop_217:
2926:213B  8B C3				mov	ax,bx
2926:213D  D1 F8				sar	ax,1			; Shift w/sign fill
2926:213F  03 06 810C				add	ax,data_309		; (2926:810C=978Bh)
2926:2143  F6 E2				mul	dl			; ax = reg * al
2926:2145  8B FB				mov	di,bx
2926:2147  81 E7 0001				and	di,1
2926:214B  03 3E 810E				add	di,data_310		; (2926:810E=468Ah)
2926:214F  D1 E7				shl	di,1			; Shift w/zeros fill
           ICON.LST				Sourcer	v8.01  20-Jul-2026 12:15 am   Page 74

2926:2151  03 F8				add	di,ax
2926:2153  03 3E 206C				add	di,word ptr ds:[206Ch]	; (2926:206C=1F21h)
2926:2157  A5					movsw				; Mov [si] to es:[di]
2926:2158  A5					movsw				; Mov [si] to es:[di]
2926:2159  43					inc	bx
2926:215A  43					inc	bx
2926:215B  E2 DE				loop	locloop_217		; Loop if cx > 0

2926:215D  C3					retn
							                        ;* No entry point to code
2926:215E  B9 0002				mov	cx,2
2926:2161  E9 FFCA				jmp	loc_216			; (212E)

				;ßßßßßßßßßßßßßßßßßßßßßßßßßßßßßßßßßßßßßßßßßßßßßßßßßßßßßßßßßßßßßßßßßßßßßßßßßß
				;                              SUBROUTINE
				;ÜÜÜÜÜÜÜÜÜÜÜÜÜÜÜÜÜÜÜÜÜÜÜÜÜÜÜÜÜÜÜÜÜÜÜÜÜÜÜÜÜÜÜÜÜÜÜÜÜÜÜÜÜÜÜÜÜÜÜÜÜÜÜÜÜÜÜÜÜÜÜÜÜÜ

2926:2164			sub_81		proc	near
2926:2164  55					push	bp
2926:2165  8B EC				mov	bp,sp
2926:2167  E8 011A				call	sub_83			; (2284)
2926:216A  83 FB 00				cmp	bx,0
2926:216D  7D 11				jge	loc_218			; Jump if > or =
2926:216F  81 E3 FFFE				and	bx,0FFFEh
2926:2173  F7 DB				neg	bx
2926:2175  89 1E 8236				mov	data_314,bx		; (2926:8236=4EF1h)
2926:2179  BB 0000				mov	bx,0
2926:217C  89 1E 82F5				mov	data_347,bx		; (2926:82F5=0C033h)
2926:2180			loc_218:
2926:2180  E8 0155				call	sub_84			; (22D8)
2926:2183  D1 FB				sar	bx,1			; Shift w/sign fill
2926:2185  89 1E 82F5				mov	data_347,bx		; (2926:82F5=0C033h)
2926:2189  3B 1E 8258				cmp	bx,data_332		; (2926:8258=0A4F3h)
2926:218D  7F 6D				jg	loc_222			; Jump if >
2926:218F  89 16 824E				mov	data_326,dx		; (2926:824E=0F903h)
2926:2193  8B C2				mov	ax,dx
2926:2195			loc_219:
2926:2195  3B 06 825A				cmp	ax,data_333		; (2926:825A=5D1Fh)
2926:2199  7F 61				jg	loc_222			; Jump if >
2926:219B  2B 06 82F7				sub	ax,data_348		; (2926:82F7=10B9h)
2926:219F  03 06 8238				add	ax,data_315		; (2926:8238=0F3FDh)
2926:21A3  8B 7E 08				mov	di,[bp+8]
2926:21A6  83 C7 06				add	di,6
2926:21A9  8B 1D				mov	bx,[di]
2926:21AB  F7 E3				mul	bx			; dx:ax = reg * ax
2926:21AD  A3 8250				mov	data_327,ax		; (2926:8250=0C54Fh)
2926:21B0  D1 F8				sar	ax,1			; Shift w/sign fill
2926:21B2  A3 8252				mov	data_328,ax		; (2926:8252=676h)
2926:21B5  8B 1E 82F5				mov	bx,data_347		; (2926:82F5=0C033h)
2926:21B9  89 1E 8254				mov	data_329,bx		; (2926:8254=0F103h)
2926:21BD  8B C3				mov	ax,bx
2926:21BF			loc_220:
2926:21BF  3B 06 8258				cmp	ax,data_332		; (2926:8258=0A4F3h)
2926:21C3  7F 2D				jg	loc_221			; Jump if >
2926:21C5  A1 8236				mov	ax,data_314		; (2926:8236=4EF1h)
2926:21C8  D1 F8				sar	ax,1			; Shift w/sign fill
2926:21CA  2B 06 82F5				sub	ax,data_347		; (2926:82F5=0C033h)
           ICON.LST				Sourcer	v8.01  20-Jul-2026 12:15 am   Page 75

2926:21CE  03 06 8254				add	ax,data_329		; (2926:8254=0F103h)
2926:21D2  03 06 8252				add	ax,data_328		; (2926:8252=676h)
2926:21D6  8B 7E 08				mov	di,[bp+8]
2926:21D9  83 C7 02				add	di,2
2926:21DC  03 05				add	ax,[di]
2926:21DE  8B F8				mov	di,ax
2926:21E0  4F					dec	di
2926:21E1  8A AD 680A				mov	ch,data_303[di]		; (2926:680A=0F1h)
2926:21E5  E8 0134				call	sub_85			; (231C)
2926:21E8  A1 8254				mov	ax,data_329		; (2926:8254=0F103h)
2926:21EB  40					inc	ax
2926:21EC  A3 8254				mov	data_329,ax		; (2926:8254=0F103h)
2926:21EF  E9 FFCD				jmp	loc_220			; (21BF)
2926:21F2			loc_221:
2926:21F2  A1 824E				mov	ax,data_326		; (2926:824E=0F903h)
2926:21F5  40					inc	ax
2926:21F6  A3 824E				mov	data_326,ax		; (2926:824E=0F903h)
2926:21F9  E9 FF99				jmp	loc_219			; (2195)
2926:21FC			loc_222:
2926:21FC  5D					pop	bp
2926:21FD  C2 0008				retn	8
				sub_81		endp


				;ßßßßßßßßßßßßßßßßßßßßßßßßßßßßßßßßßßßßßßßßßßßßßßßßßßßßßßßßßßßßßßßßßßßßßßßßßß
				;                              SUBROUTINE
				;ÜÜÜÜÜÜÜÜÜÜÜÜÜÜÜÜÜÜÜÜÜÜÜÜÜÜÜÜÜÜÜÜÜÜÜÜÜÜÜÜÜÜÜÜÜÜÜÜÜÜÜÜÜÜÜÜÜÜÜÜÜÜÜÜÜÜÜÜÜÜÜÜÜÜ

2926:2200			sub_82		proc	near
2926:2200  55					push	bp
2926:2201  8B EC				mov	bp,sp
2926:2203  E8 007E				call	sub_83			; (2284)
2926:2206  83 FB 00				cmp	bx,0
2926:2209  7D 0D				jge	loc_223			; Jump if > or =
2926:220B  F7 DB				neg	bx
2926:220D  89 1E 8236				mov	data_314,bx		; (2926:8236=4EF1h)
2926:2211  BB 0000				mov	bx,0
2926:2214  89 1E 82F5				mov	data_347,bx		; (2926:82F5=0C033h)
2926:2218			loc_223:
2926:2218  E8 00BD				call	sub_84			; (22D8)
2926:221B  43					inc	bx
2926:221C  D1 FB				sar	bx,1			; Shift w/sign fill
2926:221E  89 1E 82F5				mov	data_347,bx		; (2926:82F5=0C033h)
2926:2222  3B 1E 8258				cmp	bx,data_332		; (2926:8258=0A4F3h)
2926:2226  7F 58				jg	loc_227			; Jump if >
2926:2228  89 16 824E				mov	data_326,dx		; (2926:824E=0F903h)
2926:222C  8B C2				mov	ax,dx
2926:222E			loc_224:
2926:222E  3B 06 825A				cmp	ax,data_333		; (2926:825A=5D1Fh)
2926:2232  7F 4C				jg	loc_227			; Jump if >
2926:2234  2B 06 82F7				sub	ax,data_348		; (2926:82F7=10B9h)
2926:2238  03 06 8238				add	ax,data_315		; (2926:8238=0F3FDh)
2926:223C  8B 7E 08				mov	di,[bp+8]
2926:223F  83 C7 06				add	di,6
2926:2242  8B 1D				mov	bx,[di]
2926:2244  F7 E3				mul	bx			; dx:ax = reg * ax
2926:2246  8B 0E 8266				mov	cx,data_338		; (2926:8266=0FC8Bh)
           ICON.LST				Sourcer	v8.01  20-Jul-2026 12:15 am   Page 76

2926:224A  03 0E 8236				add	cx,data_314		; (2926:8236=4EF1h)
2926:224E  81 E1 0001				and	cx,1
2926:2252  03 C1				add	ax,cx
2926:2254  A3 8250				mov	data_327,ax		; (2926:8250=0C54Fh)
2926:2257  8B 1E 82F5				mov	bx,data_347		; (2926:82F5=0C033h)
2926:225B  89 1E 8254				mov	data_329,bx		; (2926:8254=0F103h)
2926:225F  8B C3				mov	ax,bx
2926:2261			loc_225:
2926:2261  3B 06 8258				cmp	ax,data_332		; (2926:8258=0A4F3h)
2926:2265  7F 0F				jg	loc_226			; Jump if >
2926:2267  B5 DE				mov	ch,0DEh
2926:2269  E8 00B0				call	sub_85			; (231C)
2926:226C  A1 8254				mov	ax,data_329		; (2926:8254=0F103h)
2926:226F  40					inc	ax
2926:2270  A3 8254				mov	data_329,ax		; (2926:8254=0F103h)
2926:2273  E9 FFEB				jmp	loc_225			; (2261)
2926:2276			loc_226:
2926:2276  A1 824E				mov	ax,data_326		; (2926:824E=0F903h)
2926:2279  40					inc	ax
2926:227A  A3 824E				mov	data_326,ax		; (2926:824E=0F903h)
2926:227D  E9 FFAE				jmp	loc_224			; (222E)
2926:2280			loc_227:
2926:2280  5D					pop	bp
2926:2281  C2 0008				retn	8
				sub_82		endp


				;ßßßßßßßßßßßßßßßßßßßßßßßßßßßßßßßßßßßßßßßßßßßßßßßßßßßßßßßßßßßßßßßßßßßßßßßßßß
				;                              SUBROUTINE
				;ÜÜÜÜÜÜÜÜÜÜÜÜÜÜÜÜÜÜÜÜÜÜÜÜÜÜÜÜÜÜÜÜÜÜÜÜÜÜÜÜÜÜÜÜÜÜÜÜÜÜÜÜÜÜÜÜÜÜÜÜÜÜÜÜÜÜÜÜÜÜÜÜÜÜ

2926:2284			sub_83		proc	near
2926:2284  8B 7E 04				mov	di,[bp+4]
2926:2287  8B 1D				mov	bx,[di]
2926:2289  83 FB 4E				cmp	bx,4Eh
2926:228C  7F 45				jg	loc_228			; Jump if >
2926:228E  89 1E 82F5				mov	data_347,bx		; (2926:82F5=0C033h)
2926:2292  89 1E 8266				mov	data_338,bx		; (2926:8266=0FC8Bh)
2926:2296  47					inc	di
2926:2297  47					inc	di
2926:2298  8B 15				mov	dx,[di]
2926:229A  83 FA 63				cmp	dx,63h
2926:229D  7F 34				jg	loc_228			; Jump if >
2926:229F  89 16 82F7				mov	data_348,dx		; (2926:82F7=10B9h)
2926:22A3  8B 7E 08				mov	di,[bp+8]
2926:22A6  83 C7 06				add	di,6
2926:22A9  8B 05				mov	ax,[di]
2926:22AB  03 C3				add	ax,bx
2926:22AD  48					dec	ax
2926:22AE  3D 0000				cmp	ax,0
2926:22B1  7C 20				jl	loc_228			; Jump if <
2926:22B3  A3 8258				mov	data_332,ax		; (2926:8258=0A4F3h)
2926:22B6  83 EF 02				sub	di,2
2926:22B9  8B 05				mov	ax,[di]
2926:22BB  03 C2				add	ax,dx
2926:22BD  48					dec	ax
2926:22BE  3D 0000				cmp	ax,0
           ICON.LST				Sourcer	v8.01  20-Jul-2026 12:15 am   Page 77

2926:22C1  7C 10				jl	loc_228			; Jump if <
2926:22C3  A3 825A				mov	data_333,ax		; (2926:825A=5D1Fh)
2926:22C6  C7 06 8236 0000			mov	data_314,0		; (2926:8236=4EF1h)
2926:22CC  C7 06 8238 0000			mov	data_315,0		; (2926:8238=0F3FDh)
2926:22D2  C3					retn
2926:22D3			loc_228:
2926:22D3  58					pop	ax
2926:22D4  5D					pop	bp
2926:22D5  C2 0008				retn	8
				sub_83		endp


				;ßßßßßßßßßßßßßßßßßßßßßßßßßßßßßßßßßßßßßßßßßßßßßßßßßßßßßßßßßßßßßßßßßßßßßßßßßß
				;                              SUBROUTINE
				;ÜÜÜÜÜÜÜÜÜÜÜÜÜÜÜÜÜÜÜÜÜÜÜÜÜÜÜÜÜÜÜÜÜÜÜÜÜÜÜÜÜÜÜÜÜÜÜÜÜÜÜÜÜÜÜÜÜÜÜÜÜÜÜÜÜÜÜÜÜÜÜÜÜÜ

2926:22D8			sub_84		proc	near
2926:22D8  83 FA 00				cmp	dx,0
2926:22DB  7D 0D				jge	loc_229			; Jump if > or =
2926:22DD  F7 DA				neg	dx
2926:22DF  89 16 8238				mov	data_315,dx		; (2926:8238=0F3FDh)
2926:22E3  BA 0000				mov	dx,0
2926:22E6  89 16 82F7				mov	data_348,dx		; (2926:82F7=10B9h)
2926:22EA			loc_229:
2926:22EA  83 3E 8258 00			cmp	data_332,0		; (2926:8258=0A4F3h)
2926:22EF  7E 0C				jle	loc_230			; Jump if < or =
2926:22F1  A1 8258				mov	ax,data_332		; (2926:8258=0A4F3h)
2926:22F4  48					dec	ax
2926:22F5  D1 F8				sar	ax,1			; Shift w/sign fill
2926:22F7  A3 8258				mov	data_332,ax		; (2926:8258=0A4F3h)
2926:22FA  E9 0004				jmp	loc_231			; (2301)
2926:22FD			loc_230:
2926:22FD  FF 0E 8258				dec	data_332		; (2926:8258=0A4F3h)
2926:2301			loc_231:
2926:2301  83 3E 8258 27			cmp	data_332,27h		; (2926:8258=0A4F3h)
2926:2306  7E 06				jle	loc_232			; Jump if < or =
2926:2308  C7 06 8258 0027			mov	data_332,27h		; (2926:8258=0A4F3h)
2926:230E			loc_232:
2926:230E  83 3E 825A 63			cmp	data_333,63h		; (2926:825A=5D1Fh)
2926:2313  7E 06				jle	loc_233			; Jump if < or =
2926:2315  C7 06 825A 0063			mov	data_333,63h		; (2926:825A=5D1Fh)
2926:231B			loc_233:
2926:231B  C3					retn
				sub_84		endp


				;ßßßßßßßßßßßßßßßßßßßßßßßßßßßßßßßßßßßßßßßßßßßßßßßßßßßßßßßßßßßßßßßßßßßßßßßßßß
				;                              SUBROUTINE
				;ÜÜÜÜÜÜÜÜÜÜÜÜÜÜÜÜÜÜÜÜÜÜÜÜÜÜÜÜÜÜÜÜÜÜÜÜÜÜÜÜÜÜÜÜÜÜÜÜÜÜÜÜÜÜÜÜÜÜÜÜÜÜÜÜÜÜÜÜÜÜÜÜÜÜ

2926:231C			sub_85		proc	near
2926:231C  A1 8254				mov	ax,data_329		; (2926:8254=0F103h)
2926:231F  2B 06 82F5				sub	ax,data_347		; (2926:82F5=0C033h)
2926:2323  D1 E0				shl	ax,1			; Shift w/zeros fill
2926:2325  03 06 8250				add	ax,data_327		; (2926:8250=0C54Fh)
2926:2329  03 06 8236				add	ax,data_314		; (2926:8236=4EF1h)
2926:232D  8B 7E 08				mov	di,[bp+8]
           ICON.LST				Sourcer	v8.01  20-Jul-2026 12:15 am   Page 78

2926:2330  03 05				add	ax,[di]
2926:2332  8B F0				mov	si,ax
2926:2334  4E					dec	si
2926:2335  8A 9C 680A				mov	bl,data_303[si]		; (2926:680A=0F1h)
2926:2339  32 FF				xor	bh,bh			; Zero register
2926:233B  D1 E3				shl	bx,1			; Shift w/zeros fill
2926:233D  D1 E3				shl	bx,1			; Shift w/zeros fill
2926:233F  A1 5DDC				mov	ax,data_287		; (2926:5DDC=0EA05h)
2926:2342  25 0003				and	ax,3
2926:2345  03 D8				add	bx,ax
2926:2347  8A B7 2906				mov	dh,data_148[bx]		; (2926:2906=6Dh)
2926:234B  46					inc	si
2926:234C  8A 9C 680A				mov	bl,data_303[si]		; (2926:680A=0F1h)
2926:2350  32 FF				xor	bh,bh			; Zero register
2926:2352  D1 E3				shl	bx,1			; Shift w/zeros fill
2926:2354  D1 E3				shl	bx,1			; Shift w/zeros fill
2926:2356  03 D8				add	bx,ax
2926:2358  8A 97 2906				mov	dl,data_148[bx]		; (2926:2906=6Dh)
2926:235C  80 FE 10				cmp	dh,10h
2926:235F  75 06				jne	loc_234			; Jump if not equal
2926:2361  80 FA 10				cmp	dl,10h
2926:2364  75 01				jne	loc_234			; Jump if not equal
2926:2366  C3					retn
2926:2367			loc_234:
2926:2367  A1 824E				mov	ax,data_326		; (2926:824E=0F903h)
2926:236A  8B D8				mov	bx,ax
2926:236C  D1 E0				shl	ax,1			; Shift w/zeros fill
2926:236E  D1 E0				shl	ax,1			; Shift w/zeros fill
2926:2370  D1 E0				shl	ax,1			; Shift w/zeros fill
2926:2372  D1 E0				shl	ax,1			; Shift w/zeros fill
2926:2374  D1 E3				shl	bx,1			; Shift w/zeros fill
2926:2376  D1 E3				shl	bx,1			; Shift w/zeros fill
2926:2378  D1 E3				shl	bx,1			; Shift w/zeros fill
2926:237A  D1 E3				shl	bx,1			; Shift w/zeros fill
2926:237C  D1 E3				shl	bx,1			; Shift w/zeros fill
2926:237E  D1 E3				shl	bx,1			; Shift w/zeros fill
2926:2380  03 C3				add	ax,bx
2926:2382  8B 1E 8254				mov	bx,data_329		; (2926:8254=0F103h)
2926:2386  D1 E3				shl	bx,1			; Shift w/zeros fill
2926:2388  03 D8				add	bx,ax
2926:238A  03 1E 2BF2				add	bx,data_166		; (2926:2BF2=200h)
2926:238E  8E 06 2BF4				mov	es,data_167		; (2926:2BF4=90Ch)
2926:2392  26: 8A 07				mov	al,es:[bx]
2926:2395  A2 826F				mov	data_343,al		; (2926:826F=45h)
2926:2398  80 FE 10				cmp	dh,10h
2926:239B  75 32				jne	loc_237			; Jump if not equal
2926:239D  8A C5				mov	al,ch
2926:239F  3A 06 826F				cmp	al,data_343		; (2926:826F=45h)
2926:23A3  74 18				je	loc_236			; Jump if equal
2926:23A5  80 3E 826F 01			cmp	byte ptr data_343,1	; (2926:826F=45h)
2926:23AA  74 07				je	loc_235			; Jump if equal
2926:23AC  80 3E 826F 02			cmp	byte ptr data_343,2	; (2926:826F=45h)
2926:23B1  75 0A				jne	loc_236			; Jump if not equal
2926:23B3			loc_235:
2926:23B3  26: 8A 77 01				mov	dh,es:[bx+1]
2926:23B7  80 E6 0F				and	dh,0Fh
2926:23BA  E9 0048				jmp	loc_240			; (2405)
           ICON.LST				Sourcer	v8.01  20-Jul-2026 12:15 am   Page 79

2926:23BD			loc_236:
2926:23BD  26: 8A 77 01				mov	dh,es:[bx+1]
2926:23C1  80 E6 F0				and	dh,0F0h
2926:23C4  D0 EE				shr	dh,1			; Shift w/zeros fill
2926:23C6  D0 EE				shr	dh,1			; Shift w/zeros fill
2926:23C8  D0 EE				shr	dh,1			; Shift w/zeros fill
2926:23CA  D0 EE				shr	dh,1			; Shift w/zeros fill
2926:23CC  E9 0036				jmp	loc_240			; (2405)
2926:23CF			loc_237:
2926:23CF  80 FA 10				cmp	dl,10h
2926:23D2  75 31				jne	loc_240			; Jump if not equal
2926:23D4  A0 826F				mov	al,data_343		; (2926:826F=45h)
2926:23D7  3C 01				cmp	al,1
2926:23D9  74 11				je	loc_238			; Jump if equal
2926:23DB  3C 02				cmp	al,2
2926:23DD  74 0D				je	loc_238			; Jump if equal
2926:23DF  3A C5				cmp	al,ch
2926:23E1  74 09				je	loc_238			; Jump if equal
2926:23E3  3C DE				cmp	al,0DEh
2926:23E5  75 0F				jne	loc_239			; Jump if not equal
2926:23E7  80 FD DE				cmp	ch,0DEh
2926:23EA  75 0A				jne	loc_239			; Jump if not equal
2926:23EC			loc_238:
2926:23EC  26: 8A 57 01				mov	dl,es:[bx+1]
2926:23F0  80 E2 0F				and	dl,0Fh
2926:23F3  E9 000F				jmp	loc_240			; (2405)
2926:23F6			loc_239:
2926:23F6  26: 8A 57 01				mov	dl,es:[bx+1]
2926:23FA  80 E2 F0				and	dl,0F0h
2926:23FD  D0 EA				shr	dl,1			; Shift w/zeros fill
2926:23FF  D0 EA				shr	dl,1			; Shift w/zeros fill
2926:2401  D0 EA				shr	dl,1			; Shift w/zeros fill
2926:2403  D0 EA				shr	dl,1			; Shift w/zeros fill
2926:2405			loc_240:
2926:2405  8A E6				mov	ah,dh
2926:2407  D0 E4				shl	ah,1			; Shift w/zeros fill
2926:2409  D0 E4				shl	ah,1			; Shift w/zeros fill
2926:240B  D0 E4				shl	ah,1			; Shift w/zeros fill
2926:240D  D0 E4				shl	ah,1			; Shift w/zeros fill
2926:240F  0A E2				or	ah,dl
2926:2411  8A C5				mov	al,ch
2926:2413  26: 89 07				mov	es:[bx],ax
2926:2416  C3					retn
				sub_85		endp

							                        ;* No entry point to code
2926:2417  55					push	bp
2926:2418  8B EC				mov	bp,sp
2926:241A  8B 76 04				mov	si,[bp+4]
2926:241D  8A 44 0C				mov	al,[si+0Ch]
2926:2420  32 E4				xor	ah,ah			; Zero register
2926:2422  48					dec	ax
2926:2423  B3 18				mov	bl,18h
2926:2425  F6 E3				mul	bl			; ax = reg * al
2926:2427  8B F8				mov	di,ax
2926:2429  8A 9D 58EC				mov	bl,data_273[di]		; (2926:58EC=8Ah)
2926:242D  32 FF				xor	bh,bh			; Zero register
           ICON.LST				Sourcer	v8.01  20-Jul-2026 12:15 am   Page 80

2926:242F  89 1E 8242				mov	data_321,bx		; (2926:8242=0EC8Bh)
2926:2433  8A 9D 5900				mov	bl,data_274[di]		; (2926:5900=50h)
2926:2437  88 1E 8241				mov	data_320,bl		; (2926:8241=55h)
2926:243B  C6 06 823A 09			mov	byte ptr data_316,9	; (2926:823A=0A4h)
2926:2440  80 FB 00				cmp	bl,0
2926:2443  74 0D				je	loc_241			; Jump if equal
2926:2445  C6 06 823A 00			mov	byte ptr data_316,0	; (2926:823A=0A4h)
2926:244A  80 FB 03				cmp	bl,3
2926:244D  75 03				jne	loc_241			; Jump if not equal
2926:244F  E9 00D1				jmp	loc_250			; (2523)
2926:2452			loc_241:
2926:2452  8B 44 06				mov	ax,[si+6]
2926:2455  03 44 02				add	ax,[si+2]
2926:2458  79 06				jns	loc_242			; Jump if not sign
2926:245A  B8 0001				mov	ax,1
2926:245D  E9 00C5				jmp	loc_251			; (2525)
2926:2460			loc_242:
2926:2460  A3 823B				mov	data_317,ax		; (2926:823B=5D1Fh)
2926:2463  D1 E8				shr	ax,1			; Shift w/zeros fill
2926:2465  B3 90				mov	bl,90h
2926:2467  F6 F3				div	bl			; al, ah rem = ax/reg
2926:2469  32 E4				xor	ah,ah			; Zero register
2926:246B  A3 823F				mov	data_319,ax		; (2926:823F=0Ah)
2926:246E  8B 44 04				mov	ax,[si+4]
2926:2471  03 04				add	ax,[si]
2926:2473  79 06				jns	loc_243			; Jump if not sign
2926:2475  B8 0001				mov	ax,1
2926:2478  E9 00AA				jmp	loc_251			; (2525)
2926:247B			loc_243:
2926:247B  A3 823D				mov	data_318,ax		; (2926:823D=0C2FCh)
2926:247E  D1 E8				shr	ax,1			; Shift w/zeros fill
2926:2480  F6 F3				div	bl			; al, ah rem = ax/reg
2926:2482  32 E4				xor	ah,ah			; Zero register
2926:2484  A3 8244				mov	data_322,ax		; (2926:8244=0C583h)
2926:2487  A1 8242				mov	ax,data_321		; (2926:8242=0EC8Bh)
2926:248A  48					dec	ax
2926:248B  B3 1D				mov	bl,1Dh
2926:248D  F6 E3				mul	bl			; ax = reg * al
2926:248F  8B F8				mov	di,ax
2926:2491  83 C7 06				add	di,6
2926:2494  8A 85 601C				mov	al,data_296[di]		; (2926:601C=46h)
2926:2498  FE C8				dec	al
2926:249A  B3 48				mov	bl,48h			; 'H'
2926:249C  F6 E3				mul	bl			; ax = reg * al
2926:249E  03 06 823B				add	ax,data_317		; (2926:823B=5D1Fh)
2926:24A2  D1 E8				shr	ax,1			; Shift w/zeros fill
2926:24A4  B1 90				mov	cl,90h
2926:24A6  F6 F1				div	cl			; al, ah rem = ax/reg
2926:24A8  32 E4				xor	ah,ah			; Zero register
2926:24AA  A3 823B				mov	data_317,ax		; (2926:823B=5D1Fh)
2926:24AD  4F					dec	di
2926:24AE  4F					dec	di
2926:24AF  8A 85 601C				mov	al,data_296[di]		; (2926:601C=46h)
2926:24B3  FE C8				dec	al
2926:24B5  B3 30				mov	bl,30h			; '0'
2926:24B7  F6 E3				mul	bl			; ax = reg * al
2926:24B9  03 06 823D				add	ax,data_318		; (2926:823D=0C2FCh)
           ICON.LST				Sourcer	v8.01  20-Jul-2026 12:15 am   Page 81

2926:24BD  D1 E8				shr	ax,1			; Shift w/zeros fill
2926:24BF  F6 F1				div	cl			; al, ah rem = ax/reg
2926:24C1  32 E4				xor	ah,ah			; Zero register
2926:24C3  A3 823D				mov	data_318,ax		; (2926:823D=0C2FCh)
2926:24C6  8A 0E 8241				mov	cl,data_320		; (2926:8241=55h)
2926:24CA  8A 2E 823A				mov	ch,data_316		; (2926:823A=0A4h)
2926:24CE  8B 16 823F				mov	dx,data_319		; (2926:823F=0Ah)
2926:24D2  8B C2				mov	ax,dx
2926:24D4  B3 64				mov	bl,64h			; 'd'
2926:24D6  F6 E3				mul	bl			; ax = reg * al
2926:24D8  2D 0064				sub	ax,64h
2926:24DB  8B F0				mov	si,ax
2926:24DD  03 36 8244				add	si,data_322		; (2926:8244=0C583h)
2926:24E1			loc_244:
2926:24E1  3B 16 823B				cmp	dx,data_317		; (2926:823B=5D1Fh)
2926:24E5  7F 3C				jg	loc_250			; Jump if >
2926:24E7  83 C6 64				add	si,64h
2926:24EA  8B FE				mov	di,si
2926:24EC  8B 1E 8244				mov	bx,data_322		; (2926:8244=0C583h)
2926:24F0			loc_245:
2926:24F0  3B 1E 823D				cmp	bx,data_318		; (2926:823D=0C2FCh)
2926:24F4  7F 29				jg	loc_249			; Jump if >
2926:24F6  8A 85 31D4				mov	al,data_179[di]		; (2926:31D4=0DEh)
2926:24FA  80 F9 01				cmp	cl,1
2926:24FD  7F 0A				jg	loc_246			; Jump if >
2926:24FF  3A C5				cmp	al,ch
2926:2501  7E 17				jle	loc_248			; Jump if < or =
2926:2503  B8 0001				mov	ax,1
2926:2506  E9 001C				jmp	loc_251			; (2525)
2926:2509			loc_246:
2926:2509  3C 00				cmp	al,0
2926:250B  74 07				je	loc_247			; Jump if equal
2926:250D  3C 09				cmp	al,9
2926:250F  7F 03				jg	loc_247			; Jump if >
2926:2511  E9 0006				jmp	loc_248			; (251A)
2926:2514			loc_247:
2926:2514  B8 0001				mov	ax,1
2926:2517  E9 000B				jmp	loc_251			; (2525)
2926:251A			loc_248:
2926:251A  43					inc	bx
2926:251B  47					inc	di
2926:251C  E9 FFD1				jmp	loc_245			; (24F0)
2926:251F			loc_249:
2926:251F  42					inc	dx
2926:2520  E9 FFBE				jmp	loc_244			; (24E1)
2926:2523			loc_250:
2926:2523  33 C0				xor	ax,ax			; Zero register
2926:2525			loc_251:
2926:2525  5D					pop	bp
2926:2526  C2 0004				retn	4
							                        ;* No entry point to code
2926:2529  5B					pop	bx
2926:252A  58					pop	ax
2926:252B  33 D2				xor	dx,dx			; Zero register
2926:252D  B9 0048				mov	cx,48h
2926:2530  F7 F1				div	cx			; ax,dx rem=dx:ax/reg
2926:2532  FF E3				jmp	bx			;*
           ICON.LST				Sourcer	v8.01  20-Jul-2026 12:15 am   Page 82

							                        ;* No entry point to code
2926:2534  5B					pop	bx
2926:2535  58					pop	ax
2926:2536  33 D2				xor	dx,dx			; Zero register
2926:2538  B9 0030				mov	cx,30h
2926:253B  F7 F1				div	cx			; ax,dx rem=dx:ax/reg
2926:253D  FF E3				jmp	bx			;*Register jump

				;ßßßßßßßßßßßßßßßßßßßßßßßßßßßßßßßßßßßßßßßßßßßßßßßßßßßßßßßßßßßßßßßßßßßßßßßßßß
				;                              SUBROUTINE
				;ÜÜÜÜÜÜÜÜÜÜÜÜÜÜÜÜÜÜÜÜÜÜÜÜÜÜÜÜÜÜÜÜÜÜÜÜÜÜÜÜÜÜÜÜÜÜÜÜÜÜÜÜÜÜÜÜÜÜÜÜÜÜÜÜÜÜÜÜÜÜÜÜÜÜ

2926:253F			sub_86		proc	near
2926:253F  5B					pop	bx
2926:2540  5E					pop	si
2926:2541  07					pop	es
2926:2542  5F					pop	di
2926:2543  58					pop	ax
2926:2544  53					push	bx
2926:2545  C6 06 8274 00			mov	byte ptr data_346,0	; (2926:8274=0B9h)
2926:254A  8B 45 04				mov	ax,[di+4]
2926:254D  3D FFFF				cmp	ax,0FFFFh
2926:2550  74 49				je	loc_252			; Jump if equal
2926:2552  48					dec	ax
2926:2553  B1 1D				mov	cl,1Dh
2926:2555  F6 E1				mul	cl			; ax = reg * al
2926:2557  8B D8				mov	bx,ax
2926:2559  8B 87 6022				mov	ax,data_298[bx]		; (2926:6022=4689h)
2926:255D  03 05				add	ax,[di]
2926:255F  48					dec	ax
2926:2560  39 04				cmp	[si],ax
2926:2562  7F 37				jg	loc_252			; Jump if >
2926:2564  8B 87 6020				mov	ax,data_297[bx]		; (2926:6020=40A7h)
2926:2568  03 45 02				add	ax,[di+2]
2926:256B  48					dec	ax
2926:256C  39 44 02				cmp	[si+2],ax
2926:256F  7F 2A				jg	loc_252			; Jump if >
2926:2571  8B 44 04				mov	ax,[si+4]
2926:2574  3D FFFF				cmp	ax,0FFFFh
2926:2577  74 22				je	loc_252			; Jump if equal
2926:2579  48					dec	ax
2926:257A  F6 E1				mul	cl			; ax = reg * al
2926:257C  8B D8				mov	bx,ax
2926:257E  8B 87 6022				mov	ax,data_298[bx]		; (2926:6022=4689h)
2926:2582  03 04				add	ax,[si]
2926:2584  48					dec	ax
2926:2585  3B 05				cmp	ax,[di]
2926:2587  7C 12				jl	loc_252			; Jump if <
2926:2589  8B 87 6020				mov	ax,data_297[bx]		; (2926:6020=40A7h)
2926:258D  03 44 02				add	ax,[si+2]
2926:2590  48					dec	ax
2926:2591  3B 45 02				cmp	ax,[di+2]
2926:2594  7C 05				jl	loc_252			; Jump if <
2926:2596  C6 06 8274 01			mov	byte ptr data_346,1	; (2926:8274=0B9h)
2926:259B			loc_252:
2926:259B  A0 8274				mov	al,data_346		; (2926:8274=0B9h)
2926:259E  32 E4				xor	ah,ah			; Zero register
           ICON.LST				Sourcer	v8.01  20-Jul-2026 12:15 am   Page 83

2926:25A0  C3					retn
				sub_86		endp


				;ßßßßßßßßßßßßßßßßßßßßßßßßßßßßßßßßßßßßßßßßßßßßßßßßßßßßßßßßßßßßßßßßßßßßßßßßßß
				;                              SUBROUTINE
				;ÜÜÜÜÜÜÜÜÜÜÜÜÜÜÜÜÜÜÜÜÜÜÜÜÜÜÜÜÜÜÜÜÜÜÜÜÜÜÜÜÜÜÜÜÜÜÜÜÜÜÜÜÜÜÜÜÜÜÜÜÜÜÜÜÜÜÜÜÜÜÜÜÜÜ

2926:25A1			sub_87		proc	near
2926:25A1  A1 5A26				mov	ax,data_275		; (2926:5A26=0AB8h)
2926:25A4  A3 8246				mov	data_323,ax		; (2926:8246=8B04h)
2926:25A7  B3 06				mov	bl,6
2926:25A9  F6 E3				mul	bl			; ax = reg * al
2926:25AB  05 5A9C				add	ax,5A9Ch
2926:25AE  A3 8270				mov	data_344,ax		; (2926:8270=0D18Ch)
2926:25B1  FF 06 8246				inc	data_323		; (2926:8246=8B04h)
2926:25B5			loc_253:
2926:25B5  8B 3E 8270				mov	di,data_344		; (2926:8270=0D18Ch)
2926:25B9  83 EF 06				sub	di,6
2926:25BC  89			data_142	db	89h
2926:25BD  3E			data_143	db	3Eh			; Data table (indexed access)
2926:25BE  70 82 FF 0E 46 82			db	 70h, 82h,0FFh, 0Eh, 46h, 82h
2926:25C4  74 28 8B 45 04 3D			db	 74h, 28h, 8Bh, 45h, 04h, 3Dh
2926:25CA  FF FF 74 E7 48 B3			db	0FFh,0FFh, 74h,0E7h, 48h,0B3h
2926:25D0  1D F6 E3 05 1C 60			db	 1Dh,0F6h,0E3h, 05h, 1Ch, 60h
2926:25D6  8B F0 1E 56 1E 57			db	 8Bh,0F0h, 1Eh, 56h, 1Eh, 57h
2926:25DC  83 7C 02 FF 75 06			db	 83h, 7Ch, 02h,0FFh, 75h, 06h
2926:25E2  E8 1B FC E9 CD FF			db	0E8h, 1Bh,0FCh,0E9h,0CDh,0FFh
2926:25E8			loc_254:
2926:25E8  E8 FB79				call	sub_81			; (2164)
2926:25EB  E9 FFC7				jmp	loc_253			; (25B5)
				sub_87		endp

2926:25EE			loc_255:
2926:25EE  C3					retn
							                        ;* No entry point to code
2926:25EF  A1 5A26				mov	ax,data_275		; (2926:5A26=0AB8h)
2926:25F2  3D 0047				cmp	ax,47h
2926:25F5  7C 40				jl	loc_257			; Jump if <
2926:25F7  2D 0045				sub	ax,45h
2926:25FA  A3 8246				mov	data_323,ax		; (2926:8246=8B04h)
2926:25FD  BF 5A9C				mov	di,5A9Ch
2926:2600  BE 2C1A				mov	si,2C1Ah
2926:2603  BB 0006				mov	bx,6
2926:2606  B8 0045				mov	ax,45h
2926:2609  F7 E3				mul	bx			; dx:ax = reg * ax
2926:260B  03 F8				add	di,ax
2926:260D  2B F3				sub	si,bx
2926:260F  8B 0E 5DAA				mov	cx,data_284		; (2926:5DAA=55Ah)
2926:2613  8B 16 5DAC				mov	dx,data_285		; (2926:5DAC=0Ah)
2926:2617			loc_256:
2926:2617  FF 0E 8246				dec	data_323		; (2926:8246=8B04h)
2926:261B  74 1A				jz	loc_257			; Jump if zero
2926:261D  03 FB				add	di,bx
2926:261F  03 F3				add	si,bx
2926:2621  8B 04				mov	ax,[si]
2926:2623  3D FFFF				cmp	ax,0FFFFh
           ICON.LST				Sourcer	v8.01  20-Jul-2026 12:15 am   Page 84

2926:2626  7E EF				jle	loc_256			; Jump if < or =
2926:2628  03 C1				add	ax,cx
2926:262A  89 05				mov	[di],ax
2926:262C  8B 44 02				mov	ax,[si+2]
2926:262F  03 C2				add	ax,dx
2926:2631  89 45 02				mov	[di+2],ax
2926:2634  E9 FFE0				jmp	loc_256			; (2617)
2926:2637			loc_257:
2926:2637  89 16 2C18				mov	data_168,dx		; (2926:2C18=6557h)
2926:263B  C3					retn
2926:263C  00 04 02 03 06 05			db	 00h, 04h, 02h, 03h, 06h, 05h
2926:2642  06 02 06 80 3E 56			db	 06h, 02h, 06h, 80h, 3Eh, 56h
2926:2648  82 01 75 01 C3			db	 82h, 01h, 75h, 01h,0C3h
2926:264D			loc_258:
2926:264D  33 D2				xor	dx,dx			; Zero register
2926:264F  32 ED				xor	ch,ch			; Zero register
2926:2651  2E: 8A 0E 25BC			mov	cl,cs:data_142		; (2926:25BC=89h)
2926:2656  F7 D9				neg	cx
2926:2658  32 DB				xor	bl,bl			; Zero register
2926:265A  B7 50				mov	bh,50h			; 'P'
2926:265C			loc_259:
2926:265C  80 FB 09				cmp	bl,9
2926:265F  7F 58				jg	loc_263			; Jump if >
2926:2661  8B 3E 2A40				mov	di,data_157		; (2926:2A40=3CFFh)
2926:2665  8E 06 2A42				mov	es,data_158		; (2926:2A42=7503h)
2926:2669  B8			data_144	db	0B8h
2926:266A  0A			data_145	db	0Ah
2926:266B  00 F6 E3 8B F0 A1			db	 00h,0F6h,0E3h, 8Bh,0F0h,0A1h
2926:2671  DC 5D 25 03 00 D1			db	0DCh, 5Dh, 25h, 03h, 00h,0D1h
2926:2677  E0 03 C6 F6 E7 03			db	0E0h, 03h,0C6h,0F6h,0E7h, 03h
2926:267D  F8					db	0F8h
2926:267E			loc_260:
2926:267E  83 F9 27				cmp	cx,27h
2926:2681  7F 2E				jg	loc_262			; Jump if >
2926:2683  8B F7				mov	si,di
2926:2685  8B C2				mov	ax,dx
2926:2687  25 0003				and	ax,3
2926:268A  F6 E7				mul	bh			; ax = reg * al
2926:268C  03 C1				add	ax,cx
2926:268E  D1 E0				shl	ax,1			; Shift w/zeros fill
2926:2690  03 F0				add	si,ax
2926:2692  26: 81 3C 1701			cmp	word ptr es:[si],1701h
2926:2697  75 05				jne	loc_261			; Jump if not equal
2926:2699  26: C7 04 17B0			mov	word ptr es:[si],17B0h
2926:269E			loc_261:
2926:269E  8B F2				mov	si,dx
2926:26A0  81 E6 0007				and	si,7
2926:26A4  2E: 8A 84 25BD			mov	al,cs:data_143[si]	; (2926:25BD=3Eh)
2926:26A9  32 E4				xor	ah,ah			; Zero register
2926:26AB  03 C8				add	cx,ax
2926:26AD  42					inc	dx
2926:26AE  E9 FFCD				jmp	loc_260			; (267E)
2926:26B1			loc_262:
2926:26B1  83 E9 28				sub	cx,28h
2926:26B4  FE C3				inc	bl
2926:26B6  E9 FFA3				jmp	loc_259			; (265C)
2926:26B9			loc_263:
           ICON.LST				Sourcer	v8.01  20-Jul-2026 12:15 am   Page 85

2926:26B9  2E: A0 25BC				mov	al,cs:data_142		; (2926:25BC=89h)
2926:26BD  FE C0				inc	al
2926:26BF  24 1F				and	al,1Fh
2926:26C1  2E: A2 25BC				mov	cs:data_142,al		; (2926:25BC=89h)
2926:26C5  C3					retn
							                        ;* No entry point to code
2926:26C6  1E					push	ds
2926:26C7  8C CA				mov	dx,cs
2926:26C9  8E DA				mov	ds,dx
2926:26CB  A0 2669				mov	al,data_144		; (2926:2669=0B8h)
2926:26CE  04 1D				add	al,1Dh
2926:26D0  A2 2669				mov	data_144,al		; (2926:2669=0B8h)
2926:26D3  80 0E 266A 03			or	data_145,3		; (2926:266A=0Ah)
2926:26D8  E8 009A				call	sub_89			; (2775)
2926:26DB  33 D2				xor	dx,dx			; Zero register
2926:26DD			loc_264:
2926:26DD  B9 0004				mov	cx,4

2926:26E0			locloop_265:
2926:26E0  51					push	cx
2926:26E1  B1 80				mov	cl,80h
2926:26E3  B5 27				mov	ch,27h			; '''
2926:26E5  B4 04				mov	ah,4
2926:26E7  B0 01				mov	al,1
2926:26E9  B0 10				mov	al,10h
2926:26EB  59					pop	cx
2926:26EC  73 08				jnc	loc_266			; Jump if carry=0
2926:26EE  80 E4 EF				and	ah,0EFh
2926:26F1  75 03				jnz	loc_266			; Jump if not zero
2926:26F3  E9 001A				jmp	loc_267			; (2710)
2926:26F6			loc_266:
2926:26F6  E2 E8				loop	locloop_265		; Loop if cx > 0

2926:26F8  FE C2				inc	dl
2926:26FA  80 FA 02				cmp	dl,2
2926:26FD  7C DE				jl	loc_264			; Jump if <
2926:26FF  80 26 266A 10			and	data_145,10h		; (2926:266A=0Ah)
2926:2704  A0 2669				mov	al,data_144		; (2926:2669=0B8h)
2926:2707  2C 1D				sub	al,1Dh
2926:2709  A2 2669				mov	data_144,al		; (2926:2669=0B8h)
2926:270C  1F					pop	ds
2926:270D  33 C0				xor	ax,ax			; Zero register
2926:270F  C3					retn
2926:2710			loc_267:
2926:2710  80 26 266A 10			and	data_145,10h		; (2926:266A=0Ah)
2926:2715  A0 2669				mov	al,data_144		; (2926:2669=0B8h)
2926:2718  2C 1D				sub	al,1Dh
2926:271A  A2 2669				mov	data_144,al		; (2926:2669=0B8h)
2926:271D  1F					pop	ds
2926:271E  B8 0001				mov	ax,1
2926:2721  C3					retn

				;ßßßßßßßßßßßßßßßßßßßßßßßßßßßßßßßßßßßßßßßßßßßßßßßßßßßßßßßßßßßßßßßßßßßßßßßßßß
				;                              SUBROUTINE
				;ÜÜÜÜÜÜÜÜÜÜÜÜÜÜÜÜÜÜÜÜÜÜÜÜÜÜÜÜÜÜÜÜÜÜÜÜÜÜÜÜÜÜÜÜÜÜÜÜÜÜÜÜÜÜÜÜÜÜÜÜÜÜÜÜÜÜÜÜÜÜÜÜÜÜ

2926:2722			sub_88		proc	near
           ICON.LST				Sourcer	v8.01  20-Jul-2026 12:15 am   Page 86

2926:2722  33 C0				xor	ax,ax			; Zero register
2926:2724  80 3E 8224 00			cmp	byte ptr data_311,0	; (2926:8224=0ECh)
2926:2729  74 1E				je	loc_270			; Jump if equal
2926:272B  33 DB				xor	bx,bx			; Zero register
2926:272D  B1 04				mov	cl,4
2926:272F  BA 0201				mov	dx,201h
2926:2732			loc_268:
2926:2732  EC					in	al,dx			; port 201h, start game 1-shots
2926:2733  D2 E8				shr	al,cl			; Shift w/zeros fill
2926:2735  F6 D0				not	al
2926:2737  3A C3				cmp	al,bl
2926:2739  74 07				je	loc_269			; Jump if equal
2926:273B  32 FF				xor	bh,bh			; Zero register
2926:273D  8A D8				mov	bl,al
2926:273F  E9 FFF0				jmp	loc_268			; (2732)
2926:2742			loc_269:
2926:2742  FE C7				inc	bh
2926:2744  80 FF 32				cmp	bh,32h			; '2'
2926:2747  7C E9				jl	loc_268			; Jump if <
2926:2749			loc_270:
2926:2749  C3					retn
				sub_88		endp

2926:274A  28 63 29 20 38 34			db	'(c) 84 - NW & RB'
2926:2750  20 2D 20 4E 57 20
2926:2756  26 20 52 42
2926:275A  FA B9 FF 00 BA 01			db	0FAh,0B9h,0FFh, 00h,0BAh, 01h
2926:2760  02 33 F6 BB 01 01			db	 02h, 33h,0F6h,0BBh, 01h, 01h
2926:2766  EE					db	0EEh

2926:2767			locloop_271:
2926:2767  EC					in	al,dx			; port 201h, start game 1-shots
2926:2768  8A E0				mov	ah,al
2926:276A  D0 EC				shr	ah,1			; Shift w/zeros fill
2926:276C  23 D8				and	bx,ax
2926:276E  03 F3				add	si,bx
2926:2770  E2 F5				loop	locloop_271		; Loop if cx > 0

2926:2772  8B C6				mov	ax,si
2926:2774  FB					sti				; Enable interrupts

				;ßßßßßßßßßßßßßßßßßßßßßßßßßßßßßßßßßßßßßßßßßßßßßßßßßßßßßßßßßßßßßßßßßßßßßßßßßß
				;                              SUBROUTINE
				;ÜÜÜÜÜÜÜÜÜÜÜÜÜÜÜÜÜÜÜÜÜÜÜÜÜÜÜÜÜÜÜÜÜÜÜÜÜÜÜÜÜÜÜÜÜÜÜÜÜÜÜÜÜÜÜÜÜÜÜÜÜÜÜÜÜÜÜÜÜÜÜÜÜÜ

2926:2775			sub_89		proc	near
2926:2775  C7 06 2C18 FFFF			mov	data_168,0FFFFh		; (2926:2C18=6557h)
2926:277B  C3					retn
				sub_89		endp

2926:277C  00 01 1F 00 02 01			db	 00h, 01h, 1Fh, 00h, 02h, 01h
2926:2782  00 DA C4 00 03 23			db	 00h,0DAh,0C4h, 00h, 03h, 23h
2926:2788  C4 BF 00 02 01 01			db	0C4h,0BFh, 00h, 02h, 01h, 01h
2926:278E  B3 20 20 20 20 DC			db	0B3h, 20h, 20h, 20h, 20h,0DCh
2926:2794  DC DC DC DC 20 20			db	0DCh,0DCh,0DCh,0DCh, 20h, 20h
2926:279A  DC DC DC DC DC 20			db	0DCh,0DCh,0DCh,0DCh,0DCh, 20h
2926:27A0  20 DC DC DC DC DC			db	 20h,0DCh,0DCh,0DCh,0DCh,0DCh
           ICON.LST				Sourcer	v8.01  20-Jul-2026 12:15 am   Page 87

2926:27A6  20 20 DC DC DC DC			db	 20h, 20h,0DCh,0DCh,0DCh,0DCh
2926:27AC  DC 00 02 26 01 B3			db	0DCh, 00h, 02h, 26h, 01h,0B3h
2926:27B2  00 02 01 02 B3 20			db	 00h, 02h, 01h, 02h,0B3h, 20h
2926:27B8  20 20 20 20 20 DB			db	 20h, 20h, 20h, 20h, 20h,0DBh
2926:27BE  20 20 20 20 DB 20			db	 20h, 20h, 20h, 20h,0DBh, 20h
2926:27C4  20 20 DB 20 20 DB			db	 20h, 20h,0DBh, 20h, 20h,0DBh
2926:27CA  20 20 20 DB 20 20			db	 20h, 20h, 20h,0DBh, 20h, 20h
2926:27D0  DB 20 20 20 DB 00			db	0DBh, 20h, 20h, 20h,0DBh, 00h
2926:27D6  02 26 02 B3 00 02			db	 02h, 26h, 02h,0B3h, 00h, 02h
2926:27DC  01 03 B3 20 20 20			db	 01h, 03h,0B3h, 20h, 20h, 20h
2926:27E2  20 20 20 DB 20 20			db	 20h, 20h, 20h,0DBh, 20h, 20h
2926:27E8  20 20 DB 20 20 20			db	 20h, 20h,0DBh, 20h, 20h, 20h
2926:27EE  20 20 20 DB 20 20			db	 20h, 20h, 20h,0DBh, 20h, 20h
2926:27F4  20 DB 20 20 DB 20			db	 20h,0DBh, 20h, 20h,0DBh, 20h
2926:27FA  20 20 DB 00 02 26			db	 20h, 20h,0DBh, 00h, 02h, 26h
2926:2800  03 B3 00 02 01 04			db	 03h,0B3h, 00h, 02h, 01h, 04h
2926:2806  B3 20 20 20 20 20			db	0B3h, 20h, 20h, 20h, 20h, 20h
2926:280C  20 DB 20 20 20 20			db	 20h,0DBh, 20h, 20h, 20h, 20h
2926:2812  DB 20 20 20 DB 20			db	0DBh, 20h, 20h, 20h,0DBh, 20h
2926:2818  20 DB 20 20 20 DB			db	 20h,0DBh, 20h, 20h, 20h,0DBh
2926:281E  20 20 DB 20 20 20			db	 20h, 20h,0DBh, 20h, 20h, 20h
2926:2824  DB 00 02 26 04 B3			db	0DBh, 00h, 02h, 26h, 04h,0B3h
2926:282A  00 02 01 05 B3 20			db	 00h, 02h, 01h, 05h,0B3h, 20h
2926:2830  20 20 20 DF DF DF			db	 20h, 20h, 20h,0DFh,0DFh,0DFh
2926:2836  DF DF 20 20 DF DF			db	0DFh,0DFh, 20h, 20h,0DFh,0DFh
2926:283C  DF DF DF 20 20 DF			db	0DFh,0DFh,0DFh, 20h, 20h,0DFh
2926:2842  DF DF DF DF 20 20			db	0DFh,0DFh,0DFh,0DFh, 20h, 20h
2926:2848  DF 20 20 20 DF 00			db	0DFh, 20h, 20h, 20h,0DFh, 00h
2926:284E  02 26 05 B3 00 02			db	 02h, 26h, 05h,0B3h, 00h, 02h
2926:2854  01 06 B3 00 02 08			db	 01h, 06h,0B3h, 00h, 02h, 08h
2926:285A  06					db	 06h
2926:285B  54 48 45 20 51 55			db	'THE QUEST FOR THE RING'
2926:2861  45 53 54 20 46 4F
2926:2867  52 20 54 48 45 20
2926:286D  52 49 4E 47
2926:2871  00 02 26 06 B3 00			db	 00h, 02h, 26h, 06h,0B3h, 00h
2926:2877  02 01 07 B3 00 02			db	 02h, 01h, 07h,0B3h, 00h, 02h
2926:287D  26 07 B3 00 02 01			db	 26h, 07h,0B3h, 00h, 02h, 01h
2926:2883  08 B3 00 02				db	 08h,0B3h, 00h, 02h
2926:2887  0A 08 28 43 29 20			db	0Ah, 8, '(C) Copyright 1984,'
2926:288D  43 6F 70 79 72 69
2926:2893  67 68 74 20 31 39
2926:2899  38 34 2C
2926:289C  00 02 26 08 B3 00			db	 00h, 02h, 26h, 08h,0B3h, 00h
2926:28A2  02 01 09 B3				db	 02h, 01h, 09h,0B3h
2926:28A6  20					db	20h
2926:28A7  4E 65 61 6C 20 57			db	'Neal White III a'
2926:28AD  68 69 74 65 20 49
2926:28B3  49 49 20 61
2926:28B7			loc_272:
2926:28B7  6E 64 20 52 61 6E			db	'nd Rand E. Bohrer  '
2926:28BD  64 20 45 2E 20 42
2926:28C3  6F 68 72 65 72 20
2926:28C9  20
2926:28CA  B3 00 02 01 0A B3			db	0B3h, 00h, 02h, 01h, 0Ah,0B3h
2926:28D0  00 02				db	 00h, 02h
2926:28D2  0A 0A 41 6C 6C 20			db	0Ah, 0Ah, 'All Rights Reserved'
           ICON.LST				Sourcer	v8.01  20-Jul-2026 12:15 am   Page 88

2926:28D8  52 69 67 68 74 73
2926:28DE  20 52 65 73 65 72
2926:28E4  76 65 64
2926:28E7  00 02				db	0, 2
2926:28E9			loc_273:
2926:28E9  26: 0A B3 0200			or	dh,byte ptr es:data_75[bp+di]	; (2926:0200=67h)
2926:28EE  01 0B				add	[bp+di],cx
2926:28F0  C3					retn
2926:28F1  00 03 24 C4 B4 00			db	 00h, 03h, 24h,0C4h,0B4h, 00h
2926:28F7  02 01 0C B3 00			db	 02h, 01h, 0Ch,0B3h, 00h
2926:28FC			loc_274:
2926:28FC  02 0D				add	cl,[di]
2926:28FE  0C 4D				or	al,4Dh			; 'M'
2926:2900  61 63 72 6F				db	 61h, 63h, 72h, 6Fh
2926:2904  6F63			data_147	dw	6F63h
2926:2906  6D 2C 20 49 6E 63	data_148	db	'm, Inc.', 0		; Data table (indexed access)
2926:290C  2E 00
2926:290E  02 26 0C B3 00 02			db	 02h, 26h, 0Ch,0B3h, 00h, 02h
2926:2914  01 0D C0 00 03 24			db	 01h, 0Dh,0C0h, 00h, 03h, 24h
2926:291A  C4 D9 00 02 01 0E			db	0C4h,0D9h, 00h, 02h, 01h, 0Eh
2926:2920  54 68				db	 54h, 68h
2926:2922  69 73 20 67 61 6D			db	'is game re'
2926:2928  65 20 72 65
2926:292C			loc_276:
2926:292C  71 75				jno	loc_285			; Jump if not overflw
2926:292E  69 72 65 73 20 61			db	'ires an IBM PC or true'
2926:2934  6E 20 49 42 4D 20
2926:293A  50 43 20 6F 72 20
2926:2940  74 72 75 65
2926:2944  00 02 01 0F				db	 00h, 02h, 01h, 0Fh
2926:2948			loc_277:
2926:2948  63 6F 6D 70 61 74			db	'compatibl'
2926:294E  69 62 6C
2926:2951			loc_278:
2926:2951  65 20				db	 65h, 20h
2926:2953			loc_279:
2926:2953  77 69				ja	$+6Bh			; Jump if above
2926:2955  74 68				jz	loc_288			; Jump if zero
2926:2957  20 61 20				and	[bx+di+20h],ah
2926:295A  63					db	63h
2926:295B			loc_280:
2926:295B  6F 6C 6F 72 20 67			db	'olor graphics card.'
2926:2961  72 61 70 68 69 63
2926:2967  73 20 63 61 72 64
2926:296D  2E
2926:296E  00 02 01 11				db	 00h, 02h, 01h, 11h
2926:2972  41					db	'A'
2926:2973			loc_281:
2926:2973  66 74 65 72 20 74			db	'fter the game'
2926:2979  68 65 20 67 61 6D
2926:297F  65
2926:2980			loc_282:
2926:2980  20 68 61				and	[bx+si+61h],ch
2926:2983  73 20				jnc	loc_286			; Jump if carry=0
2926:2985  62 65 67 75				db	 62h, 65h, 67h, 75h
2926:2989			loc_283:
2926:2989  6E 2C 20				db	 6Eh, 2Ch, 20h
           ICON.LST				Sourcer	v8.01  20-Jul-2026 12:15 am   Page 89

2926:298C  70 72 65 73 73 20	data_153	db	'press the F1', 0
2926:2992  74 68 65 20 46 31
2926:2998  00
2926:2999  02 01 12				db	 02h, 01h, 12h
2926:299C  6B 65 79 20 66 6F			db	 6Bh, 65h, 79h, 20h, 66h, 6Fh
2926:29A2  72					db	 72h
2926:29A3			loc_285:
2926:29A3  20 48 45				and	[bx+si+45h],cl
2926:29A6  4C					dec	sp
2926:29A7  50					push	ax
2926:29A8  2E: 00 02				add	cs:[bp+si],al
2926:29AB  00 14				add	[si],dl
2926:29AD  00 00				add	[bx+si],al

				;ßßßßßßßßßßßßßßßßßßßßßßßßßßßßßßßßßßßßßßßßßßßßßßßßßßßßßßßßßßßßßßßßßßßßßßßßßß
				;                              SUBROUTINE
				;ÜÜÜÜÜÜÜÜÜÜÜÜÜÜÜÜÜÜÜÜÜÜÜÜÜÜÜÜÜÜÜÜÜÜÜÜÜÜÜÜÜÜÜÜÜÜÜÜÜÜÜÜÜÜÜÜÜÜÜÜÜÜÜÜÜÜÜÜÜÜÜÜÜÜ

2926:29AF			sub_90		proc	near
2926:29AF  A1 826D				mov	ax,data_342		; (2926:826D=45ECh)
2926:29B2  05 9248				add	ax,9248h
2926:29B5  B1 03				mov	cl,3
2926:29B7  D3 C8				ror	ax,cl			; Rotate
2926:29B9  A3 826D				mov	data_342,ax		; (2926:826D=45ECh)
2926:29BC  BB 2710				mov	bx,2710h
2926:29BF			loc_288:
2926:29BF  33 D2				xor	dx,dx			; Zero register
2926:29C1  F7 F3				div	bx			; ax,dx rem=dx:ax/reg
2926:29C3  8B C2				mov	ax,dx
2926:29C5  C3					retn
				sub_90		endp


				;ßßßßßßßßßßßßßßßßßßßßßßßßßßßßßßßßßßßßßßßßßßßßßßßßßßßßßßßßßßßßßßßßßßßßßßßßßß
				;                              SUBROUTINE
				;ÜÜÜÜÜÜÜÜÜÜÜÜÜÜÜÜÜÜÜÜÜÜÜÜÜÜÜÜÜÜÜÜÜÜÜÜÜÜÜÜÜÜÜÜÜÜÜÜÜÜÜÜÜÜÜÜÜÜÜÜÜÜÜÜÜÜÜÜÜÜÜÜÜÜ

2926:29C6			sub_91		proc	near
2926:29C6  2E: 8C 1E 2A62			mov	cs:data_164,ds		; (2926:2A62=2A62h)
2926:29CB  8C C8				mov	ax,cs
2926:29CD			loc_291:
2926:29CD  8E D8				mov	ds,ax
2926:29CF  2E: C7 06 2A5F 0001			mov	cs:data_162,1		; (2926:2A5F=8E2Eh)
2926:29D6  FC					cld				; Clear direction
2926:29D7			loc_293:
2926:29D7  AC					lodsb				; String [si] to al
2926:29D8  0A C0				or	al,al			; Zero ?
2926:29DA  74 43				jz	loc_298			; Jump if zero
2926:29DC  2E: A2 2A5C				mov	cs:data_159,al		; (2926:2A5C=2)
2926:29E0  2E: 8A 16 2A5D			mov	dl,cs:data_160		; (2926:2A5D=0CDh)
2926:29E5  2E: 8A 36 2A5E			mov	dh,cs:data_161		; (2926:2A5E=10h)
2926:29EA  32 FF				xor	bh,bh			; Zero register
2926:29EC  B4 02				mov	ah,2
2926:29EE  CD 10				int	10h			; Video display   ah=functn 02h
										;  set cursor location in dx
2926:29F0  33 C0				xor	ax,ax			; Zero register
2926:29F2  2E: A0 2A5C				mov	al,cs:data_159		; (2926:2A5C=2)
           ICON.LST				Sourcer	v8.01  20-Jul-2026 12:15 am   Page 90

2926:29F6  8B2E			data_154	dw	8B2Eh
2926:29F8			loc_295:
2926:29F8  0E					push	cs
2926:29F9  5F					pop	di
2926:29FA  2A 2E 1E8A				sub	ch,byte ptr ds:[1E8Ah]	; (2926:1E8A=83h)
2926:29FE  61 2A 3D B3 00 7C			db	 61h, 2Ah, 3Dh,0B3h, 00h, 7Ch
2926:2A04			loc_296:
2926:2A04  07					pop	es
2926:2A05  3D 00DA				cmp	ax,0DAh
2926:2A08  7F 02				jg	loc_297			; Jump if >
2926:2A0A  B3 10				mov	bl,10h
2926:2A0C			loc_297:
2926:2A0C  B4 09				mov	ah,9
2926:2A0E  CD 10				int	10h			; Video display   ah=functn 09h
										;  set char al & attrib bl @curs
										;   cx=# of chars to replicate
2926:2A10  2E: 00 0E 2A5D			add	cs:data_160,cl		; (2926:2A5D=0CDh)
2926:2A15  2E: C7 06 2A5F 0001			mov	cs:data_162,1		; (2926:2A5F=8E2Eh)
2926:2A1C  E9 FFB8				jmp	loc_293			; (29D7)
2926:2A1F			loc_298:
2926:2A1F  AC					lodsb				; String [si] to al
2926:2A20  0A C0				or	al,al			; Zero ?
2926:2A22  74 2B				jz	loc_301			; Jump if zero
2926:2A24  3C 01				cmp	al,1
2926:2A26  75 08				jne	loc_299			; Jump if not equal
2926:2A28  AC					lodsb				; String [si] to al
2926:2A29  2E: A2 2A61				mov	cs:data_163,al		; (2926:2A61=1Eh)
2926:2A2D  E9 FFA7				jmp	loc_293			; (29D7)
2926:2A30			loc_299:
2926:2A30  3C 02				cmp	al,2
2926:2A32  75 0D				jne	loc_300			; Jump if not equal
2926:2A34  AC					lodsb				; String [si] to al
2926:2A35  2E: A2 2A5D				mov	cs:data_160,al		; (2926:2A5D=0CDh)
2926:2A39  AC					lodsb				; String [si] to al
2926:2A3A  2E: A2 2A5E				mov	cs:data_161,al		; (2926:2A5E=10h)
2926:2A3E  E9			data_156	db	0E9h
2926:2A3F  96					db	96h
2926:2A40  3CFF			data_157	dw	3CFFh
2926:2A42  7503			data_158	dw	7503h
2926:2A44  97 AC 32 E4 2E A3			db	 97h,0ACh, 32h,0E4h, 2Eh,0A3h
2926:2A4A  5F 2A E9 88 FF			db	 5Fh, 2Ah,0E9h, 88h,0FFh
2926:2A4F			loc_301:
2926:2A4F  2E: 8A 16 2A5D			mov	dl,cs:data_160		; (2926:2A5D=0CDh)
2926:2A54  2E: 8A 36 2A5E			mov	dh,cs:data_161		; (2926:2A5E=10h)
2926:2A59  32 FF				xor	bh,bh			; Zero register
2926:2A5B  B4 02				mov	ah,2
2926:2A5D  CD			data_160	db	0CDh
2926:2A5E  10			data_161	db	10h
2926:2A5F  8E2E			data_162	dw	8E2Eh
2926:2A61  1E			data_163	db	1Eh
2926:2A62  2A62			data_164	dw	2A62h
2926:2A64  C3 8D 36 64 2A E8			db	0C3h, 8Dh, 36h, 64h, 2Ah,0E8h
2926:2A6A  5A FF C3				db	 5Ah,0FFh,0C3h

				;ßßßß External Entry into Subroutine ßßßßßßßßßßßßßßßßßßßßßßßßßßßßßßßßßßßßßß

2926:2A6D			sub_92:
           ICON.LST				Sourcer	v8.01  20-Jul-2026 12:15 am   Page 91

2926:2A6D  8D 36 26FC				lea	si,cs:[26FCh]		; Load effective addr
2926:2A71  E8 FF52				call	sub_91			; (29C6)
2926:2A74  C3					retn
				sub_91		endp

							                        ;* No entry point to code
2926:2A75  8D 36 2D94				lea	si,cs:[2D94h]		; Load effective addr
2926:2A79  E8 FF4A				call	sub_91			; (29C6)
2926:2A7C  C3					retn
2926:2A7D  00 2E 80 3E FD 29			db	 00h, 2Eh, 80h, 3Eh,0FDh, 29h
2926:2A83  00 74 0C 32 E4 2E			db	 00h, 74h, 0Ch, 32h,0E4h, 2Eh
2926:2A89  A0 FD 29 2E 88 26			db	0A0h,0FDh, 29h, 2Eh, 88h, 26h
2926:2A8F  FD 29 C3				db	0FDh, 29h,0C3h
2926:2A92			loc_302:
2926:2A92  32 E4				xor	ah,ah			; Zero register
2926:2A94  2E: 88 26 29FD			mov	byte ptr cs:[29FDh],ah	; (2926:29FD=1Eh)
2926:2A99  CD 16				int	16h			; Keyboard i/o  ah=function 00h
										;  get keybd char in al, ah=scan
2926:2A9B  3C 00				cmp	al,0
2926:2A9D  75 05				jne	loc_303			; Jump if not equal
2926:2A9F  2E: 88 26 29FD			mov	byte ptr cs:[29FDh],ah	; (2926:29FD=1Eh)
2926:2AA4			loc_303:
2926:2AA4  32 E4				xor	ah,ah			; Zero register
2926:2AA6  C3					retn

				;ßßßßßßßßßßßßßßßßßßßßßßßßßßßßßßßßßßßßßßßßßßßßßßßßßßßßßßßßßßßßßßßßßßßßßßßßßß
				;                              SUBROUTINE
				;ÜÜÜÜÜÜÜÜÜÜÜÜÜÜÜÜÜÜÜÜÜÜÜÜÜÜÜÜÜÜÜÜÜÜÜÜÜÜÜÜÜÜÜÜÜÜÜÜÜÜÜÜÜÜÜÜÜÜÜÜÜÜÜÜÜÜÜÜÜÜÜÜÜÜ

2926:2AA7			sub_93		proc	near
2926:2AA7  B9 0004				mov	cx,4

2926:2AAA			locloop_304:
2926:2AAA  51					push	cx
2926:2AAB  32 F6				xor	dh,dh			; Zero register
2926:2AAD  B1 05				mov	cl,5
2926:2AAF  B5 29				mov	ch,29h			; ')'
2926:2AB1  B8 0401				mov	ax,401h
2926:2AB4  CD 13				int	13h			; Disk  dl=drive a  ah=func 04h
										;  verify sectors with mem es:bx
										;   al=#,ch=cyl,cl=sectr,dh=head
2926:2AB6  59					pop	cx
2926:2AB7  73 06				jnc	loc_305			; Jump if carry=0
2926:2AB9  E2 EF				loop	locloop_304		; Loop if cx > 0

2926:2ABB  B8 0000				mov	ax,0
2926:2ABE  C3					retn
2926:2ABF			loc_305:
2926:2ABF  B8 0001				mov	ax,1
2926:2AC2  C3					retn
				sub_93		endp


				;ßßßßßßßßßßßßßßßßßßßßßßßßßßßßßßßßßßßßßßßßßßßßßßßßßßßßßßßßßßßßßßßßßßßßßßßßßß
				;                              SUBROUTINE
				;ÜÜÜÜÜÜÜÜÜÜÜÜÜÜÜÜÜÜÜÜÜÜÜÜÜÜÜÜÜÜÜÜÜÜÜÜÜÜÜÜÜÜÜÜÜÜÜÜÜÜÜÜÜÜÜÜÜÜÜÜÜÜÜÜÜÜÜÜÜÜÜÜÜÜ

           ICON.LST				Sourcer	v8.01  20-Jul-2026 12:15 am   Page 92

2926:2AC3			sub_94		proc	near
2926:2AC3  5B					pop	bx
2926:2AC4  59					pop	cx
2926:2AC5  8A F1				mov	dh,cl
2926:2AC7  2E: 88 36 2A5E			mov	cs:data_161,dh		; (2926:2A5E=10h)
2926:2ACC  59					pop	cx
2926:2ACD  8A D1				mov	dl,cl
2926:2ACF  2E: 88 16 2A5D			mov	cs:data_160,dl		; (2926:2A5D=0CDh)
2926:2AD4  53					push	bx
2926:2AD5  32 FF				xor	bh,bh			; Zero register
2926:2AD7  B4 02				mov	ah,2
2926:2AD9  CD 10				int	10h			; Video display   ah=functn 02h
										;  set cursor location in dx
2926:2ADB  C3					retn
				sub_94		endp

2926:2ADC  00 00 00 01 00 07			db	 00h, 00h, 00h, 01h, 00h, 07h
2926:2AE2  00 00 00 01 1F 00			db	 00h, 00h, 00h, 01h, 1Fh, 00h
2926:2AE8  02 13 01 48 20 45			db	 02h, 13h, 01h, 48h, 20h, 45h
2926:2AEE  20 4C 20 50 00 02			db	 20h, 4Ch, 20h, 50h, 00h, 02h
2926:2AF4  00 02 00 03 16 C4			db	 00h, 02h, 00h, 03h, 16h,0C4h
2926:2AFA  C2 00 03 11 C4 00			db	0C2h, 00h, 03h, 11h,0C4h, 00h
2926:2B00  02 00 03 DA C4 C4			db	 02h, 00h, 03h,0DAh,0C4h,0C4h
2926:2B06  BF 00 02 0C 03 DA			db	0BFh, 00h, 02h, 0Ch, 03h,0DAh
2926:2B0C  C4 C4 C4 BF 20 20			db	0C4h,0C4h,0C4h,0BFh, 20h, 20h
2926:2B12  20 20 20 B3				db	 20h, 20h, 20h,0B3h
2926:2B16  4D 6F 76 65 6D 65			db	'Movement Com'
2926:2B1C  6E 74 20 43 6F 6D
2926:2B22  616D			data_165	dw	616Dh
2926:2B24  6E 64 73 00 02 00			db	 6Eh, 64h, 73h, 00h, 02h, 00h
2926:2B2A  04 B3 50 20 B3			db	 04h,0B3h, 50h, 20h,0B3h
2926:2B2F  50 69 63 6B 20 75			db	'Pick up '
2926:2B35  70 20
2926:2B37  B3 45 73 63 B3			db	0B3h, 45h, 73h, 63h,0B3h
2926:2B3C  51 75 69				db	 51h, 75h, 69h
2926:2B3F			loc_306:
2926:2B3F  74 20				jz	loc_307			; Jump if zero
2926:2B41  C3					retn
2926:2B42  00 03 11 C4 00 02			db	 00h, 03h, 11h,0C4h, 00h, 02h
2926:2B48  00 05 C0 C4 C4 D9			db	 00h, 05h,0C0h,0C4h,0C4h,0D9h
2926:2B4E  6F 62 6A 65 63 74			db	'object  '
2926:2B54  20 20
2926:2B56  C0 C4 C4 C4 D9 20			db	0C0h,0C4h,0C4h,0C4h,0D9h, 20h
2926:2B5C  20 20 20 20 B3			db	 20h, 20h, 20h, 20h,0B3h
2926:2B61			loc_307:
2926:2B61  20 20				and	[bx+si],ah
2926:2B63  DA C4 C4 C4 D2 C4			db	0DAh,0C4h,0C4h,0C4h,0D2h,0C4h
2926:2B69  C4 C4 D2 C4 C4 C4			db	0C4h,0C4h,0D2h,0C4h,0C4h,0C4h
2926:2B6F  BF 00 02 00 06 DA			db	0BFh, 00h, 02h, 00h, 06h,0DAh
2926:2B75			loc_308:
2926:2B75  C4 C4 BF 00 02 0C			db	0C4h,0C4h,0BFh, 00h, 02h, 0Ch
2926:2B7B  06 DA C4 C4				db	 06h,0DAh,0C4h,0C4h
2926:2B7F			loc_309:
2926:2B7F  BF 2020				mov	di,2020h
2926:2B82  20 20 20 20 B3 20			db	 20h, 20h, 20h, 20h,0B3h, 20h
2926:2B88  20 B3 37 20 20 BA			db	 20h,0B3h, 37h, 20h, 20h,0BAh
2926:2B8E  38 20 20 BA 39 20			db	 38h, 20h, 20h,0BAh, 39h, 20h
           ICON.LST				Sourcer	v8.01  20-Jul-2026 12:15 am   Page 93

2926:2B94  20 B3 00 02 00 07			db	 20h,0B3h, 00h, 02h, 00h, 07h
2926:2B9A  B3 44 20 B3				db	0B3h, 44h, 20h,0B3h
2926:2B9E  44 72 6F 70 20 20			db	'Drop    '
2926:2BA4  20 20
2926:2BA6  B3 46				db	0B3h, 46h
2926:2BA8			loc_310:
2926:2BA8  31 B3 4548				xor	[bp+di+4548h],si
2926:2BAC  4C					dec	sp
2926:2BAD  50					push	ax
2926:2BAE  20 20				and	[bx+si],ah
2926:2BB0  B3 20				mov	bl,20h			; ' '
2926:2BB2  20 B3 2020				and	[bp+di+2020h],dh
2926:2BB6  5C					pop	sp
2926:2BB7  BA 1820				mov	dx,1820h
2926:2BBA  20 BA 2F20				and	[bp+si+2F20h],bh
2926:2BBE  20 B3 0200				and	[bp+di+200h],dh
2926:2BC2  00 08				add	[bx+si],cl
2926:2BC4  C0 C4 C4 D9				db	0C0h,0C4h,0C4h,0D9h
2926:2BC8  6F 62 6A 65 63 74			db	'object  '
2926:2BCE  20 20
2926:2BD0  C0 C4 C4 D9 20 20			db	0C0h,0C4h,0C4h,0D9h, 20h, 20h
2926:2BD6  20 20 20 20 B3 20			db	 20h, 20h, 20h, 20h,0B3h, 20h
2926:2BDC  20 C6 CD CD CD CE			db	 20h,0C6h,0CDh,0CDh,0CDh,0CEh
2926:2BE2  CD CD CD CE CD CD			db	0CDh,0CDh,0CDh,0CEh,0CDh,0CDh
2926:2BE8  CD B5 00 02 00 09			db	0CDh,0B5h, 00h, 02h, 00h, 09h
2926:2BEE  DA					db	0DAh
2926:2BEF			loc_312:
2926:2BEF  C4 C4 BF				db	0C4h,0C4h,0BFh
2926:2BF2  0200			data_166	dw	200h
2926:2BF4  090C			data_167	dw	90Ch
2926:2BF6  DA C4 C4 BF 20 20			db	0DAh,0C4h,0C4h,0BFh, 20h, 20h
2926:2BFC  20 20 20 20 B3 20			db	 20h, 20h, 20h, 20h,0B3h, 20h
2926:2C02  20 B3 34 20 20 BA			db	 20h,0B3h, 34h, 20h, 20h,0BAh
2926:2C08  35 20 20 BA 36 20			db	 35h, 20h, 20h,0BAh, 36h, 20h
2926:2C0E  20 B3 00 02 00 0A			db	 20h,0B3h, 00h, 02h, 00h, 0Ah
2926:2C14  B3 57 20 B3				db	0B3h, 57h, 20h,0B3h
2926:2C18  6557			data_168	dw	6557h
2926:2C1A  61 70 6F 6E 20 20			db	 61h, 70h, 6Fh, 6Eh, 20h, 20h
2926:2C20  B3 46 32 B3 53 6F			db	0B3h, 46h, 32h,0B3h, 53h, 6Fh
2926:2C26  75 6E 64 20 B3 20			db	 75h, 6Eh, 64h, 20h,0B3h, 20h
2926:2C2C  20 B3 20 11 2D BA			db	 20h,0B3h, 20h, 11h, 2Dh,0BAh
2926:2C32  20 20 20 BA 20 2D			db	 20h, 20h, 20h,0BAh, 20h, 2Dh
2926:2C38  10 B3 00 02 00 0B			db	 10h,0B3h, 00h, 02h, 00h, 0Bh
2926:2C3E  C0 C4 C4 D9				db	0C0h,0C4h,0C4h,0D9h
2926:2C42  73 65 6C 65 63 74			db	'select  '
2926:2C48  20 20
2926:2C4A  C0 C4 C4 D9 4F 4E			db	0C0h,0C4h,0C4h,0D9h, 4Fh, 4Eh
2926:2C50  2F 4F 46 46 B3 20			db	 2Fh, 4Fh, 46h, 46h,0B3h, 20h
2926:2C56  20 C6 CD CD CD CE			db	 20h,0C6h,0CDh,0CDh,0CDh,0CEh
2926:2C5C  CD CD CD CE CD CD			db	0CDh,0CDh,0CDh,0CEh,0CDh,0CDh
2926:2C62  CD B5 00 02 00 0C			db	0CDh,0B5h, 00h, 02h, 00h, 0Ch
2926:2C68  DA					db	0DAh
2926:2C69			loc_313:
2926:2C69  C4 C4 BF 00 02 0C			db	0C4h,0C4h,0BFh, 00h, 02h, 0Ch
2926:2C6F  0C DA C4 C4 BF 20			db	 0Ch,0DAh,0C4h,0C4h,0BFh, 20h
2926:2C75  20 20 20 20 20 B3			db	 20h, 20h, 20h, 20h, 20h,0B3h
2926:2C7B  20 20 B3 31 20 20			db	 20h, 20h,0B3h, 31h, 20h, 20h
           ICON.LST				Sourcer	v8.01  20-Jul-2026 12:15 am   Page 94

2926:2C81  BA 32 20 20 BA 33			db	0BAh, 32h, 20h, 20h,0BAh, 33h
2926:2C87  20 20 B3 00 02			db	 20h, 20h,0B3h, 00h, 02h
2926:2C8C			loc_314:
2926:2C8C  00 0D				add	[di],cl
2926:2C8E  B3 53				mov	bl,53h			; 'S'
2926:2C90  20 B3 7453				and	[bp+di+7453h],dh
2926:2C94  61 74				db	 61h, 74h
2926:2C96			loc_315:
2926:2C96  75 73				jnz	$+75h			; Jump if not zero
2926:2C98  20 20				and	[bx+si],ah
2926:2C9A  B3 4A				mov	bl,4Ah			; 'J'
2926:2C9C  20 B3 6F4A				and	[bp+di+6F4Ah],dh
2926:2CA0  79 2D				jns	loc_318			; Jump if not sign
2926:2CA2  20 20				and	[bx+si],ah
2926:2CA4  B3 20				mov	bl,20h			; ' '
2926:2CA6  20 B3 2020				and	[bp+di+2020h],dh
2926:2CAA  2F					das				; Decimal adjust
2926:2CAB			loc_316:
2926:2CAB  BA 1920				mov	dx,1920h
2926:2CAE  20 BA 5C20				and	[bp+si+5C20h],bh
2926:2CB2  20 B3 0200				and	[bp+di+200h],dh
2926:2CB6  00 0E C4C0				add	ds:data_385e,cl		; (2926:C4C0=0)
2926:2CBA  C4 D9 00 02 0C 0E			db	0C4h,0D9h, 00h, 02h, 0Ch, 0Eh
2926:2CC0  C0 C4 C4 D9 73 74			db	0C0h,0C4h,0C4h,0D9h, 73h, 74h
2926:2CC6  69 63 6B 20 B3 20			db	 69h, 63h, 6Bh, 20h,0B3h, 20h
2926:2CCC  20 C0 C4				db	 20h,0C0h,0C4h
2926:2CCF			loc_318:
2926:2CCF  C4 C4 D0 C4 C4 C4			db	0C4h,0C4h,0D0h,0C4h,0C4h,0C4h
2926:2CD5  D0 C4 C4 C4 D9 00			db	0D0h,0C4h,0C4h,0C4h,0D9h, 00h
2926:2CDB  02 00 0F DA 00 03			db	 02h, 00h, 0Fh,0DAh, 00h, 03h
2926:2CE1  09 C4 BF 00 02 16			db	 09h,0C4h,0BFh, 00h, 02h, 16h
2926:2CE7  0F B3 00 02 00 10			db	 0Fh,0B3h, 00h, 02h, 00h, 10h
2926:2CED  B3					db	0B3h
2926:2CEE  53 70 61 63 65 20			db	'Space Bar'
2926:2CF4  42 61 72
2926:2CF7  B3					db	0B3h
2926:2CF8  41 74 74 61 63 6B			db	'Attack with'
2926:2CFE  20 77 69 74 68
2926:2D03  B3					db	0B3h
2926:2D04  20 50 72 65 73 73			db	' Press t'
2926:2D0A  20 74
2926:2D0C			loc_319:
2926:2D0C  68 65 20 6B 65 79			db	'he key in'
2926:2D12  20 69 6E
2926:2D15  00 02 00 11 C0 00			db	 00h, 02h, 00h, 11h,0C0h, 00h
2926:2D1B  03 09 C4 D9				db	 03h, 09h,0C4h,0D9h
2926:2D1F  73 77 6F 72 64 20			db	'sword or a '
2926:2D25  6F 72 20 61 20
2926:2D2A  B3					db	0B3h
2926:2D2B  20 6F 6E 65 20 6F			db	' one of '
2926:2D31  66 20
2926:2D33			loc_320:
2926:2D33  74 68				jz	$+6Ah			; Jump if zero
2926:2D35  65 20 65 69 67 68			db	 65h, 20h, 65h, 69h, 67h, 68h
2926:2D3B  74 00 02 00 12			db	 74h, 00h, 02h, 00h, 12h
2926:2D40  6D 61 67 69 63 20			db	'magic wand. When using'
2926:2D46  77 61 6E 64 2E 20
           ICON.LST				Sourcer	v8.01  20-Jul-2026 12:15 am   Page 95

2926:2D4C  57 68 65 6E 20 75
2926:2D52  73 69 6E 67
2926:2D56  B3					db	0B3h
2926:2D57  20 64 69 72 65 63			db	' directions you'
2926:2D5D  74 69 6F 6E 73 20
2926:2D63  79 6F 75
2926:2D66  00 02 00 13 61			db	 00h, 02h, 00h, 13h, 61h
2926:2D6B			loc_321:
2926:2D6B  20 77 61				and	[bx+61h],dh
2926:2D6E  6E					db	6Eh
2926:2D6F			loc_323:
2926:2D6F  64 2C 20 66 6F 6C			db	'd, follow with'
2926:2D75  6C 6F 77 20 77 69
2926:2D7B  74 68
2926:2D7D			loc_324:
2926:2D7D  20 61 20				and	[bx+di+20h],ah
2926:2D80  B3 20				mov	bl,20h			; ' '
2926:2D82  77 69				ja	loc_334			; Jump if above
2926:2D84  73 68				jnc	loc_335			; Jump if carry=0
2926:2D86  20 74 6F				and	[si+6Fh],dh
2926:2D89  20 6D 6F				and	[di+6Fh],ch
2926:2D8C  76 65				jbe	loc_336			; Jump if below or =
2926:2D8E  20 6F 72				and	[bx+72h],ch
2926:2D91  00 02				add	[bp+si],al
2926:2D93  00 14				add	[si],dl
2926:2D95  61 20 64 69				db	 61h, 20h, 64h, 69h
2926:2D99			loc_327:
2926:2D99  72 65				jc	loc_338			; Jump if carry Set
2926:2D9B  63 74 69 6F 6E 20			db	'ction to fi'
2926:2DA1  74 6F 20 66 69
2926:2DA6  6572			data_169	dw	6572h
2926:2DA8  2E			data_170	db	2Eh
2926:2DA9  20 20 B3				db	 20h, 20h,0B3h
2926:2DAC  20 74 6F 20 66 69			db	' to fire a wand.'
2926:2DB2  72 65 20 61 20 77
2926:2DB8  61 6E 64 2E
2926:2DBC  00 02 00 15 00			db	 00h, 02h, 00h, 15h, 00h
2926:2DC1			loc_328:
2926:2DC1  03 16 C1C4				add	dx,word ptr ds:[0C1C4h]	; (2926:C1C4=0)
2926:2DC5  00 03				add	[bp+di],al
2926:2DC7  11 C4				adc	sp,ax
2926:2DC9  00 02				add	[bp+si],al
2926:2DCB  04 17				add	al,17h
2926:2DCD  53 65				db	'Se'
2926:2DCF			loc_330:
2926:2DCF  6C 65 63 74 20			db	 6Ch, 65h, 63h, 74h, 20h
2926:2DD4			loc_331:
2926:2DD4  79 6F				jns	loc_344			; Jump if not sign
2926:2DD6  75 72				jnz	loc_345			; Jump if not zero
2926:2DD8  20 63 6F				and	[bp+di+6Fh],ah
2926:2DDB  6D 6D 61 6E 64 20			db	'mmand or '
2926:2DE1  6F 72 20
2926:2DE4			loc_332:
2926:2DE4  70 72				jo	$+74h			; Jump if overflow=1
2926:2DE6  65 73				db	 65h, 73h
2926:2DE8  2073			data_172	dw	2073h
2926:2DEA  74 68 65				db	 74h, 68h, 65h
           ICON.LST				Sourcer	v8.01  20-Jul-2026 12:15 am   Page 96

2926:2DED			loc_334:
2926:2DED  00 02				add	[bp+si],al
2926:2DEF  04 18				add	al,18h
2926:2DF1  53 70				db	'Sp'
2926:2DF3			loc_336:
2926:2DF3  61					db	61h
2926:2DF4			loc_337:
2926:2DF4  63 65 20 42 61 72			db	'ce Bar to re'
2926:2DFA  20 74 6F 20 72 65
2926:2E00			loc_338:
2926:2E00  74 75				jz	loc_349			; Jump if zero
2926:2E02  72 6E				jc	loc_348			; Jump if carry Set
2926:2E04  20 74 6F				and	[si+6Fh],dh
2926:2E07			loc_339:
2926:2E07  20 79 6F				and	[bx+di+6Fh],bh
2926:2E0A  75 72				jnz	loc_350			; Jump if not zero
2926:2E0C  20 67 61				and	[bx+61h],ah
2926:2E0F  6D 65 2E 00 00 00			db	 6Dh, 65h, 2Eh, 00h, 00h, 00h
2926:2E15  01 1F 00 02				db	 01h, 1Fh, 00h, 02h
2926:2E19			loc_340:
2926:2E19  01 00				add	[bx+si],ax
2926:2E1B			loc_342:
2926:2E1B  50 75 74				db	'Put'
2926:2E1E			loc_343:
2926:2E1E  20 74 68 65 20 6F			db	' the original game disk in flopp'
2926:2E24  72 69 67 69 6E 61
2926:2E2A  6C 20 67 61 6D 65
2926:2E30  20 64 69 73 6B 20
2926:2E36  69 6E 20 66 6C 6F
2926:2E3C  70 70
2926:2E3E  79 00				db	'y', 0
2926:2E40  02 01 02 64 72			db	 02h, 01h, 02h, 64h, 72h
2926:2E45			loc_344:
2926:2E45  69 76 65 20 41			db	'ive A'
2926:2E4A			loc_345:
2926:2E4A  20 6F 72				and	[bx+72h],ch
2926:2E4D  20 42 20				and	[bp+si+20h],al
2926:2E50  26: 20 70 72				and	es:[bx+si+72h],dh
2926:2E54  65 73 73 20 74 68			db	'ess the '
2926:2E5A  65 20
2926:2E5C			loc_346:
2926:2E5C  53					push	bx
2926:2E5D  70 61				jo	$+63h			; Jump if overflow=1
2926:2E5F  63 65 20 42 61 72			db	 63h, 65h, 20h, 42h, 61h, 72h
2926:2E65  2E 00 00 00 00 FB			db	 2Eh, 00h, 00h, 00h, 00h,0FBh
2926:2E6B  50					db	50h
2926:2E6C			loc_347:
2926:2E6C  53					push	bx
2926:2E6D  51					push	cx
2926:2E6E  52					push	dx
2926:2E6F  55					push	bp
2926:2E70  1E					push	ds
2926:2E71  06					push	es
2926:2E72			loc_348:
2926:2E72  57					push	di
2926:2E73  56					push	si
2926:2E74  2E: A1 2DE8				mov	ax,cs:data_172		; (2926:2DE8=2073h)
           ICON.LST				Sourcer	v8.01  20-Jul-2026 12:15 am   Page 97

2926:2E78  8E D8				mov	ds,ax
2926:2E7A  33 C0				xor	ax,ax			; Zero register
2926:2E7C  E4 60				in	al,60h			; port 60h, keybd scan or sw1
2926:2E7E			loc_350:
2926:2E7E  8B D0				mov	dx,ax
2926:2E80  3C FF				cmp	al,0FFh
2926:2E82  74 06				je	loc_351			; Jump if equal
2926:2E84  24 7F				and	al,7Fh
2926:2E86  3C 47				cmp	al,47h			; 'G'
2926:2E88  7D 0C				jge	loc_353			; Jump if > or =
2926:2E8A			loc_351:
2926:2E8A  5E					pop	si
2926:2E8B  5F					pop	di
2926:2E8C  07					pop	es
2926:2E8D  1F					pop	ds
2926:2E8E  5D					pop	bp
2926:2E8F  5A					pop	dx
2926:2E90  59					pop	cx
2926:2E91  5B					pop	bx
2926:2E92  58					pop	ax
2926:2E93  CD 60				int	60h			; ??INT Non-standard interrupt
2926:2E95  CF					iret				; Interrupt return
2926:2E96			loc_353:
2926:2E96  3C 4A				cmp	al,4Ah			; 'J'
2926:2E98  74 F0				je	loc_351			; Jump if equal
2926:2E9A  3C 4E				cmp	al,4Eh			; 'N'
2926:2E9C  74 EC				je	loc_351			; Jump if equal
2926:2E9E  3C 51				cmp	al,51h			; 'Q'
2926:2EA0  7F E8				jg	loc_351			; Jump if >
2926:2EA2  BB 2E2A				mov	bx,2E2Ah
2926:2EA5  2E: D7				xlat	cs:[bx]			; al=[al+[bx]] table
2926:2EA7  8A D8				mov	bl,al
2926:2EA9  8B C2				mov	ax,dx
2926:2EAB  A8 80				test	al,80h
2926:2EAD  74 1F				jz	loc_356			; Jump if zero
2926:2EAF  A0 8268				mov	al,data_339		; (2926:8268=50h)
2926:2EB2  0A C0				or	al,al			; Zero ?
2926:2EB4  75 06				jnz	loc_354			; Jump if not zero
2926:2EB6  A0 8257				mov	al,data_331		; (2926:8257=0FDh)
2926:2EB9  A2 8260				mov	data_334,al		; (2926:8260=5Ah)
2926:2EBC			loc_354:
2926:2EBC  33 C0				xor	ax,ax			; Zero register
2926:2EBE  A2 8268				mov	data_339,al		; (2926:8268=50h)
2926:2EC1  A0 8257				mov	al,data_331		; (2926:8257=0FDh)
2926:2EC4  F6 D3				not	bl
2926:2EC6  22 C3				and	al,bl
2926:2EC8  A2 8257				mov	data_331,al		; (2926:8257=0FDh)
2926:2ECB  E9 0008				jmp	loc_357			; (2ED6)
2926:2ECE			loc_356:
2926:2ECE  A0 8257				mov	al,data_331		; (2926:8257=0FDh)
2926:2ED1  0A C3				or	al,bl
2926:2ED3  A2 8257				mov	data_331,al		; (2926:8257=0FDh)
2926:2ED6			loc_357:
2926:2ED6  E4 61				in	al,61h			; port 61h, 8255 port B, read
2926:2ED8  8A E0				mov	ah,al
2926:2EDA  0C 80				or	al,80h
2926:2EDC  E6 61				out	61h,al			; port 61h, 8255 B - spkr, etc
           ICON.LST				Sourcer	v8.01  20-Jul-2026 12:15 am   Page 98

2926:2EDE  86 E0				xchg	ah,al
2926:2EE0  E6 61				out	61h,al			; port 61h, 8255 B - spkr, etc
2926:2EE2  FA					cli				; Disable interrupts
2926:2EE3  B0 20				mov	al,20h			; ' '
2926:2EE5  E6 20				out	20h,al			; port 20h, 8259-1 int command
										;  al = 20h, end of interrupt
2926:2EE7  5E					pop	si
2926:2EE8  5F					pop	di
2926:2EE9  07					pop	es
2926:2EEA  1F					pop	ds
2926:2EEB  5D					pop	bp
2926:2EEC  5A					pop	dx
2926:2EED  59					pop	cx
2926:2EEE  5B					pop	bx
2926:2EEF  58					pop	ax
2926:2EF0  CF					iret				; Interrupt return
							                        ;* No entry point to code
2926:2EF1  80 40 20 00				add	byte ptr [bx+si+20h],0
2926:2EF5  10 00				adc	[bx+si],al
2926:2EF7  08 00				or	[bx+si],al
2926:2EF9  04 02				add	al,2
2926:2EFB  01 FC				add	sp,di
2926:2EFD  33 C0				xor	ax,ax			; Zero register
2926:2EFF  8E C0				mov	es,ax
2926:2F01  A2 8257				mov	data_331,al		; (2926:8257=0FDh)
2926:2F04  A2 8260				mov	data_334,al		; (2926:8260=5Ah)
2926:2F07  A2 8268				mov	data_339,al		; (2926:8268=50h)
2926:2F0A  FA					cli				; Disable interrupts
2926:2F0B  BE 0024				mov	si,24h
2926:2F0E  BF 0180				mov	di,180h
2926:2F11  26: A5				movs	word ptr es:[di],word ptr es:[si]	; Mov [si] to es:[di]
2926:2F13  26: A5				movs	word ptr es:[di],word ptr es:[si]	; Mov [si] to es:[di]
2926:2F15  BF 0024				mov	di,24h
2926:2F18  B8 2DEA				mov	ax,2DEAh
2926:2F1B  AB					stosw				; Store ax to es:[di]
2926:2F1C  8C C8				mov	ax,cs
2926:2F1E  AB					stosw				; Store ax to es:[di]
2926:2F1F  8C D8				mov	ax,ds
2926:2F21  2E: A3 2DE8				mov	cs:data_172,ax		; (2926:2DE8=2073h)
2926:2F25  FB					sti				; Enable interrupts
2926:2F26  C3					retn

				;ßßßßßßßßßßßßßßßßßßßßßßßßßßßßßßßßßßßßßßßßßßßßßßßßßßßßßßßßßßßßßßßßßßßßßßßßßß
				;                              SUBROUTINE
				;ÜÜÜÜÜÜÜÜÜÜÜÜÜÜÜÜÜÜÜÜÜÜÜÜÜÜÜÜÜÜÜÜÜÜÜÜÜÜÜÜÜÜÜÜÜÜÜÜÜÜÜÜÜÜÜÜÜÜÜÜÜÜÜÜÜÜÜÜÜÜÜÜÜÜ

2926:2F27			sub_96		proc	near
2926:2F27  FC					cld				; Clear direction
2926:2F28  33 C0				xor	ax,ax			; Zero register
2926:2F2A  8E C0				mov	es,ax
2926:2F2C  A2 8257				mov	data_331,al		; (2926:8257=0FDh)
2926:2F2F  A2 8260				mov	data_334,al		; (2926:8260=5Ah)
2926:2F32  FA					cli				; Disable interrupts
2926:2F33  BE 0180				mov	si,180h
2926:2F36  BF 0024				mov	di,24h
2926:2F39  26: A5				movs	word ptr es:[di],word ptr es:[si]	; Mov [si] to es:[di]
2926:2F3B  26: A5				movs	word ptr es:[di],word ptr es:[si]	; Mov [si] to es:[di]
           ICON.LST				Sourcer	v8.01  20-Jul-2026 12:15 am   Page 99

2926:2F3D  FB					sti				; Enable interrupts
2926:2F3E  C3					retn
				sub_96		endp


				;ßßßßßßßßßßßßßßßßßßßßßßßßßßßßßßßßßßßßßßßßßßßßßßßßßßßßßßßßßßßßßßßßßßßßßßßßßß
				;                              SUBROUTINE
				;ÜÜÜÜÜÜÜÜÜÜÜÜÜÜÜÜÜÜÜÜÜÜÜÜÜÜÜÜÜÜÜÜÜÜÜÜÜÜÜÜÜÜÜÜÜÜÜÜÜÜÜÜÜÜÜÜÜÜÜÜÜÜÜÜÜÜÜÜÜÜÜÜÜÜ

2926:2F3F			sub_97		proc	near
2926:2F3F  33 C0				xor	ax,ax			; Zero register
2926:2F41  A0 8257				mov	al,data_331		; (2926:8257=0FDh)
2926:2F44  0A 06 8260				or	al,data_334		; (2926:8260=5Ah)
2926:2F48  0B C0				or	ax,ax			; Zero ?
2926:2F4A  74 03				jz	loc_358			; Jump if zero
2926:2F4C  B8 0001				mov	ax,1
2926:2F4F			loc_358:
2926:2F4F  C3					retn
				sub_97		endp

							                        ;* No entry point to code
2926:2F50  33 C0				xor	ax,ax			; Zero register
2926:2F52  A0 8260				mov	al,data_334		; (2926:8260=5Ah)
2926:2F55  0B C0				or	ax,ax			; Zero ?
2926:2F57  75 08				jnz	loc_359			; Jump if not zero
2926:2F59  B0 01				mov	al,1
2926:2F5B  A2 8268				mov	data_339,al		; (2926:8268=50h)
2926:2F5E  A0 8257				mov	al,data_331		; (2926:8257=0FDh)
2926:2F61			loc_359:
2926:2F61  A8 40				test	al,40h			; '@'
2926:2F63  75 29				jnz	loc_362			; Jump if not zero
2926:2F65  A8 02				test	al,2
2926:2F67  75 4B				jnz	loc_367			; Jump if not zero
2926:2F69  A8 10				test	al,10h
2926:2F6B  75 35				jnz	loc_364			; Jump if not zero
2926:2F6D  A8 08				test	al,8
2926:2F6F  75 37				jnz	loc_365			; Jump if not zero
2926:2F71  A8 80				test	al,80h
2926:2F73  75 13				jnz	loc_361			; Jump if not zero
2926:2F75  A8 20				test	al,20h			; ' '
2926:2F77  75 23				jnz	loc_363			; Jump if not zero
2926:2F79  A8 04				test	al,4
2926:2F7B  75 31				jnz	loc_366			; Jump if not zero
2926:2F7D  A8 01				test	al,1
2926:2F7F  75 41				jnz	loc_368			; Jump if not zero
2926:2F81			loc_360:
2926:2F81  33 DB				xor	bx,bx			; Zero register
2926:2F83  88 1E 8260				mov	data_334,bl		; (2926:8260=5Ah)
2926:2F87  C3					retn
2926:2F88			loc_361:
2926:2F88  B8 0047				mov	ax,47h
2926:2F8B  E9 FFF3				jmp	loc_360			; (2F81)
2926:2F8E			loc_362:
2926:2F8E  A8 10				test	al,10h
2926:2F90  75 F6				jnz	loc_361			; Jump if not zero
2926:2F92  A8 08				test	al,8
2926:2F94  75 06				jnz	loc_363			; Jump if not zero
           ICON.LST				Sourcer	v8.01  20-Jul-2026 12:15 am   Page 100

2926:2F96  B8 0048				mov	ax,48h
2926:2F99  E9 FFE5				jmp	loc_360			; (2F81)
2926:2F9C			loc_363:
2926:2F9C  B8 0049				mov	ax,49h
2926:2F9F  E9 FFDF				jmp	loc_360			; (2F81)
2926:2FA2			loc_364:
2926:2FA2  B8 004B				mov	ax,4Bh
2926:2FA5  E9 FFD9				jmp	loc_360			; (2F81)
2926:2FA8			loc_365:
2926:2FA8  B8 004D				mov	ax,4Dh
2926:2FAB  E9 FFD3				jmp	loc_360			; (2F81)
2926:2FAE			loc_366:
2926:2FAE  B8 004F				mov	ax,4Fh
2926:2FB1  E9 FFCD				jmp	loc_360			; (2F81)
2926:2FB4			loc_367:
2926:2FB4  A8 10				test	al,10h
2926:2FB6  75 F6				jnz	loc_366			; Jump if not zero
2926:2FB8  A8 08				test	al,8
2926:2FBA  75 06				jnz	loc_368			; Jump if not zero
2926:2FBC  B8 0050				mov	ax,50h
2926:2FBF  E9 FFBF				jmp	loc_360			; (2F81)
2926:2FC2			loc_368:
2926:2FC2  B8 0051				mov	ax,51h
2926:2FC5  E9 FFB9				jmp	loc_360			; (2F81)
							                        ;* No entry point to code
2926:2FC8  FB					sti				; Enable interrupts
2926:2FC9  1E					push	ds
2926:2FCA  2E: A1 2DE8				mov	ax,cs:data_172		; (2926:2DE8=2073h)
2926:2FCE  8E D8				mov	ds,ax
2926:2FD0  FE 06 8272				inc	byte ptr ds:data_47e	; (2073:8272=0)
2926:2FD4  1F					pop	ds
2926:2FD5  CD 61				int	61h			; ??INT Non-standard interrupt
2926:2FD7  CF					iret				; Interrupt return

				;ßßßßßßßßßßßßßßßßßßßßßßßßßßßßßßßßßßßßßßßßßßßßßßßßßßßßßßßßßßßßßßßßßßßßßßßßßß
				;                              SUBROUTINE
				;ÜÜÜÜÜÜÜÜÜÜÜÜÜÜÜÜÜÜÜÜÜÜÜÜÜÜÜÜÜÜÜÜÜÜÜÜÜÜÜÜÜÜÜÜÜÜÜÜÜÜÜÜÜÜÜÜÜÜÜÜÜÜÜÜÜÜÜÜÜÜÜÜÜÜ

2926:2FD8			sub_98		proc	near
2926:2FD8  FC					cld				; Clear direction
2926:2FD9  33 C0				xor	ax,ax			; Zero register
2926:2FDB  8E C0				mov	es,ax
2926:2FDD  A3 8272				mov	data_345,ax		; (2926:8272=0C18Eh)
2926:2FE0  FA					cli				; Disable interrupts
2926:2FE1  BE 0070				mov	si,70h
2926:2FE4  BF 0184				mov	di,184h
2926:2FE7  26: A5				movs	word ptr es:[di],word ptr es:[si]	; Mov [si] to es:[di]
2926:2FE9  26: A5				movs	word ptr es:[di],word ptr es:[si]	; Mov [si] to es:[di]
2926:2FEB  BF 0070				mov	di,70h
2926:2FEE  B8 2F48				mov	ax,2F48h
2926:2FF1  AB					stosw				; Store ax to es:[di]
2926:2FF2  8C C8				mov	ax,cs
2926:2FF4  AB					stosw				; Store ax to es:[di]
2926:2FF5  FB					sti				; Enable interrupts
2926:2FF6  C3					retn
				sub_98		endp

           ICON.LST				Sourcer	v8.01  20-Jul-2026 12:15 am   Page 101


				;ßßßßßßßßßßßßßßßßßßßßßßßßßßßßßßßßßßßßßßßßßßßßßßßßßßßßßßßßßßßßßßßßßßßßßßßßßß
				;                              SUBROUTINE
				;ÜÜÜÜÜÜÜÜÜÜÜÜÜÜÜÜÜÜÜÜÜÜÜÜÜÜÜÜÜÜÜÜÜÜÜÜÜÜÜÜÜÜÜÜÜÜÜÜÜÜÜÜÜÜÜÜÜÜÜÜÜÜÜÜÜÜÜÜÜÜÜÜÜÜ

2926:2FF7			sub_99		proc	near
2926:2FF7  FC					cld				; Clear direction
2926:2FF8  33 C0				xor	ax,ax			; Zero register
2926:2FFA  8E C0				mov	es,ax
2926:2FFC  FA					cli				; Disable interrupts
2926:2FFD  BE 0184				mov	si,184h
2926:3000  BF 0070				mov	di,70h
2926:3003  26: A5				movs	word ptr es:[di],word ptr es:[si]	; Mov [si] to es:[di]
2926:3005  26: A5				movs	word ptr es:[di],word ptr es:[si]	; Mov [si] to es:[di]
2926:3007  FB					sti				; Enable interrupts
2926:3008  C3					retn
				sub_99		endp


				;ßßßßßßßßßßßßßßßßßßßßßßßßßßßßßßßßßßßßßßßßßßßßßßßßßßßßßßßßßßßßßßßßßßßßßßßßßß
				;                              SUBROUTINE
				;ÜÜÜÜÜÜÜÜÜÜÜÜÜÜÜÜÜÜÜÜÜÜÜÜÜÜÜÜÜÜÜÜÜÜÜÜÜÜÜÜÜÜÜÜÜÜÜÜÜÜÜÜÜÜÜÜÜÜÜÜÜÜÜÜÜÜÜÜÜÜÜÜÜÜ

2926:3009			sub_100		proc	near
2926:3009  58					pop	ax
2926:300A  5F					pop	di
2926:300B  07					pop	es
2926:300C  5E					pop	si
2926:300D  5B					pop	bx
2926:300E  50					push	ax
2926:300F  1E					push	ds
2926:3010  8E DB				mov	ds,bx
2926:3012  FC					cld				; Clear direction
2926:3013			loc_369:
2926:3013  AD					lodsw				; String [si] to ax
2926:3014  3C 00				cmp	al,0
2926:3016  74 06				je	loc_370			; Jump if equal
2926:3018  AB					stosw				; Store ax to es:[di]
2926:3019  8B D8				mov	bx,ax
2926:301B  E9 FFF5				jmp	loc_369			; (3013)
2926:301E			loc_370:
2926:301E  0B C0				or	ax,ax			; Zero ?
2926:3020  74 0C				jz	loc_371			; Jump if zero
2926:3022  86 E0				xchg	ah,al
2926:3024  8B C8				mov	cx,ax
2926:3026  49					dec	cx
2926:3027  8B C3				mov	ax,bx
2926:3029  F3/ AB				rep	stosw			; Rep when cx >0 Store ax to es:[di]
2926:302B  E9 FFE5				jmp	loc_369			; (3013)
2926:302E			loc_371:
2926:302E  1F					pop	ds
2926:302F  C3					retn
				sub_100		endp

2926:3030  A3 07 DE 00 00 06			db	0A3h, 07h,0DEh, 00h, 00h, 06h
2926:3036  97 07 DE 00 00 02			db	 97h, 07h,0DEh, 00h, 00h, 02h
2926:303C  3A 07 A3 07 1A 07			db	 3Ah, 07h,0A3h, 07h, 1Ah, 07h
           ICON.LST				Sourcer	v8.01  20-Jul-2026 12:15 am   Page 102

2926:3042  A3 07 DE 00 00 03			db	0A3h, 07h,0DEh, 00h, 00h, 03h
2926:3048  1F 0E DE EE 00 03			db	 1Fh, 0Eh,0DEh,0EEh, 00h, 03h
2926:304E  1F 6E 1F 06 DE 00			db	 1Fh, 6Eh, 1Fh, 06h,0DEh, 00h
2926:3054  00 03 20 07 00 03			db	 00h, 03h, 20h, 07h, 00h, 03h
2926:305A  25 07 20 07 00 02			db	 25h, 07h, 20h, 07h, 00h, 02h
2926:3060  97 07 20 07 25 07			db	 97h, 07h, 20h, 07h, 25h, 07h
2926:3066  97 07 20 07 00 03			db	 97h, 07h, 20h, 07h, 00h, 03h
2926:306C  1F 07 27 07 20 07			db	 1Fh, 07h, 27h, 07h, 20h, 07h
2926:3072  00 04 69 07 20 07			db	 00h, 04h, 69h, 07h, 20h, 07h
2926:3078  27 07 00 02 20 07			db	 27h, 07h, 00h, 02h, 20h, 07h
2926:307E  6C 07 13 07 23 07			db	 6Ch, 07h, 13h, 07h, 23h, 07h
2926:3084  36 07 DE 00 00 02			db	 36h, 07h,0DEh, 00h, 00h, 02h
2926:308A  DE EE 00 07 DE 66			db	0DEh,0EEh, 00h, 07h,0DEh, 66h
2926:3090  DE 00 00 02 20 07			db	0DEh, 00h, 00h, 02h, 20h, 07h
2926:3096  00 03 BA 07 20 07			db	 00h, 03h,0BAh, 07h, 20h, 07h
2926:309C  00 02 F1 07 20 07			db	 00h, 02h,0F1h, 07h, 20h, 07h
2926:30A2  57 07 27 07 69 07			db	 57h, 07h, 27h, 07h, 69h, 07h
2926:30A8  27 07 20 07 23 70			db	 27h, 07h, 20h, 07h, 23h, 70h
2926:30AE  27 07 32 07 9E 07			db	 27h, 07h, 32h, 07h, 9Eh, 07h
2926:30B4  48 07 9E 07 60 07			db	 48h, 07h, 9Eh, 07h, 60h, 07h
2926:30BA  32 07 9E 07 4C 07			db	 32h, 07h, 9Eh, 07h, 4Ch, 07h
2926:30C0  20 07 F1 07 64 07			db	 20h, 07h,0F1h, 07h, 64h, 07h
2926:30C6  30 07 A5 07 DE 00			db	 30h, 07h,0A5h, 07h,0DEh, 00h
2926:30CC  DE 0E DE EE DE FF			db	0DEh, 0Eh,0DEh,0EEh,0DEh,0FFh
2926:30D2  00 05 DE EE 00 02			db	 00h, 05h,0DEh,0EEh, 00h, 02h
2926:30D8  DE 60 DE 00 20 07			db	0DEh, 60h,0DEh, 00h, 20h, 07h
2926:30DE  00 03 48 07 32 07			db	 00h, 03h, 48h, 07h, 32h, 07h
2926:30E4  FD 07 F1 07 20 07			db	0FDh, 07h,0F1h, 07h, 20h, 07h
2926:30EA  57 07 9E 07 60 07			db	 57h, 07h, 9Eh, 07h, 60h, 07h
2926:30F0  4C 07 32 07 1F 70			db	 4Ch, 07h, 32h, 07h, 1Fh, 70h
2926:30F6  27 07 48 07 00 03			db	 27h, 07h, 48h, 07h, 00h, 03h
2926:30FC  27 07 60 07 48 07			db	 27h, 07h, 60h, 07h, 48h, 07h
2926:3102  00 02 27 07 20 07			db	 00h, 02h, 27h, 07h, 20h, 07h
2926:3108  F1 07 7C 07 57 07			db	0F1h, 07h, 7Ch, 07h, 57h, 07h
2926:310E  7C 07 DE 00 DE			db	 7Ch, 07h,0DEh, 00h,0DEh
2926:3113			loc_372:
2926:3113  EE					out	dx,al			; port 0, DMA-1 bas&add ch 0
2926:3114  DE FF				fdivp	st(7),st		; st(#)=st(#)/st, pop
2926:3116  DE EE				fsubp	st(6),st		; st(#)=st(#)-st, pop
2926:3118  00 05				add	[di],al
2926:311A  DE FF				fdivp	st(7),st		; st(#)=st(#)/st, pop
2926:311C  DE EE				fsubp	st(6),st		; st(#)=st(#)-st, pop
2926:311E			loc_374:
2926:311E  DE E6				fsubrp	st(6),st		; st(#)=st-st(#), pop
2926:3120  DE 00				fiadd	word ptr [bx+si]
2926:3122  20 07				and	[bx],al
2926:3124  00 03				add	[bp+di],al
2926:3126  57					push	di
2926:3127  07					pop	es
2926:3128  35 3207				xor	ax,3207h
2926:312B  07					pop	es
2926:312C  F1 07 20 07 03 07			db	0F1h, 07h, 20h, 07h, 03h, 07h
2926:3132  48 07 60 07 27 07			db	 48h, 07h, 60h, 07h, 27h, 07h
2926:3138  35 07 DE 00 A1 07			db	 35h, 07h,0DEh, 00h,0A1h, 07h
2926:313E  00 02 35 07 64 07			db	 00h, 02h, 35h, 07h, 64h, 07h
2926:3144  8D 07 69 07 64 07			db	 8Dh, 07h, 69h, 07h, 64h, 07h
2926:314A  89 07 82 07 20 07			db	 89h, 07h, 82h, 07h, 20h, 07h
           ICON.LST				Sourcer	v8.01  20-Jul-2026 12:15 am   Page 103

2926:3150  A5 07 69 07 A1 07			db	0A5h, 07h, 69h, 07h,0A1h, 07h
2926:3156  82 07 DE 0E DE FF			db	 82h, 07h,0DEh, 0Eh,0DEh,0FFh
2926:315C  DE EE 00 07 DE FF			db	0DEh,0EEh, 00h, 07h,0DEh,0FFh
2926:3162  DE EE DE 60 20 07			db	0DEh,0EEh,0DEh, 60h, 20h, 07h
2926:3168  00 03 89 07 A1 07			db	 00h, 03h, 89h, 07h,0A1h, 07h
2926:316E  A5 07 82 07 20 07			db	0A5h, 07h, 82h, 07h, 20h, 07h
2926:3174  89 07 00 02 69 07			db	 89h, 07h, 00h, 02h, 69h, 07h
2926:317A  82 07 A1 07 DE 00			db	 82h, 07h,0A1h, 07h,0DEh, 00h
2926:3180  00 03 8D 07 00 02			db	 00h, 03h, 8Dh, 07h, 00h, 02h
2926:3186  DE 00 00 02 8D 07			db	0DEh, 00h, 00h, 02h, 8Dh, 07h
2926:318C  DE 00 00 06 20 07			db	0DEh, 00h, 00h, 06h, 20h, 07h
2926:3192  DE EF DE EE 00 09			db	0DEh,0EFh,0DEh,0EEh, 00h, 09h
2926:3198  DE FF DE E6 20 07			db	0DEh,0FFh,0DEh,0E6h, 20h, 07h
2926:319E  00 03 DE 00 20 07			db	 00h, 03h,0DEh, 00h, 20h, 07h
2926:31A4  00 09 DE 00 DE 07			db	 00h, 09h,0DEh, 00h,0DEh, 07h
2926:31AA  DE 77 DE 00 00 0B			db	0DEh, 77h,0DEh, 00h, 00h, 0Bh
2926:31B0  DE 0E DE FE DE EE			db	0DEh, 0Eh,0DEh,0FEh,0DEh,0EEh
2926:31B6  00 0A DE FE DE 60			db	 00h, 0Ah,0DEh,0FEh,0DEh, 60h
2926:31BC  DE 00				db	0DEh, 00h
2926:31BE  0200			data_178	dw	200h
2926:31C0  A4 07 20 07 00 02			db	0A4h, 07h, 20h, 07h, 00h, 02h
2926:31C6  7C 07 20 07 A4 07			db	 7Ch, 07h, 20h, 07h,0A4h, 07h
2926:31CC  20 07				db	 20h, 07h
2926:31CE  27					db	27h
2926:31CF			loc_375:
2926:31CF  07					pop	es
2926:31D0  20 07				and	[bx],al
2926:31D2  00 02				add	[bp+si],al
2926:31D4  DE			data_179	db	0DEh			; Data table (indexed access)
2926:31D5  00 60 07 20 07 27			db	 00h, 60h, 07h, 20h, 07h, 27h
2926:31DB  07 DE 00 00 0A DE			db	 07h,0DEh, 00h, 00h, 0Ah,0DEh
2926:31E1  EF DE EE 00 0B DE			db	0EFh,0DEh,0EEh, 00h, 0Bh,0DEh
2926:31E7  EF DE E6 DE 00 00			db	0EFh,0DEh,0E6h,0DEh, 00h, 00h
2926:31ED  02 48 07 20 07 00			db	 02h, 48h, 07h, 20h, 07h, 00h
2926:31F3  02 7C 07 20 07 48			db	 02h, 7Ch, 07h, 20h, 07h, 48h
2926:31F9  07 20 07				db	 07h, 20h, 07h
2926:31FC  27					db	27h
2926:31FD			loc_376:
2926:31FD  07					pop	es
2926:31FE  20 07				and	[bx],al
2926:3200  00 02				add	[bp+si],al
2926:3202  DE 00				fiadd	word ptr [bx+si]
2926:3204  27					daa				; Decimal adjust
2926:3205  07					pop	es
2926:3206  36 07 60 07 DE 00			db	 36h, 07h, 60h, 07h,0DEh, 00h
2926:320C  00 09 DE 0E DE FE			db	 00h, 09h,0DEh, 0Eh,0DEh,0FEh
2926:3212  DE EE 00 03 1F E6			db	0DEh,0EEh, 00h, 03h, 1Fh,0E6h
2926:3218  DE 66 00 02 1F E6			db	0DEh, 66h, 00h, 02h, 1Fh,0E6h
2926:321E  DE EE 00 05 DE FE			db	0DEh,0EEh, 00h, 05h,0DEh,0FEh
2926:3224  DE 60 DE 00 9E 07			db	0DEh, 60h,0DEh, 00h, 9Eh, 07h
2926:322A  FD 07 9E 07 32 07			db	0FDh, 07h, 9Eh, 07h, 32h, 07h
2926:3230  20 07 9E 07 32 07			db	 20h, 07h, 9Eh, 07h, 32h, 07h
2926:3236  9E 07 00 02 32 07			db	 9Eh, 07h, 00h, 02h, 32h, 07h
2926:323C  9E 07 27 07 00 02			db	 9Eh, 07h, 27h, 07h, 00h, 02h
2926:3242  60 07 DE 00 00 09			db	 60h, 07h,0DEh, 00h, 00h, 09h
2926:3248  DE EF DE EE 00 03			db	0DEh,0EFh,0DEh,0EEh, 00h, 03h
2926:324E  DE 66 00 06 DE EE			db	0DEh, 66h, 00h, 06h,0DEh,0EEh
           ICON.LST				Sourcer	v8.01  20-Jul-2026 12:15 am   Page 104

2926:3254  00 04 DE EF DE E6			db	 00h, 04h,0DEh,0EFh,0DEh,0E6h
2926:325A  DE 00 57 07 32 07			db	0DEh, 00h, 57h, 07h, 32h, 07h
2926:3260  48 07 00 02 20 07			db	 48h, 07h, 00h, 02h, 20h, 07h
2926:3266  57 07 48 07 00 02			db	 57h, 07h, 48h, 07h, 00h, 02h
2926:326C  5C 07 35 07 5C 07			db	 5Ch, 07h, 35h, 07h, 5Ch, 07h
2926:3272  60 07 A1 07 27 07			db	 60h, 07h,0A1h, 07h, 27h, 07h
2926:3278  DE 00 00 08 DE 0E			db	0DEh, 00h, 00h, 08h,0DEh, 0Eh
2926:327E  DE FE DE EE 00 02			db	0DEh,0FEh,0DEh,0EEh, 00h, 02h
2926:3284  DE E6 DE 66 00 07			db	0DEh,0E6h,0DEh, 66h, 00h, 07h
2926:328A  DE EE 00 04 DE FE			db	0DEh,0EEh, 00h, 04h,0DEh,0FEh
2926:3290  DE 60 89 07 A5 07			db	0DEh, 60h, 89h, 07h,0A5h, 07h
2926:3296  89 07 82 07 DE 00			db	 89h, 07h, 82h, 07h,0DEh, 00h
2926:329C  A5 07 A1 07 89 07			db	0A5h, 07h,0A1h, 07h, 89h, 07h
2926:32A2  8D 07 A1 07 8D 07			db	 8Dh, 07h,0A1h, 07h, 8Dh, 07h
2926:32A8  DE 07 DE 77 DE 00			db	0DEh, 07h,0DEh, 77h,0DEh, 00h
2926:32AE  00 09 DE EF DE EE			db	 00h, 09h,0DEh,0EFh,0DEh,0EEh
2926:32B4  00 03 DE 66 00 03			db	 00h, 03h,0DEh, 66h, 00h, 03h
2926:32BA  1F 64 DE 44 00 02			db	 1Fh, 64h,0DEh, 44h, 00h, 02h
2926:32C0  1F 64 DE 66 00 02			db	 1Fh, 64h,0DEh, 66h, 00h, 02h
2926:32C6  DE EE 00 03 DE FE			db	0DEh,0EEh, 00h, 03h,0DEh,0FEh
2926:32CC  DE 66 20 07 00 03			db	0DEh, 66h, 20h, 07h, 00h, 03h
2926:32D2  DE 00 20 07 00 08			db	0DEh, 00h, 20h, 07h, 00h, 08h
2926:32D8  DE 00 00 09 DE 06			db	0DEh, 00h, 00h, 09h,0DEh, 06h
2926:32DE  DE EF DE EE 00 02			db	0DEh,0EFh,0DEh,0EEh, 00h, 02h
2926:32E4  DE E6 DE 66 00 02			db	0DEh,0E6h,0DEh, 66h, 00h, 02h
2926:32EA  DE 44 1F 40 DE 00			db	0DEh, 44h, 1Fh, 40h,0DEh, 00h
2926:32F0  00 02 1F 40 DE 44			db	 00h, 02h, 1Fh, 40h,0DEh, 44h
2926:32F6  DE 66 DE 6E DE EE			db	0DEh, 66h,0DEh, 6Eh,0DEh,0EEh
2926:32FC  00 02 DE EF DE E6			db	 00h, 02h,0DEh,0EFh,0DEh,0E6h
2926:3302  DE 00 20 07 00 02			db	0DEh, 00h, 20h, 07h, 00h, 02h
2926:3308  DE 00 00 07 20 07			db	0DEh, 00h, 00h, 07h, 20h, 07h
2926:330E  00 02 DE 00 00 09			db	 00h, 02h,0DEh, 00h, 00h, 09h
2926:3314  DE 0E DE FE DE EE			db	0DEh, 0Eh,0DEh,0FEh,0DEh,0EEh
2926:331A  00 02 DE 66 00 02			db	 00h, 02h,0DEh, 66h, 00h, 02h
2926:3320  DE 44 DE 00 00 06			db	0DEh, 44h,0DEh, 00h, 00h, 06h
2926:3326  DE 44 DE 66 DE EE			db	0DEh, 44h,0DEh, 66h,0DEh,0EEh
2926:332C  00 02 DE EF DE E6			db	 00h, 02h,0DEh,0EFh,0DEh,0E6h
2926:3332  DE 60 20 07 00 02			db	0DEh, 60h, 20h, 07h, 00h, 02h
2926:3338  DE 00 00 07 20 07			db	0DEh, 00h, 00h, 07h, 20h, 07h
2926:333E  00 02 DE 00 00 09			db	 00h, 02h,0DEh, 00h, 00h, 09h
2926:3344  DE 6E DE FE DE EE			db	0DEh, 6Eh,0DEh,0FEh,0DEh,0EEh
2926:334A  DE E6 DE 66 DE 64			db	0DEh,0E6h,0DEh, 66h,0DEh, 64h
2926:3350  DE 00 00 08 DE 46			db	0DEh, 00h, 00h, 08h,0DEh, 46h
2926:3356  DE 6E DE EE 00 02			db	0DEh, 6Eh,0DEh,0EEh, 00h, 02h
2926:335C  DE FE DE 60 20 07			db	0DEh,0FEh,0DEh, 60h, 20h, 07h
2926:3362  00 02 DE 00 00 07			db	 00h, 02h,0DEh, 00h, 00h, 07h
2926:3368  20 07 00 02 DE 00			db	 20h, 07h, 00h, 02h,0DEh, 00h
2926:336E  00 09 DE EF DE EE			db	 00h, 09h,0DEh,0EFh,0DEh,0EEh
2926:3374  00 02 DE 66 00 02			db	 00h, 02h,0DEh, 66h, 00h, 02h
2926:337A  DE 40 DE 00 00 08			db	0DEh, 40h,0DEh, 00h, 00h, 08h
2926:3380  DE 04 DE 66 DE EE			db	0DEh, 04h,0DEh, 66h,0DEh,0EEh
2926:3386  00 02 DE FE DE 66			db	 00h, 02h,0DEh,0FEh,0DEh, 66h
2926:338C  20 07 00 02 DE 00			db	 20h, 07h, 00h, 02h,0DEh, 00h
2926:3392  00 07 20 07 00 02			db	 00h, 07h, 20h, 07h, 00h, 02h
2926:3398  DE 00 00 08 DE 06			db	0DEh, 00h, 00h, 08h,0DEh, 06h
2926:339E  DE EF DE EE DE E6			db	0DEh,0EFh,0DEh,0EEh,0DEh,0E6h
2926:33A4  DE 66 DE 64 DE 00			db	0DEh, 66h,0DEh, 64h,0DEh, 00h
           ICON.LST				Sourcer	v8.01  20-Jul-2026 12:15 am   Page 105

2926:33AA  00 0A DE 46 DE 6E			db	 00h, 0Ah,0DEh, 46h,0DEh, 6Eh
2926:33B0  DE EE DE EF DE E6			db	0DEh,0EEh,0DEh,0EFh,0DEh,0E6h
2926:33B6  20 07 20 0C DE 00			db	 20h, 07h, 20h, 0Ch,0DEh, 00h
2926:33BC  00 07 20 0C 00 02			db	 00h, 07h, 20h, 0Ch, 00h, 02h
2926:33C2  DE 00 00 08 DE 0E			db	0DEh, 00h, 00h, 08h,0DEh, 0Eh
2926:33C8  DE FE DE EE DE E6			db	0DEh,0FEh,0DEh,0EEh,0DEh,0E6h
2926:33CE  DE 66 DE 40 DE 00			db	0DEh, 66h,0DEh, 40h,0DEh, 00h
2926:33D4  00 0A DE 04 DE 66			db	 00h, 0Ah,0DEh, 04h,0DEh, 66h
2926:33DA  DE EE DE EF DE E6			db	0DEh,0EEh,0DEh,0EFh,0DEh,0E6h
2926:33E0  DE 60 DE 00 00 12			db	0DEh, 60h,0DEh, 00h, 00h, 12h
2926:33E6  DE 6E DE FE DE EE			db	0DEh, 6Eh,0DEh,0FEh,0DEh,0EEh
2926:33EC  DE 66 DE 64 DE 00			db	0DEh, 66h,0DEh, 64h,0DEh, 00h
2926:33F2  00 0C DE 46 DE EE			db	 00h, 0Ch,0DEh, 46h,0DEh,0EEh
2926:33F8  DE EF DE EE DE 60			db	0DEh,0EFh,0DEh,0EEh,0DEh, 60h
2926:33FE  DE 00 00 12 DE EF			db	0DEh, 00h, 00h, 12h,0DEh,0EFh
2926:3404  DE EE 00 02 DE 66			db	0DEh,0EEh, 00h, 02h,0DEh, 66h
2926:340A  DE 40 DE 00 00 0C			db	0DEh, 40h,0DEh, 00h, 00h, 0Ch
2926:3410  DE 04 DE 6E DE EE			db	0DEh, 04h,0DEh, 6Eh,0DEh,0EEh
2926:3416  DE FE DE 66 DE 00			db	0DEh,0FEh,0DEh, 66h,0DEh, 00h
2926:341C  00 11 DE 06 DE EF			db	 00h, 11h,0DEh, 06h,0DEh,0EFh
2926:3422  DE EE DE E6 DE 64			db	0DEh,0EEh,0DEh,0E6h,0DEh, 64h
2926:3428  DE 00 00 0E DE 46			db	0DEh, 00h, 00h, 0Eh,0DEh, 46h
2926:342E  DE EE DE FE DE E6			db	0DEh,0EEh,0DEh,0FEh,0DEh,0E6h
2926:3434  DE 00 00 11 DE 0E			db	0DEh, 00h, 00h, 11h,0DEh, 0Eh
2926:343A  DE FE DE EE DE E6			db	0DEh,0FEh,0DEh,0EEh,0DEh,0E6h
2926:3440  DE 64 DE 00 00 0E			db	0DEh, 64h,0DEh, 00h, 00h, 0Eh
2926:3446  DE 46 DE EE DE FE			db	0DEh, 46h,0DEh,0EEh,0DEh,0FEh
2926:344C  DE E6 DE 60 DE 00			db	0DEh,0E6h,0DEh, 60h,0DEh, 00h
2926:3452  00 10 DE 6E DE FE			db	 00h, 10h,0DEh, 6Eh,0DEh,0FEh
2926:3458  DE EE DE 66 DE 40			db	0DEh,0EEh,0DEh, 66h,0DEh, 40h
2926:345E  DE 00 00 0E DE 04			db	0DEh, 00h, 00h, 0Eh,0DEh, 04h
2926:3464  DE 6E DE EF DE EE			db	0DEh, 6Eh,0DEh,0EFh,0DEh,0EEh
2926:346A  DE 60 DE 00 00 10			db	0DEh, 60h,0DEh, 00h, 00h, 10h
2926:3470  DE 6E DE FE DE EE			db	0DEh, 6Eh,0DEh,0FEh,0DEh,0EEh
2926:3476  DE 66 DE 40 DE 00			db	0DEh, 66h,0DEh, 40h,0DEh, 00h
2926:347C  00 0E DE 04 DE 6E			db	 00h, 0Eh,0DEh, 04h,0DEh, 6Eh
2926:3482  DE EF DE EE DE 60			db	0DEh,0EFh,0DEh,0EEh,0DEh, 60h
2926:3488  DE 00 20 07 00 06			db	0DEh, 00h, 20h, 07h, 00h, 06h
2926:348E  DE 00 00 09 DE EF			db	0DEh, 00h, 00h, 09h,0DEh,0EFh
2926:3494  DE EE DE E6 DE 64			db	0DEh,0EEh,0DEh,0E6h,0DEh, 64h
2926:349A  DE 00 00 10 DE 4E			db	0DEh, 00h, 00h, 10h,0DEh, 4Eh
2926:34A0  DE EF DE EE DE 66			db	0DEh,0EFh,0DEh,0EEh,0DEh, 66h
2926:34A6  DE 00 00 0F DE 06			db	0DEh, 00h, 00h, 0Fh,0DEh, 06h
2926:34AC  DE EF DE EE DE E6			db	0DEh,0EFh,0DEh,0EEh,0DEh,0E6h
2926:34B2  DE 64 DE 00 00 10			db	0DEh, 64h,0DEh, 00h, 00h, 10h
2926:34B8  DE 46 DE EE DE FE			db	0DEh, 46h,0DEh,0EEh,0DEh,0FEh
2926:34BE  DE E6 DE 00 00 0F			db	0DEh,0E6h,0DEh, 00h, 00h, 0Fh
2926:34C4  DE 0E DE EF DE EE			db	0DEh, 0Eh,0DEh,0EFh,0DEh,0EEh
2926:34CA  DE 66 DE 40 DE 00			db	0DEh, 66h,0DEh, 40h,0DEh, 00h
2926:34D0  00 10 DE 04 DE EE			db	 00h, 10h,0DEh, 04h,0DEh,0EEh
2926:34D6  DE FE DE E6 DE 60			db	0DEh,0FEh,0DEh,0E6h,0DEh, 60h
2926:34DC  DE 00 00 0E DE 0E			db	0DEh, 00h, 00h, 0Eh,0DEh, 0Eh
2926:34E2  DE FE DE EE DE 66			db	0DEh,0FEh,0DEh,0EEh,0DEh, 66h
2926:34E8  DE 40 DE 00 00 10			db	0DEh, 40h,0DEh, 00h, 00h, 10h
2926:34EE  DE 04 DE 6E DE FE			db	0DEh, 04h,0DEh, 6Eh,0DEh,0FEh
2926:34F4  DE EE DE 60 DE 00			db	0DEh,0EEh,0DEh, 60h,0DEh, 00h
2926:34FA  00 0E DE 6E DE FE			db	 00h, 0Eh,0DEh, 6Eh,0DEh,0FEh
           ICON.LST				Sourcer	v8.01  20-Jul-2026 12:15 am   Page 106

2926:3500  DE EE DE 64 DE 00			db	0DEh,0EEh,0DEh, 64h,0DEh, 00h
2926:3506  00 12 DE 4E DE EF			db	 00h, 12h,0DEh, 4Eh,0DEh,0EFh
2926:350C  DE EE DE 60 DE 00			db	0DEh,0EEh,0DEh, 60h,0DEh, 00h
2926:3512  00 0E DE 6E DE FE			db	 00h, 0Eh,0DEh, 6Eh,0DEh,0FEh
2926:3518  DE E6 DE 64 DE 00			db	0DEh,0E6h,0DEh, 64h,0DEh, 00h
2926:351E  00 12 DE 4E DE EF			db	 00h, 12h,0DEh, 4Eh,0DEh,0EFh
2926:3524  DE EE DE 60 DE 00			db	0DEh,0EEh,0DEh, 60h,0DEh, 00h
2926:352A  00 0E DE EE DE FE			db	 00h, 0Eh,0DEh,0EEh,0DEh,0FEh
2926:3530  DE E6 DE 64 DE 00			db	0DEh,0E6h,0DEh, 64h,0DEh, 00h
2926:3536  B0 04 00 10 DE 00			db	0B0h, 04h, 00h, 10h,0DEh, 00h
2926:353C  DE 46 DE EF DE EE			db	0DEh, 46h,0DEh,0EFh,0DEh,0EEh
2926:3542  DE 66 DE 00 00 0E			db	0DEh, 66h,0DEh, 00h, 00h, 0Eh
2926:3548  DE EF DE EE DE E6			db	0DEh,0EFh,0DEh,0EEh,0DEh,0E6h
2926:354E  DE 40 DE 00 B1 04			db	0DEh, 40h,0DEh, 00h,0B1h, 04h
2926:3554  00 10 DE 00 DE 04			db	 00h, 10h,0DEh, 00h,0DEh, 04h
2926:355A  DE EF DE EE DE E6			db	0DEh,0EFh,0DEh,0EEh,0DEh,0E6h
2926:3560  DE 00 00 0D DE 06			db	0DEh, 00h, 00h, 0Dh,0DEh, 06h
2926:3566  DE EF DE EE DE E6			db	0DEh,0EFh,0DEh,0EEh,0DEh,0E6h
2926:356C  DE 40 DE 00 B0 40			db	0DEh, 40h,0DEh, 00h,0B0h, 40h
2926:3572  00 10 DE 00 DE 04			db	 00h, 10h,0DEh, 00h,0DEh, 04h
2926:3578  DE EE DE FE DE E6			db	0DEh,0EEh,0DEh,0FEh,0DEh,0E6h
2926:357E  DE 00 00 0D DE 06			db	0DEh, 00h, 00h, 0Dh,0DEh, 06h
2926:3584  DE EF DE EE DE 66			db	0DEh,0EFh,0DEh,0EEh,0DEh, 66h
2926:358A  DE 40 DE 00 DE 44			db	0DEh, 40h,0DEh, 00h,0DEh, 44h
2926:3590  00 10 DE 00 DE 04			db	 00h, 10h,0DEh, 00h,0DEh, 04h
2926:3596  DE 6E DE FE DE E6			db	0DEh, 6Eh,0DEh,0FEh,0DEh,0E6h
2926:359C  DE 00 00 0D DE 06			db	0DEh, 00h, 00h, 0Dh,0DEh, 06h
2926:35A2  DE EF DE EE DE 64			db	0DEh,0EFh,0DEh,0EEh,0DEh, 64h
2926:35A8  DE 00 00 02 B0 4C			db	0DEh, 00h, 00h, 02h,0B0h, 4Ch
2926:35AE  00 10 DE 00 00 02			db	 00h, 10h,0DEh, 00h, 00h, 02h
2926:35B4  DE 4E DE FE DE E6			db	0DEh, 4Eh,0DEh,0FEh,0DEh,0E6h
2926:35BA  DE 00 00 0D DE 0E			db	0DEh, 00h, 00h, 0Dh,0DEh, 0Eh
2926:35C0  DE EF DE EE DE 64			db	0DEh,0EFh,0DEh,0EEh,0DEh, 64h
2926:35C6  DE 00 00 02 B1 4C			db	0DEh, 00h, 00h, 02h,0B1h, 4Ch
2926:35CC  00 10 DE 00 00 02			db	 00h, 10h,0DEh, 00h, 00h, 02h
2926:35D2  DE 4E DE FE DE E6			db	0DEh, 4Eh,0DEh,0FEh,0DEh,0E6h
2926:35D8  DE 60 DE 00 00 0C			db	0DEh, 60h,0DEh, 00h, 00h, 0Ch
2926:35DE  DE 0E DE FE DE EE			db	0DEh, 0Eh,0DEh,0FEh,0DEh,0EEh
2926:35E4  DE 64 DE 00 00 02			db	0DEh, 64h,0DEh, 00h, 00h, 02h
2926:35EA  B0 C4 00 10 DE 00			db	0B0h,0C4h, 00h, 10h,0DEh, 00h
2926:35F0  00 02 DE 4E DE EF			db	 00h, 02h,0DEh, 4Eh,0DEh,0EFh
2926:35F6  DE EE DE 60 DE 00			db	0DEh,0EEh,0DEh, 60h,0DEh, 00h
2926:35FC  00 0C DE 0E DE FE			db	 00h, 0Ch,0DEh, 0Eh,0DEh,0FEh
2926:3602  DE E6 DE 64 DE 00			db	0DEh,0E6h,0DEh, 64h,0DEh, 00h
2926:3608  00 02 DE CC 00 10			db	 00h, 02h,0DEh,0CCh, 00h, 10h
2926:360E  DE 00 00 02 DE 4E			db	0DEh, 00h, 00h, 02h,0DEh, 4Eh
2926:3614  DE EF DE EE DE 60			db	0DEh,0EFh,0DEh,0EEh,0DEh, 60h
2926:361A  DE 00 00 0C DE 6E			db	0DEh, 00h, 00h, 0Ch,0DEh, 6Eh
2926:3620  DE FE DE E6 DE 40			db	0DEh,0FEh,0DEh,0E6h,0DEh, 40h
2926:3626  DE 00 00 02 DE CC			db	0DEh, 00h, 00h, 02h,0DEh,0CCh
2926:362C  DE 91 DE CC 00 0E			db	0DEh, 91h,0DEh,0CCh, 00h, 0Eh
2926:3632  DE 00 00 02 DE 04			db	0DEh, 00h, 00h, 02h,0DEh, 04h
2926:3638  DE EF DE EE DE 60			db	0DEh,0EFh,0DEh,0EEh,0DEh, 60h
2926:363E  DE 00 00 0C DE 6E			db	0DEh, 00h, 00h, 0Ch,0DEh, 6Eh
2926:3644  DE FE DE E6 DE 40			db	0DEh,0FEh,0DEh,0E6h,0DEh, 40h
2926:364A  DE 00 00 02 DE CC			db	0DEh, 00h, 00h, 02h,0DEh,0CCh
2926:3650  DE 91 DE CC 00 0E			db	0DEh, 91h,0DEh,0CCh, 00h, 0Eh
           ICON.LST				Sourcer	v8.01  20-Jul-2026 12:15 am   Page 107

2926:3656  DE 00 00 02 DE 04			db	0DEh, 00h, 00h, 02h,0DEh, 04h
2926:365C  DE EF DE EE DE 60			db	0DEh,0EFh,0DEh,0EEh,0DEh, 60h
2926:3662  DE 00 00 0C DE 6E			db	0DEh, 00h, 00h, 0Ch,0DEh, 6Eh
2926:3668  DE FE DE E6 DE 40			db	0DEh,0FEh,0DEh,0E6h,0DEh, 40h
2926:366E  DE 00 00 02 1F CF			db	0DEh, 00h, 00h, 02h, 1Fh,0CFh
2926:3674  DE 91 1F CF 00 0E			db	0DEh, 91h, 1Fh,0CFh, 00h, 0Eh
2926:367A  DE 00 00 02 DE 04			db	0DEh, 00h, 00h, 02h,0DEh, 04h
2926:3680  DE EF DE EE DE 60			db	0DEh,0EFh,0DEh,0EEh,0DEh, 60h
2926:3686  DE 00 00 0C DE EE			db	0DEh, 00h, 00h, 0Ch,0DEh,0EEh
2926:368C  DE FE DE E6 DE 90			db	0DEh,0FEh,0DEh,0E6h,0DEh, 90h
2926:3692  DE 00 00 14 DE 09			db	0DEh, 00h, 00h, 14h,0DEh, 09h
2926:3698  DE EF DE EE DE 66			db	0DEh,0EFh,0DEh,0EEh,0DEh, 66h
2926:369E  DE 00 00 0C DE EF			db	0DEh, 00h, 00h, 0Ch,0DEh,0EFh
2926:36A4  DE EE DE 66 DE 90			db	0DEh,0EEh,0DEh, 66h,0DEh, 90h
2926:36AA  DE 00 00 14 DE 09			db	0DEh, 00h, 00h, 14h,0DEh, 09h
2926:36B0  DE EF DE EE DE 66			db	0DEh,0EFh,0DEh,0EEh,0DEh, 66h
2926:36B6  DE 00 00 0C DE EF			db	0DEh, 00h, 00h, 0Ch,0DEh,0EFh
2926:36BC  DE EE DE 69 DE 00			db	0DEh,0EEh,0DEh, 69h,0DEh, 00h
2926:36C2  00 03 DE 99 DE 91			db	 00h, 03h,0DEh, 99h,0DEh, 91h
2926:36C8  DE 00 00 02 DE 99			db	0DEh, 00h, 00h, 02h,0DEh, 99h
2926:36CE  00 02 DE 91 DE 00			db	 00h, 02h,0DEh, 91h,0DEh, 00h
2926:36D4  DE 19 DE 99 00 02			db	0DEh, 19h,0DEh, 99h, 00h, 02h
2926:36DA  DE 00 DE 19 DE 01			db	0DEh, 00h,0DEh, 19h,0DEh, 01h
2926:36E0  DE 99 DE 90 DE 00			db	0DEh, 99h,0DEh, 90h,0DEh, 00h
2926:36E6  00 03 DE 9F DE EE			db	 00h, 03h,0DEh, 9Fh,0DEh,0EEh
2926:36EC  DE 66 DE 00 00 0C			db	0DEh, 66h,0DEh, 00h, 00h, 0Ch
2926:36F2  DE EF DE EE DE 69			db	0DEh,0EFh,0DEh,0EEh,0DEh, 69h
2926:36F8  DE 00 00 03 DE 11			db	0DEh, 00h, 00h, 03h,0DEh, 11h
2926:36FE  DE 91 DE 00 00 02			db	0DEh, 91h,0DEh, 00h, 00h, 02h
2926:3704  DE 91 DE 11 DE 91			db	0DEh, 91h,0DEh, 11h,0DEh, 91h
2926:370A  DE 00 DE 19 DE 11			db	0DEh, 00h,0DEh, 19h,0DEh, 11h
2926:3710  DE 19 DE 00 DE 19			db	0DEh, 19h,0DEh, 00h,0DEh, 19h
2926:3716  00 02 DE 99 00 02			db	 00h, 02h,0DEh, 99h, 00h, 02h
2926:371C  DE 00 00 03 DE 9F			db	0DEh, 00h, 00h, 03h,0DEh, 9Fh
2926:3722  DE EE DE 66 DE 00			db	0DEh,0EEh,0DEh, 66h,0DEh, 00h
2926:3728  00 0C DE EF DE EE			db	 00h, 0Ch,0DEh,0EFh,0DEh,0EEh
2926:372E  DE 69 DE 00 00 04			db	0DEh, 69h,0DEh, 00h, 00h, 04h
2926:3734  DE 91 DE 00 00 02			db	0DEh, 91h,0DEh, 00h, 00h, 02h
2926:373A  DE 91 DE 00 DE 91			db	0DEh, 91h,0DEh, 00h,0DEh, 91h
2926:3740  DE 00 DE 19 DE 00			db	0DEh, 00h,0DEh, 19h,0DEh, 00h
2926:3746  DE 19 DE 00 DE 19			db	0DEh, 19h,0DEh, 00h,0DEh, 19h
2926:374C  DE 99 DE 01 DE 99			db	0DEh, 99h,0DEh, 01h,0DEh, 99h
2926:3752  DE 00 00 03 DE 9F			db	0DEh, 00h, 00h, 03h,0DEh, 9Fh
2926:3758  DE EE DE 66 DE 00			db	0DEh,0EEh,0DEh, 66h,0DEh, 00h
2926:375E  00 0C DE EF DE EE			db	 00h, 0Ch,0DEh,0EFh,0DEh,0EEh
2926:3764  DE 69 DE 00 00 04			db	0DEh, 69h,0DEh, 00h, 00h, 04h
2926:376A  DE 91 DE 00 00 02			db	0DEh, 91h,0DEh, 00h, 00h, 02h
2926:3770  DE 91 DE 00 00 03			db	0DEh, 91h,0DEh, 00h, 00h, 03h
2926:3776  DE 19 DE 00 DE 19			db	0DEh, 19h,0DEh, 00h,0DEh, 19h
2926:377C  DE 00 DE 19 DE 90			db	0DEh, 00h,0DEh, 19h,0DEh, 90h
2926:3782  DE 00 DE 19 DE 00			db	0DEh, 00h,0DEh, 19h,0DEh, 00h
2926:3788  00 03 DE 9F DE EE			db	 00h, 03h,0DEh, 9Fh,0DEh,0EEh
2926:378E  DE 66 DE 00 00 0C			db	0DEh, 66h,0DEh, 00h, 00h, 0Ch
2926:3794  DE EF DE EE DE 69			db	0DEh,0EFh,0DEh,0EEh,0DEh, 69h
2926:379A  DE 00 00 04 DE 91			db	0DEh, 00h, 00h, 04h,0DEh, 91h
2926:37A0  DE 00 00 02 DE 91			db	0DEh, 00h, 00h, 02h,0DEh, 91h
2926:37A6  DE 00 00 03 DE 19			db	0DEh, 00h, 00h, 03h,0DEh, 19h
           ICON.LST				Sourcer	v8.01  20-Jul-2026 12:15 am   Page 108

2926:37AC  DE 00 DE 19 DE 00			db	0DEh, 00h,0DEh, 19h,0DEh, 00h
2926:37B2  DE 19 DE 00 00 02			db	0DEh, 19h,0DEh, 00h, 00h, 02h
2926:37B8  DE 19 DE 00 00 03			db	0DEh, 19h,0DEh, 00h, 00h, 03h
2926:37BE  DE 9F DE EE DE 66			db	0DEh, 9Fh,0DEh,0EEh,0DEh, 66h
2926:37C4  DE 00 00 0C DE EF			db	0DEh, 00h, 00h, 0Ch,0DEh,0EFh
2926:37CA  DE EE DE 69 DE 00			db	0DEh,0EEh,0DEh, 69h,0DEh, 00h
2926:37D0  00 04 DE 91 DE 00			db	 00h, 04h,0DEh, 91h,0DEh, 00h
2926:37D6  00 02 DE 91 DE 00			db	 00h, 02h,0DEh, 91h,0DEh, 00h
2926:37DC  00 03 DE 19 DE 00			db	 00h, 03h,0DEh, 19h,0DEh, 00h
2926:37E2  DE 19 DE 00 DE 19			db	0DEh, 19h,0DEh, 00h,0DEh, 19h
2926:37E8  DE 00 00 02 DE 19			db	0DEh, 00h, 00h, 02h,0DEh, 19h
2926:37EE  DE 00 00 03 DE 9F			db	0DEh, 00h, 00h, 03h,0DEh, 9Fh
2926:37F4  DE EE DE 66 DE 00			db	0DEh,0EEh,0DEh, 66h,0DEh, 00h
2926:37FA  00 0C DE EF DE EE			db	 00h, 0Ch,0DEh,0EFh,0DEh,0EEh
2926:3800  DE 69 DE 00 00 04			db	0DEh, 69h,0DEh, 00h, 00h, 04h
2926:3806  DE 91 DE 00 00 02			db	0DEh, 91h,0DEh, 00h, 00h, 02h
2926:380C  DE 91 DE 00 00 03			db	0DEh, 91h,0DEh, 00h, 00h, 03h
2926:3812  DE 19 DE 00 DE 19			db	0DEh, 19h,0DEh, 00h,0DEh, 19h
2926:3818  DE 00 DE 19 DE 00			db	0DEh, 00h,0DEh, 19h,0DEh, 00h
2926:381E  00 02 DE 19 DE 00			db	 00h, 02h,0DEh, 19h,0DEh, 00h
2926:3824  00 03 DE 9F DE EE			db	 00h, 03h,0DEh, 9Fh,0DEh,0EEh
2926:382A  DE 66 DE 00 00 0C			db	0DEh, 66h,0DEh, 00h, 00h, 0Ch
2926:3830  DE EF DE EE DE 69			db	0DEh,0EFh,0DEh,0EEh,0DEh, 69h
2926:3836  DE 00 00 04 DE 91			db	0DEh, 00h, 00h, 04h,0DEh, 91h
2926:383C  DE 00 00 02 DE 91			db	0DEh, 00h, 00h, 02h,0DEh, 91h
2926:3842  DE 00 00 03 DE 19			db	0DEh, 00h, 00h, 03h,0DEh, 19h
2926:3848  DE 00 DE 19 DE 00			db	0DEh, 00h,0DEh, 19h,0DEh, 00h
2926:384E  DE 19 DE 00 00 02			db	0DEh, 19h,0DEh, 00h, 00h, 02h
2926:3854  DE 19 DE 00 00 03			db	0DEh, 19h,0DEh, 00h, 00h, 03h
2926:385A  DE 9F DE EE DE 66			db	0DEh, 9Fh,0DEh,0EEh,0DEh, 66h
2926:3860  DE 00 00 0C DE EF			db	0DEh, 00h, 00h, 0Ch,0DEh,0EFh
2926:3866  DE EE DE 69 DE 00			db	0DEh,0EEh,0DEh, 69h,0DEh, 00h
2926:386C  00 04 DE 91 DE 00			db	 00h, 04h,0DEh, 91h,0DEh, 00h
2926:3872  00 02 DE 91 DE 00			db	 00h, 02h,0DEh, 91h,0DEh, 00h
2926:3878  00 03 DE 19 DE 00			db	 00h, 03h,0DEh, 19h,0DEh, 00h
2926:387E  DE 19 DE 00 DE 19			db	0DEh, 19h,0DEh, 00h,0DEh, 19h
2926:3884  DE 00 00 02 DE 19			db	0DEh, 00h, 00h, 02h,0DEh, 19h
2926:388A  DE 00 00 03 DE 9F			db	0DEh, 00h, 00h, 03h,0DEh, 9Fh
2926:3890  DE EE DE 66 DE 00			db	0DEh,0EEh,0DEh, 66h,0DEh, 00h
2926:3896  00 0C DE EF DE EE			db	 00h, 0Ch,0DEh,0EFh,0DEh,0EEh
2926:389C  DE 69 DE 00 00 04			db	0DEh, 69h,0DEh, 00h, 00h, 04h
2926:38A2  DE 91 DE 00 00 02			db	0DEh, 91h,0DEh, 00h, 00h, 02h
2926:38A8  DE 91 DE 00 00 03			db	0DEh, 91h,0DEh, 00h, 00h, 03h
2926:38AE  DE 19 DE 00 DE 19			db	0DEh, 19h,0DEh, 00h,0DEh, 19h
2926:38B4  DE 00 DE 19 DE 00			db	0DEh, 00h,0DEh, 19h,0DEh, 00h
2926:38BA  00 02 DE 19 DE 00			db	 00h, 02h,0DEh, 19h,0DEh, 00h
2926:38C0  00 03 DE 9F DE EE			db	 00h, 03h,0DEh, 9Fh,0DEh,0EEh
2926:38C6  DE 66 DE 00 00 0C			db	0DEh, 66h,0DEh, 00h, 00h, 0Ch
2926:38CC  DE EF DE EE DE 69			db	0DEh,0EFh,0DEh,0EEh,0DEh, 69h
2926:38D2  DE 00 00 04 DE 91			db	0DEh, 00h, 00h, 04h,0DEh, 91h
2926:38D8  DE 00 00 02 DE 91			db	0DEh, 00h, 00h, 02h,0DEh, 91h
2926:38DE  DE 00 00 03 DE 19			db	0DEh, 00h, 00h, 03h,0DEh, 19h
2926:38E4  DE 00 DE 19 DE 00			db	0DEh, 00h,0DEh, 19h,0DEh, 00h
2926:38EA  DE 19 DE 00 00 02			db	0DEh, 19h,0DEh, 00h, 00h, 02h
2926:38F0  DE 19 DE 00 00 03			db	0DEh, 19h,0DEh, 00h, 00h, 03h
2926:38F6  DE 9F DE EE DE 66			db	0DEh, 9Fh,0DEh,0EEh,0DEh, 66h
2926:38FC  DE 00 00 0C DE EF			db	0DEh, 00h, 00h, 0Ch,0DEh,0EFh
           ICON.LST				Sourcer	v8.01  20-Jul-2026 12:15 am   Page 109

2926:3902  DE EE DE 69 DE 00			db	0DEh,0EEh,0DEh, 69h,0DEh, 00h
2926:3908  00 04 DE 91 DE 00			db	 00h, 04h,0DEh, 91h,0DEh, 00h
2926:390E  00 02 DE 91 DE 00			db	 00h, 02h,0DEh, 91h,0DEh, 00h
2926:3914  DE 91 DE 00 DE 19			db	0DEh, 91h,0DEh, 00h,0DEh, 19h
2926:391A  DE 00 DE 19 DE 00			db	0DEh, 00h,0DEh, 19h,0DEh, 00h
2926:3920  DE 19 DE 00 00 02			db	0DEh, 19h,0DEh, 00h, 00h, 02h
2926:3926  DE 19 DE 00 00 03			db	0DEh, 19h,0DEh, 00h, 00h, 03h
2926:392C  DE 9F DE EE DE 66			db	0DEh, 9Fh,0DEh,0EEh,0DEh, 66h
2926:3932  DE 00 00 0C DE EF			db	0DEh, 00h, 00h, 0Ch,0DEh,0EFh
2926:3938  DE EE DE 69 DE 00			db	0DEh,0EEh,0DEh, 69h,0DEh, 00h
2926:393E  00 03 DE 11 DE 91			db	 00h, 03h,0DEh, 11h,0DEh, 91h
2926:3944  DE 11 DE 00 DE 91			db	0DEh, 11h,0DEh, 00h,0DEh, 91h
2926:394A  DE 11 DE 91 DE 00			db	0DEh, 11h,0DEh, 91h,0DEh, 00h
2926:3950  DE 19 DE 11 DE 19			db	0DEh, 19h,0DEh, 11h,0DEh, 19h
2926:3956  DE 00 DE 19 DE 00			db	0DEh, 00h,0DEh, 19h,0DEh, 00h
2926:395C  00 02 DE 19 DE 00			db	 00h, 02h,0DEh, 19h,0DEh, 00h
2926:3962  00 03 DE 9F DE EE			db	 00h, 03h,0DEh, 9Fh,0DEh,0EEh
2926:3968  DE 66 DE 00 00 0C			db	0DEh, 66h,0DEh, 00h, 00h, 0Ch
2926:396E  DE EF DE EE DE 69			db	0DEh,0EFh,0DEh,0EEh,0DEh, 69h
2926:3974  DE 00 00 03 DE 99			db	0DEh, 00h, 00h, 03h,0DEh, 99h
2926:397A  00 03 DE 00 DE 99			db	 00h, 03h,0DEh, 00h,0DEh, 99h
2926:3980  00 02 DE 91 DE 00			db	 00h, 02h,0DEh, 91h,0DEh, 00h
2926:3986  DE 19 DE 99 00 02			db	0DEh, 19h,0DEh, 99h, 00h, 02h
2926:398C  DE 00 DE 19 DE 00			db	0DEh, 00h,0DEh, 19h,0DEh, 00h
2926:3992  00 02 DE 19 DE 00			db	 00h, 02h,0DEh, 19h,0DEh, 00h
2926:3998  00 03 DE 9F DE EE			db	 00h, 03h,0DEh, 9Fh,0DEh,0EEh
2926:399E  DE 66 DE 00 00 0C			db	0DEh, 66h,0DEh, 00h, 00h, 0Ch
2926:39A4  DE EF DE EE DE 66			db	0DEh,0EFh,0DEh,0EEh,0DEh, 66h
2926:39AA  DE 90 DE 00 00 14			db	0DEh, 90h,0DEh, 00h, 00h, 14h
2926:39B0  DE 09 DE EF DE EE			db	0DEh, 09h,0DEh,0EFh,0DEh,0EEh
2926:39B6  DE 66 DE 00 00 0C			db	0DEh, 66h,0DEh, 00h, 00h, 0Ch
2926:39BC  DE EE DE FE DE E6			db	0DEh,0EEh,0DEh,0FEh,0DEh,0E6h
2926:39C2  DE 90 DE 00 00 14			db	0DEh, 90h,0DEh, 00h, 00h, 14h
2926:39C8  DE 09 DE FE DE E6			db	0DEh, 09h,0DEh,0FEh,0DEh,0E6h
2926:39CE  DE 66 DE 00 00 0C			db	0DEh, 66h,0DEh, 00h, 00h, 0Ch
2926:39D4  DE 6E DE FE DE E6			db	0DEh, 6Eh,0DEh,0FEh,0DEh,0E6h
2926:39DA  DE 40 DE 00 00 02			db	0DEh, 40h,0DEh, 00h, 00h, 02h
2926:39E0  1F FC 00 10 DE 00			db	 1Fh,0FCh, 00h, 10h,0DEh, 00h
2926:39E6  00 02 DE 04 DE FE			db	 00h, 02h,0DEh, 04h,0DEh,0FEh
2926:39EC  DE E6 DE 60 DE 00			db	0DEh,0E6h,0DEh, 60h,0DEh, 00h
2926:39F2  00 0C DE 6E DE FE			db	 00h, 0Ch,0DEh, 6Eh,0DEh,0FEh
2926:39F8  DE E6 DE 40 DE 00			db	0DEh,0E6h,0DEh, 40h,0DEh, 00h
2926:39FE  00 02 DE CC 00 10			db	 00h, 02h,0DEh,0CCh, 00h, 10h
2926:3A04  DE 00 00 02 DE 04			db	0DEh, 00h, 00h, 02h,0DEh, 04h
2926:3A0A  DE FE DE E6 DE 60			db	0DEh,0FEh,0DEh,0E6h,0DEh, 60h
2926:3A10  DE 00 00 0C DE 6E			db	0DEh, 00h, 00h, 0Ch,0DEh, 6Eh
2926:3A16  DE FE DE E6 DE 40			db	0DEh,0FEh,0DEh,0E6h,0DEh, 40h
2926:3A1C  DE 00 00 02 DE CC			db	0DEh, 00h, 00h, 02h,0DEh,0CCh
2926:3A22  00 10 DE 00 00 02			db	 00h, 10h,0DEh, 00h, 00h, 02h
2926:3A28  DE 04 DE FE DE E6			db	0DEh, 04h,0DEh,0FEh,0DEh,0E6h
2926:3A2E  DE 60 DE 00 00 0C			db	0DEh, 60h,0DEh, 00h, 00h, 0Ch
2926:3A34  DE 0E DE FE DE E6			db	0DEh, 0Eh,0DEh,0FEh,0DEh,0E6h
2926:3A3A  DE 64 DE 00 00 02			db	0DEh, 64h,0DEh, 00h, 00h, 02h
2926:3A40  DE CC 00 10 DE 00			db	0DEh,0CCh, 00h, 10h,0DEh, 00h
2926:3A46  00 02 DE 4E DE FE			db	 00h, 02h,0DEh, 4Eh,0DEh,0FEh
2926:3A4C  DE E6 DE 60 DE 00			db	0DEh,0E6h,0DEh, 60h,0DEh, 00h
2926:3A52  00 0C DE 0E DE FE			db	 00h, 0Ch,0DEh, 0Eh,0DEh,0FEh
           ICON.LST				Sourcer	v8.01  20-Jul-2026 12:15 am   Page 110

2926:3A58  DE EE DE 64 DE 00			db	0DEh,0EEh,0DEh, 64h,0DEh, 00h
2926:3A5E  00 02 B0 C4 00 10			db	 00h, 02h,0B0h,0C4h, 00h, 10h
2926:3A64  DE 00 00 02 DE 4F			db	0DEh, 00h, 00h, 02h,0DEh, 4Fh
2926:3A6A  DE EE DE E6 DE 60			db	0DEh,0EEh,0DEh,0E6h,0DEh, 60h
2926:3A70  DE 00 00 0C DE 0E			db	0DEh, 00h, 00h, 0Ch,0DEh, 0Eh
2926:3A76  DE EF DE EE DE 64			db	0DEh,0EFh,0DEh,0EEh,0DEh, 64h
2926:3A7C  DE 00 00 02 B1 C4			db	0DEh, 00h, 00h, 02h,0B1h,0C4h
2926:3A82  00 10 DE 00 00 02			db	 00h, 10h,0DEh, 00h, 00h, 02h
2926:3A88  DE 4F DE EE DE 66			db	0DEh, 4Fh,0DEh,0EEh,0DEh, 66h
2926:3A8E  DE 60 DE 00 00 0C			db	0DEh, 60h,0DEh, 00h, 00h, 0Ch
2926:3A94  DE 06 DE EF DE EE			db	0DEh, 06h,0DEh,0EFh,0DEh,0EEh
2926:3A9A  DE 64 DE 00 00 02			db	0DEh, 64h,0DEh, 00h, 00h, 02h
2926:3AA0  B0 4C 00 10 DE 00			db	0B0h, 4Ch, 00h, 10h,0DEh, 00h
2926:3AA6  00 02 DE 4F DE EE			db	 00h, 02h,0DEh, 4Fh,0DEh,0EEh
2926:3AAC  DE 66 DE 00 00 0D			db	0DEh, 66h,0DEh, 00h, 00h, 0Dh
2926:3AB2  DE 06 DE EF DE EE			db	0DEh, 06h,0DEh,0EFh,0DEh,0EEh
2926:3AB8  DE E6 DE 40 DE 00			db	0DEh,0E6h,0DEh, 40h,0DEh, 00h
2926:3ABE  DE 44 00 10 DE 00			db	0DEh, 44h, 00h, 10h,0DEh, 00h
2926:3AC4  DE 04 DE EF DE EE			db	0DEh, 04h,0DEh,0EFh,0DEh,0EEh
2926:3ACA  DE 66 DE 00 00 0D			db	0DEh, 66h,0DEh, 00h, 00h, 0Dh
2926:3AD0  DE 06 DE EF DE EE			db	0DEh, 06h,0DEh,0EFh,0DEh,0EEh
2926:3AD6  DE E6 DE 40 DE 00			db	0DEh,0E6h,0DEh, 40h,0DEh, 00h
2926:3ADC  B0 40 00 10 DE 00			db	0B0h, 40h, 00h, 10h,0DEh, 00h
2926:3AE2  DE 04 DE FE DE EE			db	0DEh, 04h,0DEh,0FEh,0DEh,0EEh
2926:3AE8  DE 66 DE 00 00 0E			db	0DEh, 66h,0DEh, 00h, 00h, 0Eh
2926:3AEE  DE EF DE EE 00 02			db	0DEh,0EFh,0DEh,0EEh, 00h, 02h
2926:3AF4  DE 40 DE 00 B1 40			db	0DEh, 40h,0DEh, 00h,0B1h, 40h
2926:3AFA  00 10 DE 00 DE 04			db	 00h, 10h,0DEh, 00h,0DEh, 04h
2926:3B00  DE FE DE EE DE 66			db	0DEh,0FEh,0DEh,0EEh,0DEh, 66h
2926:3B06  DE 00 00 0E DE EE			db	0DEh, 00h, 00h, 0Eh,0DEh,0EEh
2926:3B0C  DE FE DE EE DE 64			db	0DEh,0FEh,0DEh,0EEh,0DEh, 64h
2926:3B12  DE 00 B0 04 00 10			db	0DEh, 00h,0B0h, 04h, 00h, 10h
2926:3B18  DE 00 DE 4E DE FE			db	0DEh, 00h,0DEh, 4Eh,0DEh,0FEh
2926:3B1E  DE E6 DE 66 DE 00			db	0DEh,0E6h,0DEh, 66h,0DEh, 00h
2926:3B24  00 0E DE 6E DE FE			db	 00h, 0Eh,0DEh, 6Eh,0DEh,0FEh
2926:3B2A  DE EE DE E4 DE 00			db	0DEh,0EEh,0DEh,0E4h,0DEh, 00h
2926:3B30  00 12 DE 4F DE EE			db	 00h, 12h,0DEh, 4Fh,0DEh,0EEh
2926:3B36  DE E6 DE 60 DE 00			db	0DEh,0E6h,0DEh, 60h,0DEh, 00h
2926:3B3C  00 0E DE 6E DE FE			db	 00h, 0Eh,0DEh, 6Eh,0DEh,0FEh
2926:3B42  DE EE DE E4 DE 00			db	0DEh,0EEh,0DEh,0E4h,0DEh, 00h
2926:3B48  00 12 DE 4F DE EE			db	 00h, 12h,0DEh, 4Fh,0DEh,0EEh
2926:3B4E  DE E6 DE 60 DE 00			db	0DEh,0E6h,0DEh, 60h,0DEh, 00h
2926:3B54  00 0E DE 0E DE FE			db	 00h, 0Eh,0DEh, 0Eh,0DEh,0FEh
2926:3B5A  DE EE DE E6 DE 40			db	0DEh,0EEh,0DEh,0E6h,0DEh, 40h
2926:3B60  DE 00 00 10 DE 04			db	0DEh, 00h, 00h, 10h,0DEh, 04h
2926:3B66  DE FE DE EE DE 66			db	0DEh,0FEh,0DEh,0EEh,0DEh, 66h
2926:3B6C  DE 60 DE 00 00 0E			db	0DEh, 60h,0DEh, 00h, 00h, 0Eh
2926:3B72  DE 0E DE EF DE EE			db	0DEh, 0Eh,0DEh,0EFh,0DEh,0EEh
2926:3B78  00 02 DE 40 DE 00			db	 00h, 02h,0DEh, 40h,0DEh, 00h
2926:3B7E  00 10 DE 04 DE FE			db	 00h, 10h,0DEh, 04h,0DEh,0FEh
2926:3B84  DE EE DE 66 DE 00			db	0DEh,0EEh,0DEh, 66h,0DEh, 00h
2926:3B8A  00 0F DE 06 DE EF			db	 00h, 0Fh,0DEh, 06h,0DEh,0EFh
2926:3B90  DE EE 00 02 DE 40			db	0DEh,0EEh, 00h, 02h,0DEh, 40h
2926:3B96  DE 00 00 10 DE 4F			db	0DEh, 00h, 00h, 10h,0DEh, 4Fh
2926:3B9C  DE EE 00 02 DE 66			db	0DEh,0EEh, 00h, 02h,0DEh, 66h
2926:3BA2  DE 00 00 10 DE EE			db	0DEh, 00h, 00h, 10h,0DEh,0EEh
2926:3BA8  DE FE DE EE DE E4			db	0DEh,0FEh,0DEh,0EEh,0DEh,0E4h
           ICON.LST				Sourcer	v8.01  20-Jul-2026 12:15 am   Page 111

2926:3BAE  DE 00 00 10 DE 4F			db	0DEh, 00h, 00h, 10h,0DEh, 4Fh
2926:3BB4  DE EE DE E6 DE 66			db	0DEh,0EEh,0DEh,0E6h,0DEh, 66h
2926:3BBA  DE 00 00 10 DE 6E			db	0DEh, 00h, 00h, 10h,0DEh, 6Eh
2926:3BC0  DE FE DE EE DE E4			db	0DEh,0FEh,0DEh,0EEh,0DEh,0E4h
2926:3BC6  DE 00 00 0F DE 04			db	0DEh, 00h, 00h, 0Fh,0DEh, 04h
2926:3BCC  DE FE DE EE DE E6			db	0DEh,0FEh,0DEh,0EEh,0DEh,0E6h
2926:3BD2  DE 60 DE 00 00 10			db	0DEh, 60h,0DEh, 00h, 00h, 10h
2926:3BD8  DE 6E DE EF DE EE			db	0DEh, 6Eh,0DEh,0EFh,0DEh,0EEh
2926:3BDE  00 02 DE 40 DE 00			db	 00h, 02h,0DEh, 40h,0DEh, 00h
2926:3BE4  00 0E DE 04 DE FE			db	 00h, 0Eh,0DEh, 04h,0DEh,0FEh
2926:3BEA  DE EE DE E6 DE 60			db	0DEh,0EEh,0DEh,0E6h,0DEh, 60h
2926:3BF0  DE 00 00 10 DE 0E			db	0DEh, 00h, 00h, 10h,0DEh, 0Eh
2926:3BF6  DE EF DE EE 00 02			db	0DEh,0EFh,0DEh,0EEh, 00h, 02h
2926:3BFC  DE 40 DE 00 00 0E			db	0DEh, 40h,0DEh, 00h, 00h, 0Eh
2926:3C02  DE 4F DE EE 00 02			db	0DEh, 4Fh,0DEh,0EEh, 00h, 02h
2926:3C08  DE 66 DE 60 DE 00			db	0DEh, 66h,0DEh, 60h,0DEh, 00h
2926:3C0E  00 10 DE 06 DE EE			db	 00h, 10h,0DEh, 06h,0DEh,0EEh
2926:3C14  DE FE DE EE DE E4			db	0DEh,0FEh,0DEh,0EEh,0DEh,0E4h
2926:3C1A  DE 00 00 0E DE 4F			db	0DEh, 00h, 00h, 0Eh,0DEh, 4Fh
2926:3C20  DE EE 00 02 DE 66			db	0DEh,0EEh, 00h, 02h,0DEh, 66h
2926:3C26  DE 00 00 12 DE EE			db	0DEh, 00h, 00h, 12h,0DEh,0EEh
2926:3C2C  DE FE DE EE DE E4			db	0DEh,0FEh,0DEh,0EEh,0DEh,0E4h
2926:3C32  DE 00 00 0D DE 04			db	0DEh, 00h, 00h, 0Dh,0DEh, 04h
2926:3C38  DE FE DE EE DE E6			db	0DEh,0FEh,0DEh,0EEh,0DEh,0E6h
2926:3C3E  DE 66 DE 00 00 12			db	0DEh, 66h,0DEh, 00h, 00h, 12h
2926:3C44  DE 6E DE EF DE EE			db	0DEh, 6Eh,0DEh,0EFh,0DEh,0EEh
2926:3C4A  00 02 DE 40 DE 00			db	 00h, 02h,0DEh, 40h,0DEh, 00h
2926:3C50  00 0C DE 4F DE EE			db	 00h, 0Ch,0DEh, 4Fh,0DEh,0EEh
2926:3C56  00 02 DE E6 DE 60			db	 00h, 02h,0DEh,0E6h,0DEh, 60h
2926:3C5C  DE 00 00 12 DE 0E			db	0DEh, 00h, 00h, 12h,0DEh, 0Eh
2926:3C62  DE EE DE FE DE EE			db	0DEh,0EEh,0DEh,0FEh,0DEh,0EEh
2926:3C68  DE E4 DE 00 00 0B			db	0DEh,0E4h,0DEh, 00h, 00h, 0Bh
2926:3C6E  DE 04 DE FE DE EE			db	0DEh, 04h,0DEh,0FEh,0DEh,0EEh
2926:3C74  00 02 DE 66 DE 60			db	 00h, 02h,0DEh, 66h,0DEh, 60h
2926:3C7A  DE 00 00 12 DE 06			db	0DEh, 00h, 00h, 12h,0DEh, 06h
2926:3C80  DE EE DE EF DE EE			db	0DEh,0EEh,0DEh,0EFh,0DEh,0EEh
2926:3C86  00 02 DE 40 DE 00			db	 00h, 02h,0DEh, 40h,0DEh, 00h
2926:3C8C  00 0A DE 4F DE EE			db	 00h, 0Ah,0DEh, 4Fh,0DEh,0EEh
2926:3C92  00 03 DE 66 DE 00			db	 00h, 03h,0DEh, 66h,0DEh, 00h
2926:3C98  00 14 DE EE 00 02			db	 00h, 14h,0DEh,0EEh, 00h, 02h
2926:3C9E  DE FE DE EE DE E4			db	0DEh,0FEh,0DEh,0EEh,0DEh,0E4h
2926:3CA4  DE 00 00 09 DE 04			db	0DEh, 00h, 00h, 09h,0DEh, 04h
2926:3CAA  DE FE DE EE 00 02			db	0DEh,0FEh,0DEh,0EEh, 00h, 02h
2926:3CB0  DE E6 DE 66 DE 00			db	0DEh,0E6h,0DEh, 66h,0DEh, 00h
2926:3CB6  00 14 DE 6E DE EE			db	 00h, 14h,0DEh, 6Eh,0DEh,0EEh
2926:3CBC  DE EF DE EE 00 02			db	0DEh,0EFh,0DEh,0EEh, 00h, 02h
2926:3CC2  DE 44 DE 00 00 08			db	0DEh, 44h,0DEh, 00h, 00h, 08h
2926:3CC8  DE 4F DE EE 00 03			db	0DEh, 4Fh,0DEh,0EEh, 00h, 03h
2926:3CCE  DE E6 DE 60 DE 00			db	0DEh,0E6h,0DEh, 60h,0DEh, 00h
2926:3CD4  00 14 DE 0E DE EE			db	 00h, 14h,0DEh, 0Eh,0DEh,0EEh
2926:3CDA  00 02 DE FE DE EE			db	 00h, 02h,0DEh,0FEh,0DEh,0EEh
2926:3CE0  00 02 DE 44 DE 00			db	 00h, 02h,0DEh, 44h,0DEh, 00h
2926:3CE6  00 06 DE 44 DE FE			db	 00h, 06h,0DEh, 44h,0DEh,0FEh
2926:3CEC  DE EE 00 03 DE 66			db	0DEh,0EEh, 00h, 03h,0DEh, 66h
2926:3CF2  DE 60 DE 00 00 14			db	0DEh, 60h,0DEh, 00h, 00h, 14h
2926:3CF8  DE 06 DE EE 00 02			db	0DEh, 06h,0DEh,0EEh, 00h, 02h
2926:3CFE  DE EF DE EE 00 03			db	0DEh,0EFh,0DEh,0EEh, 00h, 03h
           ICON.LST				Sourcer	v8.01  20-Jul-2026 12:15 am   Page 112

2926:3D04  DE 44 DE 00 00 04			db	0DEh, 44h,0DEh, 00h, 00h, 04h
2926:3D0A  DE 44 DE EF DE EE			db	0DEh, 44h,0DEh,0EFh,0DEh,0EEh
2926:3D10  00 03 DE E6 DE 66			db	 00h, 03h,0DEh,0E6h,0DEh, 66h
2926:3D16  DE 00 00 0B 20 07			db	0DEh, 00h, 00h, 0Bh, 20h, 07h
2926:3D1C  00 09 DE 00 00 02			db	 00h, 09h,0DEh, 00h, 00h, 02h
2926:3D22  DE 6E DE EE 00 02			db	0DEh, 6Eh,0DEh,0EEh, 00h, 02h
2926:3D28  DE FF DE EE 00 03			db	0DEh,0FFh,0DEh,0EEh, 00h, 03h
2926:3D2E  DE 44 1F 04 00 02			db	0DEh, 44h, 1Fh, 04h, 00h, 02h
2926:3D34  DE 44 DE EE DE FE			db	0DEh, 44h,0DEh,0EEh,0DEh,0FEh
2926:3D3A  DE EE 00 03 DE 66			db	0DEh,0EEh, 00h, 03h,0DEh, 66h
2926:3D40  00 02 20 07 00 14			db	 00h, 02h, 20h, 07h, 00h, 14h
2926:3D46  DE 00 00 02 DE 06			db	0DEh, 00h, 00h, 02h,0DEh, 06h
2926:3D4C  DE EE 00 03 DE FF			db	0DEh,0EEh, 00h, 03h,0DEh,0FFh
2926:3D52  DE EE 00 03 1F 4E			db	0DEh,0EEh, 00h, 03h, 1Fh, 4Eh
2926:3D58  00 02 DE EE DE FF			db	 00h, 02h,0DEh,0EEh,0DEh,0FFh
2926:3D5E  DE EE 00 03 DE E6			db	0DEh,0EEh, 00h, 03h,0DEh,0E6h
2926:3D64  DE 66 DE 60 20 07			db	0DEh, 66h,0DEh, 60h, 20h, 07h
2926:3D6A  00 14 DE 00 00 03			db	 00h, 14h,0DEh, 00h, 00h, 03h
2926:3D70  DE 6E DE EE 00 03			db	0DEh, 6Eh,0DEh,0EEh, 00h, 03h
2926:3D76  DE FF DE EE 00 03			db	0DEh,0FFh,0DEh,0EEh, 00h, 03h
2926:3D7C  DE FF 00 02 DE EE			db	0DEh,0FFh, 00h, 02h,0DEh,0EEh
2926:3D82  00 04 DE 66 00 02			db	 00h, 04h,0DEh, 66h, 00h, 02h
2926:3D88  DE 00 20 07 00 14			db	0DEh, 00h, 20h, 07h, 00h, 14h
2926:3D8E  DE 00 00 03 DE 06			db	0DEh, 00h, 00h, 03h,0DEh, 06h
2926:3D94  DE EE 00 04 DE FF			db	0DEh,0EEh, 00h, 04h,0DEh,0FFh
2926:3D9A  00 03 DE EE 00 05			db	 00h, 03h,0DEh,0EEh, 00h, 05h
2926:3DA0  DE E6 DE 66 DE 60			db	0DEh,0E6h,0DEh, 66h,0DEh, 60h
2926:3DA6  DE 00 20 07 00 14			db	0DEh, 00h, 20h, 07h, 00h, 14h
2926:3DAC  DE 00 00 04 DE 6E			db	0DEh, 00h, 00h, 04h,0DEh, 6Eh
2926:3DB2  DE EE 00 0B DE 66			db	0DEh,0EEh, 00h, 0Bh,0DEh, 66h
2926:3DB8  00 02 DE 00 00 02			db	 00h, 02h,0DEh, 00h, 00h, 02h
2926:3DBE  20 07 00 14 DE 00			db	 20h, 07h, 00h, 14h,0DEh, 00h
2926:3DC4  00 04 DE 06 DE EE			db	 00h, 04h,0DEh, 06h,0DEh,0EEh
2926:3DCA  00 0A DE E6 DE 66			db	 00h, 0Ah,0DEh,0E6h,0DEh, 66h
2926:3DD0  DE 60 DE 00 00 05			db	0DEh, 60h,0DEh, 00h, 00h, 05h
2926:3DD6  20 07 00 08 E2 07			db	 20h, 07h, 00h, 08h,0E2h, 07h
2926:3DDC  20 07 00 07 7C 07			db	 20h, 07h, 00h, 07h, 7Ch, 07h
2926:3DE2  20					db	20h

2926:3DE3			locloop_377:
2926:3DE3  07					pop	es
2926:3DE4  27					daa				; Decimal adjust
2926:3DE5  07					pop	es
2926:3DE6  20 07				and	[bx],al
2926:3DE8  DE 00				fiadd	word ptr [bx+si]
2926:3DEA  00 02				add	[bp+si],al
2926:3DEC  DE 66 DE				fisub	word ptr [bp-22h]	; st = st - memory
2926:3DEF  EE					out	dx,al			; port 0, DMA-1 bas&add ch 0
2926:3DF0  00 09				add	[bx+di],cl
2926:3DF2  DE 66 00				fisub	word ptr [bp]		; st = st - memory
2926:3DF5  02 20				add	ah,[bx+si]
2926:3DF7  07					pop	es
2926:3DF8  25 2007				and	ax,2007h
2926:3DFB  07					pop	es
2926:3DFC  00 08				add	[bx+si],cl
2926:3DFE  3A 07				cmp	al,[bx]
2926:3E00  20 07				and	[bx],al
           ICON.LST				Sourcer	v8.01  20-Jul-2026 12:15 am   Page 113

2926:3E02  00 03				add	[bp+di],al
2926:3E04  57					push	di
2926:3E05  07					pop	es
2926:3E06  20 07				and	[bx],al
2926:3E08  00 05				add	[di],al
2926:3E0A  27					daa				; Decimal adjust
2926:3E0B  07					pop	es
2926:3E0C  20 07				and	[bx],al
2926:3E0E  7C 07				jl	loc_379			; Jump if <
2926:3E10  20 07				and	[bx],al
2926:3E12  27					daa				; Decimal adjust
2926:3E13  07					pop	es
2926:3E14  20 07				and	[bx],al
2926:3E16  DE 00				fiadd	word ptr [bx+si]
2926:3E18  00 02				add	[bp+si],al
2926:3E1A  DE 06 E61F				fiadd	word ptr ds:data_393e	; (2926:E61F=0)
2926:3E1E  DE EE				fsubp	st(6),st		; st(#)=st(#)-st, pop
2926:3E20  00 07				add	[bx],al
2926:3E22  DE 66 00				fisub	word ptr [bp]		; st = st - memory
2926:3E25  02 DE				add	bl,dh
2926:3E27  60 20 07 03 07 20			db	 60h, 20h, 07h, 03h, 07h, 20h
2926:3E2D  07 00 08 60 07 20			db	 07h, 00h, 08h, 60h, 07h, 20h
2926:3E33  07 00 03 35 07 9E			db	 07h, 00h, 03h, 35h, 07h, 9Eh
2926:3E39  07 32 07 36 07 32			db	 07h, 32h, 07h, 36h, 07h, 32h
2926:3E3F  07 9E 07 4C 07 32			db	 07h, 9Eh, 07h, 4Ch, 07h, 32h
2926:3E45  07 00 02 20 07 9E			db	 07h, 00h, 02h, 20h, 07h, 9Eh
2926:3E4B  07 48 07 DE 00 00			db	 07h, 48h, 07h,0DEh, 00h, 00h
2926:3E51  03 DE 66 1F E6 DE			db	 03h,0DEh, 66h, 1Fh,0E6h,0DEh
2926:3E57  EE 00 02 1F E6 00			db	0EEh, 00h, 02h, 1Fh,0E6h, 00h
2926:3E5D  02 DE 66 00 04 DE			db	 02h,0DEh, 66h, 00h, 04h,0DEh
2926:3E63  00 20 07 57 07 FD			db	 00h, 20h, 07h, 57h, 07h,0FDh
2926:3E69  07 36 07 9E 07 32			db	 07h, 36h, 07h, 9Eh, 07h, 32h
2926:3E6F  07 36 07 32 07 03			db	 07h, 36h, 07h, 32h, 07h, 03h
2926:3E75  07 20 07 60 07 9E			db	 07h, 20h, 07h, 60h, 07h, 9Eh
2926:3E7B  07 36 07 20 07			db	 07h, 36h, 07h, 20h, 07h
2926:3E80  5C			data_180	db	5Ch
2926:3E81  07 00 02 35 07 64			db	 07h, 00h, 02h, 35h, 07h, 64h
2926:3E87  07 35 07 48 07 27			db	 07h, 35h, 07h, 48h, 07h, 27h
2926:3E8D  07 35 07 48 07 20			db	 07h, 35h, 07h, 48h, 07h, 20h
2926:3E93  07 57 07 48 07 DE			db	 07h, 57h, 07h, 48h, 07h,0DEh
2926:3E99  00 00 03 DE 06 DE			db	 00h, 00h, 03h,0DEh, 06h,0DEh
2926:3E9F  66 00 08 DE 60 DE			db	 66h, 00h, 08h,0DEh, 60h,0DEh
2926:3EA5  00 20 07 57 07 32			db	 00h, 20h, 07h, 57h, 07h, 32h
2926:3EAB  07 27 07 5C 07 48			db	 07h, 27h, 07h, 5Ch, 07h, 48h
2926:3EB1  07 27 07 48 07 57			db	 07h, 27h, 07h, 48h, 07h, 57h
2926:3EB7  07 20 07 60 07 48			db	 07h, 20h, 07h, 60h, 07h, 48h
2926:3EBD  07 27 07 3A 07 8A			db	 07h, 27h, 07h, 3Ah, 07h, 8Ah
2926:3EC3  07 8D 07 A1 07 00			db	 07h, 8Dh, 07h,0A1h, 07h, 00h
2926:3EC9  03 89 07 82 07 A1			db	 03h, 89h, 07h, 82h, 07h,0A1h
2926:3ECF  07 82 07 20 07 A5			db	 07h, 82h, 07h, 20h, 07h,0A5h
2926:3ED5  07 64 07 DE 00 00			db	 07h, 64h, 07h,0DEh, 00h, 00h
2926:3EDB  04 DE 66 00 08 DE			db	 04h,0DEh, 66h, 00h, 08h,0DEh
2926:3EE1  00 00 02 20 07 89			db	 00h, 00h, 02h, 20h, 07h, 89h
2926:3EE7  07 A5 07 A1 07 8D			db	 07h,0A5h, 07h,0A1h, 07h, 8Dh
2926:3EED  07 A1 07 00 03 89			db	 07h,0A1h, 07h, 00h, 03h, 89h
2926:3EF3  07 20 07 69 07 89			db	 07h, 20h, 07h, 69h, 07h, 89h
2926:3EF9  07 A1 07 69 07 20			db	 07h,0A1h, 07h, 69h, 07h, 20h
           ICON.LST				Sourcer	v8.01  20-Jul-2026 12:15 am   Page 114

2926:3EFF  07 00 0B 8D 07 DE			db	 07h, 00h, 0Bh, 8Dh, 07h,0DEh
2926:3F05  00 00 05 1F 60 DE			db	 00h, 00h, 05h, 1Fh, 60h,0DEh
2926:3F0B  66 00 04 1F 60 DE			db	 66h, 00h, 04h, 1Fh, 60h,0DEh
2926:3F11  00 00 04 20 07 00			db	 00h, 00h, 04h, 20h, 07h, 00h
2926:3F17  0D 00 00 07 09 09			db	 0Dh, 00h, 00h, 07h, 09h, 09h
2926:3F1D  09 09 07 07 07 01			db	 09h, 09h, 07h, 07h, 07h, 01h
2926:3F23  01 07 07 07 07 01			db	 01h, 07h, 07h, 07h, 07h, 01h
2926:3F29  01 07 07 07 07 01			db	 01h, 07h, 07h, 07h, 07h, 01h
2926:3F2F  01 07 07 07 07 01			db	 01h, 07h, 07h, 07h, 07h, 01h
2926:3F35  01 07 07 07 07 01			db	 01h, 07h, 07h, 07h, 07h, 01h
2926:3F3B  01 07 07 07 07 01			db	 01h, 07h, 07h, 07h, 07h, 01h
2926:3F41  01 07 07 07 07 01			db	 01h, 07h, 07h, 07h, 07h, 01h
2926:3F47  01 07 07 07 07 01			db	 01h, 07h, 07h, 07h, 07h, 01h
2926:3F4D  01 07 07 07 07 01			db	 01h, 07h, 07h, 07h, 07h, 01h
2926:3F53  01 07 07 07 07 01			db	 01h, 07h, 07h, 07h, 07h, 01h
2926:3F59  01 07 07 07 07 01			db	 01h, 07h, 07h, 07h, 07h, 01h
2926:3F5F  01 07 07 07 07 01			db	 01h, 07h, 07h, 07h, 07h, 01h
2926:3F65  01 07 07 07 07 01			db	 01h, 07h, 07h, 07h, 07h, 01h
2926:3F6B  01 07 07 07 07 01			db	 01h, 07h, 07h, 07h, 07h, 01h
2926:3F71  01 07 07 07 07 01			db	 01h, 07h, 07h, 07h, 07h, 01h
2926:3F77  01 07 07 07 07 01			db	 01h, 07h, 07h, 07h, 07h, 01h
2926:3F7D  01 07 07 07 07 01			db	 01h, 07h, 07h, 07h, 07h, 01h
2926:3F83  01 07 07 07 07 01			db	 01h, 07h, 07h, 07h, 07h, 01h
2926:3F89  01 07 07 07 07 01			db	 01h, 07h, 07h, 07h, 07h, 01h
2926:3F8F  01 07 07 07 09 09			db	 01h, 07h, 07h, 07h, 09h, 09h
2926:3F95  09 09 07 10 10 10			db	 09h, 09h, 07h, 10h, 10h, 10h
2926:3F9B  20 10 10 10 10 0F			db	 20h, 10h, 10h, 10h, 10h, 0Fh
2926:3FA1  01 10 10 10 10 0F			db	 01h, 10h, 10h, 10h, 10h, 0Fh
2926:3FA7  04 10 10 10 10 10			db	 04h, 10h, 10h, 10h, 10h, 10h
2926:3FAD  0F 10 10 10 12 08			db	 0Fh, 10h, 10h, 10h, 12h, 08h
2926:3FB3  12 12 10 10 12 12			db	 12h, 12h, 10h, 10h, 12h, 12h
2926:3FB9  11 10 12 10 12 12			db	 11h, 10h, 12h, 10h, 12h, 12h
2926:3FBF  11 10 12 10 0F 00			db	 11h, 10h, 12h, 10h, 0Fh, 00h
2926:3FC5  09 10 0F 10 10 09			db	 09h, 10h, 0Fh, 10h, 10h, 09h
2926:3FCB  09 10 10 10 10 09			db	 09h, 10h, 10h, 10h, 10h, 09h
2926:3FD1  10 10 10 10 10			db	 10h, 10h, 10h, 10h, 10h
2926:3FD6  09					db	9
2926:3FD7			loc_380:
2926:3FD7  10 10				adc	[bx+si],dl
2926:3FD9  10 10				adc	[bx+si],dl
2926:3FDB  00 00				add	[bx+si],al
2926:3FDD  10 00				adc	[bx+si],al
2926:3FDF  10 DE				adc	dh,bl
2926:3FE1  02 DE				add	bl,dh
2926:3FE3  DE 2A				fisubr	word ptr [bp+si]	; st = memory - st
2926:3FE5  DE DE 09 DE DE 12			db	0DEh,0DEh, 09h,0DEh,0DEh, 12h
2926:3FEB  DE DE 1F DE 7C 12			db	0DEh,0DEh, 1Fh,0DEh, 7Ch, 12h
2926:3FF1  7C 7C 02 7C 7C 1F			db	 7Ch, 7Ch, 02h, 7Ch, 7Ch, 1Fh
2926:3FF7  7C DE DE DE DE 7C			db	 7Ch,0DEh,0DEh,0DEh,0DEh, 7Ch
2926:3FFD  DE DE 7C DE DE 7C			db	0DEh,0DEh, 7Ch,0DEh,0DEh, 7Ch
2926:4003  DE 10 10 10 20 10			db	0DEh, 10h, 10h, 10h, 20h, 10h
2926:4009  10 10 10 10 10 0F			db	 10h, 10h, 10h, 10h, 10h, 0Fh
2926:400F  01 10 10 10 18 10			db	 01h, 10h, 10h, 10h, 18h, 10h
2926:4015  10 0F 04 10 10 10			db	 10h, 0Fh, 04h, 10h, 10h, 10h
2926:401B  18 10 10 10 0F 10			db	 18h, 10h, 10h, 10h, 0Fh, 10h
2926:4021  10 10 17 10 12 08			db	 10h, 10h, 17h, 10h, 12h, 08h
2926:4027  12 10 12 10 17 10			db	 12h, 10h, 12h, 10h, 17h, 10h
           ICON.LST				Sourcer	v8.01  20-Jul-2026 12:15 am   Page 115

2926:402D  12 12 11 12 10 10			db	 12h, 12h, 11h, 12h, 10h, 10h
2926:4033  17 10 12 12 11 10			db	 17h, 10h, 12h, 12h, 11h, 10h
2926:4039  10 0F 10 10 0F 00			db	 10h, 0Fh, 10h, 10h, 0Fh, 00h
2926:403F  09 10 10 10 16 10			db	 09h, 10h, 10h, 10h, 16h, 10h
2926:4045  10 09 09 10 10 10			db	 10h, 09h, 09h, 10h, 10h, 10h
2926:404B  10 10 10 09 10 10			db	 10h, 10h, 10h, 09h, 10h, 10h
2926:4051  10 10 10 10 10 09			db	 10h, 10h, 10h, 10h, 10h, 09h
2926:4057  10 10 10 10 10 10			db	 10h, 10h, 10h, 10h, 10h, 10h
2926:405D  00					db	 00h
2926:405E			loc_381:
2926:405E  00 10				add	[bx+si],dl
2926:4060  00 10				add	[bx+si],dl
2926:4062  10 10				adc	[bx+si],dl
2926:4064  DE 02				fiadd	word ptr [bp+si]
2926:4066  DE DE DE 2A DE 27			db	0DEh,0DEh,0DEh, 2Ah,0DEh, 27h
2926:406C  DE 09 DE				db	0DEh, 09h,0DEh
2926:406F			loc_382:
2926:406F  27					daa				; Decimal adjust
2926:4070  DE 12				ficom	word ptr [bp+si]	; Compare with st
2926:4072  DE 27				fisub	word ptr [bx]		; st = st - memory
2926:4074  DE 1F				ficomp	word ptr [bx]		; Compare st & pop 1
2926:4076  E2 27				loop	locloop_385		; Loop if cx > 0

2926:4078  7C 12				jl	loc_384			; Jump if <
2926:407A  E2 27				loop	locloop_387		; Loop if cx > 0

2926:407C  7C 02				jl	loc_383			; Jump if <
2926:407E  7C DE				jl	loc_381			; Jump if <
2926:4080			loc_383:
2926:4080  7C 1F				jl	loc_386			; Jump if <
2926:4082  7C 27				jl	loc_388			; Jump if <
2926:4084  DE DE DE DE DE 7C			db	0DEh,0DEh,0DEh,0DEh,0DEh, 7Ch
2926:408A  DE DE				db	0DEh,0DEh
2926:408C			loc_384:
2926:408C  DE 7C DE				fidivr	word ptr [si-22h]	; st = memory / st
2926:408F  DE DE 7C DE DE 10			db	0DEh,0DEh, 7Ch,0DEh,0DEh, 10h
2926:4095  10 10 20 10 10 10			db	 10h, 10h, 20h, 10h, 10h, 10h
2926:409B  18 20 20 10				db	 18h, 20h, 20h, 10h

2926:409F			locloop_385:
2926:409F  10 10				adc	[bx+si],dl
2926:40A1			loc_386:
2926:40A1  18 20				sbb	[bx+si],ah

2926:40A3			locloop_387:
2926:40A3  20 10				and	[bx+si],dl
2926:40A5  10 10				adc	[bx+si],dl
2926:40A7  17					pop	ss
2926:40A8  10 0F				adc	[bx],cl
2926:40AA  10 10				adc	[bx+si],dl
2926:40AC  10 12				adc	[bp+si],dl
2926:40AE  08 0E 1012				or	byte ptr ds:[1012h],cl	; (2926:1012=6Ch)
2926:40B2  10 12				adc	[bp+si],dl
2926:40B4  08 0E 1210				or	data_121,cl		; (2926:1210=50h)
2926:40B8  10 12				adc	[bp+si],dl
2926:40BA  0E					push	cs
2926:40BB  0E					push	cs
           ICON.LST				Sourcer	v8.01  20-Jul-2026 12:15 am   Page 116

2926:40BC  10 12				adc	[bp+si],dl
2926:40BE  10 0F				adc	[bx],cl
2926:40C0  08 08				or	[bx+si],cl
2926:40C2  10 0F				adc	[bx],cl
2926:40C4  10 16 0909				adc	byte ptr ds:[909h],dl	; (2926:0909=0B8h)
2926:40C8  10 10				adc	[bx+si],dl
2926:40CA  10 10				adc	[bx+si],dl
2926:40CC  09 10				or	[bx+si],dx
2926:40CE  10 10				adc	[bx+si],dl
2926:40D0  10 10				adc	[bx+si],dl
2926:40D2  09 10				or	[bx+si],dx
2926:40D4  10 10				adc	[bx+si],dl
2926:40D6  10 00				adc	[bx+si],al
2926:40D8  00 10				add	[bx+si],dl
2926:40DA  00 10				add	[bx+si],dl
2926:40DC  DE 02				fiadd	word ptr [bp+si]
2926:40DE  DE 7C DE				fidivr	word ptr [si-22h]	; st = memory / st
2926:40E1  DE 7C DE				fidivr	word ptr [si-22h]	; st = memory / st
2926:40E4  DE 7C 12				fidivr	word ptr [si+12h]	; st = memory / st
2926:40E7  DE DE 1F DE 7C 01			db	0DEh,0DEh, 1Fh,0DEh, 7Ch, 01h
2926:40ED  7C 7C DE 7C 7C DE			db	 7Ch, 7Ch,0DEh, 7Ch, 7Ch,0DEh
2926:40F3  7C 7C DE DE DE 7C			db	 7Ch, 7Ch,0DEh,0DEh,0DEh, 7Ch
2926:40F9  DE DE 7C DE DE 7C			db	0DEh,0DEh, 7Ch,0DEh,0DEh, 7Ch
2926:40FF  DE 10 10 10 10 10			db	0DEh, 10h, 10h, 10h, 10h, 10h
2926:4105  20 10 10 10 10 10			db	 20h, 10h, 10h, 10h, 10h, 10h
2926:410B  18 0F 20 10 10 10			db	 18h, 0Fh, 20h, 10h, 10h, 10h
2926:4111  10 10 18 0F 20 10			db	 10h, 10h, 18h, 0Fh, 20h, 10h
2926:4117  10 10 10 10 17 10			db	 10h, 10h, 10h, 10h, 17h, 10h
2926:411D  0F 10 10 10 10 10			db	 0Fh, 10h, 10h, 10h, 10h, 10h
2926:4123  17 08 12 0E 10 10			db	 17h, 08h, 12h, 0Eh, 10h, 10h
2926:4129  10 10 17 12 08 0E			db	 10h, 10h, 17h, 12h, 08h, 0Eh
2926:412F  10 10 10 0F 12 12			db	 10h, 10h, 10h, 0Fh, 12h, 12h
2926:4135  08 0E 10 10 10 10			db	 08h, 0Eh, 10h, 10h, 10h, 10h
2926:413B  16					db	 16h
2926:413C  0900			data_181	dw	900h
2926:413E  08 10 10 10 10 10			db	 08h, 10h, 10h, 10h, 10h, 10h
2926:4144  09 09 10 10 10 10			db	 09h, 09h, 10h, 10h, 10h, 10h
2926:414A  10 10 09 01 10 10			db	 10h, 10h, 09h, 01h, 10h, 10h
2926:4150  10 10 10 10 09 01			db	 10h, 10h, 10h, 10h, 09h, 01h
2926:4156  10 10 10 10 10 00			db	 10h, 10h, 10h, 10h, 10h, 00h
2926:415C  00 00 10 10 DE DE			db	 00h, 00h, 10h, 10h,0DEh,0DEh
2926:4162  02 DE DE 27 DE DE			db	 02h,0DEh,0DEh, 27h,0DEh,0DEh
2926:4168  DE 27 DE				db	0DEh, 27h,0DEh
2926:416B			loc_389:
2926:416B  DE DE 27 12 DE DE			db	0DEh,0DEh, 27h, 12h,0DEh,0DEh
2926:4171  27 1F DE DE 27 48			db	 27h, 1Fh,0DEh,0DEh, 27h, 48h
2926:4177  DE DE DE 28 DE DE			db	0DEh,0DEh,0DEh, 28h,0DEh,0DEh
2926:417D  27 1F				db	 27h, 1Fh
2926:417F  0007[DE]				db	7 dup (0DEh)
2926:4186  27 DE DE DE 27 DE			db	 27h,0DEh,0DEh,0DEh, 27h,0DEh
2926:418C  DE DE DE DE 10 10			db	0DEh,0DEh,0DEh,0DEh, 10h, 10h
2926:4192  10 20 10 10 10 10			db	 10h, 20h, 10h, 10h, 10h, 10h
2926:4198  20 0F 10 18 10 10			db	 20h, 0Fh, 10h, 18h, 10h, 10h
2926:419E  20 0F 10 18 10 10			db	 20h, 0Fh, 10h, 18h, 10h, 10h
2926:41A4  10 0F 10 18 10 0E			db	 10h, 0Fh, 10h, 18h, 10h, 0Eh
2926:41AA  08 12 10 17 10 0E			db	 08h, 12h, 10h, 17h, 10h, 0Eh
2926:41B0  08 12 10 17 10 0E			db	 08h, 12h, 10h, 17h, 10h, 0Eh
           ICON.LST				Sourcer	v8.01  20-Jul-2026 12:15 am   Page 117

2926:41B6  12 08 0F 10 10 08			db	 12h, 08h, 0Fh, 10h, 10h, 08h
2926:41BC  00 09 10 16 10 10			db	 00h, 09h, 10h, 16h, 10h, 10h
2926:41C2  09 09 10 10 10 10			db	 09h, 09h, 10h, 10h, 10h, 10h
2926:41C8  09 01 10 10 10 10			db	 09h, 01h, 10h, 10h, 10h, 10h
2926:41CE  09 01 10 10 10 10			db	 09h, 01h, 10h, 10h, 10h, 10h
2926:41D4  00 00 00 10 DE 02			db	 00h, 00h, 00h, 10h,0DEh, 02h
2926:41DA  DE DE DE 27 DE DE			db	0DEh,0DEh,0DEh, 27h,0DEh,0DEh
2926:41E0  27 DE 12 27 DE 1F			db	 27h,0DEh, 12h, 27h,0DEh, 1Fh
2926:41E6  27 DE 48 27 DE 29			db	 27h,0DEh, 48h, 27h,0DEh, 29h
2926:41EC  DE DE 1F 27 DE DE			db	0DEh,0DEh, 1Fh, 27h,0DEh,0DEh
2926:41F2  DE DE 7C DE DE 7C			db	0DEh,0DEh, 7Ch,0DEh,0DEh, 7Ch
2926:41F8  DE DE DE DE 10 10			db	0DEh,0DEh,0DEh,0DEh, 10h, 10h
2926:41FE  10 20 10 10 10 10			db	 10h, 20h, 10h, 10h, 10h, 10h
2926:4204  10 10 0F 01 10 10			db	 10h, 10h, 0Fh, 01h, 10h, 10h
2926:420A  10 10 10 10 0F 04			db	 10h, 10h, 10h, 10h, 0Fh, 04h
2926:4210  10 10 10 10 10 10			db	 10h, 10h, 10h, 10h, 10h, 10h
2926:4216  10 0F 10 10 10 10			db	 10h, 0Fh, 10h, 10h, 10h, 10h
2926:421C  10 12 08 12 12 10			db	 10h, 12h, 08h, 12h, 12h, 10h
2926:4222  10 10 10 12 12 11			db	 10h, 10h, 10h, 12h, 12h, 11h
2926:4228  10 12 10 10 10 12			db	 10h, 12h, 10h, 10h, 10h, 12h
2926:422E  12 11 10 12 10 10			db	 12h, 11h, 10h, 12h, 10h, 10h
2926:4234  10 0F 00 09 16 0F			db	 10h, 0Fh, 00h, 09h, 16h, 0Fh
2926:423A  17 18 10 10 09 09			db	 17h, 18h, 10h, 10h, 09h, 09h
2926:4240  10 10 10 10 10 10			db	 10h, 10h, 10h, 10h, 10h, 10h
2926:4246  09					db	9
2926:4247  0007[10]				db	7 dup (10h)
2926:424E  09 10 10 10				db	 09h, 10h, 10h, 10h
2926:4252			loc_390:
2926:4252  10 10				adc	[bx+si],dl
2926:4254  10 00				adc	[bx+si],al
2926:4256			loc_391:
2926:4256  00 10				add	[bx+si],dl
2926:4258  00 10				add	[bx+si],dl
2926:425A  10 10				adc	[bx+si],dl
2926:425C  DE 02				fiadd	word ptr [bp+si]
2926:425E  DE DE DE				db	0DEh,0DEh,0DEh
2926:4261			loc_392:
2926:4261  2A DE				sub	bl,dh
2926:4263  DE DE 09 DE DE DE			db	0DEh,0DEh, 09h,0DEh,0DEh,0DEh
2926:4269  12 DE DE DE 1F DE			db	 12h,0DEh,0DEh,0DEh, 1Fh,0DEh
2926:426F  DE 7C 12 7C DE 7C			db	0DEh, 7Ch, 12h, 7Ch,0DEh, 7Ch
2926:4275  02 7C DE				db	 02h, 7Ch,0DEh
2926:4278			loc_393:
2926:4278  7C 1F				jl	loc_394			; Jump if <
2926:427A  0007[DE]				db	7 dup (0DEh)
2926:4281  7C DE DE DE 7C DE			db	 7Ch,0DEh,0DEh,0DEh, 7Ch,0DEh
2926:4287  DE DE 7C DE DE 10			db	0DEh,0DEh, 7Ch,0DEh,0DEh, 10h
2926:428D  10 10 20 10 10 10			db	 10h, 10h, 20h, 10h, 10h, 10h
2926:4293  10 20 20 10 10 10			db	 10h, 20h, 20h, 10h, 10h, 10h
2926:4299			loc_394:
2926:4299  10 20				adc	[bx+si],ah
2926:429B  20 10				and	[bx+si],dl
2926:429D  10 10				adc	[bx+si],dl
2926:429F  18 10				sbb	[bx+si],dl
2926:42A1  0F			;*		pop	cs			; Dangerous-8088 only
2926:42A1  0F					db	0Fh
2926:42A2  10 10				adc	[bx+si],dl
           ICON.LST				Sourcer	v8.01  20-Jul-2026 12:15 am   Page 118

2926:42A4  10 12				adc	[bp+si],dl
2926:42A6  08 0E 1012				or	byte ptr ds:[1012h],cl	; (2926:1012=6Ch)
2926:42AA  10 12				adc	[bp+si],dl
2926:42AC  08 0E 1210				or	data_121,cl		; (2926:1210=50h)
2926:42B0  10 12				adc	[bp+si],dl
2926:42B2  0E					push	cs
2926:42B3  0E					push	cs
2926:42B4  10 12				adc	[bp+si],dl
2926:42B6  10 16 0808				adc	data_88,dl		; (2926:0808=0FAh)
2926:42BA  10 0F				adc	[bx],cl
2926:42BC  10 10				adc	[bx+si],dl
2926:42BE  09 09				or	[bx+di],cx
2926:42C0  10 10				adc	[bx+si],dl
2926:42C2  10 10				adc	[bx+si],dl
2926:42C4  09 10				or	[bx+si],dx
2926:42C6  10 10				adc	[bx+si],dl
2926:42C8  10 10				adc	[bx+si],dl
2926:42CA  09 10				or	[bx+si],dx
2926:42CC  10 10				adc	[bx+si],dl
2926:42CE  10 00				adc	[bx+si],al
2926:42D0  00 10				add	[bx+si],dl
2926:42D2  00 10				add	[bx+si],dl
2926:42D4  DE 02				fiadd	word ptr [bp+si]
2926:42D6  0007[DE]				db	7 dup (0DEh)
2926:42DD  7C 12 DE DE 1F DE			db	 7Ch, 12h,0DEh,0DEh, 1Fh,0DEh
2926:42E3  7C 01 7C 7C DE 7C			db	 7Ch, 01h, 7Ch, 7Ch,0DEh, 7Ch
2926:42E9  7C DE 7C DE DE DE			db	 7Ch,0DEh, 7Ch,0DEh,0DEh,0DEh
2926:42EF  DE					db	0DEh
2926:42F0  7C					db	7Ch
2926:42F1			loc_395:
2926:42F1  DE DE 7C DE DE 7C			db	0DEh,0DEh, 7Ch,0DEh,0DEh, 7Ch
2926:42F7  DE 10 10 10 10 10			db	0DEh, 10h, 10h, 10h, 10h, 10h
2926:42FD  20 10 10 10 10 10			db	 20h, 10h, 10h, 10h, 10h, 10h
2926:4303  10 0F 20 10 10 10			db	 10h, 0Fh, 20h, 10h, 10h, 10h
2926:4309  10 10 10 0F 20 10			db	 10h, 10h, 10h, 0Fh, 20h, 10h
2926:430F  10 10 10 10 10 10			db	 10h, 10h, 10h, 10h, 10h, 10h
2926:4315  0F 10 10 10 10 10			db	 0Fh, 10h, 10h, 10h, 10h, 10h
2926:431B  10 08 12 0E 10 10			db	 10h, 08h, 12h, 0Eh, 10h, 10h
2926:4321  10 10 10 12 08 0E			db	 10h, 10h, 10h, 12h, 08h, 0Eh
2926:4327  10 18 17 0F 12 12			db	 10h, 18h, 17h, 0Fh, 12h, 12h
2926:432D  08 0E 10 10 10 10			db	 08h, 0Eh, 10h, 10h, 10h, 10h
2926:4333  10 00 09 08 10 10			db	 10h, 00h, 09h, 08h, 10h, 10h
2926:4339  10 10 10 09 09 10			db	 10h, 10h, 10h, 09h, 09h, 10h
2926:433F  10 10 10 10 10 09			db	 10h, 10h, 10h, 10h, 10h, 09h
2926:4345  01 10 10 10 10 10			db	 01h, 10h, 10h, 10h, 10h, 10h
2926:434B  10 09 01 10 10 10			db	 10h, 09h, 01h, 10h, 10h, 10h
2926:4351  10 10 00 00 00 10			db	 10h, 10h, 00h, 00h, 00h, 10h
2926:4357  10 DE DE 02				db	 10h,0DEh,0DEh, 02h
2926:435B  000B[DE]				db	11 dup (0DEh)
2926:4366  12 DE DE DE 1F DE			db	 12h,0DEh,0DEh,0DEh, 1Fh,0DEh
2926:436C  DE DE 48 DE DE DE			db	0DEh,0DEh, 48h,0DEh,0DEh,0DEh
2926:4372  28 DE DE DE 1F			db	 28h,0DEh,0DEh,0DEh, 1Fh
2926:4377  0007[DE]				db	7 dup (0DEh)
2926:437E  27 DE DE DE 27 DE			db	 27h,0DEh,0DEh,0DEh, 27h,0DEh
2926:4384  DE DE DE DE 10 10			db	0DEh,0DEh,0DEh,0DEh, 10h, 10h
2926:438A  10 20 10 10 10 10			db	 10h, 20h, 10h, 10h, 10h, 10h
2926:4390  10 10 20 0F 10 10			db	 10h, 10h, 20h, 0Fh, 10h, 10h
           ICON.LST				Sourcer	v8.01  20-Jul-2026 12:15 am   Page 119

2926:4396  10 10 10 10 20 0F			db	 10h, 10h, 10h, 10h, 20h, 0Fh
2926:439C  0007[10]				db	7 dup (10h)
2926:43A3  0F 10 10 10 10 10			db	 0Fh, 10h, 10h, 10h, 10h, 10h
2926:43A9  0E 08 12 10 10 10			db	 0Eh, 08h, 12h, 10h, 10h, 10h
2926:43AF  10 10 0E 08 12 10			db	 10h, 10h, 0Eh, 08h, 12h, 10h
2926:43B5  10 10 10 10 0E 12			db	 10h, 10h, 10h, 10h, 0Eh, 12h
2926:43BB  08 0F 17 18 10 10			db	 08h, 0Fh, 17h, 18h, 10h, 10h
2926:43C1  08 00 09 10 10 10			db	 08h, 00h, 09h, 10h, 10h, 10h
2926:43C7  10 10 10 09 09 10			db	 10h, 10h, 10h, 09h, 09h, 10h
2926:43CD  10 10 10 10 10 09			db	 10h, 10h, 10h, 10h, 10h, 09h
2926:43D3  01 10 10 10 10 10			db	 01h, 10h, 10h, 10h, 10h, 10h
2926:43D9  10 09 01 10 10 10			db	 10h, 09h, 01h, 10h, 10h, 10h
2926:43DF  10 10 10 00 00 00			db	 10h, 10h, 10h, 00h, 00h, 00h
2926:43E5  10 10 10 DE 02			db	 10h, 10h, 10h,0DEh, 02h
2926:43EA  000B[DE]				db	11 dup (0DEh)
2926:43F5  12 DE DE DE 1F DE			db	 12h,0DEh,0DEh,0DEh, 1Fh,0DEh
2926:43FB  DE DE 48 DE DE DE			db	0DEh,0DEh, 48h,0DEh,0DEh,0DEh
2926:4401  29 DE DE DE 1F			db	 29h,0DEh,0DEh,0DEh, 1Fh
2926:4406  0007[DE]				db	7 dup (0DEh)
2926:440D  7C DE DE DE 7C DE			db	 7Ch,0DEh,0DEh,0DEh, 7Ch,0DEh
2926:4413  DE DE DE DE DE 10			db	0DEh,0DEh,0DEh,0DEh,0DEh, 10h
2926:4419  10 10 0E 10 10 10			db	 10h, 10h, 0Eh, 10h, 10h, 10h
2926:441F  10 0E 08 10 10 10			db	 10h, 0Eh, 08h, 10h, 10h, 10h
2926:4425  10 0E 08 10 10 10			db	 10h, 0Eh, 08h, 10h, 10h, 10h
2926:442B  10 10 0E 10 10 10			db	 10h, 10h, 0Eh, 10h, 10h, 10h
2926:4431  0E 0E 10 0E 10 10			db	 0Eh, 0Eh, 10h, 0Eh, 10h, 10h
2926:4437  0E 0E 00 10 0E 10			db	 0Eh, 0Eh, 00h, 10h, 0Eh, 10h
2926:443D  0E 10 00 10 0E 10			db	 0Eh, 10h, 00h, 10h, 0Eh, 10h
2926:4443  0E 10 0E 10 0E 10			db	 0Eh, 10h, 0Eh, 10h, 0Eh, 10h
2926:4449  10 0E 10 10 10 10			db	 10h, 0Eh, 10h, 10h, 10h, 10h
2926:444F  10 10 0E 10 10 10			db	 10h, 10h, 0Eh, 10h, 10h, 10h
2926:4455  10 10 0E 10 10 10			db	 10h, 10h, 0Eh, 10h, 10h, 10h
2926:445B  0E 0E 10 0E 10 DE			db	 0Eh, 0Eh, 10h, 0Eh, 10h,0DEh
2926:4461  02 DE DE 2A DE DE			db	 02h,0DEh,0DEh, 2Ah,0DEh,0DEh
2926:4467  09 DE DE 7C DE DE			db	 09h,0DEh,0DEh, 7Ch,0DEh,0DEh
2926:446D  1F DE 7C 12 7C 7C			db	 1Fh,0DEh, 7Ch, 12h, 7Ch, 7Ch
2926:4473  02 7C 7C 02 7C DE			db	 02h, 7Ch, 7Ch, 02h, 7Ch,0DEh
2926:4479  13 DE DE 13 DE DE			db	 13h,0DEh,0DEh, 13h,0DEh,0DEh
2926:447F  13 DE DE 7C DE 10			db	 13h,0DEh,0DEh, 7Ch,0DEh, 10h
2926:4485  10 00 10 10 10 10			db	 10h, 00h, 10h, 10h, 10h, 10h
2926:448B  00 00 04 10 10 00			db	 00h, 00h, 04h, 10h, 10h, 00h
2926:4491  10 00 00 10 00 10			db	 10h, 00h, 00h, 10h, 00h, 10h
2926:4497  10 00 10 00 10 DE			db	 10h, 00h, 10h, 00h, 10h,0DEh
2926:449D  01 DE 02 2A DE 2A			db	 01h,0DEh, 02h, 2Ah,0DEh, 2Ah
2926:44A3  DE 02 DE 12 2A 10			db	0DEh, 02h,0DEh, 12h, 2Ah, 10h
2926:44A9  10 00 10 10 10 10			db	 10h, 00h, 10h, 10h, 10h, 10h
2926:44AF  10 00 0C 10 00 10			db	 10h, 00h, 0Ch, 10h, 00h, 10h
2926:44B5  00 00 00 00 10 00			db	 00h, 00h, 00h, 00h, 10h, 00h
2926:44BB  10 00 10 10 10 DE			db	 10h, 00h, 10h, 10h, 10h,0DEh
2926:44C1  01 DE DE 2A 02 02			db	 01h,0DEh,0DEh, 2Ah, 02h, 02h
2926:44C7  DE 2A 2A 12 DE 10			db	0DEh, 2Ah, 2Ah, 12h,0DEh, 10h
2926:44CD  04 10 10 10 08 10			db	 04h, 10h, 10h, 10h, 08h, 10h
2926:44D3  10 08 10 00 10 3A			db	 10h, 08h, 10h, 00h, 10h, 3Ah
2926:44D9  DE 02 DE 1F 01 10			db	0DEh, 02h,0DEh, 1Fh, 01h, 10h
2926:44DF  10 10 04 10 10 10			db	 10h, 10h, 04h, 10h, 10h, 10h
2926:44E5  08 00 10 08 10 DE			db	 08h, 00h, 10h, 08h, 10h,0DEh
2926:44EB  1A DE 02 01				db	 1Ah,0DEh, 02h, 01h
           ICON.LST				Sourcer	v8.01  20-Jul-2026 12:15 am   Page 120

2926:44EF			loc_398:
2926:44EF  1F					pop	ds
2926:44F0  10 0F				adc	[bx],cl
2926:44F2  0F			;*		pop	cs			; Dangerous-8088 only
2926:44F2  0F					db	0Fh
2926:44F3  0F			;*		pop	cs			; Dangerous-8088 only
2926:44F3  0F					db	0Fh
2926:44F4  10 0F				adc	[bx],cl
2926:44F6  10 0F				adc	[bx],cl
2926:44F8  02 DE				add	bl,dh
2926:44FA  7C 12				jl	loc_399			; Jump if <
2926:44FC  10 05				adc	[di],al
2926:44FE  05 1004				add	ax,1004h
2926:4501  00 10				add	[bx+si],dl
2926:4503  00 02				add	[bp+si],al
2926:4505  B0 12				mov	al,12h
2926:4507  12 10				adc	dl,[bx+si]
2926:4509  0D 040D				or	ax,40Dh
2926:450C  10 01				adc	[bx+di],al
2926:450E			loc_399:
2926:450E  10 01				adc	[bx+di],al
2926:4510  02 B0 1212				add	dh,data_122[bx+si]	; (2926:1212=53h)
2926:4514  10 10				adc	[bx+si],dl
2926:4516  10 02				adc	[bp+si],al
2926:4518  10 10				adc	[bx+si],dl
2926:451A  10 04				adc	[si],al
2926:451C  02 09				add	cl,[bx+di]
2926:451E  02 10				add	dl,[bx+si]
2926:4520  10 10				adc	[bx+si],dl
2926:4522  10 10				adc	[bx+si],dl
2926:4524  10 02				adc	[bp+si],al
2926:4526  10 10				adc	[bx+si],dl
2926:4528  10 10				adc	[bx+si],dl
2926:452A  02 10				add	dl,[bx+si]
2926:452C  10 10				adc	[bx+si],dl
2926:452E  10 02				adc	[bp+si],al
2926:4530  10 10				adc	[bx+si],dl
2926:4532  10 10				adc	[bx+si],dl
2926:4534  10 02				adc	[bp+si],al
2926:4536  10 10				adc	[bx+si],dl
2926:4538  10 10				adc	[bx+si],dl
2926:453A  10 02				adc	[bp+si],al
2926:453C  10 10				adc	[bx+si],dl
2926:453E  10 10				adc	[bx+si],dl
2926:4540  10 02				adc	[bp+si],al
2926:4542  10 10				adc	[bx+si],dl
2926:4544  10 10				adc	[bx+si],dl
2926:4546  10 10				adc	[bx+si],dl
2926:4548  02 10				add	dl,[bx+si]
2926:454A  DE A3 1FDE				fisub	word ptr [bp+di+1FDEh]	; st = st - memory
2926:454E  6A DE DE DE 7C DE			db	 6Ah,0DEh,0DEh,0DEh, 7Ch,0DEh
2926:4554  DE DE DE DE DE DE			db	0DEh,0DEh,0DEh,0DEh,0DEh,0DEh
2926:455A  7C DE DE 7C DE DE			db	 7Ch,0DEh,0DEh, 7Ch,0DEh,0DEh
2926:4560  DE DE DE DE DE 10			db	0DEh,0DEh,0DEh,0DEh,0DEh, 10h
2926:4566  10 10 02 10 10 10			db	 10h, 10h, 02h, 10h, 10h, 10h
2926:456C  10 02 09 02 10 10			db	 10h, 02h, 09h, 02h, 10h, 10h
2926:4572  10 10 10 10 02 10			db	 10h, 10h, 10h, 10h, 02h, 10h
           ICON.LST				Sourcer	v8.01  20-Jul-2026 12:15 am   Page 121

2926:4578  10 10 10 10 02 10			db	 10h, 10h, 10h, 10h, 02h, 10h
2926:457E  10 10 10 02 10 10			db	 10h, 10h, 10h, 02h, 10h, 10h
2926:4584  10 10 02 10 10 10			db	 10h, 10h, 02h, 10h, 10h, 10h
2926:458A  10 10 02 10 10 10			db	 10h, 10h, 02h, 10h, 10h, 10h
2926:4590  10 10 02 02 10 DE			db	 10h, 10h, 02h, 02h, 10h,0DEh
2926:4596  A3 DE DE 6A DE DE			db	0A3h,0DEh,0DEh, 6Ah,0DEh,0DEh
2926:459C  DE 7C DE DE 7C DE			db	0DEh, 7Ch,0DEh,0DEh, 7Ch,0DEh
2926:45A2  DE DE DE DE DE DE			db	0DEh,0DEh,0DEh,0DEh,0DEh,0DEh
2926:45A8  7C DE DE DE DE 10			db	 7Ch,0DEh,0DEh,0DEh,0DEh, 10h
2926:45AE  10 10 02 10 10 10			db	 10h, 10h, 02h, 10h, 10h, 10h
2926:45B4  02 02 09 10 04 10			db	 02h, 02h, 09h, 10h, 04h, 10h
2926:45BA  02 10 10 10 10 10			db	 02h, 10h, 10h, 10h, 10h, 10h
2926:45C0  02 10 10 10 10 10			db	 02h, 10h, 10h, 10h, 10h, 10h
2926:45C6  10 02 10				db	 10h, 02h, 10h
2926:45C9			loc_400:
2926:45C9  10 10				adc	[bx+si],dl
2926:45CB  10 10				adc	[bx+si],dl
2926:45CD  10 02				adc	[bp+si],al
2926:45CF  10 10				adc	[bx+si],dl
2926:45D1  10 10				adc	[bx+si],dl
2926:45D3			loc_401:
2926:45D3  10 02				adc	[bp+si],al
2926:45D5  10 10				adc	[bx+si],dl
2926:45D7  10 10				adc	[bx+si],dl
2926:45D9  02 10				add	dl,[bx+si]
2926:45DB  10 10				adc	[bx+si],dl
2926:45DD  10 02				adc	[bp+si],al
2926:45DF  10 10				adc	[bx+si],dl
2926:45E1  10 10				adc	[bx+si],dl
2926:45E3  DE A4 DEDE				fisub	word ptr ds:data_392e[si]	; (2926:DEDE=0) st = st - memory
2926:45E7  69 A4 7C DE				db	 69h,0A4h, 7Ch,0DEh
2926:45EB  0008[DE]				db	8 dup (0DEh)
2926:45F3  7C DE DE 7C DE DE			db	 7Ch,0DEh,0DEh, 7Ch,0DEh,0DEh
2926:45F9  DE DE DE DE DE 10			db	0DEh,0DEh,0DEh,0DEh,0DEh, 10h
2926:45FF  10 10 02 10 10 10			db	 10h, 10h, 02h, 10h, 10h, 10h
2926:4605  02 02 09 10 10 10			db	 02h, 02h, 09h, 10h, 10h, 10h
2926:460B  02 10 10 10 10 10			db	 02h, 10h, 10h, 10h, 10h, 10h
2926:4611  02 10 10				db	 02h, 10h, 10h
2926:4614			loc_402:
2926:4614  10 10				adc	[bx+si],dl
2926:4616  10 02				adc	[bp+si],al
2926:4618  10 10				adc	[bx+si],dl
2926:461A  10 10				adc	[bx+si],dl
2926:461C  10 10				adc	[bx+si],dl
2926:461E  02 10				add	dl,[bx+si]
2926:4620  10 10				adc	[bx+si],dl
2926:4622  10 10				adc	[bx+si],dl
2926:4624  10 02				adc	[bp+si],al
2926:4626  10 10				adc	[bx+si],dl
2926:4628  10 02				adc	[bp+si],al
2926:462A  02 10				add	dl,[bx+si]
2926:462C  10 10				adc	[bx+si],dl
2926:462E  DE A4 DEDE				fisub	word ptr ds:data_392e[si]	; (2926:DEDE=0) st = st - memory
2926:4632			loc_404:
2926:4632  69 DE 7C DE DE 7C			db	 69h,0DEh, 7Ch,0DEh,0DEh, 7Ch
2926:4638  DE					db	0DEh
2926:4639  0008[DE]				db	8 dup (0DEh)
           ICON.LST				Sourcer	v8.01  20-Jul-2026 12:15 am   Page 122

2926:4641  7C DE DE DE DE 06			db	 7Ch,0DEh,0DEh,0DEh,0DEh, 06h
2926:4647  0E 08 06 35 A5 10			db	 0Eh, 08h, 06h, 35h,0A5h, 10h
2926:464D  15 15 15 10 15 7C			db	 15h, 15h, 15h, 10h, 15h, 7Ch
2926:4653  DE 7C 10 10 10 00			db	0DEh, 7Ch, 10h, 10h, 10h, 00h
2926:4659  10 10 10 00 00 0B			db	 10h, 10h, 10h, 00h, 00h, 0Bh
2926:465F  0B 0B 10 10 10 00			db	 0Bh, 0Bh, 10h, 10h, 10h, 00h
2926:4665  10					db	 10h
2926:4666			loc_405:
2926:4666  10 DE				adc	dh,bl
2926:4668  60 DE DE DE DE DE			db	 60h,0DEh,0DEh,0DEh,0DEh,0DEh
2926:466E  60 DE 10 10 10 00			db	 60h,0DEh, 10h, 10h, 10h, 00h
2926:4674  10 10 10 00 00 19			db	 10h, 10h, 10h, 00h, 00h, 19h
2926:467A  19 19 10 10 10 00			db	 19h, 19h, 10h, 10h, 10h, 00h
2926:4680  10 10 DE 60 DE DE			db	 10h, 10h,0DEh, 60h,0DEh,0DEh
2926:4686  DE DE DE 60 DE 10			db	0DEh,0DEh,0DEh, 60h,0DEh, 10h
2926:468C  10 10 00 10 10 10			db	 10h, 10h, 00h, 10h, 10h, 10h
2926:4692  10 10 00 00 0B 10			db	 10h, 10h, 00h, 00h, 0Bh, 10h
2926:4698  0B 0B 10 10 10 10			db	 0Bh, 0Bh, 10h, 10h, 10h, 10h
2926:469E  00 10 10 10 10 DE			db	 00h, 10h, 10h, 10h, 10h,0DEh
2926:46A4  60 DE DE DE DE 35			db	 60h,0DEh,0DEh,0DEh,0DEh, 35h
2926:46AA  35 DE 60 DE DE 10			db	 35h,0DEh, 60h,0DEh,0DEh, 10h
2926:46B0  14 10 14 10 14 10			db	 14h, 10h, 14h, 10h, 14h, 10h
2926:46B6  14 7C 7C 7C 7C 10			db	 14h, 7Ch, 7Ch, 7Ch, 7Ch, 10h
2926:46BC  13 10 13 10 13 10			db	 13h, 10h, 13h, 10h, 13h, 10h
2926:46C2  13 7C 7C 7C 7C 07			db	 13h, 7Ch, 7Ch, 7Ch, 7Ch, 07h
2926:46C8  0B 0B 07 0B				db	 0Bh, 0Bh, 07h, 0Bh
2926:46CC			loc_406:
2926:46CC  07					pop	es
2926:46CD  0B 07				or	ax,[bx]
2926:46CF  01 7C 7C				add	[si+7Ch],di
2926:46D2  01 12				add	[bp+si],dx
2926:46D4  0B 0B				or	cx,[bp+di]
2926:46D6  12 0B				adc	cl,[bp+di]
2926:46D8  12 0B				adc	cl,[bp+di]
2926:46DA  0F			;*		pop	cs			; Dangerous-8088 only
2926:46DA  0F					db	0Fh
2926:46DB  DE 7C 7C				fidivr	word ptr [si+7Ch]	; st = memory / st
2926:46DE  7C 10				jl	loc_407			; Jump if <
2926:46E0  0B 0B				or	cx,[bp+di]
2926:46E2  07					pop	es
2926:46E3  0B 10				or	dx,[bx+si]
2926:46E5  10 10				adc	[bx+si],dl
2926:46E7  0B 0B				or	cx,[bp+di]
2926:46E9  10 10				adc	[bx+si],dl
2926:46EB  10 10				adc	[bx+si],dl
2926:46ED  0B 0B				or	cx,[bp+di]
2926:46EF  10 10				adc	[bx+si],dl
2926:46F1  10 10				adc	[bx+si],dl
2926:46F3  0B 0B				or	cx,[bp+di]
2926:46F5  10 10				adc	[bx+si],dl
2926:46F7  DE 7C DE				fidivr	word ptr [si-22h]	; st = memory / st
2926:46FA  0009[DE]				db	9 dup (0DEh)
2926:4703  10 0B 0B 1D 0B 1D			db	 10h, 0Bh, 0Bh, 1Dh, 0Bh, 1Dh
2926:4709  0B 1D 02 09 7C 7C			db	 0Bh, 1Dh, 02h, 09h, 7Ch, 7Ch
2926:470F  10 1A 1B 1C 14 10			db	 10h, 1Ah, 1Bh, 1Ch, 14h, 10h
2926:4715  02 7C 01 10 10 04			db	 02h, 7Ch, 01h, 10h, 10h, 04h
2926:471B  0C 10 10 0E 06 0C			db	 0Ch, 10h, 10h, 0Eh, 06h, 0Ch
           ICON.LST				Sourcer	v8.01  20-Jul-2026 12:15 am   Page 123

2926:4721  04 06 0C 04 04 06			db	 04h, 06h, 0Ch, 04h, 04h, 06h
2926:4727  04 10 10 06 0C 0E			db	 04h, 10h, 10h, 06h, 0Ch, 0Eh
2926:472D  0C 06 04 04 0E 0F			db	 0Ch, 06h, 04h, 04h, 0Eh, 0Fh
2926:4733  0E					db	 0Eh
2926:4734  0C 0C				db	 0Ch, 0Ch
2926:4736			loc_408:
2926:4736  10 10				adc	[bx+si],dl
2926:4738  0E					push	cs
2926:4739  0C 04				or	al,4
2926:473B  04 06				add	al,6
2926:473D  0E					push	cs
2926:473E  0C 04				or	al,4
2926:4740  10 10				adc	[bx+si],dl
2926:4742  10 10				adc	[bx+si],dl
2926:4744  0C 06				or	al,6
2926:4746  0E					push	cs
2926:4747  04 04				add	al,4
2926:4749  0C 06				or	al,6
2926:474B  04 10				add	al,10h
2926:474D  10 10				adc	[bx+si],dl
2926:474F  1A 1C				sbb	bl,[si]
2926:4751  1B 10				sbb	dx,[bx+si]
2926:4753  1A 7C 7C				sbb	bh,[si+7Ch]
2926:4756  7C 0B				jl	loc_410			; Jump if <
2926:4758  09 10				or	[bx+si],dx
2926:475A  10 09				adc	[bx+di],cl
2926:475C  09 09				or	[bx+di],cx
2926:475E  07					pop	es
2926:475F  07					pop	es
2926:4760  09 0B				or	[bp+di],cx
2926:4762  09 10				or	[bx+si],dx
2926:4764  10 0F				adc	[bx],cl
2926:4766  07					pop	es
2926:4767  10 10				adc	[bx+si],dl
2926:4769  10 10				adc	[bx+si],dl
2926:476B  0B 0F				or	cx,[bx]
2926:476D  07					pop	es
2926:476E  0B 09				or	cx,[bx+di]
2926:4770  0B 0F				or	cx,[bx]
2926:4772  0B 10				or	dx,[bx+si]
2926:4774  10 10				adc	[bx+si],dl
2926:4776  10 0B				adc	[bp+di],cl
2926:4778  0F			;*		pop	cs			; Dangerous-8088 only
2926:4778  0F					db	0Fh
2926:4779  0B 09				or	cx,[bx+di]
2926:477B  0B 07				or	ax,[bx]
2926:477D  07					pop	es
2926:477E  09 10				or	[bx+si],dx
2926:4780  10 10				adc	[bx+si],dl
2926:4782  10 07				adc	[bx],al
2926:4784  09 0B				or	[bp+di],cx
2926:4786  0B 09				or	cx,[bx+di]
2926:4788  07					pop	es
2926:4789  0B 07				or	ax,[bx]
2926:478B			loc_411:
2926:478B  0007[10]				db	7 dup (10h)
2926:4792  04 10 10 10 10 0F			db	 04h, 10h, 10h, 10h, 10h, 0Fh
           ICON.LST				Sourcer	v8.01  20-Jul-2026 12:15 am   Page 124

2926:4798  04 10 0B 0B 10 0F			db	 04h, 10h, 0Bh, 0Bh, 10h, 0Fh
2926:479E  04 10 04 0B 10 10			db	 04h, 10h, 04h, 0Bh, 10h, 10h
2926:47A4  0F 10 10 10 00 10			db	 0Fh, 10h, 10h, 10h, 00h, 10h
2926:47AA  08 10 10 0F 0F 0F			db	 08h, 10h, 10h, 0Fh, 0Fh, 0Fh
2926:47B0  08 10 10 10 00 08			db	 08h, 10h, 10h, 10h, 00h, 08h
2926:47B6  0E 10 10 10 10 0E			db	 0Eh, 10h, 10h, 10h, 10h, 0Eh
2926:47BC  06 10 10 10 10 0E			db	 06h, 10h, 10h, 10h, 10h, 0Eh
2926:47C2  06 10 10 10 00 00			db	 06h, 10h, 10h, 10h, 00h, 00h
2926:47C8  00 DE DE 02				db	 00h,0DEh,0DEh, 02h
2926:47CC  0008[DE]				db	8 dup (0DEh)
2926:47D4  12 DE 27 02 DE DE			db	 12h,0DEh, 27h, 02h,0DEh,0DEh
2926:47DA  DE DE 27 1F DE DE			db	0DEh,0DEh, 27h, 1Fh,0DEh,0DEh
2926:47E0  7C DE DE 7C DE DE			db	 7Ch,0DEh,0DEh, 7Ch,0DEh,0DEh
2926:47E6  DE 10 04 10 10 10			db	0DEh, 10h, 04h, 10h, 10h, 10h
2926:47EC  10 04 0F 10 10 10			db	 10h, 04h, 0Fh, 10h, 10h, 10h
2926:47F2  10 04 0F 0B 0B 10			db	 10h, 04h, 0Fh, 0Bh, 0Bh, 10h
2926:47F8  10 10 0F 04 0B 10			db	 10h, 10h, 0Fh, 04h, 0Bh, 10h
2926:47FE  10 10 08 10 00 10			db	 10h, 10h, 08h, 10h, 00h, 10h
2926:4804  10 08 08 0F 10 10			db	 10h, 08h, 08h, 0Fh, 10h, 10h
2926:480A  10 08 0E 10 00 10			db	 10h, 08h, 0Eh, 10h, 00h, 10h
2926:4810  10 0E 06 10 10 10			db	 10h, 0Eh, 06h, 10h, 10h, 10h
2926:4816  10 0E 06 10 10 10			db	 10h, 0Eh, 06h, 10h, 10h, 10h
2926:481C  10 00 00 00 10 10			db	 10h, 00h, 00h, 00h, 10h, 10h
2926:4822  10 02 DE				db	 10h, 02h,0DEh
2926:4825  0007[DE]				db	7 dup (0DEh)
2926:482C  12 35 DE 02 27 DE			db	 12h, 35h,0DEh, 02h, 27h,0DEh
2926:4832  DE DE DE 1F 27 DE			db	0DEh,0DEh,0DEh, 1Fh, 27h,0DEh
2926:4838  7C DE DE 7C DE DE			db	 7Ch,0DEh,0DEh, 7Ch,0DEh,0DEh
2926:483E  DE DE DE 10 10 10			db	0DEh,0DEh,0DEh, 10h, 10h, 10h
2926:4844  0F 10 10 10 10 0F			db	 0Fh, 10h, 10h, 10h, 10h, 0Fh
2926:484A  04 10 10 10 10 0F			db	 04h, 10h, 10h, 10h, 10h, 0Fh
2926:4850  0F 10 10 07 0F 0F			db	 0Fh, 10h, 10h, 07h, 0Fh, 0Fh
2926:4856  0F 07 0F 0F 07 0F			db	 0Fh, 07h, 0Fh, 0Fh, 07h, 0Fh
2926:485C  0F 0F 07 0F 07 0F			db	 0Fh, 0Fh, 07h, 0Fh, 07h, 0Fh
2926:4862  0F 0F 07 07 0F 0F			db	 0Fh, 0Fh, 07h, 07h, 0Fh, 0Fh
2926:4868  0F 07 0F 10 10 0F			db	 0Fh, 07h, 0Fh, 10h, 10h, 0Fh
2926:486E  07 10 10 10 10 0F			db	 07h, 10h, 10h, 10h, 10h, 0Fh
2926:4874  07 10 10 10 10 0F			db	 07h, 10h, 10h, 10h, 10h, 0Fh
2926:487A  07 10 10 10 10 07			db	 07h, 10h, 10h, 10h, 10h, 07h
2926:4880  0F 10 10 DE 02 DE			db	 0Fh, 10h, 10h,0DEh, 02h,0DEh
2926:4886  DE 2A DE DE DE DE			db	0DEh, 2Ah,0DEh,0DEh,0DEh,0DEh
2926:488C  B0 DE B0 B0 DE B0			db	0B0h,0DEh,0B0h,0B0h,0DEh,0B0h
2926:4892  B0 DE B0 B0 DE B0			db	0B0h,0DEh,0B0h,0B0h,0DEh,0B0h
2926:4898  DE B0 DE DE B0 DE			db	0DEh,0B0h,0DEh,0DEh,0B0h,0DEh
2926:489E  DE B0 DE DE B0 DE			db	0DEh,0B0h,0DEh,0DEh,0B0h,0DEh
2926:48A4  10 10 02 10 10 10			db	 10h, 10h, 02h, 10h, 10h, 10h
2926:48AA  10 10 02 0F 10 10			db	 10h, 10h, 02h, 0Fh, 10h, 10h
2926:48B0  10 10 02 0F 10 10			db	 10h, 10h, 02h, 0Fh, 10h, 10h
2926:48B6  10 10 10 02 10 10			db	 10h, 10h, 10h, 02h, 10h, 10h
2926:48BC  10 0E 0E 02 0E 10			db	 10h, 0Eh, 0Eh, 02h, 0Eh, 10h
2926:48C2  0E 10 0E 0E 10 0E			db	 0Eh, 10h, 0Eh, 0Eh, 10h, 0Eh
2926:48C8  10 02 0E 0E 10 02			db	 10h, 02h, 0Eh, 0Eh, 10h, 02h
2926:48CE  10 02 0E 04 02 10			db	 10h, 02h, 0Eh, 04h, 02h, 10h
2926:48D4  10 10 04 04 10 02			db	 10h, 10h, 04h, 04h, 10h, 02h
2926:48DA  10 10 04 10 10 02			db	 10h, 10h, 04h, 10h, 10h, 02h
2926:48E0  10 10 04 10 10 02			db	 10h, 10h, 04h, 10h, 10h, 02h
2926:48E6  10 02 02 10 02 10			db	 10h, 02h, 02h, 10h, 02h, 10h
           ICON.LST				Sourcer	v8.01  20-Jul-2026 12:15 am   Page 125

2926:48EC  DE 01 DE DE 2A DE			db	0DEh, 01h,0DEh,0DEh, 2Ah,0DEh
2926:48F2  DE 09 DE DE 12 DE			db	0DEh, 09h,0DEh,0DEh, 12h,0DEh
2926:48F8  DE 7C DE 48 DE 48			db	0DEh, 7Ch,0DEh, 48h,0DEh, 48h
2926:48FE  13 DE 13 48 1F 48			db	 13h,0DEh, 13h, 48h, 1Fh, 48h
2926:4904  DE DE 5C DE 7C 29			db	0DEh,0DEh, 5Ch,0DEh, 7Ch, 29h
2926:490A  DE 7C 82 DE 7C DE			db	0DEh, 7Ch, 82h,0DEh, 7Ch,0DEh
2926:4910  10 10 02 10 10 10			db	 10h, 10h, 02h, 10h, 10h, 10h
2926:4916  10 10 02 0F 10 10			db	 10h, 10h, 02h, 0Fh, 10h, 10h
2926:491C  10 10 02 0F 10 10			db	 10h, 10h, 02h, 0Fh, 10h, 10h
2926:4922  10 10 10 02 10 10			db	 10h, 10h, 10h, 02h, 10h, 10h
2926:4928  10 0E 0E 02 0E 10			db	 10h, 0Eh, 0Eh, 02h, 0Eh, 10h
2926:492E  10 0E 0E 0E 0E			db	 10h, 0Eh, 0Eh, 0Eh, 0Eh
2926:4933			loc_412:
2926:4933  10 02				adc	[bp+si],al
2926:4935  10 0E 100E				adc	byte ptr ds:[100Eh],cl	; (2926:100E=0)
2926:4939  02 10				add	dl,[bx+si]
2926:493B  02 0E 1004				add	cl,data_109		; (2926:1004=0EBh)
2926:493F  02 10				add	dl,[bx+si]
2926:4941  10 04				adc	[si],al
2926:4943  04 10				add	al,10h
2926:4945  10 10				adc	[bx+si],dl
2926:4947  10 04				adc	[si],al
2926:4949  10 10				adc	[bx+si],dl
2926:494B  02 10				add	dl,[bx+si]
2926:494D  10 04				adc	[si],al
2926:494F  10 10				adc	[bx+si],dl
2926:4951  02 10				add	dl,[bx+si]
2926:4953  02 02				add	al,[bp+si]
2926:4955  10 02				adc	[bp+si],al
2926:4957  10 DE				adc	dh,bl
2926:4959  01 DE				add	si,bx
2926:495B  DE 2A				fisubr	word ptr [bp+si]	; st = memory - st
2926:495D  DE DE 09 DE DE 12			db	0DEh,0DEh, 09h,0DEh,0DEh, 12h
2926:4963  DE DE 7C DE DE DE			db	0DEh,0DEh, 7Ch,0DEh,0DEh,0DEh
2926:4969  DE 48 DE 48 13 1F			db	0DEh, 48h,0DEh, 48h, 13h, 1Fh
2926:496F  13 DE DE DE DE 7C			db	 13h,0DEh,0DEh,0DEh,0DEh, 7Ch
2926:4975  5C DE 7C 29 DE 7C			db	 5Ch,0DEh, 7Ch, 29h,0DEh, 7Ch
2926:497B  DE 02 10				db	0DEh, 02h, 10h
2926:497E  000C[10]				db	12 dup (10h)
2926:498A  04 02				db	4, 2
2926:498C  000D[10]				db	13 dup (10h)
2926:4999  04 02 0E 10 02 10			db	 04h, 02h, 0Eh, 10h, 02h, 10h
2926:499F  02					db	 02h
2926:49A0  0007[10]				db	7 dup (10h)
2926:49A7  04 04 02 00 02 00			db	 04h, 04h, 02h, 00h, 02h, 00h
2926:49AD  02 10 02 10 02 10			db	 02h, 10h, 02h, 10h, 02h, 10h
2926:49B3  10 00 02 00 02 00			db	 10h, 00h, 02h, 00h, 02h, 00h
2926:49B9  02 00 02 00 02 00			db	 02h, 00h, 02h, 00h, 02h, 00h
2926:49BF  02 10 02 DE				db	 02h, 10h, 02h,0DEh
2926:49C3  000E[DE]				db	14 dup (0DEh)
2926:49D1  7C 03 03 DE DE			db	 7Ch, 03h, 03h,0DEh,0DEh
2926:49D6			loc_413:
2926:49D6  DE 1F				ficomp	word ptr [bx]		; Compare st & pop 1
2926:49D8  DE B1 03B1				fidiv	word ptr ds:[3B1h][bx+di]	; (2926:03B1=0C4F2h) st = st / memory
2926:49DC  03 DE				add	bx,si
2926:49DE  B1 B1				mov	cl,0B1h
2926:49E0  B1 B1				mov	cl,0B1h
           ICON.LST				Sourcer	v8.01  20-Jul-2026 12:15 am   Page 126

2926:49E2  B1 B1				mov	cl,0B1h
2926:49E4  03 10				add	dx,[bx+si]
2926:49E6  001C[10]				db	28 dup (10h)
2926:4A02  02 02 0E 10 02 10			db	 02h, 02h, 0Eh, 10h, 02h, 10h
2926:4A08  02 10 10 10 10 10			db	 02h, 10h, 10h, 10h, 10h, 10h
2926:4A0E  10 02 04 02 0E 00			db	 10h, 02h, 04h, 02h, 0Eh, 00h
2926:4A14  02 00 02 10 02 10			db	 02h, 00h, 02h, 10h, 02h, 10h
2926:4A1A  02 10 10 00 02 00			db	 02h, 10h, 10h, 00h, 02h, 00h
2926:4A20  02 00 02 00 02 00			db	 02h, 00h, 02h, 00h, 02h, 00h
2926:4A26  02 00 02 10 02			db	 02h, 00h, 02h, 10h, 02h
2926:4A2B  000E[DE]				db	14 dup (0DEh)
2926:4A39  1F 3A 03 03 DE DE			db	 1Fh, 3Ah, 03h, 03h,0DEh,0DEh
2926:4A3F  DE 1F 69 B1 B1 03			db	0DEh, 1Fh, 69h,0B1h,0B1h, 03h
2926:4A45  03 DE B1 B1 B1 B1			db	 03h,0DEh,0B1h,0B1h,0B1h,0B1h
2926:4A4B  B1 B1 03				db	0B1h,0B1h, 03h
2926:4A4E  000D[10]				db	13 dup (10h)
2926:4A5B  02 10				db	 02h, 10h
2926:4A5D  000B[10]				db	11 dup (10h)
2926:4A68  02 04				db	2, 4
2926:4A6A  0007[10]				db	7 dup (10h)
2926:4A71  02 10 02 02 0E 04			db	 02h, 10h, 02h, 02h, 0Eh, 04h
2926:4A77  10 10 10 10 02 10			db	 10h, 10h, 10h, 10h, 02h, 10h
2926:4A7D  02 00 02 00 02 02			db	 02h, 00h, 02h, 00h, 02h, 02h
2926:4A83  04 10 02 10				db	 04h, 10h, 02h, 10h
2926:4A87			loc_414:
2926:4A87  02 00				add	al,[bx+si]
2926:4A89  02 00				add	al,[bx+si]
2926:4A8B  02 00				add	al,[bx+si]
2926:4A8D  02 00				add	al,[bx+si]
2926:4A8F  02 00				add	al,[bx+si]
2926:4A91  02 00				add	al,[bx+si]
2926:4A93  02 DE				add	bl,dh
2926:4A95  0010[DE]				db	16 dup (0DEh)
2926:4AA5  03 03 7C DE DE 03			db	 03h, 03h, 7Ch,0DEh,0DEh, 03h
2926:4AAB  03 B1 B1 DE 1F 03			db	 03h,0B1h,0B1h,0DEh, 1Fh, 03h
2926:4AB1  B1 B1 B1 B1 B1 B1			db	0B1h,0B1h,0B1h,0B1h,0B1h,0B1h
2926:4AB7  10					db	 10h
2926:4AB8  0022[10]				db	34 dup (10h)
2926:4ADA  02 10 02 02 0E 10			db	 02h, 10h, 02h, 02h, 0Eh, 10h
2926:4AE0  02 10 10 10 02 10			db	 02h, 10h, 10h, 10h, 02h, 10h
2926:4AE6  02 00 02 00 02 02			db	 02h, 00h, 02h, 00h, 02h, 02h
2926:4AEC  0E 02 04 10 02 00			db	 0Eh, 02h, 04h, 10h, 02h, 00h
2926:4AF2  02 00 02 00 02 00			db	 02h, 00h, 02h, 00h, 02h, 00h
2926:4AF8  02 00 02 00 02			db	 02h, 00h, 02h, 00h, 02h
2926:4AFD  0011[DE]				db	17 dup (0DEh)
2926:4B0E  03 03 3A 1F DE 03			db	 03h, 03h, 3Ah, 1Fh,0DEh, 03h
2926:4B14  03 B1 B1 69 1F 03			db	 03h,0B1h,0B1h, 69h, 1Fh, 03h
2926:4B1A  B1 B1 B1 B1 B1 B1			db	0B1h,0B1h,0B1h,0B1h,0B1h,0B1h
2926:4B20  10					db	 10h
2926:4B21  000D[10]				db	13 dup (10h)
2926:4B2E  00 10 00 00 10 10			db	 00h, 10h, 00h, 00h, 10h, 10h
2926:4B34  10 10 00 10 10 10			db	 10h, 10h, 00h, 10h, 10h, 10h
2926:4B3A  10 00 00 00 10 10			db	 10h, 00h, 00h, 00h, 10h, 10h
2926:4B40  10 00 00 00				db	 10h, 00h, 00h, 00h
2926:4B44  0007[DE]				db	7 dup (0DEh)
2926:4B4B  10 DE				db	 10h,0DEh
2926:4B4D  0009[DE]				db	9 dup (0DEh)
           ICON.LST				Sourcer	v8.01  20-Jul-2026 12:15 am   Page 127

2926:4B56  0B 10 10 00 10 00			db	 0Bh, 10h, 10h, 00h, 10h, 00h
2926:4B5C  10 00 0B 27 27 27			db	 10h, 00h, 0Bh, 27h, 27h, 27h
2926:4B62  10 10 10 10 10 20			db	 10h, 10h, 10h, 10h, 10h, 20h
2926:4B68  10 10 10 10 10 10			db	 10h, 10h, 10h, 10h, 10h, 10h
2926:4B6E  0F 20 10 10 10 10			db	 0Fh, 20h, 10h, 10h, 10h, 10h
2926:4B74  10 10 0F 20 10 10			db	 10h, 10h, 0Fh, 20h, 10h, 10h
2926:4B7A  10 10 0B 10 10 0F			db	 10h, 10h, 0Bh, 10h, 10h, 0Fh
2926:4B80  10 10 10 10 10 00			db	 10h, 10h, 10h, 10h, 10h, 00h
2926:4B86  08 12 0E 10 10 10			db	 08h, 12h, 0Eh, 10h, 10h, 10h
2926:4B8C  10 00 12 08 0E 10			db	 10h, 00h, 12h, 08h, 0Eh, 10h
2926:4B92  10 10 0F 12 12 08			db	 10h, 10h, 0Fh, 12h, 12h, 08h
2926:4B98  0E 10 10 10 10 00			db	 0Eh, 10h, 10h, 10h, 10h, 00h
2926:4B9E  00 09 08 10 10 10			db	 00h, 09h, 08h, 10h, 10h, 10h
2926:4BA4  10 10 09 09 10 10			db	 10h, 10h, 09h, 09h, 10h, 10h
2926:4BAA  10 10 10 10 09 01			db	 10h, 10h, 10h, 10h, 09h, 01h
2926:4BB0  10 10 10 10 10 10			db	 10h, 10h, 10h, 10h, 10h, 10h
2926:4BB6  09 01 10 10 10 10			db	 09h, 01h, 10h, 10h, 10h, 10h
2926:4BBC  10 00 00 00 10 10			db	 10h, 00h, 00h, 00h, 10h, 10h
2926:4BC2  DE DE 02				db	0DEh,0DEh, 02h
2926:4BC5  000A[DE]				db	10 dup (0DEh)
2926:4BCF  0B 12 DE DE 27 1F			db	 0Bh, 12h,0DEh,0DEh, 27h, 1Fh
2926:4BD5  DE DE 27 48 DE DE			db	0DEh,0DEh, 27h, 48h,0DEh,0DEh
2926:4BDB  DE 28 DE DE 27 1F			db	0DEh, 28h,0DEh,0DEh, 27h, 1Fh
2926:4BE1  0007[DE]				db	7 dup (0DEh)
2926:4BE8  27 DE DE DE 27 DE			db	 27h,0DEh,0DEh,0DEh, 27h,0DEh
2926:4BEE  DE DE DE DE 10 10			db	0DEh,0DEh,0DEh,0DEh, 10h, 10h
2926:4BF4  10 10 10 20 10 10			db	 10h, 10h, 10h, 20h, 10h, 10h
2926:4BFA  10 10 10 10 0F 20			db	 10h, 10h, 10h, 10h, 0Fh, 20h
2926:4C00  10 10 10 10 10 10			db	 10h, 10h, 10h, 10h, 10h, 10h
2926:4C06  0F 20 10 10 10 10			db	 0Fh, 20h, 10h, 10h, 10h, 10h
2926:4C0C  10 10 10 0F 10 10			db	 10h, 10h, 10h, 0Fh, 10h, 10h
2926:4C12  10 10 10 10 08 12			db	 10h, 10h, 10h, 10h, 08h, 12h
2926:4C18  0E 10 10 0B 10 10			db	 0Eh, 10h, 10h, 0Bh, 10h, 10h
2926:4C1E  12 08 0E 10 0B 00			db	 12h, 08h, 0Eh, 10h, 0Bh, 00h
2926:4C24  0F 12 12 08 0E 10			db	 0Fh, 12h, 12h, 08h, 0Eh, 10h
2926:4C2A  10 10 10 10 00 09			db	 10h, 10h, 10h, 10h, 00h, 09h
2926:4C30  08 10 10 10 10 10			db	 08h, 10h, 10h, 10h, 10h, 10h
2926:4C36  09 09 10 10 10 10			db	 09h, 09h, 10h, 10h, 10h, 10h
2926:4C3C  10 10 09 01 10 10			db	 10h, 10h, 09h, 01h, 10h, 10h
2926:4C42  10 10				db	 10h, 10h
2926:4C44  10			data_214	db	10h
2926:4C45  10 09 01 10 10 10			db	 10h, 09h, 01h, 10h, 10h, 10h
2926:4C4B  10 10 00 00 00 10			db	 10h, 10h, 00h, 00h, 00h, 10h
2926:4C51  10 DE DE 02				db	 10h,0DEh,0DEh, 02h
2926:4C55  000B[DE]				db	11 dup (0DEh)
2926:4C60  12 DE DE DE 1F DE			db	 12h,0DEh,0DEh,0DEh, 1Fh,0DEh
2926:4C66  27 DE 48 DE DE DE			db	 27h,0DEh, 48h,0DEh,0DEh,0DEh
2926:4C6C  28 DE DE 27 1F			db	 28h,0DEh,0DEh, 27h, 1Fh
2926:4C71  0007[DE]				db	7 dup (0DEh)
2926:4C78  27 DE DE DE 27 DE			db	 27h,0DEh,0DEh,0DEh, 27h,0DEh
2926:4C7E  DE DE DE DE 10 10			db	0DEh,0DEh,0DEh,0DEh, 10h, 10h
2926:4C84  10 10 00 1B 1D 1A			db	 10h, 10h, 00h, 1Bh, 1Dh, 1Ah
2926:4C8A  00 1D 10 10 1D 1A			db	 00h, 1Dh, 10h, 10h, 1Dh, 1Ah
2926:4C90  1B 1D 00 17 05 17			db	 1Bh, 1Dh, 00h, 17h, 05h, 17h
2926:4C96  1A 1B 10 10 DE DE			db	 1Ah, 1Bh, 10h, 10h,0DEh,0DEh
2926:4C9C  7C DE DE DE DE DE			db	 7Ch,0DEh,0DEh,0DEh,0DEh,0DEh
2926:4CA2  DE 7C 27 DE 10 10			db	0DEh, 7Ch, 27h,0DEh, 10h, 10h
           ICON.LST				Sourcer	v8.01  20-Jul-2026 12:15 am   Page 128

2926:4CA8  16 1A 00 18 10 10			db	 16h, 1Ah, 00h, 18h, 10h, 10h
2926:4CAE  1A 01 00 1C 00 1C			db	 1Ah, 01h, 00h, 1Ch, 00h, 1Ch
2926:4CB4  00 16 1A 16 10 10			db	 00h, 16h, 1Ah, 16h, 10h, 10h
2926:4CBA  DE DE 7C DE DE 7C			db	0DEh,0DEh, 7Ch,0DEh,0DEh, 7Ch
2926:4CC0  27 DE DE DE 10 10			db	 27h,0DEh,0DEh,0DEh, 10h, 10h
2926:4CC6  1E 1B 00 1B 10 10			db	 1Eh, 1Bh, 00h, 1Bh, 10h, 10h
2926:4CCC  1A 1E 1B 1E 00 02			db	 1Ah, 1Eh, 1Bh, 1Eh, 00h, 02h
2926:4CD2  1E 16 1A 16 10 10			db	 1Eh, 16h, 1Ah, 16h, 10h, 10h
2926:4CD8  DE DE 7C DE DE 7C			db	0DEh,0DEh, 7Ch,0DEh,0DEh, 7Ch
2926:4CDE  27 DE DE DE 10 10			db	 27h,0DEh,0DEh,0DEh, 10h, 10h
2926:4CE4  04 1C 00 18 10 10			db	 04h, 1Ch, 00h, 18h, 10h, 10h
2926:4CEA  1C 1E 00 1E 00 1C			db	 1Ch, 1Eh, 00h, 1Eh, 00h, 1Ch
2926:4CF0  00 18 18 1C 10 10			db	 00h, 18h, 18h, 1Ch, 10h, 10h
2926:4CF6  DE DE 7C DE DE 7C			db	0DEh,0DEh, 7Ch,0DEh,0DEh, 7Ch
2926:4CFC  27 DE DE DE 10 10			db	 27h,0DEh,0DEh,0DEh, 10h, 10h
2926:4D02  16 1D 00 16 10 10			db	 16h, 1Dh, 00h, 16h, 10h, 10h
2926:4D08  16 1D 1E 09 00 1C			db	 16h, 1Dh, 1Eh, 09h, 00h, 1Ch
2926:4D0E  00 1D 16 1D 10 10			db	 00h, 1Dh, 16h, 1Dh, 10h, 10h
2926:4D14  DE DE 7C DE DE 7C			db	0DEh,0DEh, 7Ch,0DEh,0DEh, 7Ch
2926:4D1A  27 DE DE DE 00			db	 27h,0DEh,0DEh,0DEh, 00h
2926:4D1F  0017[00]				db	23 dup (0)
2926:4D36  000C[DE]				db	12 dup (0DEh)
2926:4D42  10 10 10 08 10 10			db	 10h, 10h, 10h, 08h, 10h, 10h
2926:4D48  10 10 10 10 08 00			db	 10h, 10h, 10h, 10h, 08h, 00h
2926:4D4E  10 10 10 08 10 10			db	 10h, 10h, 10h, 08h, 10h, 10h
2926:4D54  08 00 10 10 10 08			db	 08h, 00h, 10h, 10h, 10h, 08h
2926:4D5A  10 10 08 00 10 10			db	 10h, 10h, 08h, 00h, 10h, 10h
2926:4D60  10 08 10 04 04 04			db	 10h, 08h, 10h, 04h, 04h, 04h
2926:4D66  10 04 10 08 07 00			db	 10h, 04h, 10h, 08h, 07h, 00h
2926:4D6C  04 04 04 10 10 08			db	 04h, 04h, 04h, 10h, 10h, 08h
2926:4D72  00 07 04 04 10 10			db	 00h, 07h, 04h, 04h, 10h, 10h
2926:4D78  0F 10 00 07 00 08			db	 0Fh, 10h, 00h, 07h, 00h, 08h
2926:4D7E  10 10 10 00 00 07			db	 10h, 10h, 10h, 00h, 00h, 07h
2926:4D84  08 08 10 10 10 10			db	 08h, 08h, 10h, 10h, 10h, 10h
2926:4D8A  10 10 08 10 10 10			db	 10h, 10h, 08h, 10h, 10h, 10h
2926:4D90  10 10 10 10 08 10			db	 10h, 10h, 10h, 10h, 08h, 10h
2926:4D96  10 10 10 10				db	 10h, 10h, 10h, 10h
2926:4D9A			loc_415:
2926:4D9A  10 00				adc	[bx+si],al
2926:4D9C  00 10				add	[bx+si],dl
2926:4D9E  00 10				add	[bx+si],dl
2926:4DA0  10 10				adc	[bx+si],dl
2926:4DA2  DE 02				fiadd	word ptr [bp+si]
2926:4DA4  DE DE DE 09 DE 27			db	0DEh,0DEh,0DEh, 09h,0DEh, 27h
2926:4DAA  DE 7C DE 27 DE 7C			db	0DEh, 7Ch,0DEh, 27h,0DEh, 7Ch
2926:4DB0  DE 27 DE DE F0 27			db	0DEh, 27h,0DEh,0DEh,0F0h, 27h
2926:4DB6  01 DE F0 27 7C DE			db	 01h,0DEh,0F0h, 27h, 7Ch,0DEh
2926:4DBC  DE DE 7C 1F DE 27			db	0DEh,0DEh, 7Ch, 1Fh,0DEh, 27h
2926:4DC2  01 DE DE DE DE 7C			db	 01h,0DEh,0DEh,0DEh,0DEh, 7Ch
2926:4DC8  DE DE DE 7C DE DE			db	0DEh,0DEh,0DEh, 7Ch,0DEh,0DEh
2926:4DCE  DE 7C DE DE 10 10			db	0DEh, 7Ch,0DEh,0DEh, 10h, 10h
2926:4DD4  10 0E 10 10 10 0E			db	 10h, 0Eh, 10h, 10h, 10h, 0Eh
2926:4DDA  0F 01 0E 10 10 0E			db	 0Fh, 01h, 0Eh, 10h, 10h, 0Eh
2926:4DE0  0F 04 0E 10 10 0E			db	 0Fh, 04h, 0Eh, 10h, 10h, 0Eh
2926:4DE6  10 0F 0E 10 10 01			db	 10h, 0Fh, 0Eh, 10h, 10h, 01h
2926:4DEC  01 01 01 10 10 01			db	 01h, 01h, 01h, 10h, 10h, 01h
2926:4DF2  01 01 10 01 10 0F			db	 01h, 01h, 10h, 01h, 10h, 0Fh
           ICON.LST				Sourcer	v8.01  20-Jul-2026 12:15 am   Page 129

2926:4DF8  08 01 10 0F 10 0F			db	 08h, 01h, 10h, 0Fh, 10h, 0Fh
2926:4DFE  10 01 10 0F 10 10			db	 10h, 01h, 10h, 0Fh, 10h, 10h
2926:4E04  01 01 10 10 10 10			db	 01h, 01h, 10h, 10h, 10h, 10h
2926:4E0A  10 0F 10 10 10 10			db	 10h, 0Fh, 10h, 10h, 10h, 10h
2926:4E10  10 0F 10 10 10 10			db	 10h, 0Fh, 10h, 10h, 10h, 10h
2926:4E16  0F					db	 0Fh
2926:4E17			loc_416:
2926:4E17  10 10				adc	[bx+si],dl
2926:4E19  10 DE				adc	dh,bl
2926:4E1B  02 DE				add	bl,dh
2926:4E1D  0B 2A				or	bp,[bp+si]
2926:4E1F  0B 0B				or	cx,[bp+di]
2926:4E21  09 0B				or	[bp+di],cx
2926:4E23  0B 12				or	dx,[bp+si]
2926:4E25  0B DE				or	bx,si
2926:4E27  DE DE 7C DE 7C 7C			db	0DEh,0DEh, 7Ch,0DEh, 7Ch, 7Ch
2926:4E2D  1F 7C 7C 02 7C DE			db	 1Fh, 7Ch, 7Ch, 02h, 7Ch,0DEh
2926:4E33  DE DE DE 13 DE DE			db	0DEh,0DEh,0DEh, 13h,0DEh,0DEh
2926:4E39  13 DE DE 7C DE 09			db	 13h,0DEh,0DEh, 7Ch,0DEh, 09h
2926:4E3F  01 09 01 09 01 10			db	 01h, 09h, 01h, 09h, 01h, 10h
2926:4E45  1E 1E 10 10 1E 10			db	 1Eh, 1Eh, 10h, 10h, 1Eh, 10h
2926:4E4B  1E 10 1E 10 1E 10			db	 1Eh, 10h, 1Eh, 10h, 1Eh, 10h
2926:4E51  1E 10 1E 10 1E 10			db	 1Eh, 10h, 1Eh, 10h, 1Eh, 10h
2926:4E57  1E 10 1E 10 1E 10			db	 1Eh, 10h, 1Eh, 10h, 1Eh, 10h
2926:4E5D  1E 10 1E 1E 10 10			db	 1Eh, 10h, 1Eh, 1Eh, 10h, 10h
2926:4E63  1E 10 A4 60 2F 7C			db	 1Eh, 10h,0A4h, 60h, 2Fh, 7Ch
2926:4E69  7C DE 60 7C 5C 60			db	 7Ch,0DEh, 60h, 7Ch, 5Ch, 60h
2926:4E6F  60 27 7C A4 0B 1E			db	 60h, 27h, 7Ch,0A4h, 0Bh, 1Eh
2926:4E75  1E 10 1E 1E 10 1E			db	 1Eh, 10h, 1Eh, 1Eh, 10h, 1Eh
2926:4E7B  1E 10 10 1E 10 10			db	 1Eh, 10h, 10h, 1Eh, 10h, 10h
2926:4E81  10 10 1E 10 1E 10			db	 10h, 10h, 1Eh, 10h, 1Eh, 10h
2926:4E87  1E 10 1E 10 10 DE			db	 1Eh, 10h, 1Eh, 10h, 10h,0DEh
2926:4E8D  A4 10 DE DE 10 DE			db	0A4h, 10h,0DEh,0DEh, 10h,0DEh
2926:4E93  DE 29 35 0B DE 1E			db	0DEh, 29h, 35h, 0Bh,0DEh, 1Eh
2926:4E99  10 10 10 10 1E 10			db	 10h, 10h, 10h, 10h, 1Eh, 10h
2926:4E9F  10 10 1E 10 10 10			db	 10h, 10h, 1Eh, 10h, 10h, 10h
2926:4EA5  1E 10 10 10				db	 1Eh, 10h, 10h, 10h
2926:4EA9			loc_417:
2926:4EA9  1E					push	ds
2926:4EAA  10 10				adc	[bx+si],dl
2926:4EAC			loc_418:
2926:4EAC  10 1E 1010				adc	byte ptr ds:[1010h],bl	; (2926:1010=0E8h)
2926:4EB0  10 1E 1010				adc	byte ptr ds:[1010h],bl	; (2926:1010=0E8h)
2926:4EB4  10 1E 1E10				adc	byte ptr ds:[1E10h],bl	; (2926:1E10=30h)
2926:4EB8  10 DE				adc	dh,bl
2926:4EBA  2F					das				; Decimal adjust
2926:4EBB  DE 7C DE				fidivr	word ptr [si-22h]	; st = memory / st
2926:4EBE  2F					das				; Decimal adjust
2926:4EBF  DE 7C DE				fidivr	word ptr [si-22h]	; st = memory / st
2926:4EC2  2F					das				; Decimal adjust
2926:4EC3  DE 7C DE				fidivr	word ptr [si-22h]	; st = memory / st
2926:4EC6  35 1E62				xor	ax,1E62h
2926:4EC9  10 10				adc	[bx+si],dl
2926:4ECB  10 1E 1010				adc	byte ptr ds:[1010h],bl	; (2926:1010=0E8h)
2926:4ECF  1E					push	ds
2926:4ED0  10 10				adc	[bx+si],dl
2926:4ED2  1E					push	ds
           ICON.LST				Sourcer	v8.01  20-Jul-2026 12:15 am   Page 130

2926:4ED3  10 10				adc	[bx+si],dl
2926:4ED5  10 10				adc	[bx+si],dl
2926:4ED7  1E					push	ds
2926:4ED8  10 10				adc	[bx+si],dl
2926:4EDA  1E					push	ds
2926:4EDB  10 10				adc	[bx+si],dl
2926:4EDD  1E					push	ds
2926:4EDE  10 10				adc	[bx+si],dl
2926:4EE0  10 1E 1010				adc	byte ptr ds:[1010h],bl	; (2926:1010=0E8h)
2926:4EE4  0B DE				or	bx,si
2926:4EE6			loc_419:
2926:4EE6  10 A4 A4DE				adc	ds:data_380e[si],ah	; (2926:A4DE=0)
2926:4EEA  DE 7C DE				fidivr	word ptr [si-22h]	; st = memory / st
2926:4EED  DE 2F				fisubr	word ptr [bx]		; st = memory - st
2926:4EEF  DE 7C DE				fidivr	word ptr [si-22h]	; st = memory / st
2926:4EF2  1E					push	ds
2926:4EF3  1E					push	ds
2926:4EF4			loc_420:
2926:4EF4  10 1E 101E				adc	byte ptr data_114,bl	; (2926:101E=57h)
2926:4EF8  1E					push	ds
2926:4EF9  1E					push	ds
2926:4EFA  10 10				adc	[bx+si],dl
2926:4EFC  1E					push	ds
2926:4EFD  10 10				adc	[bx+si],dl
2926:4EFF  1E					push	ds
2926:4F00  10 1E 1E10				adc	byte ptr ds:[1E10h],bl	; (2926:1E10=30h)
2926:4F04  10 1E 1E10				adc	byte ptr ds:[1E10h],bl	; (2926:1E10=30h)
2926:4F08  10 1E 071E				adc	byte ptr ds:[71Eh],bl	; (2926:071E=6)
2926:4F0C  10 10				adc	[bx+si],dl
2926:4F0E  DE A4 DE10				fisub	word ptr ds:data_389e[si]	; (2926:DE10=0) st = st - memory
2926:4F12  DE 10				ficom	word ptr [bx+si]	; Compare with st
2926:4F14  7C DE				jl	loc_420			; Jump if <
2926:4F16  7C DE		;*		jl	loc_421			;*Jump if <
2926:4F16  7C DE				db	 7Ch,0DEh
2926:4F18  7C 7C				jl	loc_424			; Jump if <
2926:4F1A  DE DE 1E 1E 10 1E			db	0DEh,0DEh, 1Eh, 1Eh, 10h, 1Eh
2926:4F20  1E 10 1E 1E 10 10			db	 1Eh, 10h, 1Eh, 1Eh, 10h, 10h
2926:4F26  1E 10 10 1E 10 1E			db	 1Eh, 10h, 10h, 1Eh, 10h, 1Eh
2926:4F2C  1E 10 10 1E 10 1E			db	 1Eh, 10h, 10h, 1Eh, 10h, 1Eh
2926:4F32  1E 10 10 1E 10 10			db	 1Eh, 10h, 10h, 1Eh, 10h, 10h
2926:4F38  DE A4 10 DE DE 10			db	0DEh,0A4h, 10h,0DEh,0DEh, 10h
2926:4F3E  60 2F 48 7C 27 DE			db	 60h, 2Fh, 48h, 7Ch, 27h,0DEh
2926:4F44  27 DE 10 1F 10 1F			db	 27h,0DEh, 10h, 1Fh, 10h, 1Fh
2926:4F4A  10 1F 32 48 69 10			db	 10h, 1Fh, 32h, 48h, 69h, 10h
2926:4F50  04 10 10 04 0F 10			db	 04h, 10h, 10h, 04h, 0Fh, 10h
2926:4F56  10 04 0F 10 10 10			db	 10h, 04h, 0Fh, 10h, 10h, 10h
2926:4F5C  0F 10 1F 10 08 10			db	 0Fh, 10h, 1Fh, 10h, 08h, 10h
2926:4F62  1F 08 0F 0F 1F			db	 1Fh, 08h, 0Fh, 0Fh, 1Fh
2926:4F67			loc_422:
2926:4F67  08 0E 1010				or	byte ptr ds:[1010h],cl	; (2926:1010=0E8h)
2926:4F6B  0E					push	cs
2926:4F6C  06					push	es
2926:4F6D  10 10				adc	[bx+si],dl
2926:4F6F  0E					push	cs
2926:4F70  06					push	es
2926:4F71  10 10				adc	[bx+si],dl
2926:4F73  00 00				add	[bx+si],al
           ICON.LST				Sourcer	v8.01  20-Jul-2026 12:15 am   Page 131

2926:4F75  00 10				add	[bx+si],dl
2926:4F77  02 DE				add	bl,dh
2926:4F79  DE DE DE DE 12 32			db	0DEh,0DEh,0DEh,0DEh, 12h, 32h
2926:4F7F  02 48 DE 69 1F DE			db	 02h, 48h,0DEh, 69h, 1Fh,0DEh
2926:4F85  7C DE 7C DE DE DE			db	 7Ch,0DEh, 7Ch,0DEh,0DEh,0DEh
2926:4F8B  10 10 10 04 10 10			db	 10h, 10h, 10h, 04h, 10h, 10h
2926:4F91  0F 04 10 10 0F			db	 0Fh, 04h, 10h, 10h, 0Fh
2926:4F96			loc_424:
2926:4F96  04 10				add	al,10h
2926:4F98  10 10				adc	[bx+si],dl
2926:4F9A  0F			;*		pop	cs			; Dangerous-8088 only
2926:4F9A  0F					db	0Fh
2926:4F9B  10 10				adc	[bx+si],dl
2926:4F9D  10 08				adc	[bx+si],cl
2926:4F9F  10 0F				adc	[bx],cl
2926:4FA1  0F			;*		pop	cs			; Dangerous-8088 only
2926:4FA1  0F					db	0Fh
2926:4FA2  08 10				or	[bx+si],dl
2926:4FA4  10 08				adc	[bx+si],cl
2926:4FA6  0E					push	cs
2926:4FA7  10 10				adc	[bx+si],dl
2926:4FA9  0E					push	cs
2926:4FAA  06					push	es
2926:4FAB  10 10				adc	[bx+si],dl
2926:4FAD  0E					push	cs
2926:4FAE  06					push	es
2926:4FAF  10 00				adc	[bx+si],al
2926:4FB1  00 00				add	[bx+si],al
2926:4FB3  DE 02				fiadd	word ptr [bp+si]
2926:4FB5  DE DE DE DE DE 12			db	0DEh,0DEh,0DEh,0DEh,0DEh, 12h
2926:4FBB  DE 02 DE DE DE 1F			db	0DEh, 02h,0DEh,0DEh,0DEh, 1Fh
2926:4FC1  DE 27 DE 27 DE DE			db	0DEh, 27h,0DEh, 27h,0DEh,0DEh
2926:4FC7  10 10 10 0E 10 10			db	 10h, 10h, 10h, 0Eh, 10h, 10h
2926:4FCD  10 0E 0F 01 0E 10			db	 10h, 0Eh, 0Fh, 01h, 0Eh, 10h
2926:4FD3  10 0E 0F 0F 0E 10			db	 10h, 0Eh, 0Fh, 0Fh, 0Eh, 10h
2926:4FD9  10 0E 0F 04 0E			db	 10h, 0Eh, 0Fh, 04h, 0Eh
2926:4FDE  10			data_219	db	10h
2926:4FDF  10 0E 0E 0F 0E 10			db	 10h, 0Eh, 0Eh, 0Fh, 0Eh, 10h
2926:4FE5  10 0F 0F 0F 0F 10			db	 10h, 0Fh, 0Fh, 0Fh, 0Fh, 10h
2926:4FEB  10 0F 0F 0F 10 0F			db	 10h, 0Fh, 0Fh, 0Fh, 10h, 0Fh
2926:4FF1  10 0F 0F 0F 10 0F			db	 10h, 0Fh, 0Fh, 0Fh, 10h, 0Fh
2926:4FF7  10 0F 10 0F 10 0F			db	 10h, 0Fh, 10h, 0Fh, 10h, 0Fh
2926:4FFD  10 0F 0F 0F 10 0F			db	 10h, 0Fh, 0Fh, 0Fh, 10h, 0Fh
2926:5003  DE 02 DE 0B 2A 0B			db	0DEh, 02h,0DEh, 0Bh, 2Ah, 0Bh
2926:5009  0B DE 0B 0B 82 0B			db	 0Bh,0DEh, 0Bh, 0Bh, 82h, 0Bh
2926:500F  0B 12 0B DE DE DE			db	 0Bh, 12h, 0Bh,0DEh,0DEh,0DEh
2926:5015  7C 2A 7C 7C DE 7C			db	 7Ch, 2Ah, 7Ch, 7Ch,0DEh, 7Ch
2926:501B  7C 02 7C 60 DE 60			db	 7Ch, 02h, 7Ch, 60h,0DEh, 60h
2926:5021  00 00 00 01 00 FF			db	 00h, 00h, 00h, 01h, 00h,0FFh
2926:5027  FF 15 00 06 00			db	0FFh, 15h, 00h, 06h, 00h
2926:502C  0A 68 65 61 6C 74			db	0Ah, 'health bar'
2926:5032  68 20 62 61 72
2926:5037  00					db	0
2926:5038  0009[00]				db	9 dup (0)
2926:5041  7F 00 C7 00 0C 00			db	 7Fh, 00h,0C7h, 00h, 0Ch, 00h
2926:5047  06 00				db	 06h, 00h
2926:5049  09 6D 61 6E 20 66			db	9, 'man front'
           ICON.LST				Sourcer	v8.01  20-Jul-2026 12:15 am   Page 132

2926:504F  72 6F 6E 74
2926:5053  00					db	0
2926:5054  000A[00]				db	10 dup (0)
2926:505E  EB 00 4B 01 0C 00			db	0EBh, 00h, 4Bh, 01h, 0Ch, 00h
2926:5064  08 00 10				db	 08h, 00h, 10h
2926:5067  6D 61 6E 20 66 72			db	'man front weapon'
2926:506D  6F 6E 74 20 77 65
2926:5073  61 70 6F 6E
2926:5077  00 00 00 00 7B 01			db	 00h, 00h, 00h, 00h, 7Bh, 01h
2926:507D  C3 01 0C 00 06 00			db	0C3h, 01h, 0Ch, 00h, 06h, 00h
2926:5083  0F					db	 0Fh
2926:5084  6D 61 6E 20 62 61			db	'man back weap'
2926:508A  63 6B 20 77 65 61
2926:5090  70
2926:5091			loc_425:
2926:5091  6F 6E 00 00				db	 6Fh, 6Eh, 00h, 00h
2926:5095  00 00 00 E7 01 47			db	 00h, 00h, 00h,0E7h, 01h, 47h
2926:509B			loc_427:
2926:509B  02 0C				add	cl,[si]
2926:509D  00 08				add	[bx+si],cl
2926:509F  00 0F				add	[bx],cl
2926:50A1  6D 61 6E 20 6C 65			db	'man left weapon'
2926:50A7  66 74 20 77 65 61
2926:50AD  70 6F 6E
2926:50B0  00 00 00 00 00 77			db	 00h, 00h, 00h, 00h, 00h, 77h
2926:50B6  02 BF 02 0C 00 06			db	 02h,0BFh, 02h, 0Ch, 00h, 06h
2926:50BC  00 10				db	 00h, 10h
2926:50BE  6D 61 6E 20 72 69			db	'man right we'
2926:50C4  67 68 74 20 77 65
2926:50CA			loc_428:
2926:50CA  61 70 6F 6E 00 00			db	 61h, 70h, 6Fh, 6Eh, 00h, 00h
2926:50D0  00 00 E3 02 43 03			db	 00h, 00h,0E3h, 02h, 43h, 03h
2926:50D6  0C 00				db	 0Ch, 00h
2926:50D8			loc_429:
2926:50D8  08 00				or	[bx+si],al
2926:50DA  0F			;*		pop	cs			; Dangerous-8088 only
2926:50DA  0F					db	0Fh
2926:50DB  6D 61 6E 20 66 72			db	'man front '
2926:50E1  6F 6E 74 20
2926:50E5			loc_430:
2926:50E5  73 77				jnc	loc_440			; Jump if carry=0
2926:50E7  69					db	69h
2926:50E8			loc_431:
2926:50E8  6E 67 00 00 00 00			db	 6Eh, 67h, 00h, 00h, 00h, 00h
2926:50EE  00 73 03 BB 03 0C			db	 00h, 73h, 03h,0BBh, 03h, 0Ch
2926:50F4  00 06 00 0E				db	 00h, 06h, 00h, 0Eh
2926:50F8  6D 61 6E 20 62 61			db	'man back '
2926:50FE  63 6B 20
2926:5101			loc_432:
2926:5101  73 77				jnc	$+79h			; Jump if carry=0
2926:5103  69 6E				db	 69h, 6Eh
2926:5105			loc_433:
2926:5105  67 00 00 00 00 00			db	 67h, 00h, 00h, 00h, 00h, 00h
2926:510B  00 DF 03 3F 04			db	 00h,0DFh, 03h, 3Fh, 04h
2926:5110  0C					db	0Ch
2926:5111			loc_434:
2926:5111  00 08				add	[bx+si],cl
           ICON.LST				Sourcer	v8.01  20-Jul-2026 12:15 am   Page 133

2926:5113  00 0E 616D				add	data_300,cl		; (2926:616D=60h)
2926:5117  6E 20 6C 65 66 74			db	 6Eh, 20h, 6Ch, 65h, 66h, 74h
2926:511D  20					db	 20h
2926:511E			loc_435:
2926:511E  73 77				jnc	loc_442			; Jump if carry=0
2926:5120  69 6E 67 00 00 00			db	 69h, 6Eh, 67h, 00h, 00h, 00h
2926:5126  00 00 00 6F 04 CF			db	 00h, 00h, 00h, 6Fh, 04h,0CFh
2926:512C  04 0C 00				db	 04h, 0Ch, 00h
2926:512F			loc_436:
2926:512F  08 00				or	[bx+si],al
2926:5131  0F			;*		pop	cs			; Dangerous-8088 only
2926:5131  0F					db	0Fh
2926:5132  6D 61 6E 20 72 69			db	'man right '
2926:5138  67 68 74 20
2926:513C			loc_437:
2926:513C  73 77				jnc	loc_444			; Jump if carry=0
2926:513E			loc_438:
2926:513E  69 6E 67 00 00 00			db	 69h, 6Eh, 67h, 00h, 00h, 00h
2926:5144  00 00 FF 04 47 05			db	 00h, 00h,0FFh, 04h, 47h, 05h
2926:514A  0C 00 06 00				db	 0Ch, 00h, 06h, 00h
2926:514E  08 73 6B 65 6C 65			db	8, 'skeleton'
2926:5154  74 6F 6E
2926:5157  000C[00]				db	12 dup (0)
2926:5163  6B 05 83 05 04 00			db	 6Bh, 05h, 83h, 05h, 04h, 00h
2926:5169  06 00 05 42 61 74			db	 06h, 00h, 05h, 42h, 61h, 74h
2926:516F  20 30 00				db	 20h, 30h, 00h
2926:5172  000E[00]				db	14 dup (0)
2926:5180  8F 05 A7 05 04 00			db	 8Fh, 05h,0A7h, 05h, 04h, 00h
2926:5186  06 00 05 42 61 74			db	 06h, 00h, 05h, 42h, 61h, 74h
2926:518C  20 31 00				db	 20h, 31h, 00h
2926:518F  000E[00]				db	14 dup (0)
2926:519D  B3 05 BF 05 03 00			db	0B3h, 05h,0BFh, 05h, 03h, 00h
2926:51A3  04 00				db	 04h, 00h
2926:51A5  08 52 61 74 20 6C			db	8, 'Rat lef'
2926:51AB  65 66
2926:51AD			loc_443:
2926:51AD  74 00				jz	$+2			; delay for I/O
2926:51AF  000B[00]				db	11 dup (0)
2926:51BA  C5 05				db	0C5h, 05h
2926:51BC			loc_445:
2926:51BC  D1 05				rol	word ptr [di],1		; Rotate
2926:51BE  03 00				add	ax,[bx+si]
2926:51C0  04 00				add	al,0
2926:51C2  09 52 61				or	[bp+si+61h],dx
2926:51C5			loc_446:
2926:51C5  74 20				jz	loc_448			; Jump if zero
2926:51C7  72 69				jc	loc_449			; Jump if carry Set
2926:51C9  67					db	67h
2926:51CA			loc_447:
2926:51CA  68 74 00				db	 68h, 74h, 00h
2926:51CD  000A[00]				db	10 dup (0)
2926:51D7  D7 05 DF 05 04 00			db	0D7h, 05h,0DFh, 05h, 04h, 00h
2926:51DD  02 00 0E				db	 02h, 00h, 0Eh
2926:51E0  77 68 69 74 65 20			db	 77h, 68h, 69h, 74h, 65h, 20h
2926:51E6  6D					db	 6Dh
2926:51E7			loc_448:
2926:51E7  75 73				jnz	$+75h			; Jump if not zero
           ICON.LST				Sourcer	v8.01  20-Jul-2026 12:15 am   Page 134

2926:51E9  68 72 6F 6F 6D 00			db	 68h, 72h, 6Fh, 6Fh, 6Dh, 00h
2926:51EF  00 00 00 00 00 E3			db	 00h, 00h, 00h, 00h, 00h,0E3h
2926:51F5  05 EB 05 04 00 02			db	 05h,0EBh, 05h, 04h, 00h, 02h
2926:51FB  00 11				db	 00h, 11h
2926:51FD  50 6F 69 73 6F 6E			db	'Poison_Mushroom 0'
2926:5203  5F 4D 75 73 68 72
2926:5209  6F 6F 6D 20 30
2926:520E  00 00 00 EF 05 F7			db	 00h, 00h, 00h,0EFh, 05h,0F7h
2926:5214  05 04 00 02 00 11			db	 05h, 04h, 00h, 02h, 00h, 11h
2926:521A  50 6F 69 73 6F 6E			db	 50h, 6Fh, 69h, 73h, 6Fh, 6Eh
2926:5220  5F 4D 75 73 68 72	data_227	db	'_Mushroom 1', 0
2926:5226  6F 6F 6D 20 31 00
2926:522C  00 00 FB 05 31 06			db	 00h, 00h,0FBh, 05h, 31h, 06h
2926:5232			loc_449:
2926:5232  09 00				or	[bx+si],ax
2926:5234  06					push	es
2926:5235  00 0C				add	[si],cl
2926:5237  53					push	bx
2926:5238  6E 61 6B 65 20 6C			db	'nake left 0'
2926:523E  65 66 74 20 30
2926:5243  00					db	0
2926:5244  0007[00]				db	7 dup (0)
2926:524B  4C 06 7C 06 08 00			db	 4Ch, 06h, 7Ch, 06h, 08h, 00h
2926:5251  06					db	 06h
2926:5252			loc_451:
2926:5252  00 0C				add	[si],cl
2926:5254  53					push	bx
2926:5255			loc_452:
2926:5255  6E 61 6B 65 20 6C			db	 6Eh, 61h, 6Bh, 65h, 20h, 6Ch
2926:525B			loc_453:
2926:525B  65 66 74 20 31 00			db	 65h, 66h, 74h, 20h, 31h, 00h
2926:5261  0007[00]				db	7 dup (0)
2926:5268  94 06 CA 06 09 00			db	 94h, 06h,0CAh, 06h, 09h, 00h
2926:526E  06 00				db	 06h, 00h
2926:5270  0D					db	0Dh
2926:5271			loc_455:
2926:5271  53					push	bx
2926:5272  6E 61 6B 65 20 72			db	 6Eh, 61h, 6Bh, 65h, 20h, 72h
2926:5278  69					db	 69h
2926:5279			loc_456:
2926:5279  67					db	67h
2926:527A			loc_457:
2926:527A  68 74 20 30 00			db	 68h, 74h, 20h, 30h, 00h
2926:527F  00 00 00 00 00 00			db	 00h, 00h, 00h, 00h, 00h, 00h
2926:5285  E5 06 15 07 08 00			db	0E5h, 06h, 15h, 07h, 08h, 00h
2926:528B  06 00				db	 06h, 00h
2926:528D  0D					db	0Dh
2926:528E			loc_459:
2926:528E  53					push	bx
2926:528F  6E 61 6B 65 20 72			db	 6Eh, 61h, 6Bh, 65h, 20h, 72h
2926:5295  69					db	 69h
2926:5296			loc_460:
2926:5296  67					db	67h
2926:5297			loc_461:
2926:5297  68 74 20 31 00 00			db	 68h, 74h, 20h, 31h, 00h, 00h
2926:529D  00 00 00 00 00 2D			db	 00h, 00h, 00h, 00h, 00h, 2Dh
2926:52A3  07 31 07 02 00 02			db	 07h, 31h, 07h, 02h, 00h, 02h
           ICON.LST				Sourcer	v8.01  20-Jul-2026 12:15 am   Page 135

2926:52A9  00 04				db	 00h, 04h
2926:52AB  67 6F 6C 64				db	 67h, 6Fh, 6Ch, 64h
2926:52AF  0010[00]				db	16 dup (0)
2926:52BF  33 07 39 07 03 00			db	 33h, 07h, 39h, 07h, 03h, 00h
2926:52C5  02 00 05				db	 02h, 00h, 05h
2926:52C8  63 72 6F 73 73			db	 63h, 72h, 6Fh, 73h, 73h
2926:52CD  000F[00]				db	15 dup (0)
2926:52DC  3C 07 4E 07 03 00			db	 3Ch, 07h, 4Eh, 07h, 03h, 00h
2926:52E2  06 00 05				db	 06h, 00h, 05h
2926:52E5  73 77 6F 72 64			db	 73h, 77h, 6Fh, 72h, 64h
2926:52EA  000F[00]				db	15 dup (0)
2926:52F9  57 07 69 07 03 00			db	 57h, 07h, 69h, 07h, 03h, 00h
2926:52FF  06 00 0B				db	 06h, 00h, 0Bh
2926:5302  6D 61 67 69 63 20			db	'magic sword'
2926:5308  73 77 6F 72 64
2926:530D  0009[00]				db	9 dup (0)
2926:5316  72 07 8A 07 03 00			db	 72h, 07h, 8Ah, 07h, 03h, 00h
2926:531C  08 00				db	 08h, 00h
2926:531E  0C					db	0Ch
2926:531F			loc_464:
2926:531F  62 72 6F 6B 65 6E			db	'broken sword'
2926:5325  20 73 77 6F 72 64
2926:532B  0008[00]				db	8 dup (0)
2926:5333  96 07 9E 07 04 00			db	 96h, 07h, 9Eh, 07h, 04h, 00h
2926:5339  02 00				db	 02h, 00h
2926:533B  08 72 65 64 20			db	 08h, 72h, 65h, 64h, 20h
2926:5340			loc_465:
2926:5340  77 61				ja	$+63h			; Jump if above
2926:5342  6E 64				db	 6Eh, 64h
2926:5344  000C[00]				db	12 dup (0)
2926:5350  A2 07 AA 07 04 00			db	0A2h, 07h,0AAh, 07h, 04h, 00h
2926:5356  02 00				db	 02h, 00h
2926:5358  09 62 6C 75 65 20			db	 09h, 62h, 6Ch, 75h, 65h, 20h
2926:535E			loc_467:
2926:535E  77 61				ja	$+63h			; Jump if above
2926:5360  6E 64				db	 6Eh, 64h
2926:5362  000B[00]				db	11 dup (0)
2926:536D  AE 07 B6 07				db	0AEh, 07h,0B6h, 07h
2926:5371			loc_468:
2926:5371  04 00				add	al,0
2926:5373  02 00				add	al,[bx+si]
2926:5375  06					push	es
2926:5376  73 68				jnc	loc_472			; Jump if carry=0
2926:5378  69 65 6C 64				db	 69h, 65h, 6Ch, 64h
2926:537C  000E[00]				db	14 dup (0)
2926:538A  BA 07 C2 07 04			db	0BAh, 07h,0C2h, 07h, 04h
2926:538F			loc_469:
2926:538F  00 02				add	[bp+si],al
2926:5391			loc_470:
2926:5391  00 0B				add	[bp+di],cl
2926:5393  73 68				jnc	$+6Ah			; Jump if carry=0
2926:5395  69 65 6C 64 20 62			db	'ield back'
2926:539B  61 63 6B
2926:539E  0009[00]				db	9 dup (0)
2926:53A7  C6 07 DE 07 04 00			db	0C6h, 07h,0DEh, 07h, 04h, 00h
2926:53AD  06 00 05 61 72 6D			db	 06h, 00h, 05h, 61h, 72h, 6Dh
2926:53B3  6F 72 00				db	 6Fh, 72h, 00h
           ICON.LST				Sourcer	v8.01  20-Jul-2026 12:15 am   Page 136

2926:53B6  000E[00]				db	14 dup (0)
2926:53C4  EA 07 F2 07 04 00			db	0EAh, 07h,0F2h, 07h, 04h, 00h
2926:53CA  02 00 06 68 65 6C			db	 02h, 00h, 06h, 68h, 65h, 6Ch
2926:53D0  6D 65 74 00				db	 6Dh, 65h, 74h, 00h
2926:53D4  000D[00]				db	13 dup (0)
2926:53E1  F6 07 FC 07 03 00			db	0F6h, 07h,0FCh, 07h, 03h, 00h
2926:53E7  02 00				db	 02h, 00h
2926:53E9  08 66 69 72 65 62			db	8, 'fireball'
2926:53EF  61 6C 6C
2926:53F2  000C[00]				db	12 dup (0)
2926:53FE  FF 07 FF FF 09 00			db	0FFh, 07h,0FFh,0FFh, 09h, 00h
2926:5404  06 00				db	 06h, 00h
2926:5406  09 65 78 70 6C 6F			db	9, 'explosion'
2926:540C  73 69 6F 6E
2926:5410  000B[00]				db	11 dup (0)
2926:541B  35 08 3B 08 03			db	 35h, 08h, 3Bh, 08h, 03h
2926:5420			loc_473:
2926:5420  00 02				add	[bp+si],al
2926:5422  00 09				add	[bx+di],cl
2926:5424  6C 69 67 68 74 6E			db	'lightning'
2926:542A  69 6E 67
2926:542D  000B[00]				db	11 dup (0)
2926:5438  3E 08 FF FF 09 00			db	 3Eh, 08h,0FFh,0FFh, 09h, 00h
2926:543E  06 00 0B				db	 06h, 00h, 0Bh
2926:5441  6C 20 65 78 70 6C			db	'l explosion'
2926:5447  6F 73 69 6F 6E
2926:544C  0009[00]				db	9 dup (0)
2926:5455  74 08 B0 08 0A 00			db	 74h, 08h,0B0h, 08h, 0Ah, 00h
2926:545B  06 00				db	 06h, 00h
2926:545D  0C 44				db	 0Ch, 44h
2926:545F			loc_475:
2926:545F  77 61				ja	loc_482			; Jump if above
2926:5461  72 66				jc	loc_483			; Jump if carry Set
2926:5463  20 6C 65				and	[si+65h],ch
2926:5466  66 74 20 30 00			db	 66h, 74h, 20h, 30h, 00h
2926:546B  0007[00]				db	7 dup (0)
2926:5472  CE 08 0A 09 0A			db	0CEh, 08h, 0Ah, 09h, 0Ah
2926:5477			loc_476:
2926:5477  00 06 0D00				add	byte ptr ds:[0D00h],al	; (2926:0D00=53h)
2926:547B  44					inc	sp
2926:547C  77 61				ja	loc_484			; Jump if above
2926:547E  72 66				jc	loc_485			; Jump if carry Set
2926:5480  20 72 69				and	[bp+si+69h],dh
2926:5483  67 68 74 20 30 00			db	 67h, 68h, 74h, 20h, 30h, 00h
2926:5489  00 00 00 00 00 00			db	 00h, 00h, 00h, 00h, 00h, 00h
2926:548F  28 09 6A 09 0B 00			db	 28h, 09h, 6Ah, 09h, 0Bh, 00h
2926:5495  06 00 05				db	 06h, 00h, 05h
2926:5498			loc_479:
2926:5498  47					inc	di
2926:5499  68 6F 73 74				db	 68h, 6Fh, 73h, 74h
2926:549D  000F[00]				db	15 dup (0)
2926:54AC  8B 09 FF FF 00 00			db	 8Bh, 09h,0FFh,0FFh, 00h, 00h
2926:54B2  00					db	 00h
2926:54B3			loc_481:
2926:54B3  00 07				add	[bx],al
2926:54B5  6E 6F 74 68 69 6E			db	 6Eh, 6Fh, 74h, 68h, 69h, 6Eh
2926:54BB  67					db	 67h
           ICON.LST				Sourcer	v8.01  20-Jul-2026 12:15 am   Page 137

2926:54BC  000D[00]				db	13 dup (0)
2926:54C9			loc_483:
2926:54C9  8B 09				mov	cx,[bx+di]
2926:54CB  D3 09				ror	word ptr [bx+di],cl	; Rotate
2926:54CD  0C 00				or	al,0
2926:54CF  06					push	es
2926:54D0  00 08				add	[bx+si],cl
2926:54D2  4B					dec	bx
2926:54D3  6F 62 6F 6C 64 20			db	 6Fh, 62h, 6Fh, 6Ch, 64h, 20h
2926:54D9  30					db	 30h
2926:54DA  000C[00]				db	12 dup (0)
2926:54E6			loc_485:
2926:54E6  F7 09 3F 0A 0C 00			db	0F7h, 09h, 3Fh, 0Ah, 0Ch, 00h
2926:54EC  06 00				db	 06h, 00h
2926:54EE  08 4B 6F 62 6F 6C			db	8, 'Kobold 1'
2926:54F4  64 20 31
2926:54F7  000C[00]				db	12 dup (0)
2926:5503  63 0A A9 0A 05 00			db	 63h, 0Ah,0A9h, 0Ah, 05h, 00h
2926:5509  0E 00 10				db	 0Eh, 00h, 10h
2926:550C  41 6C 6C 69 67			db	 41h, 6Ch, 6Ch, 69h, 67h
2926:5511			loc_486:
2926:5511  61 74 6F 72 20 6C			db	'ator left 0'
2926:5517  65 66 74 20 30
2926:551C  00 00 00 00 CC			db	 00h, 00h, 00h, 00h,0CCh
2926:5521			loc_487:
2926:5521  0A 12				or	dl,[bp+si]
2926:5523  0B 05				or	ax,[di]
2926:5525  00 0E 1000				add	byte ptr ds:[1000h],cl	; (2926:1000=0FBh)
2926:5529  41					inc	cx
2926:552A  6C 6C 69 67 61 74			db	'lligator lef'
2926:5530  6F 72 20 6C 65 66
2926:5536			loc_488:
2926:5536  74 20				jz	loc_491			; Jump if zero
2926:5538  31 00				xor	[bx+si],ax
2926:553A  00 00				add	[bx+si],al
2926:553C  00 35				add	[di],dh
2926:553E  0B 7B 0B				or	di,[bp+di+0Bh]
2926:5541  05 0E00				add	ax,0E00h
2926:5544  00 11				add	[bx+di],dl
2926:5546  41					inc	cx
2926:5547  6C 6C 69 67 61 74			db	'lligator rig'
2926:554D  6F 72 20 72 69 67
2926:5553			loc_490:
2926:5553  68 74 20 30 00			db	 68h, 74h, 20h, 30h, 00h
2926:5558  00 00 9E 0B E4 0B			db	 00h, 00h, 9Eh, 0Bh,0E4h, 0Bh
2926:555E  05 00 0E 00 11			db	 05h, 00h, 0Eh, 00h, 11h
2926:5563  41 6C 6C 69 67 61			db	'Alligator rig'
2926:5569  74 6F 72 20 72 69
2926:556F  67
2926:5570			loc_492:
2926:5570  68 74 20 31 00 00			db	 68h, 74h, 20h, 31h, 00h, 00h
2926:5576			loc_493:
2926:5576  00 07				add	[bx],al
2926:5578  0C 2B				or	al,2Bh			; '+'
2926:557A  0C 06				or	al,6
2926:557C  00 06 0500				add	byte ptr ds:[500h],al	; (2926:0500=0C3h)
2926:5580  61 6E 76				db	 61h, 6Eh, 76h
           ICON.LST				Sourcer	v8.01  20-Jul-2026 12:15 am   Page 138

2926:5583			loc_494:
2926:5583  69 6C				db	 69h, 6Ch
2926:5585  000F[00]				db	15 dup (0)
2926:5594  3D 0C 45 0C 04 00			db	 3Dh, 0Ch, 45h, 0Ch, 04h, 00h
2926:559A  02 00 06				db	 02h, 00h, 06h
2926:559D  68 61 6D				db	 68h, 61h, 6Dh
2926:55A0			loc_497:
2926:55A0  6D 65 72 00				db	 6Dh, 65h, 72h, 00h
2926:55A4  000D[00]				db	13 dup (0)
2926:55B1  49 0C A9 0C 0C 00			db	 49h, 0Ch,0A9h, 0Ch, 0Ch, 00h
2926:55B7  08 00				db	 08h, 00h
2926:55B9  0C 6D				db	 0Ch, 6Dh
2926:55BB			loc_498:
2926:55BB  61 6E				db	 61h, 6Eh
2926:55BD			loc_499:
2926:55BD  20 68 61				and	[bx+si+61h],ch
2926:55C0  6D 6D 65 72 20 30			db	 6Dh, 6Dh, 65h, 72h, 20h, 30h
2926:55C6  00					db	 00h
2926:55C7  0007[00]				db	7 dup (0)
2926:55CE  D9 0C 39 0D 0C 00			db	0D9h, 0Ch, 39h, 0Dh, 0Ch, 00h
2926:55D4  08 00				db	 08h, 00h
2926:55D6  0C 6D				db	 0Ch, 6Dh
2926:55D8			loc_500:
2926:55D8  61 6E				db	 61h, 6Eh
2926:55DA			loc_501:
2926:55DA  20 68 61				and	[bx+si+61h],ch
2926:55DD  6D 6D 65 72 20 31			db	 6Dh, 6Dh, 65h, 72h, 20h, 31h
2926:55E3  00					db	 00h
2926:55E4  0007[00]				db	7 dup (0)
2926:55EB  69 0D				db	 69h, 0Dh
2926:55ED			loc_503:
2926:55ED  81 0D 0006				or	word ptr [di],6
2926:55F1  04 00				add	al,0
2926:55F3  0A 65 74				or	ah,[di+74h]
2926:55F6  68 65 72 65 61 6C			db	'hereal 1'
2926:55FC  20 31
2926:55FE  000A[00]				db	10 dup (0)
2926:5608  8D 0D A1 0D 05 00			db	 8Dh, 0Dh,0A1h, 0Dh, 05h, 00h
2926:560E  04 00				db	 04h, 00h
2926:5610  0A 65 74 68 65 72			db	0Ah, 'ethereal 2'
2926:5616  65 61 6C 20 32
2926:561B  000A[00]				db	10 dup (0)
2926:5625  AB 0D BF 0D 05 00			db	0ABh, 0Dh,0BFh, 0Dh, 05h, 00h
2926:562B  04 00				db	 04h, 00h
2926:562D  0A 65 74 68 65 72			db	0Ah, 'ethereal 3'
2926:5633  65 61 6C 20 33
2926:5638  000A[00]				db	10 dup (0)
2926:5642  C9 0D DD 0D 05 00			db	0C9h, 0Dh,0DDh, 0Dh, 05h, 00h
2926:5648  04 00				db	 04h, 00h
2926:564A  0A 65 74 68 65 72			db	0Ah, 'ethereal 4'
2926:5650  65 61 6C 20 34
2926:5655  000A[00]				db	10 dup (0)
2926:565F			loc_505:
2926:565F  E7 0D				out	0Dh,ax			; port 0Dh, DMA-1 master clear
2926:5661  FB					sti				; Enable interrupts
2926:5662  0D 0005				or	ax,5
2926:5665  04 00				add	al,0
           ICON.LST				Sourcer	v8.01  20-Jul-2026 12:15 am   Page 139

2926:5667  0A 65 74				or	ah,[di+74h]
2926:566A  68 65 72 65 61 6C			db	'hereal 5'
2926:5670  20 35
2926:5672  000A[00]				db	10 dup (0)
2926:567C			loc_506:
2926:567C  05 1D0E				add	ax,1D0Eh
2926:567F  0E					push	cs
2926:5680  06					push	es
2926:5681  00 04				add	[si],al
2926:5683  00 09				add	[bx+di],cl
2926:5685  62 6C 61 63 6B 20			db	'black out'
2926:568B  6F 75 74
2926:568E  00					db	0
2926:568F  000A[00]				db	10 dup (0)
2926:5699			loc_507:
2926:5699  29 0E 0E89				sub	word ptr ds:[0E89h],cx	; (2926:0E89=0D1F6h)
2926:569D  0C 00				or	al,0
2926:569F  08 00				or	[bx+si],al
2926:56A1  0C 42				or	al,42h			; 'B'
2926:56A3  6C 61 63 6B 5F 4B			db	'lack_Knight'
2926:56A9  6E 69 67 68 74
2926:56AE  00					db	0
2926:56AF  0007[00]				db	7 dup (0)
2926:56B6			loc_508:
2926:56B6  B9 010E				mov	cx,10Eh
2926:56B9  0F			;*		pop	cs			; Dangerous-8088 only
2926:56B9  0F					db	0Fh
2926:56BA  0C 00				or	al,0
2926:56BC  06					push	es
2926:56BD  00 04				add	[si],al
2926:56BF  47					inc	di
2926:56C0  69 72 6C				db	 69h, 72h, 6Ch
2926:56C3  0010[00]				db	16 dup (0)
2926:56D3			loc_509:
2926:56D3  25 FF0F				and	ax,0FF0Fh
2926:56D6  FF 03				inc	word ptr [bp+di]
2926:56D8  00 02				add	[bp+si],al
2926:56DA  00 08				add	[bx+si],cl
2926:56DC  64 6F 74 20 6F 6E			db	'dot on i'
2926:56E2  20 69
2926:56E4  00					db	0
2926:56E5  000B[00]				db	11 dup (0)
2926:56F0  2B 0F 4B 0F 08 00			db	 2Bh, 0Fh, 4Bh, 0Fh, 08h, 00h
2926:56F6  04 00 06 69 63 6F			db	 04h, 00h, 06h, 69h, 63h, 6Fh
2926:56FC  6E 20 61 00				db	 6Eh, 20h, 61h, 00h
2926:5700  000D[00]				db	13 dup (0)
2926:570D  5B 0F 73 0F 06 00			db	 5Bh, 0Fh, 73h, 0Fh, 06h, 00h
2926:5713  04 00 06 69 63 6F			db	 04h, 00h, 06h, 69h, 63h, 6Fh
2926:5719  6E 20 62 00				db	 6Eh, 20h, 62h, 00h
2926:571D  000D[00]				db	13 dup (0)
2926:572A  7F 0F 9F 0F 08			db	 7Fh, 0Fh, 9Fh, 0Fh, 08h
2926:572F			loc_512:
2926:572F  00 04				add	[si],al
2926:5731  00 06 6369				add	data_301,al		; (2926:6369=0F7h)
2926:5735  6F 6E 20 63 00			db	 6Fh, 6Eh, 20h, 63h, 00h
2926:573A  000D[00]				db	13 dup (0)
2926:5747  AF 0F CB 0F 07 00			db	0AFh, 0Fh,0CBh, 0Fh, 07h, 00h
           ICON.LST				Sourcer	v8.01  20-Jul-2026 12:15 am   Page 140

2926:574D  04 00 06 69 63 6F			db	 04h, 00h, 06h, 69h, 63h, 6Fh
2926:5753  6E 20 64 00				db	 6Eh, 20h, 64h, 00h
2926:5757  000D[00]				db	13 dup (0)
2926:5764  D9 0F F5 0F 07 00			db	0D9h, 0Fh,0F5h, 0Fh, 07h, 00h
2926:576A  04 00 06 69 63 6F			db	 04h, 00h, 06h, 69h, 63h, 6Fh
2926:5770  6E 20 65 00				db	 6Eh, 20h, 65h, 00h
2926:5774  000D[00]				db	13 dup (0)
2926:5781  03 10 1F 10 07 00			db	 03h, 10h, 1Fh, 10h, 07h, 00h
2926:5787  04 00 06 69 63 6F			db	 04h, 00h, 06h, 69h, 63h, 6Fh
2926:578D  6E 20 67 00				db	 6Eh, 20h, 67h, 00h
2926:5791  000D[00]				db	13 dup (0)
2926:579E  2D 10 33 10 03 00			db	 2Dh, 10h, 33h, 10h, 03h, 00h
2926:57A4  02 00 04				db	 02h, 00h, 04h
2926:57A7  72 69 6E 67				db	 72h, 69h, 6Eh, 67h
2926:57AB  0010[00]				db	16 dup (0)
2926:57BB  36 10 5E 10 0A 00			db	 36h, 10h, 5Eh, 10h, 0Ah, 00h
2926:57C1  04 00 0B				db	 04h, 00h, 0Bh
2926:57C4  54 68 69 65 66 20			db	'Thief right'
2926:57CA  72 69 67 68 74
2926:57CF  00					db	0
2926:57D0  0008[00]				db	8 dup (0)
2926:57D8  72 10 9A 10 0A 00			db	 72h, 10h, 9Ah, 10h, 0Ah, 00h
2926:57DE  04 00				db	 04h, 00h
2926:57E0  0A 54 68 69 65 66			db	0Ah, 'Thief lef'
2926:57E6  20 6C 65 66
2926:57EA			loc_514:
2926:57EA  74 00				jz	$+2			; delay for I/O
2926:57EC  0009[00]				db	9 dup (0)
2926:57F5  AE 10 EA 10 0A 00			db	0AEh, 10h,0EAh, 10h, 0Ah, 00h
2926:57FB  06 00 0B				db	 06h, 00h, 0Bh
2926:57FE  52 68 69 6E 65 6D			db	'Rhinemaiden'
2926:5804  61 69 64 65 6E
2926:5809  0009[00]				db	9 dup (0)
2926:5812			loc_515:
2926:5812  E9 0000				jmp	loc_516			; (5815)

				;ßßßßßßßßßßßßßßßßßßßßßßßßßßßßßßßßßßßßßßßßßßßßßßßßßßßßßßßßßßßßßßßßßßßßßßßßßß
				;                              SUBROUTINE
				;ÜÜÜÜÜÜÜÜÜÜÜÜÜÜÜÜÜÜÜÜÜÜÜÜÜÜÜÜÜÜÜÜÜÜÜÜÜÜÜÜÜÜÜÜÜÜÜÜÜÜÜÜÜÜÜÜÜÜÜÜÜÜÜÜÜÜÜÜÜÜÜÜÜÜ

2926:5815			sub_101		proc	near
2926:5815			loc_516:
2926:5815  E9 0006				jmp	loc_517			; (581E)

				;ßßßß External Entry into Subroutine ßßßßßßßßßßßßßßßßßßßßßßßßßßßßßßßßßßßßßß

2926:5818			sub_102:
2926:5818  E9 00DA				jmp	loc_533			; (58F5)

				;ßßßß External Entry into Subroutine ßßßßßßßßßßßßßßßßßßßßßßßßßßßßßßßßßßßßßß

2926:581B			sub_103:
2926:581B  E9 010C				jmp	loc_535			; (592A)
2926:581E			loc_517:
2926:581E  55					push	bp
2926:581F  8B EC				mov	bp,sp
2926:5821  55					push	bp
           ICON.LST				Sourcer	v8.01  20-Jul-2026 12:15 am   Page 141

2926:5822  81 EC 000D				sub	sp,0Dh
2926:5826  B8 0007				mov	ax,7
2926:5829  50					push	ax
2926:582A  1E					push	ds
2926:582B  B8 2C18				mov	ax,2C18h
2926:582E  50					push	ax
2926:582F  E8 2DCC				call	sub_204			; (85FE)
2926:5832  88 46 F3				mov	[bp-0Dh],al
2926:5835  8A 46 F3				mov	al,[bp-0Dh]
2926:5838  32 E4				xor	ah,ah			; Zero register
2926:583A  81 F8 001B				cmp	ax,1Bh
2926:583E  B8 0000				mov	ax,0
2926:5841  75 01				jnz	loc_518			; Jump if not zero
2926:5843  40					inc	ax
2926:5844			loc_518:
2926:5844  D0 D8				rcr	al,1			; Rotate thru carry
2926:5846  72 03				jc	loc_519			; Jump if carry Set
2926:5848  E9 0005				jmp	loc_520			; (5850)
2926:584B			loc_519:
2926:584B  C6 06 5DF4 01			mov	byte ptr data_291,1	; (2926:5DF4=97h)
2926:5850			loc_520:
2926:5850  8A 46 F3				mov	al,[bp-0Dh]
2926:5853  32 E4				xor	ah,ah			; Zero register
2926:5855  81 F8 003B				cmp	ax,3Bh
2926:5859  B8 0000				mov	ax,0
2926:585C  75 01				jnz	loc_521			; Jump if not zero
2926:585E  40					inc	ax
2926:585F			loc_521:
2926:585F  D0 D8				rcr	al,1			; Rotate thru carry
2926:5861  72 03				jc	loc_522			; Jump if carry Set
2926:5863  E9 0004				jmp	loc_523			; (586A)
2926:5866			loc_522:
2926:5866  C6 46 F3 00				mov	byte ptr [bp-0Dh],0
2926:586A			loc_523:
2926:586A  8A 46 F3				mov	al,[bp-0Dh]
2926:586D  32 E4				xor	ah,ah			; Zero register
2926:586F  81 F8 0000				cmp	ax,0
2926:5873  B8 0000				mov	ax,0
2926:5876  75 01				jnz	loc_524			; Jump if not zero
2926:5878  40					inc	ax
2926:5879			loc_524:
2926:5879  D0 D8				rcr	al,1			; Rotate thru carry
2926:587B  72 03				jc	loc_525			; Jump if carry Set
2926:587D  E9 0066				jmp	loc_532			; (58E6)
2926:5880			loc_525:
2926:5880  8A 46 F3				mov	al,[bp-0Dh]
2926:5883  A2 5DAE				mov	data_286,al		; (2926:5DAE=97h)
2926:5886  B8 0007				mov	ax,7
2926:5889  50					push	ax
2926:588A  1E					push	ds
2926:588B  B8 2C18				mov	ax,2C18h
2926:588E  50					push	ax
2926:588F  E8 2D6C				call	sub_204			; (85FE)
2926:5892  88 46 F3				mov	[bp-0Dh],al
2926:5895  8A 46 F3				mov	al,[bp-0Dh]
2926:5898  32 E4				xor	ah,ah			; Zero register
2926:589A  81 F8 003C				cmp	ax,3Ch
           ICON.LST				Sourcer	v8.01  20-Jul-2026 12:15 am   Page 142

2926:589E  B8 0000				mov	ax,0
2926:58A1  75 01				jnz	loc_526			; Jump if not zero
2926:58A3  40					inc	ax
2926:58A4			loc_526:
2926:58A4  D0 D8				rcr	al,1			; Rotate thru carry
2926:58A6  72 03				jc	loc_527			; Jump if carry Set
2926:58A8  E9 001F				jmp	loc_529			; (58CA)
2926:58AB			loc_527:
2926:58AB  A0 5A7C				mov	al,data_281		; (2926:5A7C=0ECh)
2926:58AE  32 E4				xor	ah,ah			; Zero register
2926:58B0  F7 D0				not	ax
2926:58B2  A2 5A7C				mov	data_281,al		; (2926:5A7C=0ECh)
2926:58B5  A0 5A7C				mov	al,data_281		; (2926:5A7C=0ECh)
2926:58B8  D0 D8				rcr	al,1			; Rotate thru carry
2926:58BA  72 03				jc	loc_528			; Jump if carry Set
2926:58BC  E9 000B				jmp	loc_529			; (58CA)
2926:58BF			loc_528:
2926:58BF  B8 0000				mov	ax,0
2926:58C2  50					push	ax
2926:58C3  B8 0000				mov	ax,0
2926:58C6  50					push	ax
2926:58C7  E8 00C4				call	sub_108			; (598E)
2926:58CA			loc_529:
2926:58CA  8A 46 F3				mov	al,[bp-0Dh]
2926:58CD  32 E4				xor	ah,ah			; Zero register
2926:58CF  81 F8 003B				cmp	ax,3Bh
2926:58D3  B8 0000				mov	ax,0
2926:58D6  74 01				jz	loc_530			; Jump if zero
2926:58D8  40					inc	ax
2926:58D9			loc_530:
2926:58D9  D0 D8				rcr	al,1			; Rotate thru carry
2926:58DB  72 03				jc	loc_531			; Jump if carry Set
2926:58DD  E9 0006				jmp	loc_532			; (58E6)
2926:58E0			loc_531:
2926:58E0  A0 5DAE				mov	al,data_286		; (2926:5DAE=97h)
2926:58E3  88 46 F3				mov	[bp-0Dh],al
2926:58E6			loc_532:
2926:58E6  8A 46 F3				mov	al,[bp-0Dh]
2926:58E9  88 46 F4				mov	[bp-0Ch],al
2926:58EC  8A			data_273	db	8Ah			; Data table (indexed access)
2926:58ED  46 F4 32 E4 8B E5			db	 46h,0F4h, 32h,0E4h, 8Bh,0E5h
2926:58F3  5D C3				db	 5Dh,0C3h
2926:58F5			loc_533:
2926:58F5  55					push	bp
2926:58F6  8B EC				mov	bp,sp
2926:58F8  55					push	bp
2926:58F9  81 EC 000C				sub	sp,0Ch
2926:58FD  B8 000B				mov	ax,0Bh
2926:5900  50			data_274	db	50h			; Data table (indexed access)
2926:5901  0E 0E B8 99 57 97			db	 0Eh, 0Eh,0B8h, 99h, 57h, 97h
2926:5907  07 26 8B 05 93 B8			db	 07h, 26h, 8Bh, 05h, 93h,0B8h
2926:590D  9B 57 03 C3 50 E8			db	 9Bh, 57h, 03h,0C3h, 50h,0E8h
2926:5913  E9 2C 3D 00 00 B8			db	0E9h, 2Ch, 3Dh, 00h, 00h,0B8h
2926:5919  00 00 74 01				db	 00h, 00h, 74h, 01h
2926:591D  40					db	40h
2926:591E			loc_534:
2926:591E  88 46 F4				mov	[bp-0Ch],al
           ICON.LST				Sourcer	v8.01  20-Jul-2026 12:15 am   Page 143

2926:5921  8A 46 F4				mov	al,[bp-0Ch]
2926:5924  32 E4				xor	ah,ah			; Zero register
2926:5926  8B E5				mov	sp,bp
2926:5928  5D					pop	bp
2926:5929  C3					retn
2926:592A			loc_535:
2926:592A  55					push	bp
2926:592B  8B EC				mov	bp,sp
2926:592D  55					push	bp
2926:592E  81 EC 000D				sub	sp,0Dh
2926:5932			loc_536:
2926:5932  E8 FEE3				call	sub_102			; (5818)
2926:5935  50					push	ax
2926:5936  E8 CDE9				call	sub_88			; (2722)
2926:5939  93					xchg	bx,ax
2926:593A  B8 0003				mov	ax,3
2926:593D  23 C3				and	ax,bx
2926:593F  3D 0000				cmp	ax,0
2926:5942  B8 0000				mov	ax,0
2926:5945  74 01				jz	loc_537			; Jump if zero
2926:5947  40					inc	ax
2926:5948			loc_537:
2926:5948  5B					pop	bx
2926:5949  0B C3				or	ax,bx
2926:594B  50					push	ax
2926:594C  E8 D5F0				call	sub_97			; (2F3F)
2926:594F  5B					pop	bx
2926:5950  0B C3				or	ax,bx
2926:5952  D0 D8				rcr	al,1			; Rotate thru carry
2926:5954  72 03				jc	loc_538			; Jump if carry Set
2926:5956  E9 FFD9				jmp	loc_536			; (5932)
2926:5959			loc_538:
2926:5959  E8 FEBC				call	sub_102			; (5818)
2926:595C  D0 D8				rcr	al,1			; Rotate thru carry
2926:595E  72 03				jc	loc_539			; Jump if carry Set
2926:5960  E9 0009				jmp	loc_540			; (596C)
2926:5963			loc_539:
2926:5963  E8 FEAF				call	sub_101			; (5815)
2926:5966  88 46 F3				mov	[bp-0Dh],al
2926:5969  E9 0004				jmp	loc_541			; (5970)
2926:596C			loc_540:
2926:596C  C6 46 F3 20				mov	byte ptr [bp-0Dh],20h	; ' '
2926:5970			loc_541:
2926:5970  8A 46 F3				mov	al,[bp-0Dh]
2926:5973  88 46 F4				mov	[bp-0Ch],al
2926:5976  8A 46 F4				mov	al,[bp-0Ch]
2926:5979  32 E4				xor	ah,ah			; Zero register
2926:597B  8B E5				mov	sp,bp
2926:597D  5D					pop	bp
2926:597E  C3					retn
				sub_101		endp

2926:597F  E9 00 00				db	0E9h, 00h, 00h

				;ßßßßßßßßßßßßßßßßßßßßßßßßßßßßßßßßßßßßßßßßßßßßßßßßßßßßßßßßßßßßßßßßßßßßßßßßßß
				;                              SUBROUTINE
				;ÜÜÜÜÜÜÜÜÜÜÜÜÜÜÜÜÜÜÜÜÜÜÜÜÜÜÜÜÜÜÜÜÜÜÜÜÜÜÜÜÜÜÜÜÜÜÜÜÜÜÜÜÜÜÜÜÜÜÜÜÜÜÜÜÜÜÜÜÜÜÜÜÜÜ
           ICON.LST				Sourcer	v8.01  20-Jul-2026 12:15 am   Page 144


2926:5982			sub_104		proc	near
2926:5982			loc_542:
2926:5982  E9 0018				jmp	loc_543			; (599D)

				;ßßßß External Entry into Subroutine ßßßßßßßßßßßßßßßßßßßßßßßßßßßßßßßßßßßßßß

2926:5985			sub_105:
2926:5985  E9 00EF				jmp	loc_550			; (5A77)

				;ßßßß External Entry into Subroutine ßßßßßßßßßßßßßßßßßßßßßßßßßßßßßßßßßßßßßß

2926:5988			sub_106:
2926:5988  E9 0103				jmp	loc_552			; (5A8E)

				;ßßßß External Entry into Subroutine ßßßßßßßßßßßßßßßßßßßßßßßßßßßßßßßßßßßßßß

2926:598B			sub_107:
2926:598B  E9 0138				jmp	loc_556			; (5AC6)

				;ßßßß External Entry into Subroutine ßßßßßßßßßßßßßßßßßßßßßßßßßßßßßßßßßßßßßß

2926:598E			sub_108:
2926:598E  E9 019D				jmp	loc_559			; (5B2E)

				;ßßßß External Entry into Subroutine ßßßßßßßßßßßßßßßßßßßßßßßßßßßßßßßßßßßßßß

2926:5991			sub_109:
2926:5991  E9 0288				jmp	loc_571			; (5C1C)

				;ßßßß External Entry into Subroutine ßßßßßßßßßßßßßßßßßßßßßßßßßßßßßßßßßßßßßß

2926:5994			sub_110:
2926:5994  E9 0343				jmp	loc_581			; (5CDA)

				;ßßßß External Entry into Subroutine ßßßßßßßßßßßßßßßßßßßßßßßßßßßßßßßßßßßßßß

2926:5997			sub_111:
2926:5997  E9 0384				jmp	loc_582			; (5D1E)

				;ßßßß External Entry into Subroutine ßßßßßßßßßßßßßßßßßßßßßßßßßßßßßßßßßßßßßß

2926:599A			sub_112:
2926:599A  E9 04A6				jmp	loc_584			; (5E43)
2926:599D			loc_543:
2926:599D  55					push	bp
2926:599E  8B EC				mov	bp,sp
2926:59A0  55					push	bp
2926:59A1  81 EC 0062				sub	sp,62h
2926:59A5  16					push	ss
2926:59A6  8D 46 AD				lea	ax,[bp-53h]		; Load effective addr
2926:59A9  50					push	ax
2926:59AA  8B 46 0A				mov	ax,[bp+0Ah]
2926:59AD  50					push	ax
2926:59AE  8B 46 08				mov	ax,[bp+8]
2926:59B1  50					push	ax
2926:59B2  B8 0051				mov	ax,51h
           ICON.LST				Sourcer	v8.01  20-Jul-2026 12:15 am   Page 145

2926:59B5  50					push	ax
2926:59B6  E8 0C59				call	sub_124			; (6612)
2926:59B9  C7 46 9F 0000			mov	word ptr [bp-61h],0
2926:59BE  16					push	ss
2926:59BF  8D 46 AD				lea	ax,[bp-53h]		; Load effective addr
2926:59C2  97					xchg	di,ax
2926:59C3  07					pop	es
2926:59C4  26: 8A 05				mov	al,es:[di]
2926:59C7  32 E4				xor	ah,ah			; Zero register
2926:59C9  89 46 A1				mov	[bp-5Fh],ax
2926:59CC  16					push	ss
2926:59CD  8D 46 AD				lea	ax,[bp-53h]		; Load effective addr
2926:59D0  50					push	ax
2926:59D1  C4 7E 04				les	di,dword ptr [bp+4]	; Load seg:offset ptr
2926:59D4  26: 8B 05				mov	ax,es:[di]
2926:59D7  5B					pop	bx
2926:59D8  03 C3				add	ax,bx
2926:59DA  97					xchg	di,ax
2926:59DB  07					pop	es
2926:59DC  26: 8A 05				mov	al,es:[di]
2926:59DF  88 46 9E				mov	[bp-62h],al
2926:59E2			loc_544:
2926:59E2  8A 46 9E				mov	al,[bp-62h]
2926:59E5  32 E4				xor	ah,ah			; Zero register
2926:59E7  81 F8 0030				cmp	ax,30h
2926:59EB  B8 0000				mov	ax,0
2926:59EE  7C 01				jl	loc_545			; Jump if <
2926:59F0  40					inc	ax
2926:59F1			loc_545:
2926:59F1  50					push	ax
2926:59F2  8A 46 9E				mov	al,[bp-62h]
2926:59F5  32 E4				xor	ah,ah			; Zero register
2926:59F7  81 F8 0039				cmp	ax,39h
2926:59FB  B8 0000				mov	ax,0
2926:59FE  7F 01				jg	loc_546			; Jump if >
2926:5A00  40					inc	ax
2926:5A01			loc_546:
2926:5A01  5B					pop	bx
2926:5A02  23 C3				and	ax,bx
2926:5A04  50					push	ax
2926:5A05  C4 7E 04				les	di,dword ptr [bp+4]	; Load seg:offset ptr
2926:5A08  26: 8B 05				mov	ax,es:[di]
2926:5A0B  50					push	ax
2926:5A0C  8B 46 A1				mov	ax,[bp-5Fh]
2926:5A0F  5B					pop	bx
2926:5A10  3B D8				cmp	bx,ax
2926:5A12  B8 0000				mov	ax,0
2926:5A15  7F 01				jg	loc_547			; Jump if >
2926:5A17  40					inc	ax
2926:5A18			loc_547:
2926:5A18  5B					pop	bx
2926:5A19  23 C3				and	ax,bx
2926:5A1B  D0 D8				rcr	al,1			; Rotate thru carry
2926:5A1D  72 03				jc	loc_548			; Jump if carry Set
2926:5A1F  E9 0046				jmp	loc_549			; (5A68)
2926:5A22			loc_548:
2926:5A22  8B 46 9F				mov	ax,[bp-61h]
           ICON.LST				Sourcer	v8.01  20-Jul-2026 12:15 am   Page 146

2926:5A25  93					xchg	bx,ax
2926:5A26  0AB8			data_275	dw	0AB8h
2926:5A28  00 F7 EB 50 8A 46			db	 00h,0F7h,0EBh, 50h, 8Ah, 46h
2926:5A2E  329E			data_276	dw	329Eh
2926:5A30  5BE4			data_277	dw	5BE4h
2926:5A32  03 C3 93 B8				db	 03h,0C3h, 93h,0B8h
2926:5A36  30			data_278	db	30h
2926:5A37  00					db	0
2926:5A38  2B			data_279	db	2Bh
2926:5A39  D8 93 89 46 9F C4			db	0D8h, 93h, 89h, 46h, 9Fh,0C4h
2926:5A3F  7E 04 06 57 C4 7E			db	 7Eh, 04h, 06h, 57h,0C4h, 7Eh
2926:5A45  04 26 8B 05 40 5F			db	 04h, 26h, 8Bh, 05h, 40h, 5Fh
2926:5A4B  07 26 89 05 16 8D			db	 07h, 26h, 89h, 05h, 16h, 8Dh
2926:5A51  46 AD 50 C4 7E 04			db	 46h,0ADh, 50h,0C4h, 7Eh, 04h
2926:5A57  26 8B 05 5B 03 C3			db	 26h, 8Bh, 05h, 5Bh, 03h,0C3h
2926:5A5D  97 07 26 8A 05 88			db	 97h, 07h, 26h, 8Ah, 05h, 88h
2926:5A63  46 9E E9 7A FF			db	 46h, 9Eh,0E9h, 7Ah,0FFh
2926:5A68			loc_549:
2926:5A68  8B 46 9F				mov	ax,[bp-61h]
2926:5A6B  89 46 F4				mov	[bp-0Ch],ax
2926:5A6E  8B 46 F4				mov	ax,[bp-0Ch]
2926:5A71  8B E5				mov	sp,bp
2926:5A73  5D					pop	bp
2926:5A74  C2 0008				retn	8
2926:5A77			loc_550:
2926:5A77  55					push	bp
2926:5A78  8B EC				mov	bp,sp
2926:5A7A  8155			data_280	dw	8155h
2926:5A7C			loc_551:
2926:5A7C  EC			data_281	db	0ECh
2926:5A7D  0C 00 A0 1A 60 88			db	 0Ch, 00h,0A0h, 1Ah, 60h, 88h
2926:5A83  46 F4 8A 46 F4 32			db	 46h,0F4h, 8Ah, 46h,0F4h, 32h
2926:5A89  E4 8B E5 5D C3			db	0E4h, 8Bh,0E5h, 5Dh,0C3h
2926:5A8E			loc_552:
2926:5A8E  55					push	bp
2926:5A8F  8B EC				mov	bp,sp
2926:5A91  55					push	bp
2926:5A92  81 EC 0002				sub	sp,2
2926:5A96  7EC4			data_282	dw	7EC4h
2926:5A98  04 26 8B 05 3D A0			db	 04h, 26h, 8Bh, 05h, 3Dh,0A0h
2926:5A9E  00 7C 03 E9 14 00			db	 00h, 7Ch, 03h,0E9h, 14h, 00h
2926:5AA4			loc_553:
2926:5AA4  C4 7E 04				les	di,dword ptr [bp+4]	; Load seg:offset ptr
2926:5AA7  06					push	es
2926:5AA8  57					push	di
2926:5AA9  C4 7E 04				les	di,dword ptr [bp+4]	; Load seg:offset ptr
2926:5AAC  26: 8B 05				mov	ax,es:[di]
2926:5AAF  40					inc	ax
2926:5AB0  5F					pop	di
2926:5AB1  07					pop	es
2926:5AB2  26: 89 05				mov	es:[di],ax
2926:5AB5  E9 0008				jmp	loc_555			; (5AC0)
2926:5AB8			loc_554:
2926:5AB8  C4 7E 04				les	di,dword ptr [bp+4]	; Load seg:offset ptr
2926:5ABB  26: C7 05 0000			mov	word ptr es:[di],0
2926:5AC0			loc_555:
2926:5AC0  8B E5				mov	sp,bp
           ICON.LST				Sourcer	v8.01  20-Jul-2026 12:15 am   Page 147

2926:5AC2  5D					pop	bp
2926:5AC3  C2 0004				retn	4
2926:5AC6			loc_556:
2926:5AC6  55					push	bp
2926:5AC7  8B EC				mov	bp,sp
2926:5AC9  55					push	bp
2926:5ACA  81 EC 0002				sub	sp,2
2926:5ACE  A0 5A7C				mov	al,data_281		; (2926:5A7C=0ECh)
2926:5AD1  32 E4				xor	ah,ah			; Zero register
2926:5AD3  F7 D0				not	ax
2926:5AD5  D0 D8				rcr	al,1			; Rotate thru carry
2926:5AD7  72 03				jc	loc_557			; Jump if carry Set
2926:5AD9  E9 004C				jmp	loc_558			; (5B28)
2926:5ADC			loc_557:
2926:5ADC  A1 5A30				mov	ax,data_277		; (2926:5A30=5BE4h)
2926:5ADF  50					push	ax
2926:5AE0  A1 5A2E				mov	ax,data_276		; (2926:5A2E=329Eh)
2926:5AE3  50					push	ax
2926:5AE4  8B 46 04				mov	ax,[bp+4]
2926:5AE7  50					push	ax
2926:5AE8  B8 0000				mov	ax,0
2926:5AEB  50					push	ax
2926:5AEC  58					pop	ax
2926:5AED  5B					pop	bx
2926:5AEE  50					push	ax
2926:5AEF  53					push	bx
2926:5AF0  E8 292C				call	sub_197			; (841F)
2926:5AF3  53					push	bx
2926:5AF4  50					push	ax
2926:5AF5  58					pop	ax
2926:5AF6  5B					pop	bx
2926:5AF7  50					push	ax
2926:5AF8  53					push	bx
2926:5AF9  B8 0000				mov	ax,0
2926:5AFC  5B					pop	bx
2926:5AFD  23 C3				and	ax,bx
2926:5AFF  5B					pop	bx
2926:5B00  03 C3				add	ax,bx
2926:5B02  89 46 04				mov	[bp+4],ax
2926:5B05  8B 46 04				mov	ax,[bp+4]
2926:5B08  93					xchg	bx,ax
2926:5B09  B8 00FF				mov	ax,0FFh
2926:5B0C  23 C3				and	ax,bx
2926:5B0E  50					push	ax
2926:5B0F  B8 0042				mov	ax,42h
2926:5B12  50					push	ax
2926:5B13  5A					pop	dx
2926:5B14  58					pop	ax
2926:5B15  EE					out	dx,al			; port 42h, 8253 timer 2 spkr
2926:5B16  FF 76 04				push	word ptr [bp+4]
2926:5B19  B8 0008				mov	ax,8
2926:5B1C  50					push	ax
2926:5B1D  E8 2786				call	sub_185			; (82A6)
2926:5B20  50					push	ax
2926:5B21  B8 0042				mov	ax,42h
2926:5B24  50					push	ax
2926:5B25  5A					pop	dx
           ICON.LST				Sourcer	v8.01  20-Jul-2026 12:15 am   Page 148

2926:5B26  58					pop	ax
2926:5B27  EE					out	dx,al			; port 42h, 8253 timer 2 spkr
2926:5B28			loc_558:
2926:5B28  8B E5				mov	sp,bp
2926:5B2A  5D					pop	bp
2926:5B2B  C2 0002				retn	2
2926:5B2E			loc_559:
2926:5B2E  55					push	bp
2926:5B2F  8B EC				mov	bp,sp
2926:5B31  55					push	bp
2926:5B32  81 EC 0004				sub	sp,4
2926:5B36  81 7E 06 0000			cmp	word ptr [bp+6],0
2926:5B3B  75 03				jne	loc_560			; Jump if not equal
2926:5B3D  E9 0018				jmp	loc_561			; (5B58)
2926:5B40			loc_560:
2926:5B40  1E					push	ds
2926:5B41  B8 5E36				mov	ax,5E36h
2926:5B44  50					push	ax
2926:5B45  A1 5A7A				mov	ax,data_280		; (2926:5A7A=8155h)
2926:5B48  BB 0003				mov	bx,3
2926:5B4B  F7 E3				mul	bx			; dx:ax = reg * ax
2926:5B4D  5B					pop	bx
2926:5B4E  03 C3				add	ax,bx
2926:5B50  97					xchg	di,ax
2926:5B51  8B 46 06				mov	ax,[bp+6]
2926:5B54  07					pop	es
2926:5B55  26: 89 05				mov	es:[di],ax
2926:5B58			loc_561:
2926:5B58  1E					push	ds
2926:5B59  B8 5E36				mov	ax,5E36h
2926:5B5C  50					push	ax
2926:5B5D  A1 5A7A				mov	ax,data_280		; (2926:5A7A=8155h)
2926:5B60  BB 0003				mov	bx,3
2926:5B63  F7 E3				mul	bx			; dx:ax = reg * ax
2926:5B65  5B					pop	bx
2926:5B66  03 C3				add	ax,bx
2926:5B68  40					inc	ax
2926:5B69  40					inc	ax
2926:5B6A  97					xchg	di,ax
2926:5B6B  8B 46 04				mov	ax,[bp+4]
2926:5B6E  07					pop	es
2926:5B6F  26: 88 05				mov	es:[di],al
2926:5B72  81 7E 04 0000			cmp	word ptr [bp+4],0
2926:5B77  7E 03				jle	loc_562			; Jump if < or =
2926:5B79  E9 0022				jmp	loc_563			; (5B9E)
2926:5B7C			loc_562:
2926:5B7C  B8 0061				mov	ax,61h
2926:5B7F  50					push	ax
2926:5B80  5A					pop	dx
2926:5B81  EC					in	al,dx			; port 61h, 8255 port B, read
2926:5B82  93					xchg	bx,ax
2926:5B83  B8 00FC				mov	ax,0FCh
2926:5B86  23 C3				and	ax,bx
2926:5B88  50					push	ax
2926:5B89  B8 0061				mov	ax,61h
2926:5B8C  50					push	ax
2926:5B8D  5A					pop	dx
           ICON.LST				Sourcer	v8.01  20-Jul-2026 12:15 am   Page 149

2926:5B8E  58					pop	ax
2926:5B8F  EE					out	dx,al			; port 61h, 8255 B - spkr, etc
2926:5B90  A1 5A7A				mov	ax,data_280		; (2926:5A7A=8155h)
2926:5B93  A3 29F6				mov	data_154,ax		; (2926:29F6=8B2Eh)
2926:5B96  C6 06 601A 01			mov	byte ptr data_295,1	; (2926:601A=48h)
2926:5B9B  E9 0078				jmp	loc_570			; (5C16)
2926:5B9E			loc_563:
2926:5B9E  A0 601A				mov	al,data_295		; (2926:601A=48h)
2926:5BA1  D0 D8				rcr	al,1			; Rotate thru carry
2926:5BA3  72 03				jc	loc_564			; Jump if carry Set
2926:5BA5  E9 0038				jmp	loc_566			; (5BE0)
2926:5BA8			loc_564:
2926:5BA8  A0 5A7C				mov	al,data_281		; (2926:5A7C=0ECh)
2926:5BAB  32 E4				xor	ah,ah			; Zero register
2926:5BAD  F7 D0				not	ax
2926:5BAF  D0 D8				rcr	al,1			; Rotate thru carry
2926:5BB1  72 03				jc	loc_565			; Jump if carry Set
2926:5BB3  E9 002A				jmp	loc_566			; (5BE0)
2926:5BB6			loc_565:
2926:5BB6  C6 06 601A 00			mov	byte ptr data_295,0	; (2926:601A=48h)
2926:5BBB  FF 76 06				push	word ptr [bp+6]
2926:5BBE  E8 FDCA				call	sub_107			; (598B)
2926:5BC1  B8 0061				mov	ax,61h
2926:5BC4  50					push	ax
2926:5BC5  5A					pop	dx
2926:5BC6  EC					in	al,dx			; port 61h, 8255 port B, read
2926:5BC7  93					xchg	bx,ax
2926:5BC8  B8 0003				mov	ax,3
2926:5BCB  0B C3				or	ax,bx
2926:5BCD  50					push	ax
2926:5BCE  B8 0061				mov	ax,61h
2926:5BD1  50					push	ax
2926:5BD2  5A					pop	dx
2926:5BD3  58					pop	ax
2926:5BD4  EE					out	dx,al			; port 61h, 8255 B - spkr, etc
2926:5BD5  B8 00B6				mov	ax,0B6h
2926:5BD8  50					push	ax
2926:5BD9  B8 0043				mov	ax,43h
2926:5BDC  50					push	ax
2926:5BDD  5A					pop	dx
2926:5BDE  58					pop	ax
2926:5BDF  EE					out	dx,al			; port 43h, 8253 timer control
2926:5BE0			loc_566:
2926:5BE0  C6 06 5A38 00			mov	data_279,0		; (2926:5A38=2Bh)
2926:5BE5  1E					push	ds
2926:5BE6  B8 5A7A				mov	ax,5A7Ah
2926:5BE9  50					push	ax
2926:5BEA  E8 FD9B				call	sub_106			; (5988)
2926:5BED  A1 5A7A				mov	ax,data_280		; (2926:5A7A=8155h)
2926:5BF0  93					xchg	bx,ax
2926:5BF1  A1 29F6				mov	ax,data_154		; (2926:29F6=8B2Eh)
2926:5BF4  3B D8				cmp	bx,ax
2926:5BF6  74 03				je	loc_567			; Jump if equal
2926:5BF8  E9 001B				jmp	loc_570			; (5C16)
2926:5BFB			loc_567:
2926:5BFB  A1 5A7A				mov	ax,data_280		; (2926:5A7A=8155h)
2926:5BFE  3D 0000				cmp	ax,0
           ICON.LST				Sourcer	v8.01  20-Jul-2026 12:15 am   Page 150

2926:5C01  74 03				je	loc_568			; Jump if equal
2926:5C03  E9 0009				jmp	loc_569			; (5C0F)
2926:5C06			loc_568:
2926:5C06  C7 06 5A7A 00A0			mov	data_280,0A0h		; (2926:5A7A=8155h)
2926:5C0C  E9 0007				jmp	loc_570			; (5C16)
2926:5C0F			loc_569:
2926:5C0F  A1 5A7A				mov	ax,data_280		; (2926:5A7A=8155h)
2926:5C12  48					dec	ax
2926:5C13  A3 5A7A				mov	data_280,ax		; (2926:5A7A=8155h)
2926:5C16			loc_570:
2926:5C16  8B E5				mov	sp,bp
2926:5C18  5D					pop	bp
2926:5C19  C2 0004				retn	4
2926:5C1C			loc_571:
2926:5C1C  55					push	bp
2926:5C1D  8B EC				mov	bp,sp
2926:5C1F  55					push	bp
2926:5C20  81 EC 0004				sub	sp,4
2926:5C24  A0 601A				mov	al,data_295		; (2926:601A=48h)
2926:5C27  D0 D8				rcr	al,1			; Rotate thru carry
2926:5C29  72 03				jc	loc_572			; Jump if carry Set
2926:5C2B  E9 0003				jmp	loc_573			; (5C31)
2926:5C2E			loc_572:
2926:5C2E  E9 00A5				jmp	loc_580			; (5CD6)
2926:5C31			loc_573:
2926:5C31  A1 29F6				mov	ax,data_154		; (2926:29F6=8B2Eh)
2926:5C34  93					xchg	bx,ax
2926:5C35  A1 5A7A				mov	ax,data_280		; (2926:5A7A=8155h)
2926:5C38  3B D8				cmp	bx,ax
2926:5C3A  74 03				je	loc_574			; Jump if equal
2926:5C3C  E9 000E				jmp	loc_575			; (5C4D)
2926:5C3F			loc_574:
2926:5C3F  B8 0000				mov	ax,0
2926:5C42  50					push	ax
2926:5C43  B8 0000				mov	ax,0
2926:5C46  50					push	ax
2926:5C47  E8 FD44				call	sub_108			; (598E)
2926:5C4A  E9 0077				jmp	loc_578			; (5CC4)
2926:5C4D			loc_575:
2926:5C4D  1E					push	ds
2926:5C4E  B8 5E36				mov	ax,5E36h
2926:5C51  50					push	ax
2926:5C52  A1 29F6				mov	ax,data_154		; (2926:29F6=8B2Eh)
2926:5C55  BB 0003				mov	bx,3
2926:5C58  F7 E3				mul	bx			; dx:ax = reg * ax
2926:5C5A  5B					pop	bx
2926:5C5B  03 C3				add	ax,bx
2926:5C5D  97					xchg	di,ax
2926:5C5E  07					pop	es
2926:5C5F  26: 8B 05				mov	ax,es:[di]
2926:5C62  50					push	ax
2926:5C63  E8 FD25				call	sub_107			; (598B)
2926:5C66  1E					push	ds
2926:5C67  B8 5E36				mov	ax,5E36h
2926:5C6A  50					push	ax
2926:5C6B  A1 29F6				mov	ax,data_154		; (2926:29F6=8B2Eh)
2926:5C6E  BB 0003				mov	bx,3
           ICON.LST				Sourcer	v8.01  20-Jul-2026 12:15 am   Page 151

2926:5C71  F7 E3				mul	bx			; dx:ax = reg * ax
2926:5C73  5B					pop	bx
2926:5C74  03 C3				add	ax,bx
2926:5C76  40					inc	ax
2926:5C77  40					inc	ax
2926:5C78  97					xchg	di,ax
2926:5C79  07					pop	es
2926:5C7A  26: 8A 05				mov	al,es:[di]
2926:5C7D  32 E4				xor	ah,ah			; Zero register
2926:5C7F  3D 0001				cmp	ax,1
2926:5C82  7F 03				jg	loc_576			; Jump if >
2926:5C84  E9 0035				jmp	loc_577			; (5CBC)
2926:5C87			loc_576:
2926:5C87  1E					push	ds
2926:5C88  B8 5E36				mov	ax,5E36h
2926:5C8B  50					push	ax
2926:5C8C  A1 29F6				mov	ax,data_154		; (2926:29F6=8B2Eh)
2926:5C8F  BB 0003				mov	bx,3
2926:5C92  F7 E3				mul	bx			; dx:ax = reg * ax
2926:5C94  5B					pop	bx
2926:5C95  03 C3				add	ax,bx
2926:5C97  40					inc	ax
2926:5C98  40					inc	ax
2926:5C99  50					push	ax
2926:5C9A  1E					push	ds
2926:5C9B  B8 5E36				mov	ax,5E36h
2926:5C9E  50					push	ax
2926:5C9F  A1 29F6				mov	ax,data_154		; (2926:29F6=8B2Eh)
2926:5CA2  BB 0003				mov	bx,3
2926:5CA5  F7 E3				mul	bx			; dx:ax = reg * ax
2926:5CA7  5B					pop	bx
2926:5CA8  03 C3				add	ax,bx
2926:5CAA  40					inc	ax
2926:5CAB  40					inc	ax
2926:5CAC  97					xchg	di,ax
2926:5CAD  07					pop	es
2926:5CAE  26: 8A 05				mov	al,es:[di]
2926:5CB1  32 E4				xor	ah,ah			; Zero register
2926:5CB3  48					dec	ax
2926:5CB4  5F					pop	di
2926:5CB5  07					pop	es
2926:5CB6  26: 88 05				mov	es:[di],al
2926:5CB9  E9 0008				jmp	loc_578			; (5CC4)
2926:5CBC			loc_577:
2926:5CBC  1E					push	ds
2926:5CBD  B8 29F6				mov	ax,29F6h
2926:5CC0  50					push	ax
2926:5CC1  E8 FCC4				call	sub_106			; (5988)
2926:5CC4			loc_578:
2926:5CC4  A1 29F6				mov	ax,data_154		; (2926:29F6=8B2Eh)
2926:5CC7  93					xchg	bx,ax
2926:5CC8  A1 5A7A				mov	ax,data_280		; (2926:5A7A=8155h)
2926:5CCB  3B D8				cmp	bx,ax
2926:5CCD  B8 0000				mov	ax,0
2926:5CD0  75 01				jnz	loc_579			; Jump if not zero
2926:5CD2  40					inc	ax
2926:5CD3			loc_579:
           ICON.LST				Sourcer	v8.01  20-Jul-2026 12:15 am   Page 152

2926:5CD3  A2 5A38				mov	data_279,al		; (2926:5A38=2Bh)
2926:5CD6			loc_580:
2926:5CD6  8B E5				mov	sp,bp
2926:5CD8  5D					pop	bp
2926:5CD9  C3					retn
				sub_104		endp

2926:5CDA			loc_581:
2926:5CDA  55					push	bp
2926:5CDB  8B EC				mov	bp,sp
2926:5CDD  55					push	bp
2926:5CDE  81 EC 0002				sub	sp,2
2926:5CE2  C7 06 5A7A 0000			mov	data_280,0		; (2926:5A7A=8155h)
2926:5CE8  C7 06 29F6 0000			mov	data_154,0		; (2926:29F6=8B2Eh)
2926:5CEE  C6 06 601A 01			mov	byte ptr data_295,1	; (2926:601A=48h)
2926:5CF3  C6 06 5A38 01			mov	data_279,1		; (2926:5A38=2Bh)
2926:5CF8  B8 0012				mov	ax,12h
2926:5CFB  50					push	ax
2926:5CFC  B8 34DE				mov	ax,34DEh
2926:5CFF  A3 5A2E				mov	data_276,ax		; (2926:5A2E=329Eh)
2926:5D02  58					pop	ax
2926:5D03  A3 5A30				mov	data_277,ax		; (2926:5A30=5BE4h)
2926:5D06  B8 0061				mov	ax,61h
2926:5D09  50					push	ax
2926:5D0A  5A					pop	dx
2926:5D0B  EC					in	al,dx			; port 61h, 8255 port B, read
2926:5D0C  93					xchg	bx,ax
2926:5D0D  B8 00FC				mov	ax,0FCh
2926:5D10  23 C3				and	ax,bx
2926:5D12  50					push	ax
2926:5D13  B8 0061				mov	ax,61h
2926:5D16  50					push	ax
2926:5D17  5A					pop	dx
2926:5D18  58					pop	ax
2926:5D19  EE					out	dx,al			; port 61h, 8255 B - spkr, etc
2926:5D1A  8B E5				mov	sp,bp
2926:5D1C  5D					pop	bp
2926:5D1D  C3					retn
2926:5D1E			loc_582:
2926:5D1E  55					push	bp
2926:5D1F  8B EC				mov	bp,sp
2926:5D21  55					push	bp
2926:5D22  81 EC 0002				sub	sp,2
2926:5D26  E8 FC6B				call	sub_110			; (5994)
2926:5D29  1E					push	ds
2926:5D2A  B8 2D84				mov	ax,2D84h
2926:5D2D  05 0000				add	ax,0
2926:5D30  97					xchg	di,ax
2926:5D31  07					pop	es
2926:5D32  26: C7 05 0001			mov	word ptr es:[di],1
2926:5D37  1E					push	ds
2926:5D38  B8 2D84				mov	ax,2D84h
2926:5D3B  05 0002				add	ax,2
2926:5D3E  97					xchg	di,ax
2926:5D3F  07					pop	es
2926:5D40  26: C7 05 0003			mov	word ptr es:[di],3
2926:5D45  1E					push	ds
           ICON.LST				Sourcer	v8.01  20-Jul-2026 12:15 am   Page 153

2926:5D46  B8 2D84				mov	ax,2D84h
2926:5D49  05 0004				add	ax,4
2926:5D4C  97					xchg	di,ax
2926:5D4D  07					pop	es
2926:5D4E  26: C7 05 0004			mov	word ptr es:[di],4
2926:5D53  1E					push	ds
2926:5D54  B8 2D84				mov	ax,2D84h
2926:5D57  05 0006				add	ax,6
2926:5D5A  97					xchg	di,ax
2926:5D5B  07					pop	es
2926:5D5C  26: C7 05 0006			mov	word ptr es:[di],6
2926:5D61  1E					push	ds
2926:5D62  B8 2D84				mov	ax,2D84h
2926:5D65  05 0008				add	ax,8
2926:5D68  97					xchg	di,ax
2926:5D69  07					pop	es
2926:5D6A  26: C7 05 0008			mov	word ptr es:[di],8
2926:5D6F  1E					push	ds
2926:5D70  B8 2D84				mov	ax,2D84h
2926:5D73  05 000A				add	ax,0Ah
2926:5D76  97					xchg	di,ax
2926:5D77  07					pop	es
2926:5D78  26: C7 05 0009			mov	word ptr es:[di],9
2926:5D7D  1E					push	ds
2926:5D7E  B8 2D84				mov	ax,2D84h
2926:5D81  05 000C				add	ax,0Ch
2926:5D84  97					xchg	di,ax
2926:5D85  07					pop	es
2926:5D86  26: C7 05 000B			mov	word ptr es:[di],0Bh
2926:5D8B  1E					push	ds
2926:5D8C  B8 5A7E				mov	ax,5A7Eh
2926:5D8F  05 0006				add	ax,6
2926:5D92  97					xchg	di,ax
2926:5D93  07					pop	es
2926:5D94  26: C7 05 082E			mov	word ptr es:[di],82Eh
2926:5D99  1E					push	ds
2926:5D9A  B8 5A7E				mov	ax,5A7Eh
2926:5D9D  05 0008				add	ax,8
2926:5DA0  97					xchg	di,ax
2926:5DA1  07					pop	es
2926:5DA2  26: C7 05 08AA			mov	word ptr es:[di],8AAh
2926:5DA7  1E					push	ds
2926:5DA8  7EB8			data_283	dw	7EB8h
2926:5DAA  055A			data_284	dw	55Ah
2926:5DAC  000A			data_285	dw	0Ah
2926:5DAE  97			data_286	db	97h
2926:5DAF  07 26 C7 05 2E 09			db	 07h, 26h,0C7h, 05h, 2Eh, 09h
2926:5DB5  1E B8 7E 5A 05 0C			db	 1Eh,0B8h, 7Eh, 5Ah, 05h, 0Ch
2926:5DBB  00 97 07 26 C7 05			db	 00h, 97h, 07h, 26h,0C7h, 05h
2926:5DC1  B8 09 1E B8 7E 5A			db	0B8h, 09h, 1Eh,0B8h, 7Eh, 5Ah
2926:5DC7  05 0E 00 97 07 26			db	 05h, 0Eh, 00h, 97h, 07h, 26h
2926:5DCD  C7 05 4E 0A 1E B8			db	0C7h, 05h, 4Eh, 0Ah, 1Eh,0B8h
2926:5DD3  7E 5A 05 10 00 97			db	 7Eh, 5Ah, 05h, 10h, 00h, 97h
2926:5DD9  07 26 C7				db	 07h, 26h,0C7h
2926:5DDC  EA05			data_287	dw	0EA05h
2926:5DDE  0A 1E B8 7E 5A 05			db	 0Ah, 1Eh,0B8h, 7Eh, 5Ah, 05h
2926:5DE4  0012			data_288	dw	12h
           ICON.LST				Sourcer	v8.01  20-Jul-2026 12:15 am   Page 154

2926:5DE6  97 07				db	 97h, 07h
2926:5DE8  C726			data_289	dw	0C726h
2926:5DEA  9005			data_290	dw	9005h
2926:5DEC  0B 1E B8 7E 5A 05			db	 0Bh, 1Eh,0B8h, 7Eh, 5Ah, 05h
2926:5DF2  14 00				db	 14h, 00h
2926:5DF4  97			data_291	db	97h
2926:5DF5  07 26 C7 05 40 0C			db	 07h, 26h,0C7h, 05h, 40h, 0Ch
2926:5DFB  1E B8 7E 5A 05 16			db	 1Eh,0B8h, 7Eh, 5Ah, 05h, 16h
2926:5E01  00 97 07 26 C7 05			db	 00h, 97h, 07h, 26h,0C7h, 05h
2926:5E07  FA 0C 1E B8 7E 5A			db	0FAh, 0Ch, 1Eh,0B8h, 7Eh, 5Ah
2926:5E0D  05 00 00 97 07 26			db	 05h, 00h, 00h, 97h, 07h, 26h
2926:5E13  C7 05 C0 0D 1E B8			db	0C7h, 05h,0C0h, 0Dh, 1Eh,0B8h
2926:5E19  7E 5A 05 02 00 97			db	 7Eh, 5Ah, 05h, 02h, 00h, 97h
2926:5E1F  07					db	 07h
2926:5E20  26			data_292	db	26h
2926:5E21  C7 05 92 0E 1E B8			db	0C7h, 05h, 92h, 0Eh, 1Eh,0B8h
2926:5E27  7E 5A 05 04 00 97			db	 7Eh, 5Ah, 05h, 04h, 00h, 97h
2926:5E2D  07					db	 07h
2926:5E2E  C726			data_293	dw	0C726h
2926:5E30  05			data_294	db	5
2926:5E31  70 0F C7 06 A8 5D			db	 70h, 0Fh,0C7h, 06h,0A8h, 5Dh
2926:5E37  04 00 C7 06 96 5A			db	 04h, 00h,0C7h, 06h, 96h, 5Ah
2926:5E3D  08 00 8B E5				db	 08h, 00h, 8Bh,0E5h
2926:5E41  5D					db	5Dh
2926:5E42			loc_583:
2926:5E42  C3					retn
2926:5E43			loc_584:
2926:5E43  55					push	bp
2926:5E44  8B EC				mov	bp,sp
2926:5E46  55					push	bp
2926:5E47  81 EC 005E				sub	sp,5Eh
2926:5E4B  16					push	ss
2926:5E4C  8D 46 AD				lea	ax,[bp-53h]		; Load effective addr
2926:5E4F  50					push	ax
2926:5E50  8B 46 08				mov	ax,[bp+8]
2926:5E53  50					push	ax
2926:5E54  8B 46 06				mov	ax,[bp+6]
2926:5E57  50					push	ax
2926:5E58  B8 0051				mov	ax,51h
2926:5E5B  50					push	ax
2926:5E5C  E8 07B3				call	sub_124			; (6612)
2926:5E5F  16					push	ss
2926:5E60  8D 46 AD				lea	ax,[bp-53h]		; Load effective addr
2926:5E63  97					xchg	di,ax
2926:5E64  07					pop	es
2926:5E65  26: 8A 05				mov	al,es:[di]
2926:5E68  32 E4				xor	ah,ah			; Zero register
2926:5E6A  89 46 A5				mov	[bp-5Bh],ax
2926:5E6D  8B 46 04				mov	ax,[bp+4]
2926:5E70  89 46 A7				mov	[bp-59h],ax
2926:5E73			loc_585:
2926:5E73  8B 46 A7				mov	ax,[bp-59h]
2926:5E76  93					xchg	bx,ax
2926:5E77  8B 46 A5				mov	ax,[bp-5Bh]
2926:5E7A  3B D8				cmp	bx,ax
2926:5E7C  7E 03				jle	loc_586			; Jump if < or =
2926:5E7E  E9 0265				jmp	loc_615			; (60E6)
           ICON.LST				Sourcer	v8.01  20-Jul-2026 12:15 am   Page 155

2926:5E81			loc_586:
2926:5E81  16					push	ss
2926:5E82  8D 46 AD				lea	ax,[bp-53h]		; Load effective addr
2926:5E85  50					push	ax
2926:5E86  8B 46 A7				mov	ax,[bp-59h]
2926:5E89  5B					pop	bx
2926:5E8A  03 C3				add	ax,bx
2926:5E8C  97					xchg	di,ax
2926:5E8D  07					pop	es
2926:5E8E  26: 8A 05				mov	al,es:[di]
2926:5E91  88 46 A4				mov	[bp-5Ch],al
2926:5E94  8B 46 A7				mov	ax,[bp-59h]
2926:5E97  40					inc	ax
2926:5E98  89 46 A7				mov	[bp-59h],ax
2926:5E9B  8A 46 A4				mov	al,[bp-5Ch]
2926:5E9E  32 E4				xor	ah,ah			; Zero register
2926:5EA0  50					push	ax
2926:5EA1  E9 01F2				jmp	loc_611			; (6096)
							                        ;* No entry point to code
2926:5EA4  B8 0020				mov	ax,20h
2926:5EA7  50					push	ax
2926:5EA8  16					push	ss
2926:5EA9  8D 46 AD				lea	ax,[bp-53h]		; Load effective addr
2926:5EAC  50					push	ax
2926:5EAD  16					push	ss
2926:5EAE  8D 46 A7				lea	ax,[bp-59h]		; Load effective addr
2926:5EB1  50					push	ax
2926:5EB2  E8 FACD				call	sub_104			; (5982)
2926:5EB5  5B					pop	bx
2926:5EB6  93					xchg	bx,ax
2926:5EB7  99					cwd				; Word to double word
2926:5EB8  F7 FB				idiv	bx			; ax,dx rem=dx:ax/reg
2926:5EBA  A3 5A96				mov	data_282,ax		; (2926:5A96=7EC4h)
2926:5EBD  E9 0223				jmp	loc_614			; (60E3)
							                        ;* No entry point to code
2926:5EC0  16					push	ss
2926:5EC1  8D 46 AD				lea	ax,[bp-53h]		; Load effective addr
2926:5EC4  50					push	ax
2926:5EC5  16					push	ss
2926:5EC6  8D 46 A7				lea	ax,[bp-59h]		; Load effective addr
2926:5EC9  50					push	ax
2926:5ECA  E8 FAB5				call	sub_104			; (5982)
2926:5ECD  A3 5DA8				mov	data_283,ax		; (2926:5DA8=7EB8h)
2926:5ED0  E9 0210				jmp	loc_614			; (60E3)
							                        ;* No entry point to code
2926:5ED3  A1 5DA8				mov	ax,data_283		; (2926:5DA8=7EB8h)
2926:5ED6  40					inc	ax
2926:5ED7  A3 5DA8				mov	data_283,ax		; (2926:5DA8=7EB8h)
2926:5EDA  E9 0206				jmp	loc_614			; (60E3)
							                        ;* No entry point to code
2926:5EDD  A1 5DA8				mov	ax,data_283		; (2926:5DA8=7EB8h)
2926:5EE0  48					dec	ax
2926:5EE1  A3 5DA8				mov	data_283,ax		; (2926:5DA8=7EB8h)
2926:5EE4  E9 01FC				jmp	loc_614			; (60E3)
							                        ;* No entry point to code
2926:5EE7  B8 0001				mov	ax,1
2926:5EEA  50					push	ax
           ICON.LST				Sourcer	v8.01  20-Jul-2026 12:15 am   Page 156

2926:5EEB  16					push	ss
2926:5EEC  8D 46 AD				lea	ax,[bp-53h]		; Load effective addr
2926:5EEF  50					push	ax
2926:5EF0  16					push	ss
2926:5EF1  8D 46 A7				lea	ax,[bp-59h]		; Load effective addr
2926:5EF4  50					push	ax
2926:5EF5  E8 FA8A				call	sub_104			; (5982)
2926:5EF8  5B					pop	bx
2926:5EF9  93					xchg	bx,ax
2926:5EFA  89 46 A9				mov	[bp-57h],ax
2926:5EFD  93					xchg	bx,ax
2926:5EFE  FF 4E A9				dec	word ptr [bp-57h]
2926:5F01  2B C3				sub	ax,bx
2926:5F03  40					inc	ax
2926:5F04  89 46 A2				mov	[bp-5Eh],ax
2926:5F07			loc_587:
2926:5F07  FF 46 A9				inc	word ptr [bp-57h]
2926:5F0A  FF 4E A2				dec	word ptr [bp-5Eh]
2926:5F0D  7D 03				jge	loc_588			; Jump if > or =
2926:5F0F  E9 000D				jmp	loc_589			; (5F1F)
2926:5F12			loc_588:
2926:5F12  16					push	ss
2926:5F13  8D 46 AD				lea	ax,[bp-53h]		; Load effective addr
2926:5F16  50					push	ax
2926:5F17  FF 76 A7				push	word ptr [bp-59h]
2926:5F1A  E8 FA7D				call	sub_112			; (599A)
2926:5F1D  EB E8				jmp	short loc_587		; (5F07)
2926:5F1F			loc_589:
2926:5F1F  16					push	ss
2926:5F20  8D 46 AD				lea	ax,[bp-53h]		; Load effective addr
2926:5F23  50					push	ax
2926:5F24  8B 46 A7				mov	ax,[bp-59h]
2926:5F27  5B					pop	bx
2926:5F28  03 C3				add	ax,bx
2926:5F2A  97					xchg	di,ax
2926:5F2B  07					pop	es
2926:5F2C  26: 8A 05				mov	al,es:[di]
2926:5F2F  32 E4				xor	ah,ah			; Zero register
2926:5F31  3D 005D				cmp	ax,5Dh
2926:5F34  B8 0000				mov	ax,0
2926:5F37  74 01				jz	loc_590			; Jump if zero
2926:5F39  40					inc	ax
2926:5F3A			loc_590:
2926:5F3A  50					push	ax
2926:5F3B  8B 46 A7				mov	ax,[bp-59h]
2926:5F3E  93					xchg	bx,ax
2926:5F3F  8B 46 A5				mov	ax,[bp-5Bh]
2926:5F42  3B D8				cmp	bx,ax
2926:5F44  B8 0000				mov	ax,0
2926:5F47  7F 01				jg	loc_591			; Jump if >
2926:5F49  40					inc	ax
2926:5F4A			loc_591:
2926:5F4A  5B					pop	bx
2926:5F4B  23 C3				and	ax,bx
2926:5F4D  D0 D8				rcr	al,1			; Rotate thru carry
2926:5F4F  72 03				jc	loc_592			; Jump if carry Set
2926:5F51  E9 0009				jmp	loc_593			; (5F5D)
           ICON.LST				Sourcer	v8.01  20-Jul-2026 12:15 am   Page 157

2926:5F54			loc_592:
2926:5F54  8B 46 A7				mov	ax,[bp-59h]
2926:5F57  40					inc	ax
2926:5F58  89 46 A7				mov	[bp-59h],ax
2926:5F5B  EB C2				jmp	short loc_589		; (5F1F)
2926:5F5D			loc_593:
2926:5F5D  16					push	ss
2926:5F5E  8D 46 AD				lea	ax,[bp-53h]		; Load effective addr
2926:5F61  50					push	ax
2926:5F62  8B 46 A7				mov	ax,[bp-59h]
2926:5F65  5B					pop	bx
2926:5F66  03 C3				add	ax,bx
2926:5F68  97					xchg	di,ax
2926:5F69  07					pop	es
2926:5F6A  26: 8A 05				mov	al,es:[di]
2926:5F6D  32 E4				xor	ah,ah			; Zero register
2926:5F6F  3D 005D				cmp	ax,5Dh
2926:5F72  74 03				je	loc_594			; Jump if equal
2926:5F74  E9 0007				jmp	loc_595			; (5F7E)
2926:5F77			loc_594:
2926:5F77  8B 46 A7				mov	ax,[bp-59h]
2926:5F7A  40					inc	ax
2926:5F7B  89 46 A7				mov	[bp-59h],ax
2926:5F7E			loc_595:
2926:5F7E  E9 0162				jmp	loc_614			; (60E3)
2926:5F81  E9 0162				jmp	loc_615			; (60E6)
2926:5F84  E9 015C				jmp	loc_614			; (60E3)
							                        ;* No entry point to code
2926:5F87  8A 46 A4				mov	al,[bp-5Ch]
2926:5F8A  32 E4				xor	ah,ah			; Zero register
2926:5F8C  81 F8 0041				cmp	ax,41h
2926:5F90  B8 0000				mov	ax,0
2926:5F93  7C 01				jl	loc_596			; Jump if <
2926:5F95  40					inc	ax
2926:5F96			loc_596:
2926:5F96  50					push	ax
2926:5F97  8A 46 A4				mov	al,[bp-5Ch]
2926:5F9A  32 E4				xor	ah,ah			; Zero register
2926:5F9C  81 F8 0047				cmp	ax,47h
2926:5FA0  B8 0000				mov	ax,0
2926:5FA3  7F 01				jg	loc_597			; Jump if >
2926:5FA5  40					inc	ax
2926:5FA6			loc_597:
2926:5FA6  5B					pop	bx
2926:5FA7  23 C3				and	ax,bx
2926:5FA9  D0 D8				rcr	al,1			; Rotate thru carry
2926:5FAB  72 03				jc	loc_598			; Jump if carry Set
2926:5FAD  E9 00E3				jmp	loc_610			; (6093)
2926:5FB0			loc_598:
2926:5FB0  1E					push	ds
2926:5FB1  B8 2D84				mov	ax,2D84h
2926:5FB4  50					push	ax
2926:5FB5  8A 46 A4				mov	al,[bp-5Ch]
2926:5FB8  32 E4				xor	ah,ah			; Zero register
2926:5FBA  2D 0041				sub	ax,41h
2926:5FBD  D1 E0				shl	ax,1			; Shift w/zeros fill
2926:5FBF  5B					pop	bx
           ICON.LST				Sourcer	v8.01  20-Jul-2026 12:15 am   Page 158

2926:5FC0  03 C3				add	ax,bx
2926:5FC2  97					xchg	di,ax
2926:5FC3  07					pop	es
2926:5FC4  26: 8B 05				mov	ax,es:[di]
2926:5FC7  89 46 A9				mov	[bp-57h],ax
2926:5FCA  16					push	ss
2926:5FCB  8D 46 AD				lea	ax,[bp-53h]		; Load effective addr
2926:5FCE  50					push	ax
2926:5FCF  8B 46 A7				mov	ax,[bp-59h]
2926:5FD2  5B					pop	bx
2926:5FD3  03 C3				add	ax,bx
2926:5FD5  97					xchg	di,ax
2926:5FD6  07					pop	es
2926:5FD7  26: 8A 05				mov	al,es:[di]
2926:5FDA  88 46 A4				mov	[bp-5Ch],al
2926:5FDD  8A 46 A4				mov	al,[bp-5Ch]
2926:5FE0  32 E4				xor	ah,ah			; Zero register
2926:5FE2  81 F8 0023				cmp	ax,23h
2926:5FE6  B8 0000				mov	ax,0
2926:5FE9  75 01				jnz	loc_599			; Jump if not zero
2926:5FEB  40					inc	ax
2926:5FEC			loc_599:
2926:5FEC  D0 D8				rcr	al,1			; Rotate thru carry
2926:5FEE  72 03				jc	loc_600			; Jump if carry Set
2926:5FF0  E9 000E				jmp	loc_601			; (6001)
2926:5FF3			loc_600:
2926:5FF3  8B 46 A9				mov	ax,[bp-57h]
2926:5FF6  40					inc	ax
2926:5FF7  89 46 A9				mov	[bp-57h],ax
2926:5FFA  8B 46 A7				mov	ax,[bp-59h]
2926:5FFD  40					inc	ax
2926:5FFE  89 46 A7				mov	[bp-59h],ax
2926:6001			loc_601:
2926:6001  8A 46 A4				mov	al,[bp-5Ch]
2926:6004  32 E4				xor	ah,ah			; Zero register
2926:6006  81 F8 002D				cmp	ax,2Dh
2926:600A  B8 0000				mov	ax,0
2926:600D  75 01				jnz	loc_602			; Jump if not zero
2926:600F  40					inc	ax
2926:6010			loc_602:
2926:6010  D0 D8				rcr	al,1			; Rotate thru carry
2926:6012  72 03				jc	loc_603			; Jump if carry Set
2926:6014  E9 000E				jmp	loc_604			; (6025)
2926:6017			loc_603:
2926:6017  8B 46 A9				mov	ax,[bp-57h]
2926:601A  48			data_295	db	48h
2926:601B  89					db	89h
2926:601C  46			data_296	db	46h			; Data table (indexed access)
2926:601D  A9 8B 46				db	0A9h, 8Bh, 46h
2926:6020  40A7			data_297	dw	40A7h			; Data table (indexed access)
2926:6022  4689			data_298	dw	4689h			; Data table (indexed access)
2926:6024  A7					db	0A7h
2926:6025			loc_604:
2926:6025  81 7E A9 0001			cmp	word ptr [bp-57h],1
2926:602A  7C 03				jl	loc_605			; Jump if <
2926:602C  E9 0005				jmp	loc_606			; (6034)
2926:602F			loc_605:
           ICON.LST				Sourcer	v8.01  20-Jul-2026 12:15 am   Page 159

2926:602F  C7 46 A9 000C			mov	word ptr [bp-57h],0Ch
2926:6034			loc_606:
2926:6034  A1 5A96				mov	ax,data_282		; (2926:5A96=7EC4h)
2926:6037  89 46 AB				mov	[bp-55h],ax
2926:603A  8A 46 A4				mov	al,[bp-5Ch]
2926:603D  32 E4				xor	ah,ah			; Zero register
2926:603F  81 F8 002E				cmp	ax,2Eh
2926:6043  B8 0000				mov	ax,0
2926:6046  75 01				jnz	loc_607			; Jump if not zero
2926:6048  40					inc	ax
2926:6049			loc_607:
2926:6049  D0 D8				rcr	al,1			; Rotate thru carry
2926:604B  72 03				jc	loc_608			; Jump if carry Set
2926:604D  E9 001B				jmp	loc_609			; (606B)
2926:6050			loc_608:
2926:6050  8B 46 AB				mov	ax,[bp-55h]
2926:6053  93					xchg	bx,ax
2926:6054  B8 0003				mov	ax,3
2926:6057  F7 EB				imul	bx			; dx:ax = reg * ax
2926:6059  93					xchg	bx,ax
2926:605A  B8 0002				mov	ax,2
2926:605D  93					xchg	bx,ax
2926:605E  99					cwd				; Word to double word
2926:605F  F7 FB				idiv	bx			; ax,dx rem=dx:ax/reg
2926:6061  89 46 AB				mov	[bp-55h],ax
2926:6064  8B 46 A7				mov	ax,[bp-59h]
2926:6067  40					inc	ax
2926:6068  89 46 A7				mov	[bp-59h],ax
2926:606B			loc_609:
2926:606B  1E					push	ds
2926:606C  B8 5A7E				mov	ax,5A7Eh
2926:606F  50					push	ax
2926:6070  8B 46 A9				mov	ax,[bp-57h]
2926:6073  48					dec	ax
2926:6074  D1 E0				shl	ax,1			; Shift w/zeros fill
2926:6076  5B					pop	bx
2926:6077  03 C3				add	ax,bx
2926:6079  97					xchg	di,ax
2926:607A  07					pop	es
2926:607B  26: 8B 05				mov	ax,es:[di]
2926:607E  50					push	ax
2926:607F  B8 0004				mov	ax,4
2926:6082  93					xchg	bx,ax
2926:6083  A1 5DA8				mov	ax,data_283		; (2926:5DA8=7EB8h)
2926:6086  2B D8				sub	bx,ax
2926:6088  53					push	bx
2926:6089  E8 221A				call	sub_185			; (82A6)
2926:608C  50					push	ax
2926:608D  FF 76 AB				push	word ptr [bp-55h]
2926:6090  E8 F8FB				call	sub_108			; (598E)
2926:6093			loc_610:
2926:6093  E9 004D				jmp	loc_614			; (60E3)
2926:6096			loc_611:
2926:6096  E8 227C				call	sub_190			; (8315)
2926:6099  3C 00				cmp	al,0
2926:609B  21 00				and	[bx+si],ax
2926:609D  3E FE E6 FE 30 FE			db	 3Eh,0FEh,0E6h,0FEh, 30h,0FEh
           ICON.LST				Sourcer	v8.01  20-Jul-2026 12:15 am   Page 160


2926:60A3			locloop_612:
2926:60A3  E2 FE				loop	locloop_612		; Loop if cx > 0


2926:60A5			locloop_613:
2926:60A5  E0 FE				loopnz	locloop_613		; Loop if zf=0, cx>0

2926:60A7  DE FE				fdivp	st(6),st		; st(#)=st(#)/st, pop
2926:60A9  DC FE				fdiv	st(6),st		; st(#) = st(#) / st
2926:60AB  DA FE D8 FE D6 FE			db	0DAh,0FEh,0D8h,0FEh,0D6h,0FEh
2926:60B1  D4 FE D2 FE D0 FE			db	0D4h,0FEh,0D2h,0FEh,0D0h,0FEh
2926:60B7  CE FE CC FE CA FE			db	0CEh,0FEh,0CCh,0FEh,0CAh,0FEh
2926:60BD  E5 FD C6 FE C4 FE			db	0E5h,0FDh,0C6h,0FEh,0C4h,0FEh
2926:60C3  FB FD C0 FE BE FE			db	0FBh,0FDh,0C0h,0FEh,0BEh,0FEh
2926:60C9  BC FE BA FE B8 FE			db	0BCh,0FEh,0BAh,0FEh,0B8h,0FEh
2926:60CF  B6 FE B4 FE B2 FE			db	0B6h,0FEh,0B4h,0FEh,0B2h,0FEh
2926:60D5  B0 FE AE FE AC FE			db	0B0h,0FEh,0AEh,0FEh,0ACh,0FEh
2926:60DB  0A FE A8 FE A0 FE			db	 0Ah,0FEh,0A8h,0FEh,0A0h,0FEh
2926:60E1  A4 FE				db	0A4h,0FEh
2926:60E3			loc_614:
2926:60E3  E9 FD8D				jmp	loc_585			; (5E73)
2926:60E6			loc_615:
2926:60E6  8B E5				mov	sp,bp
2926:60E8  5D					pop	bp
2926:60E9  C2 0006				retn	6
2926:60EC  E9 00 00				db	0E9h, 00h, 00h

				;ßßßßßßßßßßßßßßßßßßßßßßßßßßßßßßßßßßßßßßßßßßßßßßßßßßßßßßßßßßßßßßßßßßßßßßßßßß
				;                              SUBROUTINE
				;ÜÜÜÜÜÜÜÜÜÜÜÜÜÜÜÜÜÜÜÜÜÜÜÜÜÜÜÜÜÜÜÜÜÜÜÜÜÜÜÜÜÜÜÜÜÜÜÜÜÜÜÜÜÜÜÜÜÜÜÜÜÜÜÜÜÜÜÜÜÜÜÜÜÜ

2926:60EF			sub_113		proc	near
2926:60EF			loc_616:
2926:60EF  E9 000F				jmp	loc_617			; (6101)
2926:60F2  E9 0045				jmp	loc_618			; (613A) delay for I/O
2926:60F5  E9 00A0				jmp	loc_619			; (6198)

				;ßßßß External Entry into Subroutine ßßßßßßßßßßßßßßßßßßßßßßßßßßßßßßßßßßßßßß

2926:60F8			sub_114:
2926:60F8  E9 0168				jmp	loc_631			; (6263)

				;ßßßß External Entry into Subroutine ßßßßßßßßßßßßßßßßßßßßßßßßßßßßßßßßßßßßßß

2926:60FB			sub_115:
2926:60FB  E9 0177				jmp	loc_632			; (6275)

				;ßßßß External Entry into Subroutine ßßßßßßßßßßßßßßßßßßßßßßßßßßßßßßßßßßßßßß

2926:60FE			sub_116:
2926:60FE  E9 01AC				jmp	loc_636			; (62AD)
2926:6101			loc_617:
2926:6101  55					push	bp
2926:6102  8B EC				mov	bp,sp
2926:6104  55					push	bp
2926:6105  81 EC 0006				sub	sp,6
           ICON.LST				Sourcer	v8.01  20-Jul-2026 12:15 am   Page 161

2926:6109  A1 2BF4				mov	ax,data_167		; (2926:2BF4=90Ch)
2926:610C  50					push	ax
2926:610D  A1 2BF2				mov	ax,data_166		; (2926:2BF2=200h)
2926:6110  89 46 FA				mov	[bp-6],ax
2926:6113  58					pop	ax
2926:6114  89 46 FC				mov	[bp-4],ax
2926:6117  A1 2A42				mov	ax,data_158		; (2926:2A42=7503h)
2926:611A  50					push	ax
2926:611B  A1 2A40				mov	ax,data_157		; (2926:2A40=3CFFh)
2926:611E  A3 2BF2				mov	data_166,ax		; (2926:2BF2=200h)
2926:6121  58					pop	ax
2926:6122  A3 2BF4				mov	data_167,ax		; (2926:2BF4=90Ch)
2926:6125  8B 46 FC				mov	ax,[bp-4]
2926:6128  50					push	ax
2926:6129  8B 46 FA				mov	ax,[bp-6]
2926:612C  A3 2A40				mov	data_157,ax		; (2926:2A40=3CFFh)
2926:612F  58					pop	ax
2926:6130  A3 2A42				mov	data_158,ax		; (2926:2A42=7503h)
2926:6133  E8 BFE7				call	sub_80			; (211D)
2926:6136  8B E5				mov	sp,bp
2926:6138  5D					pop	bp
2926:6139  C3					retn
2926:613A			loc_618:
2926:613A  55					push	bp
2926:613B  8B EC				mov	bp,sp
2926:613D  55					push	bp
2926:613E  81 EC 0008				sub	sp,8
2926:6142  A1 2BF4				mov	ax,data_167		; (2926:2BF4=90Ch)
2926:6145  50					push	ax
2926:6146  A1 2BF2				mov	ax,data_166		; (2926:2BF2=200h)
2926:6149  89 46 FA				mov	[bp-6],ax
2926:614C  58					pop	ax
2926:614D  89 46 FC				mov	[bp-4],ax
2926:6150  A1 206E				mov	ax,word ptr ds:[206Eh]	; (2926:206E=6B4h)
2926:6153  50					push	ax
2926:6154  A1 206C				mov	ax,word ptr ds:[206Ch]	; (2926:206C=1F21h)
2926:6157  A3 2BF2				mov	data_166,ax		; (2926:2BF2=200h)
2926:615A  58					pop	ax
2926:615B  A3 2BF4				mov	data_167,ax		; (2926:2BF4=90Ch)
2926:615E  C4 7E 04				les	di,dword ptr [bp+4]	; Load seg:offset ptr
2926:6161  83 C7 04				add	di,4
2926:6164  26: 8B 05				mov	ax,es:[di]
2926:6167  89 46 F8				mov	[bp-8],ax
2926:616A  1E					push	ds
2926:616B  B8 601C				mov	ax,601Ch
2926:616E  50					push	ax
2926:616F  8B 46 F8				mov	ax,[bp-8]
2926:6172  48					dec	ax
2926:6173  BB 001D				mov	bx,1Dh
2926:6176  F7 E3				mul	bx			; dx:ax = reg * ax
2926:6178  5B					pop	bx
2926:6179  03 C3				add	ax,bx
2926:617B  50					push	ax
2926:617C  C4 7E 04				les	di,dword ptr [bp+4]	; Load seg:offset ptr
2926:617F  06					push	es
2926:6180  57					push	di
2926:6181  E8 C07C				call	sub_82			; (2200)
           ICON.LST				Sourcer	v8.01  20-Jul-2026 12:15 am   Page 162

2926:6184  8B 46 FC				mov	ax,[bp-4]
2926:6187  50					push	ax
2926:6188  8B 46 FA				mov	ax,[bp-6]
2926:618B  A3 2BF2				mov	data_166,ax		; (2926:2BF2=200h)
2926:618E  58					pop	ax
2926:618F  A3 2BF4				mov	data_167,ax		; (2926:2BF4=90Ch)
2926:6192  8B E5				mov	sp,bp
2926:6194  5D					pop	bp
2926:6195  C2 0004				retn	4
2926:6198			loc_619:
2926:6198  55					push	bp
2926:6199  8B EC				mov	bp,sp
2926:619B  55					push	bp
2926:619C  81 EC 0012				sub	sp,12h
2926:61A0  C4 7E 08				les	di,dword ptr [bp+8]	; Load seg:offset ptr
2926:61A3  83 C7 04				add	di,4
2926:61A6  26: 8B 05				mov	ax,es:[di]
2926:61A9  3D FFFF				cmp	ax,0FFFFh
2926:61AC  75 03				jne	loc_620			; Jump if not equal
2926:61AE  E9 0061				jmp	loc_624			; (6212)
2926:61B1			loc_620:
2926:61B1  1E					push	ds
2926:61B2  B8 601C				mov	ax,601Ch
2926:61B5  50					push	ax
2926:61B6  C4 7E 08				les	di,dword ptr [bp+8]	; Load seg:offset ptr
2926:61B9  83 C7 04				add	di,4
2926:61BC  26: 8B 05				mov	ax,es:[di]
2926:61BF  48					dec	ax
2926:61C0  BB 001D				mov	bx,1Dh
2926:61C3  F7 E3				mul	bx			; dx:ax = reg * ax
2926:61C5  5B					pop	bx
2926:61C6  03 C3				add	ax,bx
2926:61C8  05 0006				add	ax,6
2926:61CB  97					xchg	di,ax
2926:61CC  07					pop	es
2926:61CD  26: 8B 05				mov	ax,es:[di]
2926:61D0  3D 0000				cmp	ax,0
2926:61D3  B8 0000				mov	ax,0
2926:61D6  7E 01				jle	loc_621			; Jump if < or =
2926:61D8  40					inc	ax
2926:61D9			loc_621:
2926:61D9  50					push	ax
2926:61DA  1E					push	ds
2926:61DB  B8 601C				mov	ax,601Ch
2926:61DE  50					push	ax
2926:61DF  C4 7E 08				les	di,dword ptr [bp+8]	; Load seg:offset ptr
2926:61E2  83 C7 04				add	di,4
2926:61E5  26: 8B 05				mov	ax,es:[di]
2926:61E8  48					dec	ax
2926:61E9  BB 001D				mov	bx,1Dh
2926:61EC  F7 E3				mul	bx			; dx:ax = reg * ax
2926:61EE  5B					pop	bx
2926:61EF  03 C3				add	ax,bx
2926:61F1  05 0004				add	ax,4
2926:61F4  97					xchg	di,ax
2926:61F5  07					pop	es
2926:61F6  26: 8B 05				mov	ax,es:[di]
           ICON.LST				Sourcer	v8.01  20-Jul-2026 12:15 am   Page 163

2926:61F9  3D 0000				cmp	ax,0
2926:61FC  B8 0000				mov	ax,0
2926:61FF  7E 01				jle	loc_622			; Jump if < or =
2926:6201  40					inc	ax
2926:6202			loc_622:
2926:6202  5B					pop	bx
2926:6203  23 C3				and	ax,bx
2926:6205  D0 D8				rcr	al,1			; Rotate thru carry
2926:6207  72 03				jc	loc_623			; Jump if carry Set
2926:6209  E9 0006				jmp	loc_624			; (6212)
2926:620C			loc_623:
2926:620C  8B 46 06				mov	ax,[bp+6]
2926:620F  89 46 F2				mov	[bp-0Eh],ax
2926:6212			loc_624:
2926:6212  8B 46 F2				mov	ax,[bp-0Eh]
2926:6215  93					xchg	bx,ax
2926:6216  8B 46 04				mov	ax,[bp+4]
2926:6219  3B D8				cmp	bx,ax
2926:621B  7E 03				jle	loc_625			; Jump if < or =
2926:621D  E9 0031				jmp	loc_628			; (6251)
2926:6220			loc_625:
2926:6220  C4 7E 08				les	di,dword ptr [bp+8]	; Load seg:offset ptr
2926:6223  06					push	es
2926:6224  57					push	di
2926:6225  1E					push	ds
2926:6226  B8 5A9C				mov	ax,5A9Ch
2926:6229  50					push	ax
2926:622A  8B 46 F2				mov	ax,[bp-0Eh]
2926:622D  48					dec	ax
2926:622E  BB 0006				mov	bx,6
2926:6231  F7 E3				mul	bx			; dx:ax = reg * ax
2926:6233  5B					pop	bx
2926:6234  03 C3				add	ax,bx
2926:6236  50					push	ax
2926:6237  E8 C305				call	sub_86			; (253F)
2926:623A  D0 D8				rcr	al,1			; Rotate thru carry
2926:623C  72 03				jc	loc_626			; Jump if carry Set
2926:623E  E9 0007				jmp	loc_627			; (6248)
2926:6241			loc_626:
2926:6241  C6 46 F4 01				mov	byte ptr [bp-0Ch],1
2926:6245  E9 0018				jmp	loc_630			; (6260)
2926:6248			loc_627:
2926:6248  8B 46 F2				mov	ax,[bp-0Eh]
2926:624B  40					inc	ax
2926:624C  89 46 F2				mov	[bp-0Eh],ax
2926:624F  EB C1				jmp	short loc_624		; (6212)
2926:6251			loc_628:
2926:6251  C6 46 F4 00				mov	byte ptr [bp-0Ch],0
2926:6255			loc_629:
2926:6255  8A 46 F4				mov	al,[bp-0Ch]
2926:6258  32 E4				xor	ah,ah			; Zero register
2926:625A  8B E5				mov	sp,bp
2926:625C  5D					pop	bp
2926:625D  C2 0008				retn	8
2926:6260			loc_630:
2926:6260  E9 FFF2				jmp	loc_629			; (6255)
2926:6263			loc_631:
           ICON.LST				Sourcer	v8.01  20-Jul-2026 12:15 am   Page 164

2926:6263  55					push	bp
2926:6264  8B EC				mov	bp,sp
2926:6266  55					push	bp
2926:6267  81 EC 0002				sub	sp,2
2926:626B  E8 BE94				call	sub_79			; (2102)
2926:626E  E8 FE8A				call	sub_115			; (60FB)
2926:6271  8B E5				mov	sp,bp
2926:6273  5D					pop	bp
2926:6274  C3					retn
2926:6275			loc_632:
2926:6275  55					push	bp
2926:6276  8B EC				mov	bp,sp
2926:6278  55					push	bp
2926:6279  81 EC 0022				sub	sp,22h
2926:627D  B8 0008				mov	ax,8
2926:6280  50					push	ax
2926:6281  B8 03D8				mov	ax,3D8h
2926:6284  50					push	ax
2926:6285  5A					pop	dx
2926:6286  58					pop	ax
2926:6287  90					nop
2926:6288  E8 C316				call	sub_87			; (25A1)
2926:628B  E8 FE61				call	sub_113			; (60EF)
2926:628E  A1 5DDC				mov	ax,data_287		; (2926:5DDC=0EA05h)
2926:6291  3D 7FFF				cmp	ax,7FFFh
2926:6294  75 03				jne	loc_633			; Jump if not equal
2926:6296  E9 000A				jmp	loc_634			; (62A3)
2926:6299			loc_633:
2926:6299  A1 5DDC				mov	ax,data_287		; (2926:5DDC=0EA05h)
2926:629C  40					inc	ax
2926:629D  A3 5DDC				mov	data_287,ax		; (2926:5DDC=0EA05h)
2926:62A0  E9 0006				jmp	loc_635			; (62A9)
2926:62A3			loc_634:
2926:62A3  C7 06 5DDC 0000			mov	data_287,0		; (2926:5DDC=0EA05h)
2926:62A9			loc_635:
2926:62A9  8B E5				mov	sp,bp
2926:62AB  5D					pop	bp
2926:62AC  C3					retn
2926:62AD			loc_636:
2926:62AD  55					push	bp
2926:62AE  8B EC				mov	bp,sp
2926:62B0  55					push	bp
2926:62B1  81 EC 0008				sub	sp,8
2926:62B5  8B 46 04				mov	ax,[bp+4]
2926:62B8  A3 5A26				mov	data_275,ax		; (2926:5A26=0AB8h)
2926:62BB  C7 06 5DDC 0001			mov	data_287,1		; (2926:5DDC=0EA05h)
2926:62C1  C7 06 5DE8 0000			mov	data_289,0		; (2926:5DE8=0C726h)
2926:62C7  C7 06 5DEA B800			mov	data_290,0B800h		; (2926:5DEA=9005h)
2926:62CD  A1 5DEA				mov	ax,data_290		; (2926:5DEA=9005h)
2926:62D0  50					push	ax
2926:62D1  A1 5DE8				mov	ax,data_289		; (2926:5DE8=0C726h)
2926:62D4  A3 2A40				mov	data_157,ax		; (2926:2A40=3CFFh)
2926:62D7  58					pop	ax
2926:62D8  A3 2A42				mov	data_158,ax		; (2926:2A42=7503h)
2926:62DB  C7 06 5DEA BA00			mov	data_290,0BA00h		; (2926:5DEA=9005h)
2926:62E1  A1 5DEA				mov	ax,data_290		; (2926:5DEA=9005h)
2926:62E4  50					push	ax
           ICON.LST				Sourcer	v8.01  20-Jul-2026 12:15 am   Page 165

2926:62E5  A1 5DE8				mov	ax,data_289		; (2926:5DE8=0C726h)
2926:62E8  A3 2BF2				mov	data_166,ax		; (2926:2BF2=200h)
2926:62EB  58					pop	ax
2926:62EC  A3 2BF4				mov	data_167,ax		; (2926:2BF4=90Ch)
2926:62EF  B8 0001				mov	ax,1
2926:62F2  93					xchg	bx,ax
2926:62F3  A1 5A26				mov	ax,data_275		; (2926:5A26=0AB8h)
2926:62F6  93					xchg	bx,ax
2926:62F7  89 46 FC				mov	[bp-4],ax
2926:62FA  93					xchg	bx,ax
2926:62FB  FF 4E FC				dec	word ptr [bp-4]
2926:62FE  2B C3				sub	ax,bx
2926:6300  40					inc	ax
2926:6301  89 46 FA				mov	[bp-6],ax
2926:6304			loc_637:
2926:6304  FF 46 FC				inc	word ptr [bp-4]
2926:6307  FF 4E FA				dec	word ptr [bp-6]
2926:630A  7D 03				jge	loc_638			; Jump if > or =
2926:630C  E9 001D				jmp	loc_639			; (632C)
2926:630F			loc_638:
2926:630F  1E					push	ds
2926:6310  B8 5A9C				mov	ax,5A9Ch
2926:6313  50					push	ax
2926:6314  8B 46 FC				mov	ax,[bp-4]
2926:6317  48					dec	ax
2926:6318  BB 0006				mov	bx,6
2926:631B  F7 E3				mul	bx			; dx:ax = reg * ax
2926:631D  5B					pop	bx
2926:631E  03 C3				add	ax,bx
2926:6320  05 0004				add	ax,4
2926:6323  97					xchg	di,ax
2926:6324  07					pop	es
2926:6325  26: C7 05 FFFF			mov	word ptr es:[di],0FFFFh
2926:632A  EB D8				jmp	short loc_637		; (6304)
2926:632C			loc_639:
2926:632C  C7 46 FC FFFF			mov	word ptr [bp-4],0FFFFh
2926:6331  C7 46 F8 0011			mov	word ptr [bp-8],11h
2926:6336			loc_640:
2926:6336  FF 46 FC				inc	word ptr [bp-4]
2926:6339  FF 4E F8				dec	word ptr [bp-8]
2926:633C  7D 03				jge	loc_641			; Jump if > or =
2926:633E  E9 0072				jmp	loc_642			; (63B3)
2926:6341			loc_641:
2926:6341  1E					push	ds
2926:6342  B8 2906				mov	ax,2906h
2926:6345  50					push	ax
2926:6346  FF 76 FC				push	word ptr [bp-4]
2926:6349  58					pop	ax
2926:634A  BB 0004				mov	bx,4
2926:634D  F7 E3				mul	bx			; dx:ax = reg * ax
2926:634F  5B					pop	bx
2926:6350  03 C3				add	ax,bx
2926:6352  05 0000				add	ax,0
2926:6355  97					xchg	di,ax
2926:6356  8B 46 FC				mov	ax,[bp-4]
2926:6359  07					pop	es
2926:635A  26: 88 05				mov	es:[di],al
           ICON.LST				Sourcer	v8.01  20-Jul-2026 12:15 am   Page 166

2926:635D  1E					push	ds
2926:635E  B8 2906				mov	ax,2906h
2926:6361  50					push	ax
2926:6362  FF 76 FC				push	word ptr [bp-4]
2926:6365  58					pop	ax
2926:6366  BB 0004				mov	bx,4
2926:6369  F7			data_301	db	0F7h
2926:636A  E3 5B 03 C3 05 01			db	0E3h, 5Bh, 03h,0C3h, 05h, 01h
2926:6370  00 97 8B 46 FC 07			db	 00h, 97h, 8Bh, 46h,0FCh, 07h
2926:6376  26 88 05 1E B8 06			db	 26h, 88h, 05h, 1Eh,0B8h, 06h
2926:637C  29 50 FF 76 FC 58			db	 29h, 50h,0FFh, 76h,0FCh, 58h
2926:6382  BB 04 00 F7 E3 5B			db	0BBh, 04h, 00h,0F7h,0E3h, 5Bh
2926:6388  03 C3 05 02 00 97			db	 03h,0C3h, 05h, 02h, 00h, 97h
2926:638E  8B 46 FC 07 26 88			db	 8Bh, 46h,0FCh, 07h, 26h, 88h
2926:6394  05 1E B8 06 29 50			db	 05h, 1Eh,0B8h, 06h, 29h, 50h
2926:639A  FF 76 FC 58 BB 04			db	0FFh, 76h,0FCh, 58h,0BBh, 04h
2926:63A0  00 F7 E3 5B 03 C3			db	 00h,0F7h,0E3h, 5Bh, 03h,0C3h
2926:63A6  05 03 00 97 8B 46			db	 05h, 03h, 00h, 97h, 8Bh, 46h
2926:63AC  FC 07 26 88 05 EB			db	0FCh, 07h, 26h, 88h, 05h,0EBh
2926:63B2  83					db	 83h
2926:63B3			loc_642:
2926:63B3  E8 B9AC				call	sub_72			; (1D62)
2926:63B6  8B E5				mov	sp,bp
2926:63B8  5D					pop	bp
2926:63B9  C2 0002				retn	2
				sub_113		endp

2926:63BC  E9 00 00				db	0E9h, 00h, 00h

				;ßßßßßßßßßßßßßßßßßßßßßßßßßßßßßßßßßßßßßßßßßßßßßßßßßßßßßßßßßßßßßßßßßßßßßßßßßß
				;                              SUBROUTINE
				;ÜÜÜÜÜÜÜÜÜÜÜÜÜÜÜÜÜÜÜÜÜÜÜÜÜÜÜÜÜÜÜÜÜÜÜÜÜÜÜÜÜÜÜÜÜÜÜÜÜÜÜÜÜÜÜÜÜÜÜÜÜÜÜÜÜÜÜÜÜÜÜÜÜÜ

2926:63BF			sub_117		proc	near
2926:63BF			loc_643:
2926:63BF  E9 0000				jmp	loc_644			; (63C2)
2926:63C2			loc_644:
2926:63C2  55					push	bp
2926:63C3  8B EC				mov	bp,sp
2926:63C5  55					push	bp
2926:63C6  81 EC 0002				sub	sp,2
2926:63CA  E8 020D				call	sub_123			; (65DA)
2926:63CD  1E					push	ds
2926:63CE  B8 8B57				mov	ax,8B57h
2926:63D1  A3 8383				mov	data_351,ax		; (2926:8383=0B857h)
2926:63D4  58					pop	ax
2926:63D5  A3 8385				mov	word ptr data_351+2,ax	; (2926:8385=39h)
2926:63D8  E8 217F				call	sub_200			; (855A)
2926:63DB  A3 838D				mov	word ptr data_355+2,ax	; (2926:838D=0FFCBh)
2926:63DE  E8 2179				call	sub_200			; (855A)
2926:63E1  A3 8391				mov	word ptr data_357+2,ax	; (2926:8391=60Ah)
2926:63E4  C7 06 838B 000F			mov	data_355,0Fh		; (2926:838B=0E850h)
2926:63EA  C7 06 838F 000C			mov	data_357,0Ch		; (2926:838F=7EC4h)
2926:63F0  B8 0000				mov	ax,0
2926:63F3  50					push	ax
2926:63F4  B8 0001				mov	ax,1
2926:63F7  A3 8397				mov	data_361,ax		; (2926:8397=5706h)
           ICON.LST				Sourcer	v8.01  20-Jul-2026 12:15 am   Page 167

2926:63FA  58					pop	ax
2926:63FB  A3 8399				mov	data_362,ax		; (2926:8399=25B8h)
2926:63FE  B8 0000				mov	ax,0
2926:6401  50					push	ax
2926:6402  B8 0000				mov	ax,0
2926:6405  A3 839B				mov	data_363,ax		; (2926:839B=5000h)
2926:6408  58					pop	ax
2926:6409  A3 839D				mov	data_364,ax		; (2926:839D=72E8h)
2926:640C  C4 3E 838B				les	di,dword ptr data_355	; (2926:838B=0E850h) Load seg:offset p
2926:6410  06					push	es
2926:6411  57					push	di
2926:6412  1E					push	ds
2926:6413  B8 83AD				mov	ax,83ADh
2926:6416  50					push	ax
2926:6417  B8 0002				mov	ax,2
2926:641A  50					push	ax
2926:641B  E8 1DE9				call	sub_182			; (8207)
2926:641E  C7 06 83AB 0000			mov	data_371,0		; (2926:83AB=0C13Bh)
2926:6424  A1 83AD				mov	ax,data_372		; (2926:83AD=975h)
2926:6427  50					push	ax
2926:6428  A1 83AB				mov	ax,data_371		; (2926:83AB=0C13Bh)
2926:642B  A3 8393				mov	data_359,ax		; (2926:8393=0C457h)
2926:642E  58					pop	ax
2926:642F  A3 8395				mov	word ptr data_359+2,ax	; (2926:8395=47Eh)
2926:6432  C4 3E 8393				les	di,dword ptr data_359	; (2926:8393=0C457h) Load seg:offset p
2926:6436  83 C7 04				add	di,4
2926:6439  06					push	es
2926:643A  57					push	di
2926:643B  1E					push	ds
2926:643C  B8 8393				mov	ax,8393h
2926:643F  50					push	ax
2926:6440  E8 2101				call	sub_198			; (8544)
2926:6443  C4 3E 8393				les	di,dword ptr data_359	; (2926:8393=0C457h) Load seg:offset p
2926:6447  06					push	es
2926:6448  57					push	di
2926:6449  1E					push	ds
2926:644A  B8 839F				mov	ax,839Fh
2926:644D  50					push	ax
2926:644E  E8 20F3				call	sub_198			; (8544)
2926:6451  C4 3E 8393				les	di,dword ptr data_359	; (2926:8393=0C457h) Load seg:offset p
2926:6455  83 C7 08				add	di,8
2926:6458  06					push	es
2926:6459  57					push	di
2926:645A  B8 0000				mov	ax,0
2926:645D  50					push	ax
2926:645E  B8 0000				mov	ax,0
2926:6461  50					push	ax
2926:6462  E8 20DF				call	sub_198			; (8544)
2926:6465  C4 3E 838F				les	di,dword ptr data_357	; (2926:838F=7EC4h) Load seg:offset pt
2926:6469  06					push	es
2926:646A  57					push	di
2926:646B  C4 3E 8393				les	di,dword ptr data_359	; (2926:8393=0C457h) Load seg:offset p
2926:646F  83 C7 08				add	di,8
2926:6472  06					push	es
2926:6473  57					push	di
2926:6474  B8 0003				mov	ax,3
2926:6477  50					push	ax
           ICON.LST				Sourcer	v8.01  20-Jul-2026 12:15 am   Page 168

2926:6478  E8 1D8C				call	sub_182			; (8207)
2926:647B  B8 0000				mov	ax,0
2926:647E  50					push	ax
2926:647F  B8 0001				mov	ax,1
2926:6482  A3 839F				mov	data_365,ax		; (2926:839F=8BE2h)
2926:6485  58					pop	ax
2926:6486  A3 83A1				mov	data_366,ax		; (2926:83A1=5DE5h)
2926:6489  B8 0000				mov	ax,0
2926:648C  50					push	ax
2926:648D  B8 0000				mov	ax,0
2926:6490  A3 83A7				mov	data_369,ax		; (2926:83A7=595Ah)
2926:6493  58					pop	ax
2926:6494  A3 83A9				mov	data_370,ax		; (2926:83A9=585Bh)
2926:6497  A1 83AD				mov	ax,data_372		; (2926:83AD=975h)
2926:649A  50					push	ax
2926:649B  A1 83AB				mov	ax,data_371		; (2926:83AB=0C13Bh)
2926:649E  A3 83A3				mov	data_367,ax		; (2926:83A3=0AC2h)
2926:64A1  58					pop	ax
2926:64A2  A3 83A5				mov	data_368,ax		; (2926:83A5=5F00h)
2926:64A5  1E					push	ds
2926:64A6  B8 8393				mov	ax,8393h
2926:64A9  A3 82F9				mov	data_349,ax		; (2926:82F9=0FC00h)
2926:64AC  58					pop	ax
2926:64AD  A3 82FB				mov	data_350,ax		; (2926:82FB=0ABF3h)
2926:64B0  1E					push	ds
2926:64B1  B8 837F				mov	ax,837Fh
2926:64B4  50					push	ax
2926:64B5  0E E8 0003				callf	sub_118			; (64BC)
2926:64B9  02 30				add	dh,[bx+si]
2926:64BB  30 B8 0002				xor	byte ptr data_49+1[bx+si],bh	; (2926:0002=65h)
2926:64BF  50					push	ax
2926:64C0  E8 014F				call	sub_124			; (6612)
2926:64C3  0E					push	cs
2926:64C4  B8 138C				mov	ax,138Ch
2926:64C7  93					xchg	bx,ax
2926:64C8  B8 6447				mov	ax,6447h
2926:64CB  03 C3				add	ax,bx
2926:64CD  A3 8383				mov	data_351,ax		; (2926:8383=0B857h)
2926:64D0  58					pop	ax
2926:64D1  A3 8385				mov	word ptr data_351+2,ax	; (2926:8385=39h)
2926:64D4  0E					push	cs
2926:64D5  B8 1BB2				mov	ax,1BB2h
2926:64D8  93					xchg	bx,ax
2926:64D9  B8 6458				mov	ax,6458h
2926:64DC  03 C3				add	ax,bx
2926:64DE  A3 8387				mov	data_353,ax		; (2926:8387=0B850h)
2926:64E1  58					pop	ax
2926:64E2  A3 8389				mov	word ptr data_353+2,ax	; (2926:8389=0)
2926:64E5  1E					push	ds
2926:64E6  B8 833E				mov	ax,833Eh
2926:64E9  50					push	ax
2926:64EA  B8 0001				mov	ax,1
2926:64ED  50					push	ax
2926:64EE  0E E8 0005				callf	sub_119			; (64F7)
2926:64F2  04 43				add	al,43h			; 'C'
2926:64F4  4F					dec	di
2926:64F5  4E					dec	si
           ICON.LST				Sourcer	v8.01  20-Jul-2026 12:15 am   Page 169

2926:64F6  3A E8				cmp	ch,al
2926:64F8  7A 1E				jp	loc_646			; Jump if parity=1
2926:64FA  1E					push	ds
2926:64FB  B8 833E				mov	ax,833Eh
2926:64FE  50					push	ax
2926:64FF  B8 FFFF				mov	ax,0FFFFh
2926:6502  50					push	ax
2926:6503  E8 0145				call	sub_125			; (664B)
2926:6506  1E					push	ds
2926:6507  B8 82FD				mov	ax,82FDh
2926:650A  50					push	ax
2926:650B  B8 0001				mov	ax,1
2926:650E  50					push	ax
2926:650F  0E E8 0005				callf	sub_120			; (6518)
2926:6513  04 43				add	al,43h			; 'C'
2926:6515  4F					dec	di
2926:6516  4E					dec	si
2926:6517  3A E8				cmp	ch,al
2926:6519  59					pop	cx
2926:651A  1E					push	ds
2926:651B  1E					push	ds
2926:651C  B8 82FD				mov	ax,82FDh
2926:651F  50					push	ax
2926:6520  B8 FFFF				mov	ax,0FFFFh
2926:6523  50					push	ax
2926:6524  E8 15AA				call	sub_165			; (7AD1)
2926:6527  8B E5				mov	sp,bp
2926:6529  5D					pop	bp
2926:652A  C3					retn
				sub_117		endp


				;ßßßßßßßßßßßßßßßßßßßßßßßßßßßßßßßßßßßßßßßßßßßßßßßßßßßßßßßßßßßßßßßßßßßßßßßßßß
				;                              SUBROUTINE
				;ÜÜÜÜÜÜÜÜÜÜÜÜÜÜÜÜÜÜÜÜÜÜÜÜÜÜÜÜÜÜÜÜÜÜÜÜÜÜÜÜÜÜÜÜÜÜÜÜÜÜÜÜÜÜÜÜÜÜÜÜÜÜÜÜÜÜÜÜÜÜÜÜÜÜ

2926:652B			sub_121		proc	near
2926:652B  8C C8				mov	ax,cs
2926:652D  2E: 03 06 0003			add	ax,cs:data_51		; (2926:0003=0C80h)
2926:6532  2E: 03 06 0005			add	ax,cs:data_53		; (2926:0005=8B0h)
2926:6537  2E: 03 06 0007			add	ax,cs:data_54		; (2926:0007=90h)
2926:653C  2E: 03 06 0009			add	ax,cs:data_55		; (2926:0009=0)
2926:6541  3B 06 0002				cmp	ax,ds:PSP_free_seg	; (2916:0002=0)
2926:6545  76 21				jbe	loc_647			; Jump if below or =
2926:6547  1E					push	ds
2926:6548  E8 0010				call	sub_122			; (655B)
2926:654B  4F					dec	di
2926:654C  55					push	bp
2926:654D  54					push	sp
2926:654E  20 4F 46				and	[bx+46h],cl
2926:6551  20 4D 45				and	[di+45h],cl
2926:6554  4D					dec	bp
2926:6555  4F					dec	di
2926:6556  52					push	dx
2926:6557  59					pop	cx
2926:6558  0A 0D				or	cl,[di]
2926:655A  24 8C				and	al,8Ch
           ICON.LST				Sourcer	v8.01  20-Jul-2026 12:15 am   Page 170

2926:655C  C8 8E D8 5A B4 09			db	0C8h, 8Eh,0D8h, 5Ah,0B4h, 09h
2926:6562  CD 21 33 C0 50 CB			db	0CDh, 21h, 33h,0C0h, 50h,0CBh
2926:6568			loc_647:
2926:6568  8C			data_302	db	8Ch
2926:6569  C8 2E 03 06 03 00			db	0C8h, 2Eh, 03h, 06h, 03h, 00h
2926:656F  8E C0 BF 00 00 8B			db	 8Eh,0C0h,0BFh, 00h, 00h, 8Bh
2926:6575  F7 FC B9 00 01 F3			db	0F7h,0FCh,0B9h, 00h, 01h,0F3h
2926:657B  A4 26 8C 1E 40 00			db	0A4h, 26h, 8Ch, 1Eh, 40h, 00h
2926:6581  8E D8 8C 1E 09 00			db	 8Eh,0D8h, 8Ch, 1Eh, 09h, 00h
2926:6587  2E 03 06 05 00 A3			db	 2Eh, 03h, 06h, 05h, 00h,0A3h
2926:658D  0F 00 2E 03 06 09			db	 0Fh, 00h, 2Eh, 03h, 06h, 09h
2926:6593  00 A3 15 00 B9 04			db	 00h,0A3h, 15h, 00h,0B9h, 04h
2926:6599  00 2E 8B 1E 07 00			db	 00h, 2Eh, 8Bh, 1Eh, 07h, 00h
2926:659F  D3 E3 89 1E 12 00			db	0D3h,0E3h, 89h, 1Eh, 12h, 00h
2926:65A5  9C 5A FA 8E D0 8B			db	 9Ch, 5Ah,0FAh, 8Eh,0D0h, 8Bh
2926:65AB  E3 FB 52 9D 2E A1			db	0E3h,0FBh, 52h, 9Dh, 2Eh,0A1h
2926:65B1  05 00 B1 04 D3 E0			db	 05h, 00h,0B1h, 04h,0D3h,0E0h
2926:65B7  A3 06 00 2E A1 09			db	0A3h, 06h, 00h, 2Eh,0A1h, 09h
2926:65BD  00 8B D8 B1 04 D3			db	 00h, 8Bh,0D8h,0B1h, 04h,0D3h
2926:65C3  E0 A3 0C 00 8B C3			db	0E0h,0A3h, 0Ch, 00h, 8Bh,0C3h
2926:65C9  B1 0C D3 E8 A2 0E			db	0B1h, 0Ch,0D3h,0E8h,0A2h, 0Eh
2926:65CF  00 8C C8 05 08 00			db	 00h, 8Ch,0C8h, 05h, 08h, 00h
2926:65D5  50 33 C0 50 CB			db	 50h, 33h,0C0h, 50h,0CBh

				;ßßßß External Entry into Subroutine ßßßßßßßßßßßßßßßßßßßßßßßßßßßßßßßßßßßßßß

2926:65DA			sub_123:
2926:65DA  8C D8				mov	ax,ds
2926:65DC  8E C0				mov	es,ax
2926:65DE  BF 0006				mov	di,6
2926:65E1  26: 8B 0D				mov	cx,es:[di]
2926:65E4  81 E9 0100				sub	cx,100h
2926:65E8  BF 0100				mov	di,100h
2926:65EB  33 C0				xor	ax,ax			; Zero register
2926:65ED  F3/ AA				rep	stosb			; Rep when cx >0 Store al to es:[di]
2926:65EF  8C C8				mov	ax,cs
2926:65F1  8E C0				mov	es,ax
2926:65F3  BF 000C				mov	di,0Ch
2926:65F6  26: 8B 05				mov	ax,es:[di]
2926:65F9  26: 8B 5D 02				mov	bx,es:[di+2]
2926:65FD  3B C3				cmp	ax,bx
2926:65FF  74 10				je	loc_649			; Jump if equal
2926:6601  8B FB				mov	di,bx
2926:6603  B9 0010				mov	cx,10h

2926:6606			locloop_648:
2926:6606  26: 8B 35				mov	si,es:[di]
2926:6609  26: C6 04 00				mov	byte ptr es:[si],0
2926:660D  47					inc	di
2926:660E  47					inc	di
2926:660F  E2 F5				loop	locloop_648		; Loop if cx > 0

2926:6611			loc_649:
2926:6611  C3					retn
				sub_121		endp


           ICON.LST				Sourcer	v8.01  20-Jul-2026 12:15 am   Page 171

				;ßßßßßßßßßßßßßßßßßßßßßßßßßßßßßßßßßßßßßßßßßßßßßßßßßßßßßßßßßßßßßßßßßßßßßßßßßß
				;                              SUBROUTINE
				;ÜÜÜÜÜÜÜÜÜÜÜÜÜÜÜÜÜÜÜÜÜÜÜÜÜÜÜÜÜÜÜÜÜÜÜÜÜÜÜÜÜÜÜÜÜÜÜÜÜÜÜÜÜÜÜÜÜÜÜÜÜÜÜÜÜÜÜÜÜÜÜÜÜÜ

2926:6612			sub_124		proc	near
2926:6612  FC					cld				; Clear direction
2926:6613  55					push	bp
2926:6614  8B EC				mov	bp,sp
2926:6616  83 C5 04				add	bp,4
2926:6619  1E					push	ds
2926:661A  8B 4E 00				mov	cx,[bp]
2926:661D  C4 7E 06				les	di,dword ptr [bp+6]	; Load seg:offset ptr
2926:6620  C5 76 02				lds	si,dword ptr [bp+2]	; Load seg:offset ptr
2926:6623  8C D8				mov	ax,ds
2926:6625  3D FFFF				cmp	ax,0FFFFh
2926:6628  74 15				je	loc_652			; Jump if equal
2926:662A  8A 04				mov	al,[si]
2926:662C  32 E4				xor	ah,ah			; Zero register
2926:662E  3B C1				cmp	ax,cx
2926:6630  7E 02				jle	loc_650			; Jump if < or =
2926:6632  8B C1				mov	ax,cx
2926:6634			loc_650:
2926:6634  AA					stosb				; Store al to es:[di]
2926:6635  46					inc	si
2926:6636  8B C8				mov	cx,ax
2926:6638  F3/ A4				rep	movsb			; Rep when cx >0 Mov [si] to es:[di]
2926:663A			loc_651:
2926:663A  1F					pop	ds
2926:663B  5D					pop	bp
2926:663C  C2 000A				retn	0Ah
2926:663F			loc_652:
2926:663F  B0 01				mov	al,1
2926:6641  AA					stosb				; Store al to es:[di]
2926:6642  8B C6				mov	ax,si
2926:6644  AA					stosb				; Store al to es:[di]
2926:6645  E9 FFF2				jmp	loc_651			; (663A)
				sub_124		endp

2926:6648  E9 0000				jmp	loc_653			; (664B)

				;ßßßßßßßßßßßßßßßßßßßßßßßßßßßßßßßßßßßßßßßßßßßßßßßßßßßßßßßßßßßßßßßßßßßßßßßßßß
				;                              SUBROUTINE
				;ÜÜÜÜÜÜÜÜÜÜÜÜÜÜÜÜÜÜÜÜÜÜÜÜÜÜÜÜÜÜÜÜÜÜÜÜÜÜÜÜÜÜÜÜÜÜÜÜÜÜÜÜÜÜÜÜÜÜÜÜÜÜÜÜÜÜÜÜÜÜÜÜÜÜ

2926:664B			sub_125		proc	near
2926:664B			loc_653:
2926:664B  E9 0000				jmp	loc_654			; (664E)
2926:664E			loc_654:
2926:664E  55					push	bp
2926:664F  8B EC				mov	bp,sp
2926:6651  55					push	bp
2926:6652  81 EC 003D				sub	sp,3Dh
2926:6656  16					push	ss
2926:6657  8D 46 C3				lea	ax,[bp-3Dh]		; Load effective addr
2926:665A  50					push	ax
2926:665B  C4 7E 06				les	di,dword ptr [bp+6]	; Load seg:offset ptr
2926:665E  06					push	es
           ICON.LST				Sourcer	v8.01  20-Jul-2026 12:15 am   Page 172

2926:665F  57					push	di
2926:6660  B8 0039				mov	ax,39h
2926:6663  50					push	ax
2926:6664  E8 1B88				call	sub_181			; (81EF)
2926:6667  82 7E E9 01				cmp	byte ptr [bp-17h],1
2926:666B  74 03				je	loc_655			; Jump if equal
2926:666D  E9 00B4				jmp	loc_659			; (6724)
2926:6670			loc_655:
2926:6670  C4 7E 06				les	di,dword ptr [bp+6]	; Load seg:offset ptr
2926:6673  06					push	es
2926:6674  57					push	di
2926:6675  FF 76 04				push	word ptr [bp+4]
2926:6678  16					push	ss
2926:6679  8D 46 FC				lea	ax,[bp-4]		; Load effective addr
2926:667C  50					push	ax
2926:667D  E8 01AA				call	sub_129			; (682A)
2926:6680  16					push	ss
2926:6681  8D 46 C3				lea	ax,[bp-3Dh]		; Load effective addr
2926:6684  50					push	ax
2926:6685  C4 7E 06				les	di,dword ptr [bp+6]	; Load seg:offset ptr
2926:6688  06					push	es
2926:6689  57					push	di
2926:668A  B8 0039				mov	ax,39h
2926:668D  50					push	ax
2926:668E  E8 1B5E				call	sub_181			; (81EF)
2926:6691  81 7E FC 00FF			cmp	word ptr [bp-4],0FFh
2926:6696  74 03				je	loc_656			; Jump if equal
2926:6698  E9 0089				jmp	loc_659			; (6724)
2926:669B			loc_656:
2926:669B  1E					push	ds
2926:669C  B8 82FD				mov	ax,82FDh
2926:669F  50					push	ax
2926:66A0  E8 02D9				call	sub_143			; (697C)
2926:66A3  E8 1122				call	sub_158			; (77C8)
2926:66A6  1E					push	ds
2926:66A7  B8 82FD				mov	ax,82FDh
2926:66AA  50					push	ax
2926:66AB  E8 02CE				call	sub_143			; (697C)
2926:66AE  0E E8 000E				callf	sub_126			; (66C0)
2926:66B2  0D 6143				or	ax,6143h
2926:66B5  6E 27 74 20 63 6C			db	'n', 27h, 't close: '
2926:66BB  6F 73 65 3A 20

				;ßßßß External Entry into Subroutine ßßßßßßßßßßßßßßßßßßßßßßßßßßßßßßßßßßßßßß

2926:66C0			sub_126:
2926:66C0  B8 FFFF				mov	ax,0FFFFh
2926:66C3  50					push	ax
2926:66C4  B8 FFFF				mov	ax,0FFFFh
2926:66C7  50					push	ax
2926:66C8  E8 186C				call	sub_171			; (7F37)
2926:66CB  16					push	ss
2926:66CC  8D 46 C3				lea	ax,[bp-3Dh]		; Load effective addr
2926:66CF  50					push	ax
2926:66D0  B8 FFFF				mov	ax,0FFFFh
2926:66D3  50					push	ax
2926:66D4  B8 FFFF				mov	ax,0FFFFh
           ICON.LST				Sourcer	v8.01  20-Jul-2026 12:15 am   Page 173

2926:66D7  50					push	ax
2926:66D8  E8 185C				call	sub_171			; (7F37)
2926:66DB  0E E8 000A				callf	sub_127			; (66E9)
2926:66DF  09 20				or	[bx+si],sp
2926:66E1  69 6E 20 52 45 53			db	'in RESET'
2926:66E7  45 54

				;ßßßß External Entry into Subroutine ßßßßßßßßßßßßßßßßßßßßßßßßßßßßßßßßßßßßßß

2926:66E9			sub_127:
2926:66E9  B8 FFFF				mov	ax,0FFFFh
2926:66EC  50					push	ax
2926:66ED  B8 FFFF				mov	ax,0FFFFh
2926:66F0  50					push	ax
2926:66F1  E8 1843				call	sub_171			; (7F37)
2926:66F4  E8 10D1				call	sub_158			; (77C8)
2926:66F7  1E					push	ds
2926:66F8  B8 82FD				mov	ax,82FDh
2926:66FB  50					push	ax
2926:66FC  E8 027D				call	sub_143			; (697C)
2926:66FF  0E E8 0010				callf	sub_128			; (6713)
2926:6703  0F			;*		pop	cs			; Dangerous-8088 only
2926:6703  0F					db	0Fh
2926:6704  50					push	ax
2926:6705  72 6F				jc	loc_664			; Jump if carry Set
2926:6707  67 72 61 6D 20 61			db	'gram aborted'
2926:670D  62 6F 72 74 65 64

				;ßßßß External Entry into Subroutine ßßßßßßßßßßßßßßßßßßßßßßßßßßßßßßßßßßßßßß

2926:6713			sub_128:
2926:6713  B8 FFFF				mov	ax,0FFFFh
2926:6716  50					push	ax
2926:6717  B8 FFFF				mov	ax,0FFFFh
2926:671A  50					push	ax
2926:671B  E8 1819				call	sub_171			; (7F37)
2926:671E  E8 10A7				call	sub_158			; (77C8)
2926:6721  E8 1C2F				call	sub_191			; (8353)
2926:6724			loc_659:
2926:6724  C6 46 E9 00				mov	byte ptr [bp-17h],0
2926:6728  81 7E 04 FFFF			cmp	word ptr [bp+4],0FFFFh
2926:672D  74 03				je	loc_660			; Jump if equal
2926:672F  E9 000C				jmp	loc_661			; (673E)
2926:6732			loc_660:
2926:6732  C7 46 04 0001			mov	word ptr [bp+4],1
2926:6737  C6 46 F7 01				mov	byte ptr [bp-9],1
2926:673B  E9 0004				jmp	loc_662			; (6742)
2926:673E			loc_661:
2926:673E  C6 46 F7 00				mov	byte ptr [bp-9],0
2926:6742			loc_662:
2926:6742  C6 46 F1 00				mov	byte ptr [bp-0Fh],0
2926:6746  C6 46 F2 00				mov	byte ptr [bp-0Eh],0
2926:674A  C4 7E 06				les	di,dword ptr [bp+6]	; Load seg:offset ptr
2926:674D  06					push	es
2926:674E  57					push	di
2926:674F  58					pop	ax
2926:6750  A3 83AF				mov	data_373,ax		; (2926:83AF=0DA3Bh)
           ICON.LST				Sourcer	v8.01  20-Jul-2026 12:15 am   Page 174

2926:6753  58					pop	ax
2926:6754  A3 83B1				mov	word ptr data_373+2,ax	; (2926:83B1=575h)
2926:6757  C6 46 E9 02				mov	byte ptr [bp-17h],2
2926:675B  8B 46 04				mov	ax,[bp+4]
2926:675E  89 46 EF				mov	[bp-11h],ax
2926:6761  8B 46 04				mov	ax,[bp+4]
2926:6764  89 46 EB				mov	[bp-15h],ax
2926:6767  C4 7E 06				les	di,dword ptr [bp+6]	; Load seg:offset ptr
2926:676A  83 C7 38				add	di,38h
2926:676D  06					push	es
2926:676E  57					push	di
2926:676F  58					pop	ax
2926:6770  89 46 F3				mov	[bp-0Dh],ax
2926:6773  58					pop	ax
2926:6774  89 46 F5				mov	[bp-0Bh],ax
2926:6777  16					push	ss
2926:6778  8D 46 C3				lea	ax,[bp-3Dh]		; Load effective addr
2926:677B  50					push	ax
2926:677C  B8 0002				mov	ax,2
2926:677F  50					push	ax
2926:6780  E8 01ED				call	sub_139			; (6970)
2926:6783  89 46 F9				mov	[bp-7],ax
2926:6786  81 7E F9 FFFF			cmp	word ptr [bp-7],0FFFFh
2926:678B  75 03				jne	loc_666			; Jump if not equal
2926:678D  E9 0078				jmp	loc_673			; (6808)
2926:6790			loc_666:
2926:6790  C7 06 83B3 0000			mov	data_375,0		; (2926:83B3=1B8h)
2926:6796  C6 46 F1 00				mov	byte ptr [bp-0Fh],0
2926:679A  C6 46 F2 00				mov	byte ptr [bp-0Eh],0
2926:679E  8B 46 04				mov	ax,[bp+4]
2926:67A1  89 46 EB				mov	[bp-15h],ax
2926:67A4  C7 46 ED 0000			mov	word ptr [bp-13h],0
2926:67A9  C4 7E 06				les	di,dword ptr [bp+6]	; Load seg:offset ptr
2926:67AC  06					push	es
2926:67AD  57					push	di
2926:67AE  16					push	ss
2926:67AF  8D 46 C3				lea	ax,[bp-3Dh]		; Load effective addr
2926:67B2  50					push	ax
2926:67B3  B8 0039				mov	ax,39h
2926:67B6  50					push	ax
2926:67B7  E8 1A35				call	sub_181			; (81EF)
2926:67BA  81 7E 04 0000			cmp	word ptr [bp+4],0
2926:67BF  75 03				jne	loc_667			; Jump if not equal
2926:67C1  E9 0041				jmp	loc_672			; (6805)
2926:67C4			loc_667:
2926:67C4  82 7E E9 04				cmp	byte ptr [bp-17h],4
2926:67C8  74 03				je	loc_668			; Jump if equal
2926:67CA  E9 0015				jmp	loc_669			; (67E2)
2926:67CD			loc_668:
2926:67CD  C4 7E 06				les	di,dword ptr [bp+6]	; Load seg:offset ptr
2926:67D0  83 C7 38				add	di,38h
2926:67D3  06					push	es
2926:67D4  57					push	di
2926:67D5  58					pop	ax
2926:67D6  05 0000				add	ax,0
2926:67D9  97					xchg	di,ax
2926:67DA  07					pop	es
           ICON.LST				Sourcer	v8.01  20-Jul-2026 12:15 am   Page 175

2926:67DB  26: C6 05 20				mov	byte ptr es:[di],20h	; ' '
2926:67DF  E9 003F				jmp	loc_674			; (6821)
2926:67E2			loc_669:
2926:67E2  F6 46 F7 01				test	byte ptr [bp-9],1
2926:67E6  75 03				jnz	loc_670			; Jump if not zero
2926:67E8  E9 0017				jmp	loc_671			; (6802)
2926:67EB			loc_670:
2926:67EB  C4 3E 83AF				les	di,dword ptr data_373	; (2926:83AF=0DA3Bh) Load seg:offset p
2926:67EF  06					push	es
2926:67F0  57					push	di
2926:67F1  C4 3E 83AF				les	di,dword ptr data_373	; (2926:83AF=0DA3Bh) Load seg:offset p
2926:67F5  83 C7 28				add	di,28h
2926:67F8  26: 8B 05				mov	ax,es:[di]
2926:67FB  50					push	ax
2926:67FC  E8 1054				call	sub_160			; (7853)
2926:67FF  E9 0003				jmp	loc_672			; (6805)
2926:6802			loc_671:
2926:6802  E8 0180				call	sub_146			; (6985)
2926:6805			loc_672:
2926:6805  E9 0019				jmp	loc_674			; (6821)
2926:6808			loc_673:
2926:6808  C6 46 F1 01				mov	byte ptr [bp-0Fh],1
2926:680C  C6 46 FA 01				mov	byte ptr [bp-6],1
2926:6810  C4 7E 06				les	di,dword ptr [bp+6]	; Load seg:offset ptr
2926:6813  06					push	es
2926:6814  57					push	di
2926:6815  16					push	ss
2926:6816  8D 46 C3				lea	ax,[bp-3Dh]		; Load effective addr
2926:6819  50					push	ax
2926:681A  B8 0039				mov	ax,39h
2926:681D  50					push	ax
2926:681E  E8 19CE				call	sub_181			; (81EF)
2926:6821			loc_674:
2926:6821  8B E5				mov	sp,bp
2926:6823  5D					pop	bp
2926:6824  C2 0006				retn	6
				sub_125		endp

2926:6827  E9 00 00				db	0E9h, 00h, 00h

				;ßßßßßßßßßßßßßßßßßßßßßßßßßßßßßßßßßßßßßßßßßßßßßßßßßßßßßßßßßßßßßßßßßßßßßßßßßß
				;                              SUBROUTINE
				;ÜÜÜÜÜÜÜÜÜÜÜÜÜÜÜÜÜÜÜÜÜÜÜÜÜÜÜÜÜÜÜÜÜÜÜÜÜÜÜÜÜÜÜÜÜÜÜÜÜÜÜÜÜÜÜÜÜÜÜÜÜÜÜÜÜÜÜÜÜÜÜÜÜÜ

2926:682A			sub_129		proc	near
2926:682A			loc_675:
2926:682A  E9 0003				jmp	loc_676			; (6830)

				;ßßßß External Entry into Subroutine ßßßßßßßßßßßßßßßßßßßßßßßßßßßßßßßßßßßßßß

2926:682D			sub_130:
2926:682D  E9 00DE				jmp	loc_685			; (690E)
2926:6830			loc_676:
2926:6830  55					push	bp
2926:6831  8B EC				mov	bp,sp
2926:6833  55					push	bp
2926:6834  81 EC 0002				sub	sp,2
           ICON.LST				Sourcer	v8.01  20-Jul-2026 12:15 am   Page 176

2926:6838  C4 7E 0A				les	di,dword ptr [bp+0Ah]	; Load seg:offset ptr
2926:683B  06					push	es
2926:683C  57					push	di
2926:683D  58					pop	ax
2926:683E  A3 83AF				mov	data_373,ax		; (2926:83AF=0DA3Bh)
2926:6841  58					pop	ax
2926:6842  A3 83B1				mov	word ptr data_373+2,ax	; (2926:83B1=575h)
2926:6845  C4 7E 0A				les	di,dword ptr [bp+0Ah]	; Load seg:offset ptr
2926:6848  83 C7 26				add	di,26h
2926:684B  26: 8A 05				mov	al,es:[di]
2926:684E  3C 00				cmp	al,0
2926:6850  75 03				jne	loc_677			; Jump if not equal
2926:6852  E9 00A1				jmp	loc_683			; (68F6)
2926:6855			loc_677:
2926:6855  C4 7E 0A				les	di,dword ptr [bp+0Ah]	; Load seg:offset ptr
2926:6858  83 C7 26				add	di,26h
2926:685B  26: 8A 05				mov	al,es:[di]
2926:685E  3C 01				cmp	al,1
2926:6860  74 03				je	loc_678			; Jump if equal
2926:6862  E9 003E				jmp	loc_681			; (68A3)
2926:6865			loc_678:
2926:6865  C4 7E 0A				les	di,dword ptr [bp+0Ah]	; Load seg:offset ptr
2926:6868  83 C7 2A				add	di,2Ah
2926:686B  26: 8B 05				mov	ax,es:[di]
2926:686E  3D 0000				cmp	ax,0
2926:6871  75 03				jne	loc_679			; Jump if not equal
2926:6873  E9 0019				jmp	loc_680			; (688F)
2926:6876			loc_679:
2926:6876  C4 7E 0A				les	di,dword ptr [bp+0Ah]	; Load seg:offset ptr
2926:6879  83 C7 2C				add	di,2Ch
2926:687C  06					push	es
2926:687D  57					push	di
2926:687E  C4 7E 0A				les	di,dword ptr [bp+0Ah]	; Load seg:offset ptr
2926:6881  83 C7 2A				add	di,2Ah
2926:6884  26: 8B 05				mov	ax,es:[di]
2926:6887  5F					pop	di
2926:6888  07					pop	es
2926:6889  26: 89 05				mov	es:[di],ax
2926:688C  E8 00F9				call	sub_147			; (6988)
2926:688F			loc_680:
2926:688F  C4 7E 0A				les	di,dword ptr [bp+0Ah]	; Load seg:offset ptr
2926:6892  83 C7 36				add	di,36h
2926:6895  26: 8B 05				mov	ax,es:[di]
2926:6898  50					push	ax
2926:6899  B8 0000				mov	ax,0
2926:689C  50					push	ax
2926:689D  E8 00D9				call	sub_142			; (6979)
2926:68A0  E9 0042				jmp	loc_682			; (68E5)
2926:68A3			loc_681:
2926:68A3  C4 7E 0A				les	di,dword ptr [bp+0Ah]	; Load seg:offset ptr
2926:68A6  83 C7 36				add	di,36h
2926:68A9  26: 8B 05				mov	ax,es:[di]
2926:68AC  50					push	ax
2926:68AD  C4 7E 0A				les	di,dword ptr [bp+0Ah]	; Load seg:offset ptr
2926:68B0  83 C7 26				add	di,26h
2926:68B3  26: 8A 05				mov	al,es:[di]
2926:68B6  32 E4				xor	ah,ah			; Zero register
           ICON.LST				Sourcer	v8.01  20-Jul-2026 12:15 am   Page 177

2926:68B8  50					push	ax
2926:68B9  B8 0002				mov	ax,2
2926:68BC  50					push	ax
2926:68BD  E8 1A2A				call	sub_189			; (82EA)
2926:68C0  B8 0004				mov	ax,4
2926:68C3  50					push	ax
2926:68C4  E8 1A23				call	sub_189			; (82EA)
2926:68C7  E8 1904				call	sub_180			; (81CE)
2926:68CA  B8 0005				mov	ax,5
2926:68CD  50					push	ax
2926:68CE  E8 1A19				call	sub_189			; (82EA)
2926:68D1  E8 18FA				call	sub_180			; (81CE)
2926:68D4  B8 0006				mov	ax,6
2926:68D7  50					push	ax
2926:68D8  E8 1A0F				call	sub_189			; (82EA)
2926:68DB  E8 18F0				call	sub_180			; (81CE)
2926:68DE  E8 13B4				call	sub_167			; (7C95)
2926:68E1  50					push	ax
2926:68E2  E8 0094				call	sub_142			; (6979)
2926:68E5			loc_682:
2926:68E5  C7 06 83B3 0000			mov	data_375,0		; (2926:83B3=1B8h)
2926:68EB  C4 7E 04				les	di,dword ptr [bp+4]	; Load seg:offset ptr
2926:68EE  26: C7 05 0000			mov	word ptr es:[di],0
2926:68F3  E9 0008				jmp	loc_684			; (68FE)
2926:68F6			loc_683:
2926:68F6  C4 7E 04				les	di,dword ptr [bp+4]	; Load seg:offset ptr
2926:68F9  26: C7 05 0000			mov	word ptr es:[di],0
2926:68FE			loc_684:
2926:68FE  C4 7E 0A				les	di,dword ptr [bp+0Ah]	; Load seg:offset ptr
2926:6901  83 C7 26				add	di,26h
2926:6904  26: C6 05 00				mov	byte ptr es:[di],0
2926:6908  8B E5				mov	sp,bp
2926:690A  5D					pop	bp
2926:690B  C2 000A				retn	0Ah
2926:690E			loc_685:
2926:690E  55					push	bp
2926:690F  8B EC				mov	bp,sp
2926:6911  55					push	bp
2926:6912  81 EC 0002				sub	sp,2
2926:6916  C4 7E 0A				les	di,dword ptr [bp+0Ah]	; Load seg:offset ptr
2926:6919  83 C7 26				add	di,26h
2926:691C  26: 8A 05				mov	al,es:[di]
2926:691F  3C 03				cmp	al,3
2926:6921  7F 03				jg	loc_686			; Jump if >
2926:6923  E9 0003				jmp	loc_687			; (6929)
2926:6926			loc_686:
2926:6926  E9 0023				jmp	loc_688			; (694C)
2926:6929			loc_687:
2926:6929  C4 7E 0A				les	di,dword ptr [bp+0Ah]	; Load seg:offset ptr
2926:692C  06					push	es
2926:692D  57					push	di
2926:692E  FF 76 08				push	word ptr [bp+8]
2926:6931  E8 1105				call	sub_162			; (7A39)
2926:6934  C7 06 83B3 0000			mov	data_375,0		; (2926:83B3=1B8h)
2926:693A  C4 7E 04				les	di,dword ptr [bp+4]	; Load seg:offset ptr
2926:693D  26: C7 05 0000			mov	word ptr es:[di],0
2926:6942  C4 7E 0A				les	di,dword ptr [bp+0Ah]	; Load seg:offset ptr
           ICON.LST				Sourcer	v8.01  20-Jul-2026 12:15 am   Page 178

2926:6945  83 C7 26				add	di,26h
2926:6948  26: C6 05 00				mov	byte ptr es:[di],0
2926:694C			loc_688:
2926:694C  8B E5				mov	sp,bp
2926:694E  5D					pop	bp
2926:694F  C2 000A				retn	0Ah
				sub_129		endp

2926:6952  E9 00 00				db	0E9h, 00h, 00h

				;ßßßßßßßßßßßßßßßßßßßßßßßßßßßßßßßßßßßßßßßßßßßßßßßßßßßßßßßßßßßßßßßßßßßßßßßßßß
				;                              SUBROUTINE
				;ÜÜÜÜÜÜÜÜÜÜÜÜÜÜÜÜÜÜÜÜÜÜÜÜÜÜÜÜÜÜÜÜÜÜÜÜÜÜÜÜÜÜÜÜÜÜÜÜÜÜÜÜÜÜÜÜÜÜÜÜÜÜÜÜÜÜÜÜÜÜÜÜÜÜ

2926:6955			sub_131		proc	near
2926:6955			loc_689:
2926:6955  E9 0036				jmp	loc_690			; (698E)

				;ßßßß External Entry into Subroutine ßßßßßßßßßßßßßßßßßßßßßßßßßßßßßßßßßßßßßß

2926:6958			sub_132:
2926:6958  E9 00D3				jmp	loc_698			; (6A2E)

				;ßßßß External Entry into Subroutine ßßßßßßßßßßßßßßßßßßßßßßßßßßßßßßßßßßßßßß

2926:695B			sub_133:
2926:695B  E9 00F4				jmp	loc_699			; (6A52)

				;ßßßß External Entry into Subroutine ßßßßßßßßßßßßßßßßßßßßßßßßßßßßßßßßßßßßßß

2926:695E			sub_134:
2926:695E  E9 0139				jmp	loc_702			; (6A9A)

				;ßßßß External Entry into Subroutine ßßßßßßßßßßßßßßßßßßßßßßßßßßßßßßßßßßßßßß

2926:6961			sub_135:
2926:6961  E9 0196				jmp	loc_705			; (6AFA)

				;ßßßß External Entry into Subroutine ßßßßßßßßßßßßßßßßßßßßßßßßßßßßßßßßßßßßßß

2926:6964			sub_136:
2926:6964  E9 0275				jmp	loc_714			; (6BDC)

				;ßßßß External Entry into Subroutine ßßßßßßßßßßßßßßßßßßßßßßßßßßßßßßßßßßßßßß

2926:6967			sub_137:
2926:6967  E9 0322				jmp	loc_725			; (6C8C)

				;ßßßß External Entry into Subroutine ßßßßßßßßßßßßßßßßßßßßßßßßßßßßßßßßßßßßßß

2926:696A			sub_138:
2926:696A  E9 036F				jmp	loc_730			; (6CDC)
2926:696D  E9 05EB				jmp	loc_754			; (6F5B)

				;ßßßß External Entry into Subroutine ßßßßßßßßßßßßßßßßßßßßßßßßßßßßßßßßßßßßßß

2926:6970			sub_139:
           ICON.LST				Sourcer	v8.01  20-Jul-2026 12:15 am   Page 179

2926:6970  E9 0604				jmp	loc_755			; (6F77)

				;ßßßß External Entry into Subroutine ßßßßßßßßßßßßßßßßßßßßßßßßßßßßßßßßßßßßßß

2926:6973			sub_140:
2926:6973  E9 0727				jmp	loc_766			; (709D)

				;ßßßß External Entry into Subroutine ßßßßßßßßßßßßßßßßßßßßßßßßßßßßßßßßßßßßßß

2926:6976			sub_141:
2926:6976  E9 084A				jmp	loc_776			; (71C3)

				;ßßßß External Entry into Subroutine ßßßßßßßßßßßßßßßßßßßßßßßßßßßßßßßßßßßßßß

2926:6979			sub_142:
2926:6979  E9 08DA				jmp	loc_783			; (7256)

				;ßßßß External Entry into Subroutine ßßßßßßßßßßßßßßßßßßßßßßßßßßßßßßßßßßßßßß

2926:697C			sub_143:
2926:697C  E9 09C7				jmp	loc_791			; (7346)

				;ßßßß External Entry into Subroutine ßßßßßßßßßßßßßßßßßßßßßßßßßßßßßßßßßßßßßß

2926:697F			sub_144:
2926:697F  E9 09E0				jmp	loc_792			; (7362)

				;ßßßß External Entry into Subroutine ßßßßßßßßßßßßßßßßßßßßßßßßßßßßßßßßßßßßßß

2926:6982			sub_145:
2926:6982  E9 0A68				jmp	loc_795			; (73ED)

				;ßßßß External Entry into Subroutine ßßßßßßßßßßßßßßßßßßßßßßßßßßßßßßßßßßßßßß

2926:6985			sub_146:
2926:6985  E9 0ADF				jmp	loc_798			; (7467)

				;ßßßß External Entry into Subroutine ßßßßßßßßßßßßßßßßßßßßßßßßßßßßßßßßßßßßßß

2926:6988			sub_147:
2926:6988  E9 0CC5				jmp	loc_819			; (7650)

				;ßßßß External Entry into Subroutine ßßßßßßßßßßßßßßßßßßßßßßßßßßßßßßßßßßßßßß

2926:698B			sub_148:
2926:698B  E9 0E0E				jmp	loc_831			; (779C)
2926:698E			loc_690:
2926:698E  55					push	bp
2926:698F  8B EC				mov	bp,sp
2926:6991  55					push	bp
2926:6992  81 EC 000E				sub	sp,0Eh
2926:6996  C7 46 F2 0000			mov	word ptr [bp-0Eh],0
2926:699B			loc_691:
2926:699B  81 7E F2 000A			cmp	word ptr [bp-0Eh],0Ah
2926:69A0  7E 03				jle	loc_692			; Jump if < or =
2926:69A2  E9 004B				jmp	loc_696			; (69F0)
2926:69A5			loc_692:
           ICON.LST				Sourcer	v8.01  20-Jul-2026 12:15 am   Page 180

2926:69A5  1E					push	ds
2926:69A6  B8 83B5				mov	ax,83B5h
2926:69A9  50					push	ax
2926:69AA  8B 46 F2				mov	ax,[bp-0Eh]
2926:69AD  BB 00A9				mov	bx,0A9h
2926:69B0  F7 E3				mul	bx			; dx:ax = reg * ax
2926:69B2  5B					pop	bx
2926:69B3  03 C3				add	ax,bx
2926:69B5  97					xchg	di,ax
2926:69B6  07					pop	es
2926:69B7  26: 8A 05				mov	al,es:[di]
2926:69BA  32 E4				xor	ah,ah			; Zero register
2926:69BC  F7 D0				not	ax
2926:69BE  D0 D8				rcr	al,1			; Rotate thru carry
2926:69C0  72 03				jc	loc_693			; Jump if carry Set
2926:69C2  E9 0022				jmp	loc_694			; (69E7)
2926:69C5			loc_693:
2926:69C5  8B 46 F2				mov	ax,[bp-0Eh]
2926:69C8  89 46 F4				mov	[bp-0Ch],ax
2926:69CB  1E					push	ds
2926:69CC  B8 83B5				mov	ax,83B5h
2926:69CF  50					push	ax
2926:69D0  8B 46 F2				mov	ax,[bp-0Eh]
2926:69D3  BB 00A9				mov	bx,0A9h
2926:69D6  F7 E3				mul	bx			; dx:ax = reg * ax
2926:69D8  5B					pop	bx
2926:69D9  03 C3				add	ax,bx
2926:69DB  97					xchg	di,ax
2926:69DC  07					pop	es
2926:69DD  26: C6 05 01				mov	byte ptr es:[di],1
2926:69E1  E9 0043				jmp	loc_697			; (6A27)
2926:69E4  E9 0007				jmp	loc_695			; (69EE)
2926:69E7			loc_694:
2926:69E7  8B 46 F2				mov	ax,[bp-0Eh]
2926:69EA  40					inc	ax
2926:69EB  89 46 F2				mov	[bp-0Eh],ax
2926:69EE			loc_695:
2926:69EE  EB AB				jmp	short loc_691		; (699B)
2926:69F0			loc_696:
2926:69F0  C7 46 F2 FFFF			mov	word ptr [bp-0Eh],0FFFFh
2926:69F5  1E					push	ds
2926:69F6  B8 82FD				mov	ax,82FDh
2926:69F9  50					push	ax
2926:69FA  E8 FF7F				call	sub_143			; (697C)
2926:69FD  0E E8 0015				callf	sub_149			; (6A16)
2926:6A01  14 46				adc	al,46h			; 'F'
2926:6A03  43					inc	bx
2926:6A04  42					inc	dx
2926:6A05  20 54 61				and	[si+61h],dl
2926:6A08  62 6C 65 20 45 78			db	'ble Exhausted!'
2926:6A0E  68 61 75 73 74 65
2926:6A14  64 21

				;ßßßß External Entry into Subroutine ßßßßßßßßßßßßßßßßßßßßßßßßßßßßßßßßßßßßßß

2926:6A16			sub_149:
2926:6A16  B8 FFFF				mov	ax,0FFFFh
           ICON.LST				Sourcer	v8.01  20-Jul-2026 12:15 am   Page 181

2926:6A19  50					push	ax
2926:6A1A  B8 FFFF				mov	ax,0FFFFh
2926:6A1D  50					push	ax
2926:6A1E  E8 1516				call	sub_171			; (7F37)
2926:6A21  E8 0DA4				call	sub_158			; (77C8)
2926:6A24  E8 192C				call	sub_191			; (8353)
2926:6A27			loc_697:
2926:6A27  8B 46 F4				mov	ax,[bp-0Ch]
2926:6A2A  8B E5				mov	sp,bp
2926:6A2C  5D					pop	bp
2926:6A2D  C3					retn
2926:6A2E			loc_698:
2926:6A2E  55					push	bp
2926:6A2F  8B EC				mov	bp,sp
2926:6A31  55					push	bp
2926:6A32  81 EC 0002				sub	sp,2
2926:6A36  1E					push	ds
2926:6A37  B8 83B5				mov	ax,83B5h
2926:6A3A  50					push	ax
2926:6A3B  8B 46 04				mov	ax,[bp+4]
2926:6A3E  BB 00A9				mov	bx,0A9h
2926:6A41  F7 E3				mul	bx			; dx:ax = reg * ax
2926:6A43  5B					pop	bx
2926:6A44  03 C3				add	ax,bx
2926:6A46  97					xchg	di,ax
2926:6A47  07					pop	es
2926:6A48  26: C6 05 00				mov	byte ptr es:[di],0
2926:6A4C  8B E5				mov	sp,bp
2926:6A4E  5D					pop	bp
2926:6A4F  C2 0002				retn	2
2926:6A52			loc_699:
2926:6A52  55					push	bp
2926:6A53  8B EC				mov	bp,sp
2926:6A55  55					push	bp
2926:6A56  81 EC 0002				sub	sp,2
2926:6A5A  B8 001A				mov	ax,1Ah
2926:6A5D  50					push	ax
2926:6A5E  1E					push	ds
2926:6A5F  B8 83B5				mov	ax,83B5h
2926:6A62  50					push	ax
2926:6A63  8B 46 04				mov	ax,[bp+4]
2926:6A66  BB 00A9				mov	bx,0A9h
2926:6A69  F7 E3				mul	bx			; dx:ax = reg * ax
2926:6A6B  5B					pop	bx
2926:6A6C  03 C3				add	ax,bx
2926:6A6E  05 0028				add	ax,28h
2926:6A71  50					push	ax
2926:6A72  E8 1B58				call	sub_202			; (85CD)
2926:6A75  A3 83B3				mov	data_375,ax		; (2926:83B3=1B8h)
2926:6A78  B8 0015				mov	ax,15h
2926:6A7B  50					push	ax
2926:6A7C  1E					push	ds
2926:6A7D  B8 83B5				mov	ax,83B5h
2926:6A80  50					push	ax
2926:6A81  8B 46 04				mov	ax,[bp+4]
2926:6A84  BB 00A9				mov	bx,0A9h
2926:6A87  F7 E3				mul	bx			; dx:ax = reg * ax
           ICON.LST				Sourcer	v8.01  20-Jul-2026 12:15 am   Page 182

2926:6A89  5B					pop	bx
2926:6A8A  03 C3				add	ax,bx
2926:6A8C  40					inc	ax
2926:6A8D  50					push	ax
2926:6A8E  E8 1B3C				call	sub_202			; (85CD)
2926:6A91  A3 83B3				mov	data_375,ax		; (2926:83B3=1B8h)
2926:6A94  8B E5				mov	sp,bp
2926:6A96  5D					pop	bp
2926:6A97  C2 0002				retn	2
2926:6A9A			loc_702:
2926:6A9A  55					push	bp
2926:6A9B  8B EC				mov	bp,sp
2926:6A9D  55					push	bp
2926:6A9E  81 EC 000C				sub	sp,0Ch
2926:6AA2  C6 46 F4 01				mov	byte ptr [bp-0Ch],1
2926:6AA6  B8 001A				mov	ax,1Ah
2926:6AA9  50					push	ax
2926:6AAA  1E					push	ds
2926:6AAB  B8 83B5				mov	ax,83B5h
2926:6AAE  50					push	ax
2926:6AAF  8B 46 04				mov	ax,[bp+4]
2926:6AB2  BB 00A9				mov	bx,0A9h
2926:6AB5  F7 E3				mul	bx			; dx:ax = reg * ax
2926:6AB7  5B					pop	bx
2926:6AB8  03 C3				add	ax,bx
2926:6ABA  05 0028				add	ax,28h
2926:6ABD  50					push	ax
2926:6ABE  E8 1B0C				call	sub_202			; (85CD)
2926:6AC1  A3 83B3				mov	data_375,ax		; (2926:83B3=1B8h)
2926:6AC4  B8 0014				mov	ax,14h
2926:6AC7  50					push	ax
2926:6AC8  1E					push	ds
2926:6AC9  B8 83B5				mov	ax,83B5h
2926:6ACC  50					push	ax
2926:6ACD  8B 46 04				mov	ax,[bp+4]
2926:6AD0  BB 00A9				mov	bx,0A9h
2926:6AD3  F7 E3				mul	bx			; dx:ax = reg * ax
2926:6AD5  5B					pop	bx
2926:6AD6  03 C3				add	ax,bx
2926:6AD8  40					inc	ax
2926:6AD9  50					push	ax
2926:6ADA  E8 1AF0				call	sub_202			; (85CD)
2926:6ADD  A3 83B3				mov	data_375,ax		; (2926:83B3=1B8h)
2926:6AE0  81 3E 83B3 0000			cmp	data_375,0		; (2926:83B3=1B8h)
2926:6AE6  75 03				jne	loc_703			; Jump if not equal
2926:6AE8  E9 0004				jmp	loc_704			; (6AEF)
2926:6AEB			loc_703:
2926:6AEB  C6 46 F4 00				mov	byte ptr [bp-0Ch],0
2926:6AEF			loc_704:
2926:6AEF  8A 46 F4				mov	al,[bp-0Ch]
2926:6AF2  32 E4				xor	ah,ah			; Zero register
2926:6AF4  8B E5				mov	sp,bp
2926:6AF6  5D					pop	bp
2926:6AF7  C2 0002				retn	2
2926:6AFA			loc_705:
2926:6AFA  55					push	bp
2926:6AFB  8B EC				mov	bp,sp
           ICON.LST				Sourcer	v8.01  20-Jul-2026 12:15 am   Page 183

2926:6AFD  55					push	bp
2926:6AFE  81 EC 000C				sub	sp,0Ch
2926:6B02  C6 46 F4 00				mov	byte ptr [bp-0Ch],0
2926:6B06  C4 7E 04				les	di,dword ptr [bp+4]	; Load seg:offset ptr
2926:6B09  06					push	es
2926:6B0A  57					push	di
2926:6B0B  0E E8 0005				callf	sub_150			; (6B14)
2926:6B0F  04 43				add	al,43h			; 'C'
2926:6B11  4F					dec	di
2926:6B12  4E					dec	si
2926:6B13  3A E8				cmp	ch,al
2926:6B15  D7					xlat				; al=[al+[bx]] table
2926:6B16  11 D0				adc	ax,dx
2926:6B18  D8 72 03				fdiv	dword ptr [bp+si+3]	; st = st / memory
2926:6B1B  E9 0011				jmp	loc_706			; (6B2F)
							                        ;* No entry point to code
2926:6B1E  C4 7E 04				les	di,dword ptr [bp+4]	; Load seg:offset ptr
2926:6B21  83 C7 26				add	di,26h
2926:6B24  26: C6 05 04				mov	byte ptr es:[di],4
2926:6B28  C6 46 F4 01				mov	byte ptr [bp-0Ch],1
2926:6B2C  E9 00A2				jmp	loc_713			; (6BD1)
2926:6B2F			loc_706:
2926:6B2F  C4 7E 04				les	di,dword ptr [bp+4]	; Load seg:offset ptr
2926:6B32  06					push	es
2926:6B33  57					push	di
2926:6B34  0E E8 0005				callf	sub_151			; (6B3D)
2926:6B38  04 4C				add	al,4Ch			; 'L'
2926:6B3A  53					push	bx
2926:6B3B  54					push	sp
2926:6B3C  3A E8				cmp	ch,al
2926:6B3E  AE					scasb				; Scan es:[di] for al
2926:6B3F  11 D0				adc	ax,dx
2926:6B41  D8 72 03				fdiv	dword ptr [bp+si+3]	; st = st / memory
2926:6B44  E9 0011				jmp	loc_707			; (6B58)
							                        ;* No entry point to code
2926:6B47  C4 7E 04				les	di,dword ptr [bp+4]	; Load seg:offset ptr
2926:6B4A  83 C7 26				add	di,26h
2926:6B4D  26: C6 05 06				mov	byte ptr es:[di],6
2926:6B51  C6 46 F4 01				mov	byte ptr [bp-0Ch],1
2926:6B55  E9 0079				jmp	loc_713			; (6BD1)
2926:6B58			loc_707:
2926:6B58  C4 7E 04				les	di,dword ptr [bp+4]	; Load seg:offset ptr
2926:6B5B  06					push	es
2926:6B5C  57					push	di
2926:6B5D  0E E8 0005				callf	sub_152			; (6B66)
2926:6B61  04 4B				add	al,4Bh			; 'K'
2926:6B63  42					inc	dx
2926:6B64  44					inc	sp
2926:6B65  3A E8				cmp	ch,al
2926:6B67  85 11				test	dx,[bx+di]
2926:6B69  50					push	ax
2926:6B6A  C4 7E 04				les	di,dword ptr [bp+4]	; Load seg:offset ptr
2926:6B6D  06					push	es
2926:6B6E  57					push	di
2926:6B6F  0E E8 0005				callf	sub_153			; (6B78)
2926:6B73  04 54				add	al,54h			; 'T'
2926:6B75  52					push	dx
           ICON.LST				Sourcer	v8.01  20-Jul-2026 12:15 am   Page 184

2926:6B76  4D					dec	bp
2926:6B77  3A E8				cmp	ch,al
2926:6B79  73 11				jae	loc_709			; Jump if above or =
2926:6B7B  5B					pop	bx
2926:6B7C  0B C3				or	ax,bx
2926:6B7E  D0 D8				rcr	al,1			; Rotate thru carry
2926:6B80  72 03				jc	loc_708			; Jump if carry Set
2926:6B82  E9 0011				jmp	loc_710			; (6B96)
2926:6B85			loc_708:
2926:6B85  C4 7E 04				les	di,dword ptr [bp+4]	; Load seg:offset ptr
2926:6B88  83 C7 26				add	di,26h
2926:6B8B  26: C6 05 05				mov	byte ptr es:[di],5
2926:6B8F  C6 46 F4 01				mov	byte ptr [bp-0Ch],1
2926:6B93  E9 003B				jmp	loc_713			; (6BD1)
2926:6B96			loc_710:
2926:6B96  C4 7E 04				les	di,dword ptr [bp+4]	; Load seg:offset ptr
2926:6B99  06					push	es
2926:6B9A  57					push	di
2926:6B9B  0E E8 0005				callf	sub_154			; (6BA4)
2926:6B9F  04 52				add	al,52h			; 'R'
2926:6BA1  44					inc	sp
2926:6BA2  52					push	dx
2926:6BA3  3A E8				cmp	ch,al
2926:6BA5  47					inc	di
2926:6BA6  11 50 C4				adc	[bx+si-3Ch],dx
2926:6BA9  7E 04				jle	loc_711			; Jump if < or =
2926:6BAB  06					push	es
2926:6BAC  57					push	di
2926:6BAD  0E E8 0005				callf	sub_155			; (6BB6)
2926:6BB1  04 50				add	al,50h			; 'P'
2926:6BB3  55					push	bp
2926:6BB4  4E					dec	si
2926:6BB5  3A E8				cmp	ch,al
2926:6BB7  35 5B11				xor	ax,5B11h
2926:6BBA  0B C3				or	ax,bx
2926:6BBC  D0 D8				rcr	al,1			; Rotate thru carry
2926:6BBE  72 03				jc	loc_712			; Jump if carry Set
2926:6BC0  E9 000E				jmp	loc_713			; (6BD1)
2926:6BC3			loc_712:
2926:6BC3  C4 7E 04				les	di,dword ptr [bp+4]	; Load seg:offset ptr
2926:6BC6  83 C7 26				add	di,26h
2926:6BC9  26: C6 05 07				mov	byte ptr es:[di],7
2926:6BCD  C6 46 F4 01				mov	byte ptr [bp-0Ch],1
2926:6BD1			loc_713:
2926:6BD1  8A 46 F4				mov	al,[bp-0Ch]
2926:6BD4  32 E4				xor	ah,ah			; Zero register
2926:6BD6  8B E5				mov	sp,bp
2926:6BD8  5D					pop	bp
2926:6BD9  C2 0004				retn	4
2926:6BDC			loc_714:
2926:6BDC  55					push	bp
2926:6BDD  8B EC				mov	bp,sp
2926:6BDF  55					push	bp
2926:6BE0  81 EC 0030				sub	sp,30h
2926:6BE4  C6 46 F4 00				mov	byte ptr [bp-0Ch],0
2926:6BE8  16					push	ss
2926:6BE9  8D 46 D2				lea	ax,[bp-2Eh]		; Load effective addr
           ICON.LST				Sourcer	v8.01  20-Jul-2026 12:15 am   Page 185

2926:6BEC  50					push	ax
2926:6BED  B8 0020				mov	ax,20h
2926:6BF0  50					push	ax
2926:6BF1  B8 007E				mov	ax,7Eh
2926:6BF4  50					push	ax
2926:6BF5  E8 1668				call	sub_184			; (8260)
2926:6BF8  E8 16B9				call	sub_187			; (82B4)
2926:6BFB  C4 7E 04				les	di,dword ptr [bp+4]	; Load seg:offset ptr
2926:6BFE  26: 8A 05				mov	al,es:[di]
2926:6C01  32 E4				xor	ah,ah			; Zero register
2926:6C03  3D 000E				cmp	ax,0Eh
2926:6C06  B8 0000				mov	ax,0
2926:6C09  7E 01				jle	loc_715			; Jump if < or =
2926:6C0B  40					inc	ax
2926:6C0C			loc_715:
2926:6C0C  50					push	ax
2926:6C0D  C4 7E 04				les	di,dword ptr [bp+4]	; Load seg:offset ptr
2926:6C10  26: 8A 05				mov	al,es:[di]
2926:6C13  32 E4				xor	ah,ah			; Zero register
2926:6C15  3D 0001				cmp	ax,1
2926:6C18  B8 0000				mov	ax,0
2926:6C1B  7D 01				jge	loc_716			; Jump if > or =
2926:6C1D  40					inc	ax
2926:6C1E			loc_716:
2926:6C1E  5B					pop	bx
2926:6C1F  0B C3				or	ax,bx
2926:6C21  D0 D8				rcr	al,1			; Rotate thru carry
2926:6C23  72 03				jc	loc_717			; Jump if carry Set
2926:6C25  E9 0003				jmp	loc_718			; (6C2B)
2926:6C28			loc_717:
2926:6C28  E9 0056				jmp	loc_724			; (6C81)
2926:6C2B			loc_718:
2926:6C2B  B8 0001				mov	ax,1
2926:6C2E  50					push	ax
2926:6C2F  C4 7E 04				les	di,dword ptr [bp+4]	; Load seg:offset ptr
2926:6C32  26: 8A 05				mov	al,es:[di]
2926:6C35  32 E4				xor	ah,ah			; Zero register
2926:6C37  5B					pop	bx
2926:6C38  93					xchg	bx,ax
2926:6C39  89 46 F2				mov	[bp-0Eh],ax
2926:6C3C  93					xchg	bx,ax
2926:6C3D  FF 4E F2				dec	word ptr [bp-0Eh]
2926:6C40  2B C3				sub	ax,bx
2926:6C42  40					inc	ax
2926:6C43  89 46 D0				mov	[bp-30h],ax
2926:6C46			loc_719:
2926:6C46  FF 46 F2				inc	word ptr [bp-0Eh]
2926:6C49  FF 4E D0				dec	word ptr [bp-30h]
2926:6C4C  7D 03				jge	loc_720			; Jump if > or =
2926:6C4E  E9 002C				jmp	loc_723			; (6C7D)
2926:6C51			loc_720:
2926:6C51  C4 7E 04				les	di,dword ptr [bp+4]	; Load seg:offset ptr
2926:6C54  06					push	es
2926:6C55  57					push	di
2926:6C56  8B 46 F2				mov	ax,[bp-0Eh]
2926:6C59  5B					pop	bx
2926:6C5A  03 C3				add	ax,bx
           ICON.LST				Sourcer	v8.01  20-Jul-2026 12:15 am   Page 186

2926:6C5C  97					xchg	di,ax
2926:6C5D  07					pop	es
2926:6C5E  26: 8A 05				mov	al,es:[di]
2926:6C61  32 E4				xor	ah,ah			; Zero register
2926:6C63  50					push	ax
2926:6C64  16					push	ss
2926:6C65  8D 46 D2				lea	ax,[bp-2Eh]		; Load effective addr
2926:6C68  50					push	ax
2926:6C69  E8 1666				call	sub_188			; (82D2)
2926:6C6C  E8 1026				call	sub_167			; (7C95)
2926:6C6F  F7 D0				not	ax
2926:6C71  D0 D8				rcr	al,1			; Rotate thru carry
2926:6C73  72 03				jc	loc_721			; Jump if carry Set
2926:6C75  E9 0003				jmp	loc_722			; (6C7B)
2926:6C78			loc_721:
2926:6C78  E9 0006				jmp	loc_724			; (6C81)
2926:6C7B			loc_722:
2926:6C7B  EB C9				jmp	short loc_719		; (6C46)
2926:6C7D			loc_723:
2926:6C7D  C6 46 F4 01				mov	byte ptr [bp-0Ch],1
2926:6C81			loc_724:
2926:6C81  8A 46 F4				mov	al,[bp-0Ch]
2926:6C84  32 E4				xor	ah,ah			; Zero register
2926:6C86  8B E5				mov	sp,bp
2926:6C88  5D					pop	bp
2926:6C89  C2 0004				retn	4
				sub_131		endp

2926:6C8C			loc_725:
2926:6C8C  55					push	bp
2926:6C8D  8B EC				mov	bp,sp
2926:6C8F  55					push	bp
2926:6C90  81 EC 000C				sub	sp,0Ch
2926:6C94  8A 46 04				mov	al,[bp+4]
2926:6C97  32 E4				xor	ah,ah			; Zero register
2926:6C99  81 F8 0061				cmp	ax,61h
2926:6C9D  B8 0000				mov	ax,0
2926:6CA0  7C 01				jl	loc_726			; Jump if <
2926:6CA2  40					inc	ax
2926:6CA3			loc_726:
2926:6CA3  50					push	ax
2926:6CA4  8A 46 04				mov	al,[bp+4]
2926:6CA7  32 E4				xor	ah,ah			; Zero register
2926:6CA9  81 F8 007A				cmp	ax,7Ah
2926:6CAD  B8 0000				mov	ax,0
2926:6CB0  7F 01				jg	loc_727			; Jump if >
2926:6CB2  40					inc	ax
2926:6CB3			loc_727:
2926:6CB3  5B					pop	bx
2926:6CB4  23 C3				and	ax,bx
2926:6CB6  D0 D8				rcr	al,1			; Rotate thru carry
2926:6CB8  72 03				jc	loc_728			; Jump if carry Set
2926:6CBA  E9 000E				jmp	loc_729			; (6CCB)
2926:6CBD			loc_728:
2926:6CBD  8A 46 04				mov	al,[bp+4]
2926:6CC0  32 E4				xor	ah,ah			; Zero register
2926:6CC2  93					xchg	bx,ax
           ICON.LST				Sourcer	v8.01  20-Jul-2026 12:15 am   Page 187

2926:6CC3  B8 00DF				mov	ax,0DFh
2926:6CC6  23 C3				and	ax,bx
2926:6CC8  88 46 04				mov	[bp+4],al
2926:6CCB			loc_729:
2926:6CCB  8A 46 04				mov	al,[bp+4]
2926:6CCE  88 46 F4				mov	[bp-0Ch],al
2926:6CD1  8A 46 F4				mov	al,[bp-0Ch]
2926:6CD4  32 E4				xor	ah,ah			; Zero register
2926:6CD6  8B E5				mov	sp,bp
2926:6CD8  5D					pop	bp
2926:6CD9  C2 0002				retn	2
2926:6CDC			loc_730:
2926:6CDC  55					push	bp
2926:6CDD  8B EC				mov	bp,sp
2926:6CDF  55					push	bp
2926:6CE0  81 EC 0014				sub	sp,14h
2926:6CE4			loc_731:
2926:6CE4  C4 7E 04				les	di,dword ptr [bp+4]	; Load seg:offset ptr
2926:6CE7  26: 8A 05				mov	al,es:[di]
2926:6CEA  32 E4				xor	ah,ah			; Zero register
2926:6CEC  3D 0000				cmp	ax,0
2926:6CEF  B8 0000				mov	ax,0
2926:6CF2  74 01				jz	loc_732			; Jump if zero
2926:6CF4  40					inc	ax
2926:6CF5			loc_732:
2926:6CF5  50					push	ax
2926:6CF6  C4 7E 04				les	di,dword ptr [bp+4]	; Load seg:offset ptr
2926:6CF9  06					push	es
2926:6CFA  57					push	di
2926:6CFB  58					pop	ax
2926:6CFC  05 0001				add	ax,1
2926:6CFF  97					xchg	di,ax
2926:6D00  07					pop	es
2926:6D01  26: 8A 05				mov	al,es:[di]
2926:6D04  32 E4				xor	ah,ah			; Zero register
2926:6D06  3D 0020				cmp	ax,20h
2926:6D09  B8 0000				mov	ax,0
2926:6D0C  75 01				jnz	loc_733			; Jump if not zero
2926:6D0E  40					inc	ax
2926:6D0F			loc_733:
2926:6D0F  5B					pop	bx
2926:6D10  23 C3				and	ax,bx
2926:6D12  D0 D8				rcr	al,1			; Rotate thru carry
2926:6D14  72 03				jc	loc_734			; Jump if carry Set
2926:6D16  E9 0012				jmp	loc_735			; (6D2B)
2926:6D19			loc_734:
2926:6D19  C4 7E 04				les	di,dword ptr [bp+4]	; Load seg:offset ptr
2926:6D1C  06					push	es
2926:6D1D  57					push	di
2926:6D1E  B8 0001				mov	ax,1
2926:6D21  50					push	ax
2926:6D22  B8 0001				mov	ax,1
2926:6D25  50					push	ax
2926:6D26  E8 0ABF				call	sub_159			; (77E8)
2926:6D29  EB B9				jmp	short loc_731		; (6CE4)
2926:6D2B			loc_735:
2926:6D2B  C4 7E 04				les	di,dword ptr [bp+4]	; Load seg:offset ptr
           ICON.LST				Sourcer	v8.01  20-Jul-2026 12:15 am   Page 188

2926:6D2E  26: 8A 05				mov	al,es:[di]
2926:6D31  32 E4				xor	ah,ah			; Zero register
2926:6D33  3D 0000				cmp	ax,0
2926:6D36  75 03				jne	loc_736			; Jump if not equal
2926:6D38  E9 021A				jmp	loc_753			; (6F55)
2926:6D3B			loc_736:
2926:6D3B  C6 46 FD 40				mov	byte ptr [bp-3],40h	; '@'
2926:6D3F  16					push	ss
2926:6D40  8D 46 F5				lea	ax,[bp-0Bh]		; Load effective addr
2926:6D43  50					push	ax
2926:6D44  0E E8 0009				callf	sub_156			; (6D51)
2926:6D48  08 20				or	[bx+si],ah
2926:6D4A  0007[20]				db	7 dup (20h)

				;ßßßßßßßßßßßßßßßßßßßßßßßßßßßßßßßßßßßßßßßßßßßßßßßßßßßßßßßßßßßßßßßßßßßßßßßßßß
				;                              SUBROUTINE
				;ÜÜÜÜÜÜÜÜÜÜÜÜÜÜÜÜÜÜÜÜÜÜÜÜÜÜÜÜÜÜÜÜÜÜÜÜÜÜÜÜÜÜÜÜÜÜÜÜÜÜÜÜÜÜÜÜÜÜÜÜÜÜÜÜÜÜÜÜÜÜÜÜÜÜ

2926:6D51			sub_156		proc	near
2926:6D51  58					pop	ax
2926:6D52  40					inc	ax
2926:6D53  50					push	ax
2926:6D54  B8 0008				mov	ax,8
2926:6D57  50					push	ax
2926:6D58  E8 1494				call	sub_181			; (81EF)
2926:6D5B  16					push	ss
2926:6D5C  8D 46 F2				lea	ax,[bp-0Eh]		; Load effective addr
2926:6D5F  50					push	ax
2926:6D60  0E E8 0004				callf	sub_157			; (6D68)
2926:6D64  03 20				add	sp,[bx+si]
2926:6D66  20 20				and	[bx+si],ah

				;ßßßß External Entry into Subroutine ßßßßßßßßßßßßßßßßßßßßßßßßßßßßßßßßßßßßßß

2926:6D68			sub_157:
2926:6D68  58					pop	ax
2926:6D69  40					inc	ax
2926:6D6A  50					push	ax
2926:6D6B  B8 0003				mov	ax,3
2926:6D6E  50					push	ax
2926:6D6F  E8 147D				call	sub_181			; (81EF)
2926:6D72  C4 7E 04				les	di,dword ptr [bp+4]	; Load seg:offset ptr
2926:6D75  06					push	es
2926:6D76  57					push	di
2926:6D77  58					pop	ax
2926:6D78  05 0002				add	ax,2
2926:6D7B  97					xchg	di,ax
2926:6D7C  07					pop	es
2926:6D7D  26: 8A 05				mov	al,es:[di]
2926:6D80  32 E4				xor	ah,ah			; Zero register
2926:6D82  3D 003A				cmp	ax,3Ah
2926:6D85  74 03				je	loc_737			; Jump if equal
2926:6D87  E9 001F				jmp	loc_738			; (6DA9)
2926:6D8A			loc_737:
2926:6D8A  C7 46 EC 0003			mov	word ptr [bp-14h],3
2926:6D8F  C4 7E 04				les	di,dword ptr [bp+4]	; Load seg:offset ptr
2926:6D92  06					push	es
           ICON.LST				Sourcer	v8.01  20-Jul-2026 12:15 am   Page 189

2926:6D93  57					push	di
2926:6D94  58					pop	ax
2926:6D95  05 0001				add	ax,1
2926:6D98  97					xchg	di,ax
2926:6D99  07					pop	es
2926:6D9A  26: 8A 05				mov	al,es:[di]
2926:6D9D  32 E4				xor	ah,ah			; Zero register
2926:6D9F  50					push	ax
2926:6DA0  E8 FBC4				call	sub_137			; (6967)
2926:6DA3  88 46 FD				mov	[bp-3],al
2926:6DA6  E9 0005				jmp	loc_739			; (6DAE)
2926:6DA9			loc_738:
2926:6DA9  C7 46 EC 0001			mov	word ptr [bp-14h],1
2926:6DAE			loc_739:
2926:6DAE  8B 46 EC				mov	ax,[bp-14h]
2926:6DB1  05 0008				add	ax,8
2926:6DB4  89 46 F0				mov	[bp-10h],ax
2926:6DB7  C7 46 EE 0001			mov	word ptr [bp-12h],1
2926:6DBC			loc_740:
2926:6DBC  C4 7E 04				les	di,dword ptr [bp+4]	; Load seg:offset ptr
2926:6DBF  06					push	es
2926:6DC0  57					push	di
2926:6DC1  8B 46 EC				mov	ax,[bp-14h]
2926:6DC4  5B					pop	bx
2926:6DC5  03 C3				add	ax,bx
2926:6DC7  97					xchg	di,ax
2926:6DC8  07					pop	es
2926:6DC9  26: 8A 05				mov	al,es:[di]
2926:6DCC  32 E4				xor	ah,ah			; Zero register
2926:6DCE  50					push	ax
2926:6DCF  B8 002E				mov	ax,2Eh
2926:6DD2  50					push	ax
2926:6DD3  E8 1514				call	sub_189			; (82EA)
2926:6DD6  B8 003A				mov	ax,3Ah
2926:6DD9  50					push	ax
2926:6DDA  E8 150D				call	sub_189			; (82EA)
2926:6DDD  E8 13EE				call	sub_180			; (81CE)
2926:6DE0  E8 0EB2				call	sub_167			; (7C95)
2926:6DE3  F7 D0				not	ax
2926:6DE5  50					push	ax
2926:6DE6  8B 46 EC				mov	ax,[bp-14h]
2926:6DE9  93					xchg	bx,ax
2926:6DEA  8B 46 F0				mov	ax,[bp-10h]
2926:6DED  3B D8				cmp	bx,ax
2926:6DEF  B8 0000				mov	ax,0
2926:6DF2  7D 01				jge	loc_741			; Jump if > or =
2926:6DF4  40					inc	ax
2926:6DF5			loc_741:
2926:6DF5  5B					pop	bx
2926:6DF6  23 C3				and	ax,bx
2926:6DF8  50					push	ax
2926:6DF9  8B 46 EC				mov	ax,[bp-14h]
2926:6DFC  50					push	ax
2926:6DFD  C4 7E 04				les	di,dword ptr [bp+4]	; Load seg:offset ptr
2926:6E00  26: 8A 05				mov	al,es:[di]
2926:6E03  32 E4				xor	ah,ah			; Zero register
2926:6E05  5B					pop	bx
           ICON.LST				Sourcer	v8.01  20-Jul-2026 12:15 am   Page 190

2926:6E06  3B D8				cmp	bx,ax
2926:6E08  B8 0000				mov	ax,0
2926:6E0B  7F 01				jg	loc_742			; Jump if >
2926:6E0D  40					inc	ax
2926:6E0E			loc_742:
2926:6E0E  5B					pop	bx
2926:6E0F  23 C3				and	ax,bx
2926:6E11  D0 D8				rcr	al,1			; Rotate thru carry
2926:6E13  72 03				jc	loc_743			; Jump if carry Set
2926:6E15  E9 0039				jmp	loc_744			; (6E51)
2926:6E18			loc_743:
2926:6E18  16					push	ss
2926:6E19  8D 46 F5				lea	ax,[bp-0Bh]		; Load effective addr
2926:6E1C  50					push	ax
2926:6E1D  8B 46 EE				mov	ax,[bp-12h]
2926:6E20  48					dec	ax
2926:6E21  5B					pop	bx
2926:6E22  03 C3				add	ax,bx
2926:6E24  50					push	ax
2926:6E25  C4 7E 04				les	di,dword ptr [bp+4]	; Load seg:offset ptr
2926:6E28  06					push	es
2926:6E29  57					push	di
2926:6E2A  8B 46 EC				mov	ax,[bp-14h]
2926:6E2D  5B					pop	bx
2926:6E2E  03 C3				add	ax,bx
2926:6E30  97					xchg	di,ax
2926:6E31  07					pop	es
2926:6E32  26: 8A 05				mov	al,es:[di]
2926:6E35  32 E4				xor	ah,ah			; Zero register
2926:6E37  50					push	ax
2926:6E38  E8 FB2C				call	sub_137			; (6967)
2926:6E3B  5F					pop	di
2926:6E3C  07					pop	es
2926:6E3D  26: 88 05				mov	es:[di],al
2926:6E40  8B 46 EE				mov	ax,[bp-12h]
2926:6E43  40					inc	ax
2926:6E44  89 46 EE				mov	[bp-12h],ax
2926:6E47  8B 46 EC				mov	ax,[bp-14h]
2926:6E4A  40					inc	ax
2926:6E4B  89 46 EC				mov	[bp-14h],ax
2926:6E4E  E9 FF6B				jmp	loc_740			; (6DBC)
2926:6E51			loc_744:
2926:6E51  C4 7E 04				les	di,dword ptr [bp+4]	; Load seg:offset ptr
2926:6E54  06					push	es
2926:6E55  57					push	di
2926:6E56  8B 46 EC				mov	ax,[bp-14h]
2926:6E59  5B					pop	bx
2926:6E5A  03 C3				add	ax,bx
2926:6E5C  97					xchg	di,ax
2926:6E5D  07					pop	es
2926:6E5E  26: 8A 05				mov	al,es:[di]
2926:6E61  32 E4				xor	ah,ah			; Zero register
2926:6E63  3D 002E				cmp	ax,2Eh
2926:6E66  B8 0000				mov	ax,0
2926:6E69  75 01				jnz	loc_745			; Jump if not zero
2926:6E6B  40					inc	ax
2926:6E6C			loc_745:
           ICON.LST				Sourcer	v8.01  20-Jul-2026 12:15 am   Page 191

2926:6E6C  50					push	ax
2926:6E6D  8B 46 EC				mov	ax,[bp-14h]
2926:6E70  50					push	ax
2926:6E71  C4 7E 04				les	di,dword ptr [bp+4]	; Load seg:offset ptr
2926:6E74  26: 8A 05				mov	al,es:[di]
2926:6E77  32 E4				xor	ah,ah			; Zero register
2926:6E79  5B					pop	bx
2926:6E7A  3B D8				cmp	bx,ax
2926:6E7C  B8 0000				mov	ax,0
2926:6E7F  7F 01				jg	loc_746			; Jump if >
2926:6E81  40					inc	ax
2926:6E82			loc_746:
2926:6E82  5B					pop	bx
2926:6E83  23 C3				and	ax,bx
2926:6E85  D0 D8				rcr	al,1			; Rotate thru carry
2926:6E87  72 03				jc	loc_747			; Jump if carry Set
2926:6E89  E9 006F				jmp	loc_752			; (6EFB)
2926:6E8C			loc_747:
2926:6E8C  8B 46 EC				mov	ax,[bp-14h]
2926:6E8F  40					inc	ax
2926:6E90  89 46 EC				mov	[bp-14h],ax
2926:6E93  C7 46 EE 0001			mov	word ptr [bp-12h],1
2926:6E98			loc_748:
2926:6E98  81 7E EE 0004			cmp	word ptr [bp-12h],4
2926:6E9D  B8 0000				mov	ax,0
2926:6EA0  7D 01				jge	loc_749			; Jump if > or =
2926:6EA2  40					inc	ax
2926:6EA3			loc_749:
2926:6EA3  50					push	ax
2926:6EA4  8B 46 EC				mov	ax,[bp-14h]
2926:6EA7  50					push	ax
2926:6EA8  C4 7E 04				les	di,dword ptr [bp+4]	; Load seg:offset ptr
2926:6EAB  26: 8A 05				mov	al,es:[di]
2926:6EAE  32 E4				xor	ah,ah			; Zero register
2926:6EB0  5B					pop	bx
2926:6EB1  3B D8				cmp	bx,ax
2926:6EB3  B8 0000				mov	ax,0
2926:6EB6  7F 01				jg	loc_750			; Jump if >
2926:6EB8  40					inc	ax
2926:6EB9			loc_750:
2926:6EB9  5B					pop	bx
2926:6EBA  23 C3				and	ax,bx
2926:6EBC  D0 D8				rcr	al,1			; Rotate thru carry
2926:6EBE  72 03				jc	loc_751			; Jump if carry Set
2926:6EC0  E9 0038				jmp	loc_752			; (6EFB)
2926:6EC3			loc_751:
2926:6EC3  16					push	ss
2926:6EC4  8D 46 F2				lea	ax,[bp-0Eh]		; Load effective addr
2926:6EC7  50					push	ax
2926:6EC8  8B 46 EE				mov	ax,[bp-12h]
2926:6ECB  48					dec	ax
2926:6ECC  5B					pop	bx
2926:6ECD  03 C3				add	ax,bx
2926:6ECF  50					push	ax
2926:6ED0  C4 7E 04				les	di,dword ptr [bp+4]	; Load seg:offset ptr
2926:6ED3  06					push	es
2926:6ED4  57					push	di
           ICON.LST				Sourcer	v8.01  20-Jul-2026 12:15 am   Page 192

2926:6ED5  8B 46 EC				mov	ax,[bp-14h]
2926:6ED8  5B					pop	bx
2926:6ED9  03 C3				add	ax,bx
2926:6EDB  97					xchg	di,ax
2926:6EDC  07					pop	es
2926:6EDD  26: 8A 05				mov	al,es:[di]
2926:6EE0  32 E4				xor	ah,ah			; Zero register
2926:6EE2  50					push	ax
2926:6EE3  E8 FA81				call	sub_137			; (6967)
2926:6EE6  5F					pop	di
2926:6EE7  07					pop	es
2926:6EE8  26: 88 05				mov	es:[di],al
2926:6EEB  8B 46 EE				mov	ax,[bp-12h]
2926:6EEE  40					inc	ax
2926:6EEF  89 46 EE				mov	[bp-12h],ax
2926:6EF2  8B 46 EC				mov	ax,[bp-14h]
2926:6EF5  40					inc	ax
2926:6EF6  89 46 EC				mov	[bp-14h],ax
2926:6EF9  EB 9D				jmp	short loc_748		; (6E98)
2926:6EFB			loc_752:
2926:6EFB  C4 7E 08				les	di,dword ptr [bp+8]	; Load seg:offset ptr
2926:6EFE  06					push	es
2926:6EFF  57					push	di
2926:6F00  B8 0025				mov	ax,25h
2926:6F03  2D 0012				sub	ax,12h
2926:6F06  50					push	ax
2926:6F07  B8 0000				mov	ax,0
2926:6F0A  50					push	ax
2926:6F0B  E8 144C				call	sub_192			; (835A)
2926:6F0E  C4 7E 08				les	di,dword ptr [bp+8]	; Load seg:offset ptr
2926:6F11  06					push	es
2926:6F12  57					push	di
2926:6F13  58					pop	ax
2926:6F14  05 0000				add	ax,0
2926:6F17  50					push	ax
2926:6F18  8A 46 FD				mov	al,[bp-3]
2926:6F1B  32 E4				xor	ah,ah			; Zero register
2926:6F1D  93					xchg	bx,ax
2926:6F1E  B8 0040				mov	ax,40h
2926:6F21  2B D8				sub	bx,ax
2926:6F23  93					xchg	bx,ax
2926:6F24  5F					pop	di
2926:6F25  07					pop	es
2926:6F26  26: 88 05				mov	es:[di],al
2926:6F29  16					push	ss
2926:6F2A  8D 46 F5				lea	ax,[bp-0Bh]		; Load effective addr
2926:6F2D  50					push	ax
2926:6F2E  C4 7E 08				les	di,dword ptr [bp+8]	; Load seg:offset ptr
2926:6F31  06					push	es
2926:6F32  57					push	di
2926:6F33  58					pop	ax
2926:6F34  05 0001				add	ax,1
2926:6F37  50					push	ax
2926:6F38  B8 0008				mov	ax,8
2926:6F3B  50					push	ax
2926:6F3C  E8 12C8				call	sub_182			; (8207)
2926:6F3F  16					push	ss
           ICON.LST				Sourcer	v8.01  20-Jul-2026 12:15 am   Page 193

2926:6F40  8D 46 F2				lea	ax,[bp-0Eh]		; Load effective addr
2926:6F43  50					push	ax
2926:6F44  C4 7E 08				les	di,dword ptr [bp+8]	; Load seg:offset ptr
2926:6F47  06					push	es
2926:6F48  57					push	di
2926:6F49  58					pop	ax
2926:6F4A  05 0009				add	ax,9
2926:6F4D  50					push	ax
2926:6F4E  B8 0003				mov	ax,3
2926:6F51  50					push	ax
2926:6F52  E8 12B2				call	sub_182			; (8207)
2926:6F55			loc_753:
2926:6F55  8B E5				mov	sp,bp
2926:6F57  5D					pop	bp
2926:6F58  C2 0008				retn	8
				sub_156		endp

2926:6F5B			loc_754:
2926:6F5B  55					push	bp
2926:6F5C  8B EC				mov	bp,sp
2926:6F5E  55					push	bp
2926:6F5F  81 EC 0002				sub	sp,2
2926:6F63  1E					push	ds
2926:6F64  B8 83B5				mov	ax,83B5h
2926:6F67  50					push	ax
2926:6F68  B8 069A				mov	ax,69Ah
2926:6F6B  50					push	ax
2926:6F6C  B8 0000				mov	ax,0
2926:6F6F  50					push	ax
2926:6F70  E8 13E7				call	sub_192			; (835A)
2926:6F73  8B E5				mov	sp,bp
2926:6F75  5D					pop	bp
2926:6F76  C3					retn
2926:6F77			loc_755:
2926:6F77  55					push	bp
2926:6F78  8B EC				mov	bp,sp
2926:6F7A  55					push	bp
2926:6F7B  81 EC 000E				sub	sp,0Eh
2926:6F7F  E8 F9D3				call	sub_131			; (6955)
2926:6F82  89 46 F2				mov	[bp-0Eh],ax
2926:6F85  8B 46 F2				mov	ax,[bp-0Eh]
2926:6F88  89 46 F4				mov	[bp-0Ch],ax
2926:6F8B  81 7E F2 FFFF			cmp	word ptr [bp-0Eh],0FFFFh
2926:6F90  75 03				jne	loc_756			; Jump if not equal
2926:6F92  E9 00F9				jmp	loc_764			; (708E)
2926:6F95			loc_756:
2926:6F95  1E					push	ds
2926:6F96  B8 83B5				mov	ax,83B5h
2926:6F99  50					push	ax
2926:6F9A  8B 46 F2				mov	ax,[bp-0Eh]
2926:6F9D  BB 00A9				mov	bx,0A9h
2926:6FA0  F7 E3				mul	bx			; dx:ax = reg * ax
2926:6FA2  5B					pop	bx
2926:6FA3  03 C3				add	ax,bx
2926:6FA5  40					inc	ax
2926:6FA6  50					push	ax
2926:6FA7  B8 0024				mov	ax,24h
           ICON.LST				Sourcer	v8.01  20-Jul-2026 12:15 am   Page 194

2926:6FAA  50					push	ax
2926:6FAB  B8 0000				mov	ax,0
2926:6FAE  50					push	ax
2926:6FAF  E8 13A8				call	sub_192			; (835A)
2926:6FB2  1E					push	ds
2926:6FB3  B8 83B5				mov	ax,83B5h
2926:6FB6  50					push	ax
2926:6FB7  8B 46 F2				mov	ax,[bp-0Eh]
2926:6FBA  BB 00A9				mov	bx,0A9h
2926:6FBD  F7 E3				mul	bx			; dx:ax = reg * ax
2926:6FBF  5B					pop	bx
2926:6FC0  03 C3				add	ax,bx
2926:6FC2  40					inc	ax
2926:6FC3  50					push	ax
2926:6FC4  C4 7E 06				les	di,dword ptr [bp+6]	; Load seg:offset ptr
2926:6FC7  06					push	es
2926:6FC8  57					push	di
2926:6FC9  E8 F99E				call	sub_138			; (696A)
2926:6FCC  C4 7E 06				les	di,dword ptr [bp+6]	; Load seg:offset ptr
2926:6FCF  06					push	es
2926:6FD0  57					push	di
2926:6FD1  E8 F990				call	sub_136			; (6964)
2926:6FD4  F7 D0				not	ax
2926:6FD6  D0 D8				rcr	al,1			; Rotate thru carry
2926:6FD8  72 03				jc	loc_757			; Jump if carry Set
2926:6FDA  E9 0014				jmp	loc_758			; (6FF1)
2926:6FDD			loc_757:
2926:6FDD  C7 46 F4 FFFF			mov	word ptr [bp-0Ch],0FFFFh
2926:6FE2  C7 06 83B3 00FF			mov	data_375,0FFh		; (2926:83B3=1B8h)
2926:6FE8  FF 76 F2				push	word ptr [bp-0Eh]
2926:6FEB  E8 F96A				call	sub_132			; (6958)
2926:6FEE  E9 00A3				jmp	loc_765			; (7094)
2926:6FF1			loc_758:
2926:6FF1  C4 7E 06				les	di,dword ptr [bp+6]	; Load seg:offset ptr
2926:6FF4  06					push	es
2926:6FF5  57					push	di
2926:6FF6  E8 F968				call	sub_135			; (6961)
2926:6FF9  D0 D8				rcr	al,1			; Rotate thru carry
2926:6FFB  72 03				jc	loc_759			; Jump if carry Set
2926:6FFD  E9 0023				jmp	loc_760			; (7023)
2926:7000			loc_759:
2926:7000  C7 06 83B3 0000			mov	data_375,0		; (2926:83B3=1B8h)
2926:7006  1E					push	ds
2926:7007  B8 83B5				mov	ax,83B5h
2926:700A  50					push	ax
2926:700B  8B 46 F2				mov	ax,[bp-0Eh]
2926:700E  BB 00A9				mov	bx,0A9h
2926:7011  F7 E3				mul	bx			; dx:ax = reg * ax
2926:7013  5B					pop	bx
2926:7014  03 C3				add	ax,bx
2926:7016  40					inc	ax
2926:7017  05 0000				add	ax,0
2926:701A  97					xchg	di,ax
2926:701B  07					pop	es
2926:701C  26: C6 05 FF				mov	byte ptr es:[di],0FFh
2926:7020  E9 0071				jmp	loc_765			; (7094)
2926:7023			loc_760:
           ICON.LST				Sourcer	v8.01  20-Jul-2026 12:15 am   Page 195

2926:7023  B8 000F				mov	ax,0Fh
2926:7026  50					push	ax
2926:7027  1E					push	ds
2926:7028  B8 83B5				mov	ax,83B5h
2926:702B  50					push	ax
2926:702C  8B 46 F2				mov	ax,[bp-0Eh]
2926:702F  BB 00A9				mov	bx,0A9h
2926:7032  F7 E3				mul	bx			; dx:ax = reg * ax
2926:7034  5B					pop	bx
2926:7035  03 C3				add	ax,bx
2926:7037  40					inc	ax
2926:7038  50					push	ax
2926:7039  E8 1591				call	sub_202			; (85CD)
2926:703C  A3 83B3				mov	data_375,ax		; (2926:83B3=1B8h)
2926:703F  81 3E 83B3 00FF			cmp	data_375,0FFh		; (2926:83B3=1B8h)
2926:7045  74 03				je	loc_761			; Jump if equal
2926:7047  E9 000E				jmp	loc_762			; (7058)
2926:704A			loc_761:
2926:704A  C7 46 F4 FFFF			mov	word ptr [bp-0Ch],0FFFFh
2926:704F  FF 76 F2				push	word ptr [bp-0Eh]
2926:7052  E8 F903				call	sub_132			; (6958)
2926:7055  E9 0033				jmp	loc_763			; (708B)
2926:7058			loc_762:
2926:7058  1E					push	ds
2926:7059  B8 83B5				mov	ax,83B5h
2926:705C  50					push	ax
2926:705D  8B 46 F2				mov	ax,[bp-0Eh]
2926:7060  BB 00A9				mov	bx,0A9h
2926:7063  F7 E3				mul	bx			; dx:ax = reg * ax
2926:7065  5B					pop	bx
2926:7066  03 C3				add	ax,bx
2926:7068  05 0026				add	ax,26h
2926:706B  97					xchg	di,ax
2926:706C  07					pop	es
2926:706D  26: C7 05 0080			mov	word ptr es:[di],80h
2926:7072  1E					push	ds
2926:7073  B8 83B5				mov	ax,83B5h
2926:7076  50					push	ax
2926:7077  8B 46 F2				mov	ax,[bp-0Eh]
2926:707A  BB 00A9				mov	bx,0A9h
2926:707D  F7 E3				mul	bx			; dx:ax = reg * ax
2926:707F  5B					pop	bx
2926:7080  03 C3				add	ax,bx
2926:7082  05 00A8				add	ax,0A8h
2926:7085  97					xchg	di,ax
2926:7086  07					pop	es
2926:7087  26: C6 05 00				mov	byte ptr es:[di],0
2926:708B			loc_763:
2926:708B  E9 0006				jmp	loc_765			; (7094)
2926:708E			loc_764:
2926:708E  C7 06 83B3 00FF			mov	data_375,0FFh		; (2926:83B3=1B8h)
2926:7094			loc_765:
2926:7094  8B 46 F4				mov	ax,[bp-0Ch]
2926:7097  8B E5				mov	sp,bp
2926:7099  5D					pop	bp
2926:709A  C2 0006				retn	6
2926:709D			loc_766:
           ICON.LST				Sourcer	v8.01  20-Jul-2026 12:15 am   Page 196

2926:709D  55					push	bp
2926:709E  8B EC				mov	bp,sp
2926:70A0  55					push	bp
2926:70A1  81 EC 000E				sub	sp,0Eh
2926:70A5  E8 F8AD				call	sub_131			; (6955)
2926:70A8  89 46 F2				mov	[bp-0Eh],ax
2926:70AB  8B 46 F2				mov	ax,[bp-0Eh]
2926:70AE  89 46 F4				mov	[bp-0Ch],ax
2926:70B1  81 7E F2 FFFF			cmp	word ptr [bp-0Eh],0FFFFh
2926:70B6  75 03				jne	loc_767			; Jump if not equal
2926:70B8  E9 00F9				jmp	loc_774			; (71B4)
2926:70BB			loc_767:
2926:70BB  1E					push	ds
2926:70BC  B8 83B5				mov	ax,83B5h
2926:70BF  50					push	ax
2926:70C0  8B 46 F2				mov	ax,[bp-0Eh]
2926:70C3  BB 00A9				mov	bx,0A9h
2926:70C6  F7 E3				mul	bx			; dx:ax = reg * ax
2926:70C8  5B					pop	bx
2926:70C9  03 C3				add	ax,bx
2926:70CB  40					inc	ax
2926:70CC  50					push	ax
2926:70CD  B8 0024				mov	ax,24h
2926:70D0  50					push	ax
2926:70D1  B8 0000				mov	ax,0
2926:70D4  50					push	ax
2926:70D5  E8 1282				call	sub_192			; (835A)
2926:70D8  1E					push	ds
2926:70D9  B8 83B5				mov	ax,83B5h
2926:70DC  50					push	ax
2926:70DD  8B 46 F2				mov	ax,[bp-0Eh]
2926:70E0  BB 00A9				mov	bx,0A9h
2926:70E3  F7 E3				mul	bx			; dx:ax = reg * ax
2926:70E5  5B					pop	bx
2926:70E6  03 C3				add	ax,bx
2926:70E8  40					inc	ax
2926:70E9  50					push	ax
2926:70EA  C4 7E 06				les	di,dword ptr [bp+6]	; Load seg:offset ptr
2926:70ED  06					push	es
2926:70EE  57					push	di
2926:70EF  E8 F878				call	sub_138			; (696A)
2926:70F2  C4 7E 06				les	di,dword ptr [bp+6]	; Load seg:offset ptr
2926:70F5  06					push	es
2926:70F6  57					push	di
2926:70F7  E8 F86A				call	sub_136			; (6964)
2926:70FA  F7 D0				not	ax
2926:70FC  D0 D8				rcr	al,1			; Rotate thru carry
2926:70FE  72 03				jc	loc_768			; Jump if carry Set
2926:7100  E9 0014				jmp	loc_769			; (7117)
2926:7103			loc_768:
2926:7103  C7 46 F4 FFFF			mov	word ptr [bp-0Ch],0FFFFh
2926:7108  C7 06 83B3 00FF			mov	data_375,0FFh		; (2926:83B3=1B8h)
2926:710E  FF 76 F2				push	word ptr [bp-0Eh]
2926:7111  E8 F844				call	sub_132			; (6958)
2926:7114  E9 00A3				jmp	loc_775			; (71BA)
2926:7117			loc_769:
2926:7117  C4 7E 06				les	di,dword ptr [bp+6]	; Load seg:offset ptr
           ICON.LST				Sourcer	v8.01  20-Jul-2026 12:15 am   Page 197

2926:711A  06					push	es
2926:711B  57					push	di
2926:711C  E8 F842				call	sub_135			; (6961)
2926:711F  D0 D8				rcr	al,1			; Rotate thru carry
2926:7121  72 03				jc	loc_770			; Jump if carry Set
2926:7123  E9 0023				jmp	loc_771			; (7149)
2926:7126			loc_770:
2926:7126  C7 06 83B3 0000			mov	data_375,0		; (2926:83B3=1B8h)
2926:712C  1E					push	ds
2926:712D  B8 83B5				mov	ax,83B5h
2926:7130  50					push	ax
2926:7131  8B 46 F2				mov	ax,[bp-0Eh]
2926:7134  BB 00A9				mov	bx,0A9h
2926:7137  F7 E3				mul	bx			; dx:ax = reg * ax
2926:7139  5B					pop	bx
2926:713A  03 C3				add	ax,bx
2926:713C  40					inc	ax
2926:713D  05 0000				add	ax,0
2926:7140  97					xchg	di,ax
2926:7141  07					pop	es
2926:7142  26: C6 05 FF				mov	byte ptr es:[di],0FFh
2926:7146  E9 0071				jmp	loc_775			; (71BA)
2926:7149			loc_771:
2926:7149  B8 0013				mov	ax,13h
2926:714C  50					push	ax
2926:714D  1E					push	ds
2926:714E  B8 83B5				mov	ax,83B5h
2926:7151  50					push	ax
2926:7152  8B 46 F2				mov	ax,[bp-0Eh]
2926:7155  BB 00A9				mov	bx,0A9h
2926:7158  F7 E3				mul	bx			; dx:ax = reg * ax
2926:715A  5B					pop	bx
2926:715B  03 C3				add	ax,bx
2926:715D  40					inc	ax
2926:715E  50					push	ax
2926:715F  E8 146B				call	sub_202			; (85CD)
2926:7162  A3 83B3				mov	data_375,ax		; (2926:83B3=1B8h)
2926:7165  B8 0016				mov	ax,16h
2926:7168  50					push	ax
2926:7169  1E					push	ds
2926:716A  B8 83B5				mov	ax,83B5h
2926:716D  50					push	ax
2926:716E  8B 46 F2				mov	ax,[bp-0Eh]
2926:7171  BB 00A9				mov	bx,0A9h
2926:7174  F7 E3				mul	bx			; dx:ax = reg * ax
2926:7176  5B					pop	bx
2926:7177  03 C3				add	ax,bx
2926:7179  40					inc	ax
2926:717A  50					push	ax
2926:717B  E8 144F				call	sub_202			; (85CD)
2926:717E  A3 83B3				mov	data_375,ax		; (2926:83B3=1B8h)
2926:7181  81 3E 83B3 00FF			cmp	data_375,0FFh		; (2926:83B3=1B8h)
2926:7187  74 03				je	loc_772			; Jump if equal
2926:7189  E9 000B				jmp	loc_773			; (7197)
2926:718C			loc_772:
2926:718C  C7 46 F4 FFFF			mov	word ptr [bp-0Ch],0FFFFh
2926:7191  FF 76 F2				push	word ptr [bp-0Eh]
           ICON.LST				Sourcer	v8.01  20-Jul-2026 12:15 am   Page 198

2926:7194  E8 F7C1				call	sub_132			; (6958)
2926:7197			loc_773:
2926:7197  1E					push	ds
2926:7198  B8 83B5				mov	ax,83B5h
2926:719B  50					push	ax
2926:719C  8B 46 F2				mov	ax,[bp-0Eh]
2926:719F  BB 00A9				mov	bx,0A9h
2926:71A2  F7 E3				mul	bx			; dx:ax = reg * ax
2926:71A4  5B					pop	bx
2926:71A5  03 C3				add	ax,bx
2926:71A7  05 0026				add	ax,26h
2926:71AA  97					xchg	di,ax
2926:71AB  07					pop	es
2926:71AC  26: C7 05 0000			mov	word ptr es:[di],0
2926:71B1  E9 0006				jmp	loc_775			; (71BA)
2926:71B4			loc_774:
2926:71B4  C7 06 83B3 00FF			mov	data_375,0FFh		; (2926:83B3=1B8h)
2926:71BA			loc_775:
2926:71BA  8B 46 F4				mov	ax,[bp-0Ch]
2926:71BD  8B E5				mov	sp,bp
2926:71BF  5D					pop	bp
2926:71C0  C2 0006				retn	6
2926:71C3			loc_776:
2926:71C3  55					push	bp
2926:71C4  8B EC				mov	bp,sp
2926:71C6  55					push	bp
2926:71C7  81 EC 000C				sub	sp,0Ch
2926:71CB  C4 7E 04				les	di,dword ptr [bp+4]	; Load seg:offset ptr
2926:71CE  83 C7 36				add	di,36h
2926:71D1  26: 8B 05				mov	ax,es:[di]
2926:71D4  3D 0000				cmp	ax,0
2926:71D7  74 03				je	loc_777			; Jump if equal
2926:71D9  E9 0019				jmp	loc_778			; (71F5)
2926:71DC			loc_777:
2926:71DC  C4 7E 04				les	di,dword ptr [bp+4]	; Load seg:offset ptr
2926:71DF  83 C7 36				add	di,36h
2926:71E2  06					push	es
2926:71E3  57					push	di
2926:71E4  C4 7E 04				les	di,dword ptr [bp+4]	; Load seg:offset ptr
2926:71E7  06					push	es
2926:71E8  57					push	di
2926:71E9  B8 0002				mov	ax,2
2926:71EC  50					push	ax
2926:71ED  E8 F780				call	sub_139			; (6970)
2926:71F0  5F					pop	di
2926:71F1  07					pop	es
2926:71F2  26: 89 05				mov	es:[di],ax
2926:71F5			loc_778:
2926:71F5  C4 7E 04				les	di,dword ptr [bp+4]	; Load seg:offset ptr
2926:71F8  83 C7 36				add	di,36h
2926:71FB  26: 8B 05				mov	ax,es:[di]
2926:71FE  3D FFFF				cmp	ax,0FFFFh
2926:7201  75 03				jne	loc_779			; Jump if not equal
2926:7203  E9 0047				jmp	loc_782			; (724D)
2926:7206			loc_779:
2926:7206  C4 7E 04				les	di,dword ptr [bp+4]	; Load seg:offset ptr
2926:7209  83 C7 26				add	di,26h
           ICON.LST				Sourcer	v8.01  20-Jul-2026 12:15 am   Page 199

2926:720C  26: 8A 05				mov	al,es:[di]
2926:720F  32 E4				xor	ah,ah			; Zero register
2926:7211  3D 0003				cmp	ax,3
2926:7214  7E 03				jle	loc_780			; Jump if < or =
2926:7216  E9 0022				jmp	loc_781			; (723B)
2926:7219			loc_780:
2926:7219  B8 0013				mov	ax,13h
2926:721C  50					push	ax
2926:721D  1E					push	ds
2926:721E  B8 83B5				mov	ax,83B5h
2926:7221  50					push	ax
2926:7222  C4 7E 04				les	di,dword ptr [bp+4]	; Load seg:offset ptr
2926:7225  83 C7 36				add	di,36h
2926:7228  26: 8B 05				mov	ax,es:[di]
2926:722B  BB 00A9				mov	bx,0A9h
2926:722E  F7 E3				mul	bx			; dx:ax = reg * ax
2926:7230  5B					pop	bx
2926:7231  03 C3				add	ax,bx
2926:7233  40					inc	ax
2926:7234  50					push	ax
2926:7235  E8 1395				call	sub_202			; (85CD)
2926:7238  A3 83B3				mov	data_375,ax		; (2926:83B3=1B8h)
2926:723B			loc_781:
2926:723B  C7 46 F4 0000			mov	word ptr [bp-0Ch],0
2926:7240  C4 7E 04				les	di,dword ptr [bp+4]	; Load seg:offset ptr
2926:7243  83 C7 36				add	di,36h
2926:7246  26: 8B 05				mov	ax,es:[di]
2926:7249  50					push	ax
2926:724A  E8 F70B				call	sub_132			; (6958)
2926:724D			loc_782:
2926:724D  8B 46 F4				mov	ax,[bp-0Ch]
2926:7250  8B E5				mov	sp,bp
2926:7252  5D					pop	bp
2926:7253  C2 0004				retn	4
2926:7256			loc_783:
2926:7256  55					push	bp
2926:7257  8B EC				mov	bp,sp
2926:7259  55					push	bp
2926:725A  81 EC 0008				sub	sp,8
2926:725E  8A 46 04				mov	al,[bp+4]
2926:7261  32 E4				xor	ah,ah			; Zero register
2926:7263  F7 D0				not	ax
2926:7265  50					push	ax
2926:7266  1E					push	ds
2926:7267  B8 83B5				mov	ax,83B5h
2926:726A  50					push	ax
2926:726B  8B 46 06				mov	ax,[bp+6]
2926:726E  BB 00A9				mov	bx,0A9h
2926:7271  F7 E3				mul	bx			; dx:ax = reg * ax
2926:7273  5B					pop	bx
2926:7274  03 C3				add	ax,bx
2926:7276  40					inc	ax
2926:7277  05 0000				add	ax,0
2926:727A  97					xchg	di,ax
2926:727B  07					pop	es
2926:727C  26: 8A 05				mov	al,es:[di]
2926:727F  32 E4				xor	ah,ah			; Zero register
           ICON.LST				Sourcer	v8.01  20-Jul-2026 12:15 am   Page 200

2926:7281  3D 00FF				cmp	ax,0FFh
2926:7284  B8 0000				mov	ax,0
2926:7287  74 01				jz	loc_784			; Jump if zero
2926:7289  40					inc	ax
2926:728A			loc_784:
2926:728A  5B					pop	bx
2926:728B  23 C3				and	ax,bx
2926:728D  D0 D8				rcr	al,1			; Rotate thru carry
2926:728F  72 03				jc	loc_785			; Jump if carry Set
2926:7291  E9 00A6				jmp	loc_790			; (733A)
2926:7294			loc_785:
2926:7294  1E					push	ds
2926:7295  B8 83B5				mov	ax,83B5h
2926:7298  50					push	ax
2926:7299  8B 46 06				mov	ax,[bp+6]
2926:729C  BB 00A9				mov	bx,0A9h
2926:729F  F7 E3				mul	bx			; dx:ax = reg * ax
2926:72A1  5B					pop	bx
2926:72A2  03 C3				add	ax,bx
2926:72A4  05 0026				add	ax,26h
2926:72A7  97					xchg	di,ax
2926:72A8  07					pop	es
2926:72A9  26: 8B 05				mov	ax,es:[di]
2926:72AC  3D 0000				cmp	ax,0
2926:72AF  75 03				jne	loc_786			; Jump if not equal
2926:72B1  E9 006A				jmp	loc_789			; (731E)
2926:72B4			loc_786:
2926:72B4  1E					push	ds
2926:72B5  B8 83B5				mov	ax,83B5h
2926:72B8  50					push	ax
2926:72B9  8B 46 06				mov	ax,[bp+6]
2926:72BC  BB 00A9				mov	bx,0A9h
2926:72BF  F7 E3				mul	bx			; dx:ax = reg * ax
2926:72C1  5B					pop	bx
2926:72C2  03 C3				add	ax,bx
2926:72C4  05 0026				add	ax,26h
2926:72C7  97					xchg	di,ax
2926:72C8  07					pop	es
2926:72C9  26: 8B 05				mov	ax,es:[di]
2926:72CC  3D 0080				cmp	ax,80h
2926:72CF  75 03				jne	loc_787			; Jump if not equal
2926:72D1  E9 0044				jmp	loc_788			; (7318)
2926:72D4			loc_787:
2926:72D4  1E					push	ds
2926:72D5  B8 83B5				mov	ax,83B5h
2926:72D8  50					push	ax
2926:72D9  8B 46 06				mov	ax,[bp+6]
2926:72DC  BB 00A9				mov	bx,0A9h
2926:72DF  F7 E3				mul	bx			; dx:ax = reg * ax
2926:72E1  5B					pop	bx
2926:72E2  03 C3				add	ax,bx
2926:72E4  89 46 F8				mov	[bp-8],ax
2926:72E7  58					pop	ax
2926:72E8  89 46 FA				mov	[bp-6],ax
2926:72EB  C4 7E F8				les	di,dword ptr [bp-8]	; Load seg:offset ptr
2926:72EE  83 C7 28				add	di,28h
2926:72F1  06					push	es
           ICON.LST				Sourcer	v8.01  20-Jul-2026 12:15 am   Page 201

2926:72F2  57					push	di
2926:72F3  C4 7E F8				les	di,dword ptr [bp-8]	; Load seg:offset ptr
2926:72F6  83 C7 26				add	di,26h
2926:72F9  26: 8B 05				mov	ax,es:[di]
2926:72FC  5B					pop	bx
2926:72FD  03 C3				add	ax,bx
2926:72FF  50					push	ax
2926:7300  B8 0080				mov	ax,80h
2926:7303  50					push	ax
2926:7304  C4 7E F8				les	di,dword ptr [bp-8]	; Load seg:offset ptr
2926:7307  83 C7 26				add	di,26h
2926:730A  26: 8B 05				mov	ax,es:[di]
2926:730D  5B					pop	bx
2926:730E  2B D8				sub	bx,ax
2926:7310  53					push	bx
2926:7311  B8 001A				mov	ax,1Ah
2926:7314  50					push	ax
2926:7315  E8 1042				call	sub_192			; (835A)
2926:7318			loc_788:
2926:7318  FF 76 06				push	word ptr [bp+6]
2926:731B  E8 F63D				call	sub_133			; (695B)
2926:731E			loc_789:
2926:731E  B8 0010				mov	ax,10h
2926:7321  50					push	ax
2926:7322  1E					push	ds
2926:7323  B8 83B5				mov	ax,83B5h
2926:7326  50					push	ax
2926:7327  8B 46 06				mov	ax,[bp+6]
2926:732A  BB 00A9				mov	bx,0A9h
2926:732D  F7 E3				mul	bx			; dx:ax = reg * ax
2926:732F  5B					pop	bx
2926:7330  03 C3				add	ax,bx
2926:7332  40					inc	ax
2926:7333  50					push	ax
2926:7334  E8 1296				call	sub_202			; (85CD)
2926:7337  A3 83B3				mov	data_375,ax		; (2926:83B3=1B8h)
2926:733A			loc_790:
2926:733A  FF 76 06				push	word ptr [bp+6]
2926:733D  E8 F618				call	sub_132			; (6958)
2926:7340  8B E5				mov	sp,bp
2926:7342  5D					pop	bp
2926:7343  C2 0004				retn	4
2926:7346			loc_791:
2926:7346  55					push	bp
2926:7347  8B EC				mov	bp,sp
2926:7349  55					push	bp
2926:734A  81 EC 0002				sub	sp,2
2926:734E  8B 46 06				mov	ax,[bp+6]
2926:7351  50					push	ax
2926:7352  8B 46 04				mov	ax,[bp+4]
2926:7355  A3 83AF				mov	data_373,ax		; (2926:83AF=0DA3Bh)
2926:7358  58					pop	ax
2926:7359  A3 83B1				mov	word ptr data_373+2,ax	; (2926:83B1=575h)
2926:735C  8B E5				mov	sp,bp
2926:735E  5D					pop	bp
2926:735F  C2 0004				retn	4
2926:7362			loc_792:
           ICON.LST				Sourcer	v8.01  20-Jul-2026 12:15 am   Page 202

2926:7362  55					push	bp
2926:7363  8B EC				mov	bp,sp
2926:7365  55					push	bp
2926:7366  81 EC 0010				sub	sp,10h
2926:736A  1E					push	ds
2926:736B  B8 83B5				mov	ax,83B5h
2926:736E  50					push	ax
2926:736F  8B 46 08				mov	ax,[bp+8]
2926:7372  BB 00A9				mov	bx,0A9h
2926:7375  F7 E3				mul	bx			; dx:ax = reg * ax
2926:7377  5B					pop	bx
2926:7378  03 C3				add	ax,bx
2926:737A  89 46 F0				mov	[bp-10h],ax
2926:737D  58					pop	ax
2926:737E  89 46 F2				mov	[bp-0Eh],ax
2926:7381  C4 7E F0				les	di,dword ptr [bp-10h]	; Load seg:offset ptr
2926:7384  83 C7 26				add	di,26h
2926:7387  26: 8B 05				mov	ax,es:[di]
2926:738A  3D 0080				cmp	ax,80h
2926:738D  7D 03				jge	loc_793			; Jump if > or =
2926:738F  E9 001D				jmp	loc_794			; (73AF)
2926:7392			loc_793:
2926:7392  C4 7E 04				les	di,dword ptr [bp+4]	; Load seg:offset ptr
2926:7395  06					push	es
2926:7396  57					push	di
2926:7397  FF 76 08				push	word ptr [bp+8]
2926:739A  E8 F5C1				call	sub_134			; (695E)
2926:739D  F7 D0				not	ax
2926:739F  5F					pop	di
2926:73A0  07					pop	es
2926:73A1  26: 88 05				mov	es:[di],al
2926:73A4  C4 7E F0				les	di,dword ptr [bp-10h]	; Load seg:offset ptr
2926:73A7  83 C7 26				add	di,26h
2926:73AA  26: C7 05 0000			mov	word ptr es:[di],0
2926:73AF			loc_794:
2926:73AF  C4 7E F0				les	di,dword ptr [bp-10h]	; Load seg:offset ptr
2926:73B2  83 C7 28				add	di,28h
2926:73B5  06					push	es
2926:73B6  57					push	di
2926:73B7  C4 7E F0				les	di,dword ptr [bp-10h]	; Load seg:offset ptr
2926:73BA  83 C7 26				add	di,26h
2926:73BD  26: 8B 05				mov	ax,es:[di]
2926:73C0  5B					pop	bx
2926:73C1  03 C3				add	ax,bx
2926:73C3  97					xchg	di,ax
2926:73C4  07					pop	es
2926:73C5  26: 8A 05				mov	al,es:[di]
2926:73C8  88 46 F4				mov	[bp-0Ch],al
2926:73CB  C4 7E F0				les	di,dword ptr [bp-10h]	; Load seg:offset ptr
2926:73CE  83 C7 26				add	di,26h
2926:73D1  06					push	es
2926:73D2  57					push	di
2926:73D3  C4 7E F0				les	di,dword ptr [bp-10h]	; Load seg:offset ptr
2926:73D6  83 C7 26				add	di,26h
2926:73D9  26: 8B 05				mov	ax,es:[di]
2926:73DC  40					inc	ax
2926:73DD  5F					pop	di
           ICON.LST				Sourcer	v8.01  20-Jul-2026 12:15 am   Page 203

2926:73DE  07					pop	es
2926:73DF  26: 89 05				mov	es:[di],ax
2926:73E2  8A 46 F4				mov	al,[bp-0Ch]
2926:73E5  32 E4				xor	ah,ah			; Zero register
2926:73E7  8B E5				mov	sp,bp
2926:73E9  5D					pop	bp
2926:73EA  C2 0006				retn	6
2926:73ED			loc_795:
2926:73ED  55					push	bp
2926:73EE  8B EC				mov	bp,sp
2926:73F0  55					push	bp
2926:73F1  81 EC 0006				sub	sp,6
2926:73F5  1E					push	ds
2926:73F6  B8 83B5				mov	ax,83B5h
2926:73F9  50					push	ax
2926:73FA  8B 46 04				mov	ax,[bp+4]
2926:73FD  BB 00A9				mov	bx,0A9h
2926:7400  F7 E3				mul	bx			; dx:ax = reg * ax
2926:7402  5B					pop	bx
2926:7403  03 C3				add	ax,bx
2926:7405  89 46 FA				mov	[bp-6],ax
2926:7408  58					pop	ax
2926:7409  89 46 FC				mov	[bp-4],ax
2926:740C  C4 7E FA				les	di,dword ptr [bp-6]	; Load seg:offset ptr
2926:740F  83 C7 26				add	di,26h
2926:7412  26: 8B 05				mov	ax,es:[di]
2926:7415  3D 0080				cmp	ax,80h
2926:7418  7D 03				jge	loc_796			; Jump if > or =
2926:741A  E9 0011				jmp	loc_797			; (742E)
2926:741D			loc_796:
2926:741D  FF 76 04				push	word ptr [bp+4]
2926:7420  E8 F538				call	sub_133			; (695B)
2926:7423  C4 7E FA				les	di,dword ptr [bp-6]	; Load seg:offset ptr
2926:7426  83 C7 26				add	di,26h
2926:7429  26: C7 05 0000			mov	word ptr es:[di],0
2926:742E			loc_797:
2926:742E  C4 7E FA				les	di,dword ptr [bp-6]	; Load seg:offset ptr
2926:7431  83 C7 28				add	di,28h
2926:7434  06					push	es
2926:7435  57					push	di
2926:7436  C4 7E FA				les	di,dword ptr [bp-6]	; Load seg:offset ptr
2926:7439  83 C7 26				add	di,26h
2926:743C  26: 8B 05				mov	ax,es:[di]
2926:743F  5B					pop	bx
2926:7440  03 C3				add	ax,bx
2926:7442  97					xchg	di,ax
2926:7443  8A 46 06				mov	al,[bp+6]
2926:7446  07					pop	es
2926:7447  26: 88 05				mov	es:[di],al
2926:744A  C4 7E FA				les	di,dword ptr [bp-6]	; Load seg:offset ptr
2926:744D  83 C7 26				add	di,26h
2926:7450  06					push	es
2926:7451  57					push	di
2926:7452  C4 7E FA				les	di,dword ptr [bp-6]	; Load seg:offset ptr
2926:7455  83 C7 26				add	di,26h
2926:7458  26: 8B 05				mov	ax,es:[di]
2926:745B  40					inc	ax
           ICON.LST				Sourcer	v8.01  20-Jul-2026 12:15 am   Page 204

2926:745C  5F					pop	di
2926:745D  07					pop	es
2926:745E  26: 89 05				mov	es:[di],ax
2926:7461  8B E5				mov	sp,bp
2926:7463  5D					pop	bp
2926:7464  C2 0004				retn	4
2926:7467			loc_798:
2926:7467  55					push	bp
2926:7468  8B EC				mov	bp,sp
2926:746A  55					push	bp
2926:746B  81 EC 000C				sub	sp,0Ch
2926:746F  C7 06 83B3 0000			mov	data_375,0		; (2926:83B3=1B8h)
2926:7475  C4 3E 83AF				les	di,dword ptr data_373	; (2926:83AF=0DA3Bh) Load seg:offset p
2926:7479  83 C7 26				add	di,26h
2926:747C  26: 8A 05				mov	al,es:[di]
2926:747F  32 E4				xor	ah,ah			; Zero register
2926:7481  3D 0004				cmp	ax,4
2926:7484  74 03				je	loc_799			; Jump if equal
2926:7486  E9 0094				jmp	loc_807			; (751D)
2926:7489			loc_799:
2926:7489  B8 0001				mov	ax,1
2926:748C  50					push	ax
2926:748D  16					push	ss
2926:748E  8D 46 FC				lea	ax,[bp-4]		; Load effective addr
2926:7491  50					push	ax
2926:7492  E8 1138				call	sub_202			; (85CD)
2926:7495  88 46 F9				mov	[bp-7],al
2926:7498  8A 46 F9				mov	al,[bp-7]
2926:749B  32 E4				xor	ah,ah			; Zero register
2926:749D  81 F8 0008				cmp	ax,8
2926:74A1  B8 0000				mov	ax,0
2926:74A4  75 01				jnz	loc_800			; Jump if not zero
2926:74A6  40					inc	ax
2926:74A7			loc_800:
2926:74A7  D0 D8				rcr	al,1			; Rotate thru carry
2926:74A9  72 03				jc	loc_801			; Jump if carry Set
2926:74AB  E9 0019				jmp	loc_802			; (74C7)
2926:74AE			loc_801:
2926:74AE  B8 0002				mov	ax,2
2926:74B1  50					push	ax
2926:74B2  B8 0020				mov	ax,20h
2926:74B5  50					push	ax
2926:74B6  E8 1135				call	sub_203			; (85EE)
2926:74B9  B8 0002				mov	ax,2
2926:74BC  50					push	ax
2926:74BD  B8 0008				mov	ax,8
2926:74C0  50					push	ax
2926:74C1  E8 112A				call	sub_203			; (85EE)
2926:74C4  E9 0021				jmp	loc_805			; (74E8)
2926:74C7			loc_802:
2926:74C7  8A 46 F9				mov	al,[bp-7]
2926:74CA  32 E4				xor	ah,ah			; Zero register
2926:74CC  81 F8 000D				cmp	ax,0Dh
2926:74D0  B8 0000				mov	ax,0
2926:74D3  75 01				jnz	loc_803			; Jump if not zero
2926:74D5  40					inc	ax
2926:74D6			loc_803:
           ICON.LST				Sourcer	v8.01  20-Jul-2026 12:15 am   Page 205

2926:74D6  D0 D8				rcr	al,1			; Rotate thru carry
2926:74D8  72 03				jc	loc_804			; Jump if carry Set
2926:74DA  E9 000B				jmp	loc_805			; (74E8)
2926:74DD			loc_804:
2926:74DD  B8 0002				mov	ax,2
2926:74E0  50					push	ax
2926:74E1  B8 000A				mov	ax,0Ah
2926:74E4  50					push	ax
2926:74E5  E8 1106				call	sub_203			; (85EE)
2926:74E8			loc_805:
2926:74E8  C4 3E 83AF				les	di,dword ptr data_373	; (2926:83AF=0DA3Bh) Load seg:offset p
2926:74EC  83 C7 38				add	di,38h
2926:74EF  06					push	es
2926:74F0  57					push	di
2926:74F1  58					pop	ax
2926:74F2  05 0000				add	ax,0
2926:74F5  97					xchg	di,ax
2926:74F6  8A 46 F9				mov	al,[bp-7]
2926:74F9  07					pop	es
2926:74FA  26: 88 05				mov	es:[di],al
2926:74FD  C4 3E 83AF				les	di,dword ptr data_373	; (2926:83AF=0DA3Bh) Load seg:offset p
2926:7501  83 C7 2E				add	di,2Eh
2926:7504  06					push	es
2926:7505  57					push	di
2926:7506  8A 46 F9				mov	al,[bp-7]
2926:7509  32 E4				xor	ah,ah			; Zero register
2926:750B  81 F8 001A				cmp	ax,1Ah
2926:750F  B8 0000				mov	ax,0
2926:7512  75 01				jnz	loc_806			; Jump if not zero
2926:7514  40					inc	ax
2926:7515			loc_806:
2926:7515  5F					pop	di
2926:7516  07					pop	es
2926:7517  26: 88 05				mov	es:[di],al
2926:751A  E9 012F				jmp	loc_818			; (764C)
2926:751D			loc_807:
2926:751D  C4 3E 83AF				les	di,dword ptr data_373	; (2926:83AF=0DA3Bh) Load seg:offset p
2926:7521  83 C7 26				add	di,26h
2926:7524  26: 8A 05				mov	al,es:[di]
2926:7527  32 E4				xor	ah,ah			; Zero register
2926:7529  3D 0005				cmp	ax,5
2926:752C  74 03				je	loc_808			; Jump if equal
2926:752E  E9 0040				jmp	loc_811			; (7571)
2926:7531			loc_808:
2926:7531  B8 0006				mov	ax,6
2926:7534  50					push	ax
2926:7535  B8 FFFF				mov	ax,0FFFFh
2926:7538  50					push	ax
2926:7539  B8 FFFF				mov	ax,0FFFFh
2926:753C  50					push	ax
2926:753D  E8 108D				call	sub_202			; (85CD)
2926:7540  88 46 F9				mov	[bp-7],al
2926:7543  8A 46 F9				mov	al,[bp-7]
2926:7546  32 E4				xor	ah,ah			; Zero register
2926:7548  81 F8 0000				cmp	ax,0
2926:754C  B8 0000				mov	ax,0
2926:754F  74 01				jz	loc_809			; Jump if zero
           ICON.LST				Sourcer	v8.01  20-Jul-2026 12:15 am   Page 206

2926:7551  40					inc	ax
2926:7552			loc_809:
2926:7552  D0 D8				rcr	al,1			; Rotate thru carry
2926:7554  72 03				jc	loc_810			; Jump if carry Set
2926:7556  E9 FFD8				jmp	loc_808			; (7531)
2926:7559			loc_810:
2926:7559  C4 3E 83AF				les	di,dword ptr data_373	; (2926:83AF=0DA3Bh) Load seg:offset p
2926:755D  83 C7 38				add	di,38h
2926:7560  06					push	es
2926:7561  57					push	di
2926:7562  58					pop	ax
2926:7563  05 0000				add	ax,0
2926:7566  97					xchg	di,ax
2926:7567  8A 46 F9				mov	al,[bp-7]
2926:756A  07					pop	es
2926:756B  26: 88 05				mov	es:[di],al
2926:756E  E9 00DB				jmp	loc_818			; (764C)
2926:7571			loc_811:
2926:7571  C4 3E 83AF				les	di,dword ptr data_373	; (2926:83AF=0DA3Bh) Load seg:offset p
2926:7575  83 C7 26				add	di,26h
2926:7578  26: 8A 05				mov	al,es:[di]
2926:757B  32 E4				xor	ah,ah			; Zero register
2926:757D  3D 0007				cmp	ax,7
2926:7580  74 03				je	loc_812			; Jump if equal
2926:7582  E9 0027				jmp	loc_813			; (75AC)
2926:7585			loc_812:
2926:7585  B8 0003				mov	ax,3
2926:7588  50					push	ax
2926:7589  16					push	ss
2926:758A  8D 46 FC				lea	ax,[bp-4]		; Load effective addr
2926:758D  50					push	ax
2926:758E  E8 103C				call	sub_202			; (85CD)
2926:7591  88 46 F9				mov	[bp-7],al
2926:7594  C4 3E 83AF				les	di,dword ptr data_373	; (2926:83AF=0DA3Bh) Load seg:offset p
2926:7598  83 C7 38				add	di,38h
2926:759B  06					push	es
2926:759C  57					push	di
2926:759D  58					pop	ax
2926:759E  05 0000				add	ax,0
2926:75A1  97					xchg	di,ax
2926:75A2  8A 46 F9				mov	al,[bp-7]
2926:75A5  07					pop	es
2926:75A6  26: 88 05				mov	es:[di],al
2926:75A9  E9 00A0				jmp	loc_818			; (764C)
2926:75AC			loc_813:
2926:75AC  C4 3E 83AF				les	di,dword ptr data_373	; (2926:83AF=0DA3Bh) Load seg:offset p
2926:75B0  83 C7 36				add	di,36h
2926:75B3  26: 8B 05				mov	ax,es:[di]
2926:75B6  89 46 FC				mov	[bp-4],ax
2926:75B9  C4 3E 83AF				les	di,dword ptr data_373	; (2926:83AF=0DA3Bh) Load seg:offset p
2926:75BD  83 C7 2E				add	di,2Eh
2926:75C0  26: 8A 05				mov	al,es:[di]
2926:75C3  88 46 F8				mov	[bp-8],al
2926:75C6  C7 46 FA 0001			mov	word ptr [bp-6],1
2926:75CB			loc_814:
2926:75CB  8B 46 FA				mov	ax,[bp-6]
2926:75CE  50					push	ax
           ICON.LST				Sourcer	v8.01  20-Jul-2026 12:15 am   Page 207

2926:75CF  C4 3E 83AF				les	di,dword ptr data_373	; (2926:83AF=0DA3Bh) Load seg:offset p
2926:75D3  83 C7 28				add	di,28h
2926:75D6  26: 8B 05				mov	ax,es:[di]
2926:75D9  5B					pop	bx
2926:75DA  3B D8				cmp	bx,ax
2926:75DC  B8 0000				mov	ax,0
2926:75DF  7F 01				jg	loc_815			; Jump if >
2926:75E1  40					inc	ax
2926:75E2			loc_815:
2926:75E2  50					push	ax
2926:75E3  8A 46 F8				mov	al,[bp-8]
2926:75E6  32 E4				xor	ah,ah			; Zero register
2926:75E8  F7 D0				not	ax
2926:75EA  5B					pop	bx
2926:75EB  23 C3				and	ax,bx
2926:75ED  D0 D8				rcr	al,1			; Rotate thru carry
2926:75EF  72 03				jc	loc_816			; Jump if carry Set
2926:75F1  E9 0037				jmp	loc_817			; (762B)
2926:75F4			loc_816:
2926:75F4  C4 3E 83AF				les	di,dword ptr data_373	; (2926:83AF=0DA3Bh) Load seg:offset p
2926:75F8  06					push	es
2926:75F9  57					push	di
2926:75FA  58					pop	ax
2926:75FB  89 46 F4				mov	[bp-0Ch],ax
2926:75FE  58					pop	ax
2926:75FF  89 46 F6				mov	[bp-0Ah],ax
2926:7602  C4 7E F4				les	di,dword ptr [bp-0Ch]	; Load seg:offset ptr
2926:7605  83 C7 38				add	di,38h
2926:7608  06					push	es
2926:7609  57					push	di
2926:760A  8B 46 FA				mov	ax,[bp-6]
2926:760D  48					dec	ax
2926:760E  5B					pop	bx
2926:760F  03 C3				add	ax,bx
2926:7611  50					push	ax
2926:7612  FF 76 FC				push	word ptr [bp-4]
2926:7615  16					push	ss
2926:7616  8D 46 F8				lea	ax,[bp-8]		; Load effective addr
2926:7619  50					push	ax
2926:761A  E8 F362				call	sub_144			; (697F)
2926:761D  5F					pop	di
2926:761E  07					pop	es
2926:761F  26: 88 05				mov	es:[di],al
2926:7622  8B 46 FA				mov	ax,[bp-6]
2926:7625  40					inc	ax
2926:7626  89 46 FA				mov	[bp-6],ax
2926:7629  EB A0				jmp	short loc_814		; (75CB)
2926:762B			loc_817:
2926:762B  C4 3E 83AF				les	di,dword ptr data_373	; (2926:83AF=0DA3Bh) Load seg:offset p
2926:762F  83 C7 2E				add	di,2Eh
2926:7632  90					nop
2926:7633  90					nop
2926:7634  8A 46 F8				mov	al,[bp-8]
2926:7637  26: 88 05				mov	es:[di],al
2926:763A  C4 3E 83AF				les	di,dword ptr data_373	; (2926:83AF=0DA3Bh) Load seg:offset p
2926:763E  83 C7 2C				add	di,2Ch
2926:7641  06					push	es
           ICON.LST				Sourcer	v8.01  20-Jul-2026 12:15 am   Page 208

2926:7642  57					push	di
2926:7643  8B 46 FA				mov	ax,[bp-6]
2926:7646  48					dec	ax
2926:7647  5F					pop	di
2926:7648  07					pop	es
2926:7649  26: 89 05				mov	es:[di],ax
2926:764C			loc_818:
2926:764C  8B E5				mov	sp,bp
2926:764E  5D					pop	bp
2926:764F  C3					retn
2926:7650			loc_819:
2926:7650  55					push	bp
2926:7651  8B EC				mov	bp,sp
2926:7653  55					push	bp
2926:7654  81 EC 000D				sub	sp,0Dh
2926:7658  C7 06 83B3 0000			mov	data_375,0		; (2926:83B3=1B8h)
2926:765E  C4 3E 83AF				les	di,dword ptr data_373	; (2926:83AF=0DA3Bh) Load seg:offset p
2926:7662  83 C7 26				add	di,26h
2926:7665  26: 8A 05				mov	al,es:[di]
2926:7668  32 E4				xor	ah,ah			; Zero register
2926:766A  3D 0004				cmp	ax,4
2926:766D  74 03				je	loc_820			; Jump if equal
2926:766F  E9			data_307	db	0E9h
2926:7670  1F 00				db	 1Fh, 00h
2926:7672			loc_820:
2926:7672  B8 0002				mov	ax,2
2926:7675  50					push	ax
2926:7676  C4 3E 83AF				les	di,dword ptr data_373	; (2926:83AF=0DA3Bh) Load seg:offset p
2926:767A  83 C7 38				add	di,38h
2926:767D  06					push	es
2926:767E  57					push	di
2926:767F  58					pop	ax
2926:7680  05 0000				add	ax,0
2926:7683  97					xchg	di,ax
2926:7684  07					pop	es
2926:7685  26: 8A 05				mov	al,es:[di]
2926:7688  32 E4				xor	ah,ah			; Zero register
2926:768A  50					push	ax
2926:768B  E8 0F60				call	sub_203			; (85EE)
2926:768E  E9 0107				jmp	loc_830			; (7798)
							                        ;* No entry point to code
2926:7691  C4 3E 83AF				les	di,dword ptr data_373	; (2926:83AF=0DA3Bh) Load seg:offset p
2926:7695  83 C7 26				add	di,26h
2926:7698  26: 8A 05				mov	al,es:[di]
2926:769B  32 E4				xor	ah,ah			; Zero register
2926:769D  3D 0005				cmp	ax,5
2926:76A0  74 03				je	loc_821			; Jump if equal
2926:76A2  E9 001F				jmp	loc_822			; (76C4)
2926:76A5			loc_821:
2926:76A5  B8 0006				mov	ax,6
2926:76A8  50					push	ax
2926:76A9  C4 3E 83AF				les	di,dword ptr data_373	; (2926:83AF=0DA3Bh) Load seg:offset p
2926:76AD  83 C7 38				add	di,38h
2926:76B0  06					push	es
2926:76B1  57					push	di
2926:76B2  58					pop	ax
2926:76B3  05 0000				add	ax,0
           ICON.LST				Sourcer	v8.01  20-Jul-2026 12:15 am   Page 209

2926:76B6  97					xchg	di,ax
2926:76B7  07					pop	es
2926:76B8  26: 8A 05				mov	al,es:[di]
2926:76BB  32 E4				xor	ah,ah			; Zero register
2926:76BD  50					push	ax
2926:76BE  E8 0F2D				call	sub_203			; (85EE)
2926:76C1  E9 00D4				jmp	loc_830			; (7798)
2926:76C4			loc_822:
2926:76C4  C4 3E 83AF				les	di,dword ptr data_373	; (2926:83AF=0DA3Bh) Load seg:offset p
2926:76C8  83 C7 26				add	di,26h
2926:76CB  26: 8A 05				mov	al,es:[di]
2926:76CE  32 E4				xor	ah,ah			; Zero register
2926:76D0  3D 0006				cmp	ax,6
2926:76D3  74 03				je	loc_823			; Jump if equal
2926:76D5  E9 001F				jmp	loc_824			; (76F7)
2926:76D8			loc_823:
2926:76D8  B8 0005				mov	ax,5
2926:76DB  50					push	ax
2926:76DC  C4 3E 83AF				les	di,dword ptr data_373	; (2926:83AF=0DA3Bh) Load seg:offset p
2926:76E0  83 C7 38				add	di,38h
2926:76E3  06					push	es
2926:76E4  57					push	di
2926:76E5  58					pop	ax
2926:76E6  05 0000				add	ax,0
2926:76E9  97					xchg	di,ax
2926:76EA  07					pop	es
2926:76EB  26: 8A 05				mov	al,es:[di]
2926:76EE  32 E4				xor	ah,ah			; Zero register
2926:76F0  50					push	ax
2926:76F1  E8 0EFA				call	sub_203			; (85EE)
2926:76F4  E9 00A1				jmp	loc_830			; (7798)
2926:76F7			loc_824:
2926:76F7  C4 3E 83AF				les	di,dword ptr data_373	; (2926:83AF=0DA3Bh) Load seg:offset p
2926:76FB  83 C7 26				add	di,26h
2926:76FE  26: 8A 05				mov	al,es:[di]
2926:7701  32 E4				xor	ah,ah			; Zero register
2926:7703  3D 0007				cmp	ax,7
2926:7706  74 03				je	loc_825			; Jump if equal
2926:7708  E9 001F				jmp	loc_826			; (772A)
2926:770B			loc_825:
2926:770B  B8 0004				mov	ax,4
2926:770E  50					push	ax
2926:770F  C4 3E 83AF				les	di,dword ptr data_373	; (2926:83AF=0DA3Bh) Load seg:offset p
2926:7713  83 C7 38				add	di,38h
2926:7716  06					push	es
2926:7717  57					push	di
2926:7718  58					pop	ax
2926:7719  05 0000				add	ax,0
2926:771C  97					xchg	di,ax
2926:771D  07					pop	es
2926:771E  26: 8A 05				mov	al,es:[di]
2926:7721  32 E4				xor	ah,ah			; Zero register
2926:7723  50					push	ax
2926:7724  E8 0EC7				call	sub_203			; (85EE)
2926:7727  E9 006E				jmp	loc_830			; (7798)
2926:772A			loc_826:
2926:772A  C4 3E 83AF				les	di,dword ptr data_373	; (2926:83AF=0DA3Bh) Load seg:offset p
           ICON.LST				Sourcer	v8.01  20-Jul-2026 12:15 am   Page 210

2926:772E  83 C7 36				add	di,36h
2926:7731  26: 8B 05				mov	ax,es:[di]
2926:7734  89 46 FC				mov	[bp-4],ax
2926:7737  B8 0001				mov	ax,1
2926:773A  50					push	ax
2926:773B  C4 3E 83AF				les	di,dword ptr data_373	; (2926:83AF=0DA3Bh) Load seg:offset p
2926:773F  83 C7 28				add	di,28h
2926:7742  26: 8B 05				mov	ax,es:[di]
2926:7745  5B					pop	bx
2926:7746  93					xchg	bx,ax
2926:7747  89 46 FA				mov	[bp-6],ax
2926:774A  93					xchg	bx,ax
2926:774B  FF 4E FA				dec	word ptr [bp-6]
2926:774E  2B C3				sub	ax,bx
2926:7750  40					inc	ax
2926:7751  89 46 F7				mov	[bp-9],ax
2926:7754			loc_827:
2926:7754  FF 46 FA				inc	word ptr [bp-6]
2926:7757  FF 4E F7				dec	word ptr [bp-9]
2926:775A  7D 03				jge	loc_828			; Jump if > or =
2926:775C  E9 002D				jmp	loc_829			; (778C)
2926:775F			loc_828:
2926:775F  C4 3E 83AF				les	di,dword ptr data_373	; (2926:83AF=0DA3Bh) Load seg:offset p
2926:7763  06					push	es
2926:7764  57					push	di
2926:7765  58					pop	ax
2926:7766  89 46 F3				mov	[bp-0Dh],ax
2926:7769  58					pop	ax
2926:776A  89 46 F5				mov	[bp-0Bh],ax
2926:776D  C4 7E F3				les	di,dword ptr [bp-0Dh]	; Load seg:offset ptr
2926:7770  83 C7 38				add	di,38h
2926:7773  06					push	es
2926:7774  57					push	di
2926:7775  8B 46 FA				mov	ax,[bp-6]
2926:7778  48					dec	ax
2926:7779  5B					pop	bx
2926:777A  03 C3				add	ax,bx
2926:777C  97					xchg	di,ax
2926:777D  07					pop	es
2926:777E  26: 8A 05				mov	al,es:[di]
2926:7781  32 E4				xor	ah,ah			; Zero register
2926:7783  50					push	ax
2926:7784  FF 76 FC				push	word ptr [bp-4]
2926:7787  E8 F1F8				call	sub_145			; (6982)
2926:778A  EB C8				jmp	short loc_827		; (7754)
2926:778C			loc_829:
2926:778C  C4 3E 83AF				les	di,dword ptr data_373	; (2926:83AF=0DA3Bh) Load seg:offset p
2926:7790  83 C7 2A				add	di,2Ah
2926:7793  26: C7 05 0000			mov	word ptr es:[di],0
2926:7798			loc_830:
2926:7798  8B E5				mov	sp,bp
2926:779A  5D					pop	bp
2926:779B  C3					retn
2926:779C			loc_831:
2926:779C  55					push	bp
2926:779D  8B EC				mov	bp,sp
2926:779F  55					push	bp
           ICON.LST				Sourcer	v8.01  20-Jul-2026 12:15 am   Page 211

2926:77A0  81 EC 0002				sub	sp,2
2926:77A4  1E					push	ds
2926:77A5  B8 83B5				mov	ax,83B5h
2926:77A8  50					push	ax
2926:77A9  C4 7E 06				les	di,dword ptr [bp+6]	; Load seg:offset ptr
2926:77AC  83 C7 36				add	di,36h
2926:77AF  26: 8B 05				mov	ax,es:[di]
2926:77B2  BB 00A9				mov	bx,0A9h
2926:77B5  F7 E3				mul	bx			; dx:ax = reg * ax
2926:77B7  5B					pop	bx
2926:77B8  03 C3				add	ax,bx
2926:77BA  40					inc	ax
2926:77BB  50					push	ax
2926:77BC  E8 02CA				call	sub_164			; (7A89)
2926:77BF  8B E5				mov	sp,bp
2926:77C1  5D					pop	bp
2926:77C2  C2 0006				retn	6
2926:77C5  E9 00 00				db	0E9h, 00h, 00h

				;ßßßßßßßßßßßßßßßßßßßßßßßßßßßßßßßßßßßßßßßßßßßßßßßßßßßßßßßßßßßßßßßßßßßßßßßßßß
				;                              SUBROUTINE
				;ÜÜÜÜÜÜÜÜÜÜÜÜÜÜÜÜÜÜÜÜÜÜÜÜÜÜÜÜÜÜÜÜÜÜÜÜÜÜÜÜÜÜÜÜÜÜÜÜÜÜÜÜÜÜÜÜÜÜÜÜÜÜÜÜÜÜÜÜÜÜÜÜÜÜ

2926:77C8			sub_158		proc	near
2926:77C8			loc_832:
2926:77C8  E9 0000				jmp	loc_833			; (77CB)
2926:77CB			loc_833:
2926:77CB  55					push	bp
2926:77CC  8B EC				mov	bp,sp
2926:77CE  55					push	bp
2926:77CF  81 EC 0002				sub	sp,2
2926:77D3  B8 000D				mov	ax,0Dh
2926:77D6  50					push	ax
2926:77D7  E8 084A				call	sub_174			; (8024)
2926:77DA  B8 000A				mov	ax,0Ah
2926:77DD  50					push	ax
2926:77DE  E8 0843				call	sub_174			; (8024)
2926:77E1  8B E5				mov	sp,bp
2926:77E3  5D					pop	bp
2926:77E4  C3					retn
				sub_158		endp

2926:77E5  E9 00 00				db	0E9h, 00h, 00h

				;ßßßßßßßßßßßßßßßßßßßßßßßßßßßßßßßßßßßßßßßßßßßßßßßßßßßßßßßßßßßßßßßßßßßßßßßßßß
				;                              SUBROUTINE
				;ÜÜÜÜÜÜÜÜÜÜÜÜÜÜÜÜÜÜÜÜÜÜÜÜÜÜÜÜÜÜÜÜÜÜÜÜÜÜÜÜÜÜÜÜÜÜÜÜÜÜÜÜÜÜÜÜÜÜÜÜÜÜÜÜÜÜÜÜÜÜÜÜÜÜ

2926:77E8			sub_159		proc	near
2926:77E8			loc_834:
2926:77E8  E9 0000				jmp	loc_835			; (77EB)
2926:77EB			loc_835:
2926:77EB  55					push	bp
2926:77EC  8B EC				mov	bp,sp
2926:77EE  55					push	bp
2926:77EF  81 EC 0002				sub	sp,2
2926:77F3  C4 7E 08				les	di,dword ptr [bp+8]	; Load seg:offset ptr
           ICON.LST				Sourcer	v8.01  20-Jul-2026 12:15 am   Page 212

2926:77F6  06					push	es
2926:77F7  57					push	di
2926:77F8  8B 46 06				mov	ax,[bp+6]
2926:77FB  93					xchg	bx,ax
2926:77FC  8B 46 04				mov	ax,[bp+4]
2926:77FF  03 C3				add	ax,bx
2926:7801  5B					pop	bx
2926:7802  03 C3				add	ax,bx
2926:7804  50					push	ax
2926:7805  C4 7E 08				les	di,dword ptr [bp+8]	; Load seg:offset ptr
2926:7808  06					push	es
2926:7809  57					push	di
2926:780A  8B 46 06				mov	ax,[bp+6]
2926:780D  5B					pop	bx
2926:780E  03 C3				add	ax,bx
2926:7810  50					push	ax
2926:7811  C4 7E 08				les	di,dword ptr [bp+8]	; Load seg:offset ptr
2926:7814  26: 8A 05				mov	al,es:[di]
2926:7817  32 E4				xor	ah,ah			; Zero register
2926:7819  50					push	ax
2926:781A  8B 46 06				mov	ax,[bp+6]
2926:781D  93					xchg	bx,ax
2926:781E  8B 46 04				mov	ax,[bp+4]
2926:7821  03 C3				add	ax,bx
2926:7823  48					dec	ax
2926:7824  5B					pop	bx
2926:7825  2B D8				sub	bx,ax
2926:7827  53					push	bx
2926:7828  E8 09DC				call	sub_182			; (8207)
2926:782B  C4 7E 08				les	di,dword ptr [bp+8]	; Load seg:offset ptr
2926:782E  06					push	es
2926:782F  57					push	di
2926:7830  58					pop	ax
2926:7831  05 0000				add	ax,0
2926:7834  50					push	ax
2926:7835  C4 7E 08				les	di,dword ptr [bp+8]	; Load seg:offset ptr
2926:7838  26: 8A 05				mov	al,es:[di]
2926:783B  32 E4				xor	ah,ah			; Zero register
2926:783D  50					push	ax
2926:783E  8B 46 04				mov	ax,[bp+4]
2926:7841  5B					pop	bx
2926:7842  2B D8				sub	bx,ax
2926:7844  93					xchg	bx,ax
2926:7845  5F					pop	di
2926:7846  07					pop	es
2926:7847  26: 88 05				mov	es:[di],al
2926:784A  8B E5				mov	sp,bp
2926:784C  5D					pop	bp
2926:784D  C2 0008				retn	8
				sub_159		endp

2926:7850  E9 00 00				db	0E9h, 00h, 00h

				;ßßßßßßßßßßßßßßßßßßßßßßßßßßßßßßßßßßßßßßßßßßßßßßßßßßßßßßßßßßßßßßßßßßßßßßßßßß
				;                              SUBROUTINE
				;ÜÜÜÜÜÜÜÜÜÜÜÜÜÜÜÜÜÜÜÜÜÜÜÜÜÜÜÜÜÜÜÜÜÜÜÜÜÜÜÜÜÜÜÜÜÜÜÜÜÜÜÜÜÜÜÜÜÜÜÜÜÜÜÜÜÜÜÜÜÜÜÜÜÜ

           ICON.LST				Sourcer	v8.01  20-Jul-2026 12:15 am   Page 213

2926:7853			sub_160		proc	near
2926:7853			loc_836:
2926:7853  E9 0000				jmp	loc_837			; (7856)
2926:7856			loc_837:
2926:7856  55					push	bp
2926:7857  8B EC				mov	bp,sp
2926:7859  55					push	bp
2926:785A  81 EC 0003				sub	sp,3
2926:785E  C4 7E 06				les	di,dword ptr [bp+6]	; Load seg:offset ptr
2926:7861  83 C7 2F				add	di,2Fh
2926:7864  26: C6 05 00				mov	byte ptr es:[di],0
2926:7868  C4 7E 06				les	di,dword ptr [bp+6]	; Load seg:offset ptr
2926:786B  06					push	es
2926:786C  57					push	di
2926:786D  58					pop	ax
2926:786E  A3 83AF				mov	data_373,ax		; (2926:83AF=0DA3Bh)
2926:7871  58					pop	ax
2926:7872  A3 83B1				mov	word ptr data_373+2,ax	; (2926:83B1=575h)
2926:7875  C4 7E 06				les	di,dword ptr [bp+6]	; Load seg:offset ptr
2926:7878  83 C7 2E				add	di,2Eh
2926:787B  26: F6 05 01				test	byte ptr es:[di],1
2926:787F  75 03				jnz	loc_838			; Jump if not zero
2926:7881  E9 000D				jmp	loc_839			; (7891)
2926:7884			loc_838:
2926:7884  C4 7E 06				les	di,dword ptr [bp+6]	; Load seg:offset ptr
2926:7887  83 C7 2F				add	di,2Fh
2926:788A  26: C6 05 01				mov	byte ptr es:[di],1
2926:788E  E9 00DF				jmp	loc_849			; (7970)
2926:7891			loc_839:
2926:7891  E8 F0F1				call	sub_146			; (6985)
2926:7894  C4 7E 06				les	di,dword ptr [bp+6]	; Load seg:offset ptr
2926:7897  83 C7 34				add	di,34h
2926:789A  26: F6 05 01				test	byte ptr es:[di],1
2926:789E  75 03				jnz	loc_840			; Jump if not zero
2926:78A0  E9 00CD				jmp	loc_849			; (7970)
2926:78A3			loc_840:
2926:78A3  C4 7E 06				les	di,dword ptr [bp+6]	; Load seg:offset ptr
2926:78A6  83 C7 2E				add	di,2Eh
2926:78A9  06					push	es
2926:78AA  57					push	di
2926:78AB  C4 7E 06				les	di,dword ptr [bp+6]	; Load seg:offset ptr
2926:78AE  83 C7 38				add	di,38h
2926:78B1  06					push	es
2926:78B2  57					push	di
2926:78B3  58					pop	ax
2926:78B4  05 0000				add	ax,0
2926:78B7  97					xchg	di,ax
2926:78B8  07					pop	es
2926:78B9  26: 8A 05				mov	al,es:[di]
2926:78BC  3C 1A				cmp	al,1Ah
2926:78BE  B8 0000				mov	ax,0
2926:78C1  75 01				jnz	loc_841			; Jump if not zero
2926:78C3  40					inc	ax
2926:78C4			loc_841:
2926:78C4  50					push	ax
2926:78C5  C4 7E 06				les	di,dword ptr [bp+6]	; Load seg:offset ptr
2926:78C8  83 C7 2E				add	di,2Eh
           ICON.LST				Sourcer	v8.01  20-Jul-2026 12:15 am   Page 214

2926:78CB  26: 8A 05				mov	al,es:[di]
2926:78CE  32 E4				xor	ah,ah			; Zero register
2926:78D0  5B					pop	bx
2926:78D1  0B C3				or	ax,bx
2926:78D3  5F					pop	di
2926:78D4  07					pop	es
2926:78D5  26: 88 05				mov	es:[di],al
2926:78D8  C4 7E 06				les	di,dword ptr [bp+6]	; Load seg:offset ptr
2926:78DB  83 C7 38				add	di,38h
2926:78DE  06					push	es
2926:78DF  57					push	di
2926:78E0  58					pop	ax
2926:78E1  05 0000				add	ax,0
2926:78E4  97					xchg	di,ax
2926:78E5  07					pop	es
2926:78E6  26: 8A 05				mov	al,es:[di]
2926:78E9  3C 0D				cmp	al,0Dh
2926:78EB  B8 0000				mov	ax,0
2926:78EE  75 01				jnz	loc_842			; Jump if not zero
2926:78F0  40					inc	ax
2926:78F1			loc_842:
2926:78F1  88 46 FD				mov	[bp-3],al
2926:78F4  8A 46 FD				mov	al,[bp-3]
2926:78F7  32 E4				xor	ah,ah			; Zero register
2926:78F9  50					push	ax
2926:78FA  C4 7E 06				les	di,dword ptr [bp+6]	; Load seg:offset ptr
2926:78FD  83 C7 2E				add	di,2Eh
2926:7900  26: 8A 05				mov	al,es:[di]
2926:7903  32 E4				xor	ah,ah			; Zero register
2926:7905  5B					pop	bx
2926:7906  0B C3				or	ax,bx
2926:7908  D0 D8				rcr	al,1			; Rotate thru carry
2926:790A  72 03				jc	loc_843			; Jump if carry Set
2926:790C  E9 000A				jmp	loc_844			; (7919)
2926:790F			loc_843:
2926:790F  C4 7E 06				les	di,dword ptr [bp+6]	; Load seg:offset ptr
2926:7912  83 C7 2F				add	di,2Fh
2926:7915  26: C6 05 01				mov	byte ptr es:[di],1
2926:7919			loc_844:
2926:7919  8A 46 FD				mov	al,[bp-3]
2926:791C  32 E4				xor	ah,ah			; Zero register
2926:791E  50					push	ax
2926:791F  C4 7E 06				les	di,dword ptr [bp+6]	; Load seg:offset ptr
2926:7922  83 C7 26				add	di,26h
2926:7925  26: 8A 05				mov	al,es:[di]
2926:7928  3C 02				cmp	al,2
2926:792A  B8 0000				mov	ax,0
2926:792D  75 01				jnz	loc_845			; Jump if not zero
2926:792F  40					inc	ax
2926:7930			loc_845:
2926:7930  5B					pop	bx
2926:7931  23 C3				and	ax,bx
2926:7933  D0 D8				rcr	al,1			; Rotate thru carry
2926:7935  72 03				jc	loc_846			; Jump if carry Set
2926:7937  E9 0003				jmp	loc_847			; (793D)
2926:793A			loc_846:
2926:793A  E8 F048				call	sub_146			; (6985)
           ICON.LST				Sourcer	v8.01  20-Jul-2026 12:15 am   Page 215

2926:793D			loc_847:
2926:793D  C4 7E 06				les	di,dword ptr [bp+6]	; Load seg:offset ptr
2926:7940  83 C7 2E				add	di,2Eh
2926:7943  26: 8A 05				mov	al,es:[di]
2926:7946  32 E4				xor	ah,ah			; Zero register
2926:7948  50					push	ax
2926:7949  C4 7E 06				les	di,dword ptr [bp+6]	; Load seg:offset ptr
2926:794C  83 C7 2F				add	di,2Fh
2926:794F  26: 8A 05				mov	al,es:[di]
2926:7952  32 E4				xor	ah,ah			; Zero register
2926:7954  5B					pop	bx
2926:7955  0B C3				or	ax,bx
2926:7957  D0 D8				rcr	al,1			; Rotate thru carry
2926:7959  72 03				jc	loc_848			; Jump if carry Set
2926:795B  E9 0012				jmp	loc_849			; (7970)
2926:795E			loc_848:
2926:795E  C4 7E 06				les	di,dword ptr [bp+6]	; Load seg:offset ptr
2926:7961  83 C7 38				add	di,38h
2926:7964  06					push	es
2926:7965  57					push	di
2926:7966  58					pop	ax
2926:7967  05 0000				add	ax,0
2926:796A  97					xchg	di,ax
2926:796B  07					pop	es
2926:796C  26: C6 05 20				mov	byte ptr es:[di],20h	; ' '
2926:7970			loc_849:
2926:7970  8B E5				mov	sp,bp
2926:7972  5D					pop	bp
2926:7973  C2 0006				retn	6
				sub_160		endp

2926:7976  E9 00 00				db	0E9h, 00h, 00h

				;ßßßßßßßßßßßßßßßßßßßßßßßßßßßßßßßßßßßßßßßßßßßßßßßßßßßßßßßßßßßßßßßßßßßßßßßßßß
				;                              SUBROUTINE
				;ÜÜÜÜÜÜÜÜÜÜÜÜÜÜÜÜÜÜÜÜÜÜÜÜÜÜÜÜÜÜÜÜÜÜÜÜÜÜÜÜÜÜÜÜÜÜÜÜÜÜÜÜÜÜÜÜÜÜÜÜÜÜÜÜÜÜÜÜÜÜÜÜÜÜ

2926:7979			sub_161		proc	near
2926:7979			loc_850:
2926:7979  E9 0000				jmp	loc_851			; (797C)
2926:797C			loc_851:
2926:797C  55					push	bp
2926:797D  8B EC				mov	bp,sp
2926:797F  55					push	bp
2926:7980  81 EC 0010				sub	sp,10h
2926:7984  C4 7E 06				les	di,dword ptr [bp+6]	; Load seg:offset ptr
2926:7987  06					push	es
2926:7988  57					push	di
2926:7989  58					pop	ax
2926:798A  A3 83AF				mov	data_373,ax		; (2926:83AF=0DA3Bh)
2926:798D  58					pop	ax
2926:798E  A3 83B1				mov	word ptr data_373+2,ax	; (2926:83B1=575h)
2926:7991  C4 7E 06				les	di,dword ptr [bp+6]	; Load seg:offset ptr
2926:7994  06					push	es
2926:7995  57					push	di
2926:7996  58					pop	ax
2926:7997  89 46 F0				mov	[bp-10h],ax
           ICON.LST				Sourcer	v8.01  20-Jul-2026 12:15 am   Page 216

2926:799A  58					pop	ax
2926:799B  89 46 F2				mov	[bp-0Eh],ax
2926:799E  C4 7E F0				les	di,dword ptr [bp-10h]	; Load seg:offset ptr
2926:79A1  83 C7 2A				add	di,2Ah
2926:79A4  26: 8B 05				mov	ax,es:[di]
2926:79A7  50					push	ax
2926:79A8  C4 7E F0				les	di,dword ptr [bp-10h]	; Load seg:offset ptr
2926:79AB  83 C7 2C				add	di,2Ch
2926:79AE  26: 8B 05				mov	ax,es:[di]
2926:79B1  5B					pop	bx
2926:79B2  3B D8				cmp	bx,ax
2926:79B4  74 03				je	loc_852			; Jump if equal
2926:79B6  E9 000E				jmp	loc_853			; (79C7)
2926:79B9			loc_852:
2926:79B9  E8 EFC9				call	sub_146			; (6985)
2926:79BC  C4 7E F0				les	di,dword ptr [bp-10h]	; Load seg:offset ptr
2926:79BF  83 C7 2A				add	di,2Ah
2926:79C2  26: C7 05 0000			mov	word ptr es:[di],0
2926:79C7			loc_853:
2926:79C7  C4 7E F0				les	di,dword ptr [bp-10h]	; Load seg:offset ptr
2926:79CA  83 C7 2E				add	di,2Eh
2926:79CD  26: 8A 05				mov	al,es:[di]
2926:79D0  32 E4				xor	ah,ah			; Zero register
2926:79D2  F7 D0				not	ax
2926:79D4  50					push	ax
2926:79D5  C4 7E F0				les	di,dword ptr [bp-10h]	; Load seg:offset ptr
2926:79D8  83 C7 2C				add	di,2Ch
2926:79DB  26: 8B 05				mov	ax,es:[di]
2926:79DE  3D 0000				cmp	ax,0
2926:79E1  B8 0000				mov	ax,0
2926:79E4  74 01				jz	loc_854			; Jump if zero
2926:79E6  40					inc	ax
2926:79E7			loc_854:
2926:79E7  5B					pop	bx
2926:79E8  0B C3				or	ax,bx
2926:79EA  D0 D8				rcr	al,1			; Rotate thru carry
2926:79EC  72 03				jc	loc_855			; Jump if carry Set
2926:79EE  E9 0036				jmp	loc_856			; (7A27)
2926:79F1			loc_855:
2926:79F1  C4 7E F0				les	di,dword ptr [bp-10h]	; Load seg:offset ptr
2926:79F4  83 C7 38				add	di,38h
2926:79F7  06					push	es
2926:79F8  57					push	di
2926:79F9  C4 7E F0				les	di,dword ptr [bp-10h]	; Load seg:offset ptr
2926:79FC  83 C7 2A				add	di,2Ah
2926:79FF  26: 8B 05				mov	ax,es:[di]
2926:7A02  5B					pop	bx
2926:7A03  03 C3				add	ax,bx
2926:7A05  97					xchg	di,ax
2926:7A06  07					pop	es
2926:7A07  26: 8A 05				mov	al,es:[di]
2926:7A0A  88 46 F4				mov	[bp-0Ch],al
2926:7A0D  C4 7E F0				les	di,dword ptr [bp-10h]	; Load seg:offset ptr
2926:7A10  83 C7 2A				add	di,2Ah
2926:7A13  06					push	es
2926:7A14  57					push	di
2926:7A15  C4 7E F0				les	di,dword ptr [bp-10h]	; Load seg:offset ptr
           ICON.LST				Sourcer	v8.01  20-Jul-2026 12:15 am   Page 217

2926:7A18  83 C7 2A				add	di,2Ah
2926:7A1B  26: 8B 05				mov	ax,es:[di]
2926:7A1E  40					inc	ax
2926:7A1F  5F					pop	di
2926:7A20  07					pop	es
2926:7A21  26: 89 05				mov	es:[di],ax
2926:7A24  E9 0004				jmp	loc_857			; (7A2B)
2926:7A27			loc_856:
2926:7A27  C6 46 F4 FF				mov	byte ptr [bp-0Ch],0FFh
2926:7A2B			loc_857:
2926:7A2B  8A 46 F4				mov	al,[bp-0Ch]
2926:7A2E  32 E4				xor	ah,ah			; Zero register
2926:7A30  8B E5				mov	sp,bp
2926:7A32  5D					pop	bp
2926:7A33  C2 0006				retn	6
				sub_161		endp

2926:7A36  E9 00 00				db	0E9h, 00h, 00h

				;ßßßßßßßßßßßßßßßßßßßßßßßßßßßßßßßßßßßßßßßßßßßßßßßßßßßßßßßßßßßßßßßßßßßßßßßßßß
				;                              SUBROUTINE
				;ÜÜÜÜÜÜÜÜÜÜÜÜÜÜÜÜÜÜÜÜÜÜÜÜÜÜÜÜÜÜÜÜÜÜÜÜÜÜÜÜÜÜÜÜÜÜÜÜÜÜÜÜÜÜÜÜÜÜÜÜÜÜÜÜÜÜÜÜÜÜÜÜÜÜ

2926:7A39			sub_162		proc	near
2926:7A39			loc_858:
2926:7A39  E9 0000				jmp	loc_859			; (7A3C)
2926:7A3C			loc_859:
2926:7A3C  55					push	bp
2926:7A3D  8B EC				mov	bp,sp
2926:7A3F  55					push	bp
2926:7A40  81 EC 0002				sub	sp,2
2926:7A44  C4 7E 06				les	di,dword ptr [bp+6]	; Load seg:offset ptr
2926:7A47  06					push	es
2926:7A48  57					push	di
2926:7A49  E8 EF2A				call	sub_141			; (6976)
2926:7A4C  A3 83B3				mov	data_375,ax		; (2926:83B3=1B8h)
2926:7A4F  8B E5				mov	sp,bp
2926:7A51  5D					pop	bp
2926:7A52  C2 0006				retn	6
				sub_162		endp

2926:7A55  E9 00 00				db	0E9h, 00h, 00h

				;ßßßßßßßßßßßßßßßßßßßßßßßßßßßßßßßßßßßßßßßßßßßßßßßßßßßßßßßßßßßßßßßßßßßßßßßßßß
				;                              SUBROUTINE
				;ÜÜÜÜÜÜÜÜÜÜÜÜÜÜÜÜÜÜÜÜÜÜÜÜÜÜÜÜÜÜÜÜÜÜÜÜÜÜÜÜÜÜÜÜÜÜÜÜÜÜÜÜÜÜÜÜÜÜÜÜÜÜÜÜÜÜÜÜÜÜÜÜÜÜ

2926:7A58			sub_163		proc	near
2926:7A58			loc_860:
2926:7A58  E9 0000				jmp	loc_861			; (7A5B)
2926:7A5B			loc_861:
2926:7A5B  55					push	bp
2926:7A5C  8B EC				mov	bp,sp
2926:7A5E  55					push	bp
2926:7A5F  81 EC 000C				sub	sp,0Ch
2926:7A63  A1 83B3				mov	ax,data_375		; (2926:83B3=1B8h)
2926:7A66  89 46 F4				mov	[bp-0Ch],ax
           ICON.LST				Sourcer	v8.01  20-Jul-2026 12:15 am   Page 218

2926:7A69  8B 46 F4				mov	ax,[bp-0Ch]
2926:7A6C  8B E5				mov	sp,bp
2926:7A6E  5D					pop	bp
2926:7A6F  C3					retn
				sub_163		endp

							                        ;* No entry point to code
2926:7A70  8C DB				mov	bx,ds
2926:7A72  5A					pop	dx
2926:7A73  1F					pop	ds
2926:7A74  B4 1A				mov	ah,1Ah
2926:7A76  06					push	es
2926:7A77  CD 21				int	21h			; DOS Services  ah=function 1Ah
										;  set DTA(disk xfer area) ds:dx
2926:7A79  07					pop	es
2926:7A7A  8E DB				mov	ds,bx
2926:7A7C  59					pop	cx
2926:7A7D  BA 005C				mov	dx,5Ch
2926:7A80  55					push	bp
2926:7A81  B4 27				mov	ah,27h			; '''
2926:7A83  06					push	es
2926:7A84  CD 21				int	21h			; DOS Services  ah=function 27h
										;  random block read, FCB @ds:dx
										;   cx=#records to read, Returns
										;   al=0 ok, cx=actual rec read
2926:7A86  07					pop	es
2926:7A87  5D					pop	bp
2926:7A88  CB					retf				; Return far

				;ßßßßßßßßßßßßßßßßßßßßßßßßßßßßßßßßßßßßßßßßßßßßßßßßßßßßßßßßßßßßßßßßßßßßßßßßßß
				;                              SUBROUTINE
				;ÜÜÜÜÜÜÜÜÜÜÜÜÜÜÜÜÜÜÜÜÜÜÜÜÜÜÜÜÜÜÜÜÜÜÜÜÜÜÜÜÜÜÜÜÜÜÜÜÜÜÜÜÜÜÜÜÜÜÜÜÜÜÜÜÜÜÜÜÜÜÜÜÜÜ

2926:7A89			sub_164		proc	near
2926:7A89  5B					pop	bx
2926:7A8A  8C D8				mov	ax,ds
2926:7A8C  5E					pop	si
2926:7A8D  1F					pop	ds
2926:7A8E  8E C0				mov	es,ax
2926:7A90  BF 005C				mov	di,5Ch
2926:7A93  B9 0025				mov	cx,25h
2926:7A96  FC					cld				; Clear direction
2926:7A97  F3/ A4				rep	movsb			; Rep when cx >0 Mov [si] to es:[di]
2926:7A99  B3 05				mov	bl,5
2926:7A9B  26: 88 1E 007D			mov	es:data_65,bl		; (2926:007D=0)
2926:7AA0  8E C0				mov	es,ax
2926:7AA2  BF 0082				mov	di,82h
2926:7AA5  8C C9				mov	cx,cs
2926:7AA7  8E D9				mov	ds,cx
2926:7AA9  BE 79F0				mov	si,79F0h
2926:7AAC  B9 0019				mov	cx,19h
2926:7AAF  F3/ A4				rep	movsb			; Rep when cx >0 Mov [si] to es:[di]
2926:7AB1  8E D8				mov	ds,ax
2926:7AB3  A1 006C				mov	ax,data_64		; (2926:006C=0)
2926:7AB6  B1 07				mov	cl,7
2926:7AB8  D3 E8				shr	ax,cl			; Shift w/zeros fill
2926:7ABA  48					dec	ax
           ICON.LST				Sourcer	v8.01  20-Jul-2026 12:15 am   Page 219

2926:7ABB  48					dec	ax
2926:7ABC  48					dec	ax
2926:7ABD  48					dec	ax
2926:7ABE  48					dec	ax
2926:7ABF  0E					push	cs
2926:7AC0  33 DB				xor	bx,bx			; Zero register
2926:7AC2  53					push	bx
2926:7AC3  50					push	ax
2926:7AC4  0E					push	cs
2926:7AC5  53					push	bx
2926:7AC6  06					push	es
2926:7AC7  B8 0082				mov	ax,82h
2926:7ACA  50					push	ax
2926:7ACB  8B EC				mov	bp,sp
2926:7ACD  CB					retf				; Return far
				sub_164		endp

2926:7ACE  E9 00 00				db	0E9h, 00h, 00h

				;ßßßßßßßßßßßßßßßßßßßßßßßßßßßßßßßßßßßßßßßßßßßßßßßßßßßßßßßßßßßßßßßßßßßßßßßßßß
				;                              SUBROUTINE
				;ÜÜÜÜÜÜÜÜÜÜÜÜÜÜÜÜÜÜÜÜÜÜÜÜÜÜÜÜÜÜÜÜÜÜÜÜÜÜÜÜÜÜÜÜÜÜÜÜÜÜÜÜÜÜÜÜÜÜÜÜÜÜÜÜÜÜÜÜÜÜÜÜÜÜ

2926:7AD1			sub_165		proc	near
2926:7AD1			loc_862:
2926:7AD1  E9 0000				jmp	loc_863			; (7AD4)
2926:7AD4			loc_863:
2926:7AD4  55					push	bp
2926:7AD5  8B EC				mov	bp,sp
2926:7AD7  55					push	bp
2926:7AD8  81 EC 0053				sub	sp,53h
2926:7ADC  C4 7E 06				les	di,dword ptr [bp+6]	; Load seg:offset ptr
2926:7ADF  26: 8A 05				mov	al,es:[di]
2926:7AE2  3C 00				cmp	al,0
2926:7AE4  74 03				je	loc_864			; Jump if equal
2926:7AE6  E9 009E				jmp	loc_867			; (7B87)
2926:7AE9			loc_864:
2926:7AE9  16					push	ss
2926:7AEA  8D 46 AD				lea	ax,[bp-53h]		; Load effective addr
2926:7AED  50					push	ax
2926:7AEE  0E E8 000F				callf	sub_166			; (7B01)
2926:7AF2  0E					push	cs
2926:7AF3  40					inc	ax
2926:7AF4  3A 50 41				cmp	dl,[bx+si+41h]
2926:7AF7  53					push	bx
2926:7AF8  54					push	sp
2926:7AF9  4D					dec	bp
2926:7AFA  50					push	ax
2926:7AFB  30 30				xor	[bx+si],dh
2926:7AFD  2E 24 24 24				db	 2Eh, 24h, 24h, 24h

				;ßßßß External Entry into Subroutine ßßßßßßßßßßßßßßßßßßßßßßßßßßßßßßßßßßßßßß

2926:7B01			sub_166:
2926:7B01  B8 0050				mov	ax,50h
2926:7B04  50					push	ax
2926:7B05  E8 EB0A				call	sub_124			; (6612)
           ICON.LST				Sourcer	v8.01  20-Jul-2026 12:15 am   Page 220

2926:7B08  1E					push	ds
2926:7B09  B8 837F				mov	ax,837Fh
2926:7B0C  05 0001				add	ax,1
2926:7B0F  50					push	ax
2926:7B10  16					push	ss
2926:7B11  8D 46 AD				lea	ax,[bp-53h]		; Load effective addr
2926:7B14  05 0009				add	ax,9
2926:7B17  50					push	ax
2926:7B18  B8 0002				mov	ax,2
2926:7B1B  50					push	ax
2926:7B1C  E8 06E8				call	sub_182			; (8207)
2926:7B1F  1E					push	ds
2926:7B20  B8 837F				mov	ax,837Fh
2926:7B23  05 0002				add	ax,2
2926:7B26  50					push	ax
2926:7B27  1E					push	ds
2926:7B28  B8 837F				mov	ax,837Fh
2926:7B2B  05 0002				add	ax,2
2926:7B2E  97					xchg	di,ax
2926:7B2F  07					pop	es
2926:7B30  26: 8A 05				mov	al,es:[di]
2926:7B33  32 E4				xor	ah,ah			; Zero register
2926:7B35  40					inc	ax
2926:7B36  5F					pop	di
2926:7B37  07					pop	es
2926:7B38  26: 88 05				mov	es:[di],al
2926:7B3B  1E					push	ds
2926:7B3C  B8 837F				mov	ax,837Fh
2926:7B3F  05 0002				add	ax,2
2926:7B42  97					xchg	di,ax
2926:7B43  07					pop	es
2926:7B44  26: 8A 05				mov	al,es:[di]
2926:7B47  3C 39				cmp	al,39h			; '9'
2926:7B49  7F 03				jg	loc_865			; Jump if >
2926:7B4B  E9 0029				jmp	loc_866			; (7B77)
2926:7B4E			loc_865:
2926:7B4E  1E					push	ds
2926:7B4F  B8 837F				mov	ax,837Fh
2926:7B52  05 0002				add	ax,2
2926:7B55  97					xchg	di,ax
2926:7B56  07					pop	es
2926:7B57  26: C6 05 30				mov	byte ptr es:[di],30h	; '0'
2926:7B5B  1E					push	ds
2926:7B5C  B8 837F				mov	ax,837Fh
2926:7B5F  05 0001				add	ax,1
2926:7B62  50					push	ax
2926:7B63  1E					push	ds
2926:7B64  B8 837F				mov	ax,837Fh
2926:7B67  05 0001				add	ax,1
2926:7B6A  97					xchg	di,ax
2926:7B6B  07					pop	es
2926:7B6C  26: 8A 05				mov	al,es:[di]
2926:7B6F  32 E4				xor	ah,ah			; Zero register
2926:7B71  40					inc	ax
2926:7B72  5F					pop	di
2926:7B73  07					pop	es
2926:7B74  26: 88 05				mov	es:[di],al
           ICON.LST				Sourcer	v8.01  20-Jul-2026 12:15 am   Page 221

2926:7B77			loc_866:
2926:7B77  C4 7E 06				les	di,dword ptr [bp+6]	; Load seg:offset ptr
2926:7B7A  06					push	es
2926:7B7B  57					push	di
2926:7B7C  FF 76 04				push	word ptr [bp+4]
2926:7B7F  16					push	ss
2926:7B80  8D 46 AD				lea	ax,[bp-53h]		; Load effective addr
2926:7B83  50					push	ax
2926:7B84  E8 07ED				call	sub_193			; (8374)
2926:7B87			loc_867:
2926:7B87  81 7E 04 FFFF			cmp	word ptr [bp+4],0FFFFh
2926:7B8C  74 03				je	loc_868			; Jump if equal
2926:7B8E  E9 0012				jmp	loc_869			; (7BA3)
2926:7B91			loc_868:
2926:7B91  C4 7E 06				les	di,dword ptr [bp+6]	; Load seg:offset ptr
2926:7B94  83 C7 34				add	di,34h
2926:7B97  26: C6 05 01				mov	byte ptr es:[di],1
2926:7B9B  C7 46 04 0001			mov	word ptr [bp+4],1
2926:7BA0  E9 000A				jmp	loc_870			; (7BAD)
2926:7BA3			loc_869:
2926:7BA3  C4 7E 06				les	di,dword ptr [bp+6]	; Load seg:offset ptr
2926:7BA6  83 C7 34				add	di,34h
2926:7BA9  26: C6 05 00				mov	byte ptr es:[di],0
2926:7BAD			loc_870:
2926:7BAD  C4 7E 06				les	di,dword ptr [bp+6]	; Load seg:offset ptr
2926:7BB0  83 C7 2E				add	di,2Eh
2926:7BB3  26: C6 05 01				mov	byte ptr es:[di],1
2926:7BB7  C4 7E 06				les	di,dword ptr [bp+6]	; Load seg:offset ptr
2926:7BBA  83 C7 2F				add	di,2Fh
2926:7BBD  26: C6 05 01				mov	byte ptr es:[di],1
2926:7BC1  C4 7E 06				les	di,dword ptr [bp+6]	; Load seg:offset ptr
2926:7BC4  83 C7 26				add	di,26h
2926:7BC7  26: C6 05 01				mov	byte ptr es:[di],1
2926:7BCB  C4 7E 06				les	di,dword ptr [bp+6]	; Load seg:offset ptr
2926:7BCE  06					push	es
2926:7BCF  57					push	di
2926:7BD0  58					pop	ax
2926:7BD1  A3 83AF				mov	data_373,ax		; (2926:83AF=0DA3Bh)
2926:7BD4  58					pop	ax
2926:7BD5  A3 83B1				mov	word ptr data_373+2,ax	; (2926:83B1=575h)
2926:7BD8  C4 7E 06				les	di,dword ptr [bp+6]	; Load seg:offset ptr
2926:7BDB  83 C7 2A				add	di,2Ah
2926:7BDE  26: C7 05 0000			mov	word ptr es:[di],0
2926:7BE3  C4 7E 06				les	di,dword ptr [bp+6]	; Load seg:offset ptr
2926:7BE6  83 C7 2C				add	di,2Ch
2926:7BE9  90					nop
2926:7BEA  90					nop
2926:7BEB  8B 46 04				mov	ax,[bp+4]
2926:7BEE  26: 89 05				mov	es:[di],ax
2926:7BF1  C4 7E 06				les	di,dword ptr [bp+6]	; Load seg:offset ptr
2926:7BF4  83 C7 30				add	di,30h
2926:7BF7  06					push	es
2926:7BF8  57					push	di
2926:7BF9  C4 7E 06				les	di,dword ptr [bp+6]	; Load seg:offset ptr
2926:7BFC  83 C7 38				add	di,38h
2926:7BFF  06					push	es
2926:7C00  57					push	di
           ICON.LST				Sourcer	v8.01  20-Jul-2026 12:15 am   Page 222

2926:7C01  E8 0940				call	sub_198			; (8544)
2926:7C04  C4 7E 06				les	di,dword ptr [bp+6]	; Load seg:offset ptr
2926:7C07  83 C7 28				add	di,28h
2926:7C0A  90					nop
2926:7C0B  90					nop
2926:7C0C  8B 46 04				mov	ax,[bp+4]
2926:7C0F  26: 89 05				mov	es:[di],ax
2926:7C12  C4 7E 06				les	di,dword ptr [bp+6]	; Load seg:offset ptr
2926:7C15  06					push	es
2926:7C16  57					push	di
2926:7C17  58					pop	ax
2926:7C18  05 0001				add	ax,1
2926:7C1B  97					xchg	di,ax
2926:7C1C  07					pop	es
2926:7C1D  26: 8A 05				mov	al,es:[di]
2926:7C20  3C 3A				cmp	al,3Ah			; ':'
2926:7C22  B8 0000				mov	ax,0
2926:7C25  75 01				jnz	loc_871			; Jump if not zero
2926:7C27  40					inc	ax
2926:7C28			loc_871:
2926:7C28  50					push	ax
2926:7C29  C4 7E 06				les	di,dword ptr [bp+6]	; Load seg:offset ptr
2926:7C2C  06					push	es
2926:7C2D  57					push	di
2926:7C2E  58					pop	ax
2926:7C2F  05 0002				add	ax,2
2926:7C32  97					xchg	di,ax
2926:7C33  07					pop	es
2926:7C34  26: 8A 05				mov	al,es:[di]
2926:7C37  3C 43				cmp	al,43h			; 'C'
2926:7C39  B8 0000				mov	ax,0
2926:7C3C  75 01				jnz	loc_872			; Jump if not zero
2926:7C3E  40					inc	ax
2926:7C3F			loc_872:
2926:7C3F  5B					pop	bx
2926:7C40  23 C3				and	ax,bx
2926:7C42  D0 D8				rcr	al,1			; Rotate thru carry
2926:7C44  72 03				jc	loc_873			; Jump if carry Set
2926:7C46  E9 000A				jmp	loc_874			; (7C53)
2926:7C49			loc_873:
2926:7C49  C4 7E 06				les	di,dword ptr [bp+6]	; Load seg:offset ptr
2926:7C4C  83 C7 26				add	di,26h
2926:7C4F  26: C6 05 04				mov	byte ptr es:[di],4
2926:7C53			loc_874:
2926:7C53  C4 7E 06				les	di,dword ptr [bp+6]	; Load seg:offset ptr
2926:7C56  83 C7 36				add	di,36h
2926:7C59  06					push	es
2926:7C5A  57					push	di
2926:7C5B  C4 7E 06				les	di,dword ptr [bp+6]	; Load seg:offset ptr
2926:7C5E  06					push	es
2926:7C5F  57					push	di
2926:7C60  B8 01B6				mov	ax,1B6h
2926:7C63  50					push	ax
2926:7C64  E8 ED0C				call	sub_140			; (6973)
2926:7C67  5F					pop	di
2926:7C68  07					pop	es
2926:7C69  26: 89 05				mov	es:[di],ax
           ICON.LST				Sourcer	v8.01  20-Jul-2026 12:15 am   Page 223

2926:7C6C  C4 7E 06				les	di,dword ptr [bp+6]	; Load seg:offset ptr
2926:7C6F  83 C7 36				add	di,36h
2926:7C72  26: 8B 05				mov	ax,es:[di]
2926:7C75  3D FFFF				cmp	ax,0FFFFh
2926:7C78  75 03				jne	loc_875			; Jump if not equal
2926:7C7A  E9 0009				jmp	loc_876			; (7C86)
2926:7C7D			loc_875:
2926:7C7D  C7 06 83B3 0000			mov	data_375,0		; (2926:83B3=1B8h)
2926:7C83  E9 0006				jmp	loc_877			; (7C8C)
2926:7C86			loc_876:
2926:7C86  C7 06 83B3 00FF			mov	data_375,0FFh		; (2926:83B3=1B8h)
2926:7C8C			loc_877:
2926:7C8C  8B E5				mov	sp,bp
2926:7C8E  5D					pop	bp
2926:7C8F  C2 0006				retn	6
				sub_165		endp

2926:7C92  E9 00 00				db	0E9h, 00h, 00h

				;ßßßßßßßßßßßßßßßßßßßßßßßßßßßßßßßßßßßßßßßßßßßßßßßßßßßßßßßßßßßßßßßßßßßßßßßßßß
				;                              SUBROUTINE
				;ÜÜÜÜÜÜÜÜÜÜÜÜÜÜÜÜÜÜÜÜÜÜÜÜÜÜÜÜÜÜÜÜÜÜÜÜÜÜÜÜÜÜÜÜÜÜÜÜÜÜÜÜÜÜÜÜÜÜÜÜÜÜÜÜÜÜÜÜÜÜÜÜÜÜ

2926:7C95			sub_167		proc	near
2926:7C95			loc_878:
2926:7C95  E9 0000				jmp	loc_879			; (7C98)
2926:7C98			loc_879:
2926:7C98  55					push	bp
2926:7C99  8B EC				mov	bp,sp
2926:7C9B  55					push	bp
2926:7C9C  81 EC 002C				sub	sp,2Ch
2926:7CA0  16					push	ss
2926:7CA1  8D 46 D4				lea	ax,[bp-2Ch]		; Load effective addr
2926:7CA4  50					push	ax
2926:7CA5  16					push	ss
2926:7CA6  8D 46 04				lea	ax,[bp+4]		; Load effective addr
2926:7CA9  50					push	ax
2926:7CAA  E8 0625				call	sub_188			; (82D2)
2926:7CAD  E8 0604				call	sub_187			; (82B4)
2926:7CB0  16					push	ss
2926:7CB1  8D 46 D4				lea	ax,[bp-2Ch]		; Load effective addr
2926:7CB4  50					push	ax
2926:7CB5  FF 76 24				push	word ptr [bp+24h]
2926:7CB8  B8 0004				mov	ax,4
2926:7CBB  50					push	ax
2926:7CBC  E8 05E7				call	sub_185			; (82A6)
2926:7CBF  D1 E0				shl	ax,1			; Shift w/zeros fill
2926:7CC1  5B					pop	bx
2926:7CC2  03 C3				add	ax,bx
2926:7CC4  97					xchg	di,ax
2926:7CC5  07					pop	es
2926:7CC6  26: 8B 05				mov	ax,es:[di]
2926:7CC9  50					push	ax
2926:7CCA  8B 46 24				mov	ax,[bp+24h]
2926:7CCD  93					xchg	bx,ax
2926:7CCE  B8 000F				mov	ax,0Fh
2926:7CD1  23 C3				and	ax,bx
           ICON.LST				Sourcer	v8.01  20-Jul-2026 12:15 am   Page 224

2926:7CD3  50					push	ax
2926:7CD4  E8 05CF				call	sub_185			; (82A6)
2926:7CD7  88 46 F4				mov	[bp-0Ch],al
2926:7CDA  8A 46 F4				mov	al,[bp-0Ch]
2926:7CDD  32 E4				xor	ah,ah			; Zero register
2926:7CDF  8B E5				mov	sp,bp
2926:7CE1  5D					pop	bp
2926:7CE2  C2 0022				retn	22h
				sub_167		endp

2926:7CE5  E9 00 00				db	0E9h, 00h, 00h

				;ßßßßßßßßßßßßßßßßßßßßßßßßßßßßßßßßßßßßßßßßßßßßßßßßßßßßßßßßßßßßßßßßßßßßßßßßßß
				;                              SUBROUTINE
				;ÜÜÜÜÜÜÜÜÜÜÜÜÜÜÜÜÜÜÜÜÜÜÜÜÜÜÜÜÜÜÜÜÜÜÜÜÜÜÜÜÜÜÜÜÜÜÜÜÜÜÜÜÜÜÜÜÜÜÜÜÜÜÜÜÜÜÜÜÜÜÜÜÜÜ

2926:7CE8			sub_168		proc	near
2926:7CE8			loc_880:
2926:7CE8  E9 0015				jmp	loc_881			; (7D00)

				;ßßßß External Entry into Subroutine ßßßßßßßßßßßßßßßßßßßßßßßßßßßßßßßßßßßßßß

2926:7CEB			sub_169:
2926:7CEB  E9 0040				jmp	loc_885			; (7D2E)

				;ßßßß External Entry into Subroutine ßßßßßßßßßßßßßßßßßßßßßßßßßßßßßßßßßßßßßß

2926:7CEE			sub_170:
2926:7CEE  E9 0117				jmp	loc_899			; (7E08)
2926:7CF1  E9 0140				jmp	loc_901			; (7E34)
2926:7CF4  E9 0169				jmp	loc_903			; (7E60)
2926:7CF7  E9 0192				jmp	loc_905			; (7E8C)
2926:7CFA  E9 01BB				jmp	loc_907			; (7EB8)
2926:7CFD  E9 01F6				jmp	loc_910			; (7EF6)
2926:7D00			loc_881:
2926:7D00  55					push	bp
2926:7D01  8B EC				mov	bp,sp
2926:7D03  55					push	bp
2926:7D04  81 EC 000C				sub	sp,0Ch
2926:7D08  8B 46 06				mov	ax,[bp+6]
2926:7D0B  93					xchg	bx,ax
2926:7D0C  8B 46 04				mov	ax,[bp+4]
2926:7D0F  3B D8				cmp	bx,ax
2926:7D11  7C 03				jl	loc_882			; Jump if <
2926:7D13  E9 0009				jmp	loc_883			; (7D1F)
2926:7D16			loc_882:
2926:7D16  8B 46 06				mov	ax,[bp+6]
2926:7D19  89 46 F4				mov	[bp-0Ch],ax
2926:7D1C  E9 0006				jmp	loc_884			; (7D25)
2926:7D1F			loc_883:
2926:7D1F  8B 46 04				mov	ax,[bp+4]
2926:7D22  89 46 F4				mov	[bp-0Ch],ax
2926:7D25			loc_884:
2926:7D25  8B 46 F4				mov	ax,[bp-0Ch]
2926:7D28  8B E5				mov	sp,bp
2926:7D2A  5D					pop	bp
2926:7D2B  C2 0004				retn	4
           ICON.LST				Sourcer	v8.01  20-Jul-2026 12:15 am   Page 225

2926:7D2E			loc_885:
2926:7D2E  55					push	bp
2926:7D2F  8B EC				mov	bp,sp
2926:7D31  55					push	bp
2926:7D32  81 EC 0018				sub	sp,18h
2926:7D36  C4 7E 08				les	di,dword ptr [bp+8]	; Load seg:offset ptr
2926:7D39  26: 8A 05				mov	al,es:[di]
2926:7D3C  32 E4				xor	ah,ah			; Zero register
2926:7D3E  89 46 EC				mov	[bp-14h],ax
2926:7D41  C4 7E 04				les	di,dword ptr [bp+4]	; Load seg:offset ptr
2926:7D44  26: 8A 05				mov	al,es:[di]
2926:7D47  32 E4				xor	ah,ah			; Zero register
2926:7D49  89 46 EE				mov	[bp-12h],ax
2926:7D4C  B8 0001				mov	ax,1
2926:7D4F  50					push	ax
2926:7D50  FF 76 EC				push	word ptr [bp-14h]
2926:7D53  FF 76 EE				push	word ptr [bp-12h]
2926:7D56  E8 FF8F				call	sub_168			; (7CE8)
2926:7D59  5B					pop	bx
2926:7D5A  93					xchg	bx,ax
2926:7D5B  89 46 F2				mov	[bp-0Eh],ax
2926:7D5E  93					xchg	bx,ax
2926:7D5F  FF 4E F2				dec	word ptr [bp-0Eh]
2926:7D62  2B C3				sub	ax,bx
2926:7D64  40					inc	ax
2926:7D65  89 46 E8				mov	[bp-18h],ax
2926:7D68			loc_886:
2926:7D68  FF 46 F2				inc	word ptr [bp-0Eh]
2926:7D6B  FF 4E E8				dec	word ptr [bp-18h]
2926:7D6E  7D 03				jge	loc_887			; Jump if > or =
2926:7D70  E9 005C				jmp	loc_893			; (7DCF)
2926:7D73			loc_887:
2926:7D73  C4 7E 08				les	di,dword ptr [bp+8]	; Load seg:offset ptr
2926:7D76  06					push	es
2926:7D77  57					push	di
2926:7D78  8B 46 F2				mov	ax,[bp-0Eh]
2926:7D7B  5B					pop	bx
2926:7D7C  03 C3				add	ax,bx
2926:7D7E  97					xchg	di,ax
2926:7D7F  07					pop	es
2926:7D80  26: 8A 05				mov	al,es:[di]
2926:7D83  88 46 EA				mov	[bp-16h],al
2926:7D86  C4 7E 04				les	di,dword ptr [bp+4]	; Load seg:offset ptr
2926:7D89  06					push	es
2926:7D8A  57					push	di
2926:7D8B  8B 46 F2				mov	ax,[bp-0Eh]
2926:7D8E  5B					pop	bx
2926:7D8F  03 C3				add	ax,bx
2926:7D91  97					xchg	di,ax
2926:7D92  07					pop	es
2926:7D93  26: 8A 05				mov	al,es:[di]
2926:7D96  88 46 EB				mov	[bp-15h],al
2926:7D99  8A 46 EA				mov	al,[bp-16h]
2926:7D9C  32 E4				xor	ah,ah			; Zero register
2926:7D9E  50					push	ax
2926:7D9F  8A 46 EB				mov	al,[bp-15h]
2926:7DA2  32 E4				xor	ah,ah			; Zero register
           ICON.LST				Sourcer	v8.01  20-Jul-2026 12:15 am   Page 226

2926:7DA4  5B					pop	bx
2926:7DA5  3B D8				cmp	bx,ax
2926:7DA7  75 03				jne	loc_888			; Jump if not equal
2926:7DA9  E9 0021				jmp	loc_892			; (7DCD)
2926:7DAC			loc_888:
2926:7DAC  8A 46 EA				mov	al,[bp-16h]
2926:7DAF  32 E4				xor	ah,ah			; Zero register
2926:7DB1  50					push	ax
2926:7DB2  8A 46 EB				mov	al,[bp-15h]
2926:7DB5  32 E4				xor	ah,ah			; Zero register
2926:7DB7  5B					pop	bx
2926:7DB8  3B D8				cmp	bx,ax
2926:7DBA  7F 03				jg	loc_889			; Jump if >
2926:7DBC  E9 0007				jmp	loc_890			; (7DC6)
2926:7DBF			loc_889:
2926:7DBF  C6 46 F4 02				mov	byte ptr [bp-0Ch],2
2926:7DC3  E9 0004				jmp	loc_891			; (7DCA)
2926:7DC6			loc_890:
2926:7DC6  C6 46 F4 03				mov	byte ptr [bp-0Ch],3
2926:7DCA			loc_891:
2926:7DCA  E9 0030				jmp	loc_898			; (7DFD)
2926:7DCD			loc_892:
2926:7DCD  EB 99				jmp	short loc_886		; (7D68)
2926:7DCF			loc_893:
2926:7DCF  8B 46 EC				mov	ax,[bp-14h]
2926:7DD2  93					xchg	bx,ax
2926:7DD3  8B 46 EE				mov	ax,[bp-12h]
2926:7DD6  3B D8				cmp	bx,ax
2926:7DD8  74 03				je	loc_894			; Jump if equal
2926:7DDA  E9 0007				jmp	loc_895			; (7DE4)
2926:7DDD			loc_894:
2926:7DDD  C6 46 F4 00				mov	byte ptr [bp-0Ch],0
2926:7DE1  E9 0019				jmp	loc_898			; (7DFD)
2926:7DE4			loc_895:
2926:7DE4  8B 46 EC				mov	ax,[bp-14h]
2926:7DE7  93					xchg	bx,ax
2926:7DE8  8B 46 EE				mov	ax,[bp-12h]
2926:7DEB  3B D8				cmp	bx,ax
2926:7DED  7F 03				jg	loc_896			; Jump if >
2926:7DEF  E9 0007				jmp	loc_897			; (7DF9)
2926:7DF2			loc_896:
2926:7DF2  C6 46 F4 02				mov	byte ptr [bp-0Ch],2
2926:7DF6  E9 0004				jmp	loc_898			; (7DFD)
2926:7DF9			loc_897:
2926:7DF9  C6 46 F4 03				mov	byte ptr [bp-0Ch],3
2926:7DFD			loc_898:
2926:7DFD  8A 46 F4				mov	al,[bp-0Ch]
2926:7E00  32 E4				xor	ah,ah			; Zero register
2926:7E02  8B E5				mov	sp,bp
2926:7E04  5D					pop	bp
2926:7E05  C2 0008				retn	8
2926:7E08			loc_899:
2926:7E08  55					push	bp
2926:7E09  8B EC				mov	bp,sp
2926:7E0B  55					push	bp
2926:7E0C  81 EC 000C				sub	sp,0Ch
2926:7E10  C4 7E 08				les	di,dword ptr [bp+8]	; Load seg:offset ptr
           ICON.LST				Sourcer	v8.01  20-Jul-2026 12:15 am   Page 227

2926:7E13  06					push	es
2926:7E14  57					push	di
2926:7E15  C4 7E 04				les	di,dword ptr [bp+4]	; Load seg:offset ptr
2926:7E18  06					push	es
2926:7E19  57					push	di
2926:7E1A  E8 FECE				call	sub_169			; (7CEB)
2926:7E1D  3D 0000				cmp	ax,0
2926:7E20  B8 0000				mov	ax,0
2926:7E23  75 01				jnz	loc_900			; Jump if not zero
2926:7E25  40					inc	ax
2926:7E26			loc_900:
2926:7E26  88 46 F4				mov	[bp-0Ch],al
2926:7E29  8A 46 F4				mov	al,[bp-0Ch]
2926:7E2C  32 E4				xor	ah,ah			; Zero register
2926:7E2E  8B E5				mov	sp,bp
2926:7E30  5D					pop	bp
2926:7E31  C2 0008				retn	8
2926:7E34			loc_901:
2926:7E34  55					push	bp
2926:7E35  8B EC				mov	bp,sp
2926:7E37  55					push	bp
2926:7E38  81 EC 000C				sub	sp,0Ch
2926:7E3C  C4 7E 08				les	di,dword ptr [bp+8]	; Load seg:offset ptr
2926:7E3F  06					push	es
2926:7E40  57					push	di
2926:7E41  C4 7E 04				les	di,dword ptr [bp+4]	; Load seg:offset ptr
2926:7E44  06					push	es
2926:7E45  57					push	di
2926:7E46  E8 FEA2				call	sub_169			; (7CEB)
2926:7E49  3D 0000				cmp	ax,0
2926:7E4C  B8 0000				mov	ax,0
2926:7E4F  74 01				jz	loc_902			; Jump if zero
2926:7E51  40					inc	ax
2926:7E52			loc_902:
2926:7E52  88 46 F4				mov	[bp-0Ch],al
2926:7E55  8A 46 F4				mov	al,[bp-0Ch]
2926:7E58  32 E4				xor	ah,ah			; Zero register
2926:7E5A  8B E5				mov	sp,bp
2926:7E5C  5D					pop	bp
2926:7E5D  C2 0008				retn	8
2926:7E60			loc_903:
2926:7E60  55					push	bp
2926:7E61  8B EC				mov	bp,sp
2926:7E63  55					push	bp
2926:7E64  81 EC 000C				sub	sp,0Ch
2926:7E68  C4 7E 08				les	di,dword ptr [bp+8]	; Load seg:offset ptr
2926:7E6B  06					push	es
2926:7E6C  57					push	di
2926:7E6D  C4 7E 04				les	di,dword ptr [bp+4]	; Load seg:offset ptr
2926:7E70  06					push	es
2926:7E71  57					push	di
2926:7E72  E8 FE76				call	sub_169			; (7CEB)
2926:7E75  3D 0002				cmp	ax,2
2926:7E78  B8 0000				mov	ax,0
2926:7E7B  75 01				jnz	loc_904			; Jump if not zero
2926:7E7D  40					inc	ax
2926:7E7E			loc_904:
           ICON.LST				Sourcer	v8.01  20-Jul-2026 12:15 am   Page 228

2926:7E7E  88 46 F4				mov	[bp-0Ch],al
2926:7E81  8A 46 F4				mov	al,[bp-0Ch]
2926:7E84  32 E4				xor	ah,ah			; Zero register
2926:7E86  8B E5				mov	sp,bp
2926:7E88  5D					pop	bp
2926:7E89  C2 0008				retn	8
2926:7E8C			loc_905:
2926:7E8C  55					push	bp
2926:7E8D  8B EC				mov	bp,sp
2926:7E8F  55					push	bp
2926:7E90  81 EC 000C				sub	sp,0Ch
2926:7E94  C4 7E 08				les	di,dword ptr [bp+8]	; Load seg:offset ptr
2926:7E97  06					push	es
2926:7E98  57					push	di
2926:7E99  C4 7E 04				les	di,dword ptr [bp+4]	; Load seg:offset ptr
2926:7E9C  06					push	es
2926:7E9D  57					push	di
2926:7E9E  E8 FE4A				call	sub_169			; (7CEB)
2926:7EA1  3D 0003				cmp	ax,3
2926:7EA4  B8 0000				mov	ax,0
2926:7EA7  75 01				jnz	loc_906			; Jump if not zero
2926:7EA9  40					inc	ax
2926:7EAA			loc_906:
2926:7EAA  88 46 F4				mov	[bp-0Ch],al
2926:7EAD  8A 46 F4				mov	al,[bp-0Ch]
2926:7EB0  32 E4				xor	ah,ah			; Zero register
2926:7EB2  8B E5				mov	sp,bp
2926:7EB4  5D					pop	bp
2926:7EB5  C2 0008				retn	8
2926:7EB8			loc_907:
2926:7EB8  55					push	bp
2926:7EB9  8B EC				mov	bp,sp
2926:7EBB  55					push	bp
2926:7EBC  81 EC 000D				sub	sp,0Dh
2926:7EC0  C4 7E 08				les	di,dword ptr [bp+8]	; Load seg:offset ptr
2926:7EC3  06					push	es
2926:7EC4  57			data_308	db	57h
2926:7EC5  C4 7E 04 06 57 E8			db	0C4h, 7Eh, 04h, 06h, 57h,0E8h
2926:7ECB  1E FE 88 46 F3 82			db	 1Eh,0FEh, 88h, 46h,0F3h, 82h
2926:7ED1  7E F3 00 B8 00 00			db	 7Eh,0F3h, 00h,0B8h, 00h, 00h
2926:7ED7  75 01				db	 75h, 01h
2926:7ED9  40					db	40h
2926:7EDA			loc_908:
2926:7EDA  50					push	ax
2926:7EDB  82 7E F3 02				cmp	byte ptr [bp-0Dh],2
2926:7EDF  B8 0000				mov	ax,0
2926:7EE2  75 01				jnz	loc_909			; Jump if not zero
2926:7EE4  40					inc	ax
2926:7EE5			loc_909:
2926:7EE5  5B					pop	bx
2926:7EE6  0B C3				or	ax,bx
2926:7EE8  88 46 F4				mov	[bp-0Ch],al
2926:7EEB  8A 46 F4				mov	al,[bp-0Ch]
2926:7EEE  32 E4				xor	ah,ah			; Zero register
2926:7EF0  8B E5				mov	sp,bp
2926:7EF2  5D					pop	bp
2926:7EF3  C2 0008				retn	8
           ICON.LST				Sourcer	v8.01  20-Jul-2026 12:15 am   Page 229

2926:7EF6			loc_910:
2926:7EF6  55					push	bp
2926:7EF7  8B EC				mov	bp,sp
2926:7EF9  55					push	bp
2926:7EFA  81 EC 000D				sub	sp,0Dh
2926:7EFE  C4 7E 08				les	di,dword ptr [bp+8]	; Load seg:offset ptr
2926:7F01  06					push	es
2926:7F02  57					push	di
2926:7F03  C4 7E 04				les	di,dword ptr [bp+4]	; Load seg:offset ptr
2926:7F06  06					push	es
2926:7F07  57					push	di
2926:7F08  E8 FDE0				call	sub_169			; (7CEB)
2926:7F0B  88 46 F3				mov	[bp-0Dh],al
2926:7F0E  82 7E F3 00				cmp	byte ptr [bp-0Dh],0
2926:7F12  B8 0000				mov	ax,0
2926:7F15  75 01				jnz	loc_911			; Jump if not zero
2926:7F17  40					inc	ax
2926:7F18			loc_911:
2926:7F18  50					push	ax
2926:7F19  82 7E F3 03				cmp	byte ptr [bp-0Dh],3
2926:7F1D  B8 0000				mov	ax,0
2926:7F20  75 01				jnz	loc_912			; Jump if not zero
2926:7F22  40					inc	ax
2926:7F23			loc_912:
2926:7F23  5B					pop	bx
2926:7F24  0B C3				or	ax,bx
2926:7F26  88 46 F4				mov	[bp-0Ch],al
2926:7F29  8A 46 F4				mov	al,[bp-0Ch]
2926:7F2C  32 E4				xor	ah,ah			; Zero register
2926:7F2E  8B E5				mov	sp,bp
2926:7F30  5D					pop	bp
2926:7F31  C2 0008				retn	8
				sub_168		endp

2926:7F34  E9 00 00				db	0E9h, 00h, 00h

				;ßßßßßßßßßßßßßßßßßßßßßßßßßßßßßßßßßßßßßßßßßßßßßßßßßßßßßßßßßßßßßßßßßßßßßßßßßß
				;                              SUBROUTINE
				;ÜÜÜÜÜÜÜÜÜÜÜÜÜÜÜÜÜÜÜÜÜÜÜÜÜÜÜÜÜÜÜÜÜÜÜÜÜÜÜÜÜÜÜÜÜÜÜÜÜÜÜÜÜÜÜÜÜÜÜÜÜÜÜÜÜÜÜÜÜÜÜÜÜÜ

2926:7F37			sub_171		proc	near
2926:7F37			loc_913:
2926:7F37  E9 0000				jmp	loc_914			; (7F3A)
2926:7F3A			loc_914:
2926:7F3A  55					push	bp
2926:7F3B  8B EC				mov	bp,sp
2926:7F3D  55					push	bp
2926:7F3E  81 EC 0004				sub	sp,4
2926:7F42  C4 7E 08				les	di,dword ptr [bp+8]	; Load seg:offset ptr
2926:7F45  06					push	es
2926:7F46  57					push	di
2926:7F47  58					pop	ax
2926:7F48  05 0001				add	ax,1
2926:7F4B  50					push	ax
2926:7F4C  C4 7E 08				les	di,dword ptr [bp+8]	; Load seg:offset ptr
2926:7F4F  26: 8A 05				mov	al,es:[di]
2926:7F52  32 E4				xor	ah,ah			; Zero register
           ICON.LST				Sourcer	v8.01  20-Jul-2026 12:15 am   Page 230

2926:7F54  50					push	ax
2926:7F55  FF 76 06				push	word ptr [bp+6]
2926:7F58  FF 76 04				push	word ptr [bp+4]
2926:7F5B  E8 000C				call	sub_173			; (7F6A)
2926:7F5E  8B E5				mov	sp,bp
2926:7F60  5D					pop	bp
2926:7F61  C2 0008				retn	8
				sub_171		endp

2926:7F64  E9 00 00				db	0E9h, 00h, 00h

				;ßßßßßßßßßßßßßßßßßßßßßßßßßßßßßßßßßßßßßßßßßßßßßßßßßßßßßßßßßßßßßßßßßßßßßßßßßß
				;                              SUBROUTINE
				;ÜÜÜÜÜÜÜÜÜÜÜÜÜÜÜÜÜÜÜÜÜÜÜÜÜÜÜÜÜÜÜÜÜÜÜÜÜÜÜÜÜÜÜÜÜÜÜÜÜÜÜÜÜÜÜÜÜÜÜÜÜÜÜÜÜÜÜÜÜÜÜÜÜÜ

2926:7F67			sub_172		proc	near
2926:7F67			loc_915:
2926:7F67  E9 0003				jmp	loc_916			; (7F6D)

				;ßßßß External Entry into Subroutine ßßßßßßßßßßßßßßßßßßßßßßßßßßßßßßßßßßßßßß

2926:7F6A			sub_173:
2926:7F6A  E9 003B				jmp	loc_920			; (7FA8)
2926:7F6D			loc_916:
2926:7F6D  55					push	bp
2926:7F6E  8B EC				mov	bp,sp
2926:7F70  55					push	bp
2926:7F71  81 EC 0002				sub	sp,2
2926:7F75  81 7E 06 FFFF			cmp	word ptr [bp+6],0FFFFh
2926:7F7A  75 03				jne	loc_917			; Jump if not equal
2926:7F7C  E9 001A				jmp	loc_919			; (7F99)
2926:7F7F			loc_917:
2926:7F7F  81 7E 06 0001			cmp	word ptr [bp+6],1
2926:7F84  7F 03				jg	loc_918			; Jump if >
2926:7F86  E9 0010				jmp	loc_919			; (7F99)
2926:7F89			loc_918:
2926:7F89  B8 0020				mov	ax,20h
2926:7F8C  50					push	ax
2926:7F8D  E8 0094				call	sub_174			; (8024)
2926:7F90  8B 46 06				mov	ax,[bp+6]
2926:7F93  48					dec	ax
2926:7F94  89 46 06				mov	[bp+6],ax
2926:7F97  EB E6				jmp	short loc_917		; (7F7F)
2926:7F99			loc_919:
2926:7F99  8A 46 08				mov	al,[bp+8]
2926:7F9C  32 E4				xor	ah,ah			; Zero register
2926:7F9E  50					push	ax
2926:7F9F  E8 0082				call	sub_174			; (8024)
2926:7FA2  8B E5				mov	sp,bp
2926:7FA4  5D					pop	bp
2926:7FA5  C2 0006				retn	6
2926:7FA8			loc_920:
2926:7FA8  55					push	bp
2926:7FA9  8B EC				mov	bp,sp
2926:7FAB  55					push	bp
2926:7FAC  81 EC 0008				sub	sp,8
2926:7FB0  B8 0001				mov	ax,1
           ICON.LST				Sourcer	v8.01  20-Jul-2026 12:15 am   Page 231

2926:7FB3  50					push	ax
2926:7FB4  8B 46 06				mov	ax,[bp+6]
2926:7FB7  93					xchg	bx,ax
2926:7FB8  8B 46 08				mov	ax,[bp+8]
2926:7FBB  2B D8				sub	bx,ax
2926:7FBD  93					xchg	bx,ax
2926:7FBE  5B					pop	bx
2926:7FBF  93					xchg	bx,ax
2926:7FC0  89 46 FC				mov	[bp-4],ax
2926:7FC3  93					xchg	bx,ax
2926:7FC4  FF 4E FC				dec	word ptr [bp-4]
2926:7FC7  2B C3				sub	ax,bx
2926:7FC9  40					inc	ax
2926:7FCA  89 46 FA				mov	[bp-6],ax
2926:7FCD			loc_921:
2926:7FCD  FF 46 FC				inc	word ptr [bp-4]
2926:7FD0  FF 4E FA				dec	word ptr [bp-6]
2926:7FD3  7D 03				jge	loc_922			; Jump if > or =
2926:7FD5  E9 0009				jmp	loc_923			; (7FE1)
2926:7FD8			loc_922:
2926:7FD8  B8 0020				mov	ax,20h
2926:7FDB  50					push	ax
2926:7FDC  E8 0045				call	sub_174			; (8024)
2926:7FDF  EB EC				jmp	short loc_921		; (7FCD)
2926:7FE1			loc_923:
2926:7FE1  B8 0001				mov	ax,1
2926:7FE4  50					push	ax
2926:7FE5  8B 46 08				mov	ax,[bp+8]
2926:7FE8  5B					pop	bx
2926:7FE9  93					xchg	bx,ax
2926:7FEA  89 46 FC				mov	[bp-4],ax
2926:7FED  93					xchg	bx,ax
2926:7FEE  FF 4E FC				dec	word ptr [bp-4]
2926:7FF1  2B C3				sub	ax,bx
2926:7FF3  40					inc	ax
2926:7FF4  89 46 F8				mov	[bp-8],ax
2926:7FF7			loc_924:
2926:7FF7  FF 46 FC				inc	word ptr [bp-4]
2926:7FFA  FF 4E F8				dec	word ptr [bp-8]
2926:7FFD  7D 03				jge	loc_925			; Jump if > or =
2926:7FFF  E9 0019				jmp	loc_926			; (801B)
2926:8002			loc_925:
2926:8002  C4 7E 0A				les	di,dword ptr [bp+0Ah]	; Load seg:offset ptr
2926:8005  06					push	es
2926:8006  57					push	di
2926:8007  8B 46 FC				mov	ax,[bp-4]
2926:800A  48					dec	ax
2926:800B  5B					pop	bx
2926:800C  03 C3				add	ax,bx
2926:800E  97					xchg	di,ax
2926:800F  07					pop	es
2926:8010  26: 8A 05				mov	al,es:[di]
2926:8013  32 E4				xor	ah,ah			; Zero register
2926:8015  50					push	ax
2926:8016  E8 000B				call	sub_174			; (8024)
2926:8019  EB DC				jmp	short loc_924		; (7FF7)
2926:801B			loc_926:
           ICON.LST				Sourcer	v8.01  20-Jul-2026 12:15 am   Page 232

2926:801B  8B E5				mov	sp,bp
2926:801D  5D					pop	bp
2926:801E  C2 000A				retn	0Ah
				sub_172		endp

2926:8021  E9 00 00				db	0E9h, 00h, 00h

				;ßßßßßßßßßßßßßßßßßßßßßßßßßßßßßßßßßßßßßßßßßßßßßßßßßßßßßßßßßßßßßßßßßßßßßßßßßß
				;                              SUBROUTINE
				;ÜÜÜÜÜÜÜÜÜÜÜÜÜÜÜÜÜÜÜÜÜÜÜÜÜÜÜÜÜÜÜÜÜÜÜÜÜÜÜÜÜÜÜÜÜÜÜÜÜÜÜÜÜÜÜÜÜÜÜÜÜÜÜÜÜÜÜÜÜÜÜÜÜÜ

2926:8024			sub_174		proc	near
2926:8024			loc_927:
2926:8024  E9 0000				jmp	loc_928			; (8027)
2926:8027			loc_928:
2926:8027  55					push	bp
2926:8028  8B EC				mov	bp,sp
2926:802A  55					push	bp
2926:802B  81 EC 0002				sub	sp,2
2926:802F  A1 8389				mov	ax,word ptr data_353+2	; (2926:8389=0)
2926:8032  50					push	ax
2926:8033  A1 8387				mov	ax,data_353		; (2926:8387=0B850h)
2926:8036  50					push	ax
2926:8037  0E					push	cs
2926:8038  B8 004F				mov	ax,4Fh
2926:803B  93					xchg	bx,ax
2926:803C  B8 7FBB				mov	ax,7FBBh
2926:803F  03 C3				add	ax,bx
2926:8041  50					push	ax
2926:8042  E8 0377				call	sub_194			; (83BC)
2926:8045  D0 D8				rcr	al,1			; Rotate thru carry
2926:8047  72 03				jc	loc_929			; Jump if carry Set
2926:8049  E9 000C				jmp	loc_930			; (8058)
2926:804C			loc_929:
2926:804C  8A 46 04				mov	al,[bp+4]
2926:804F  32 E4				xor	ah,ah			; Zero register
2926:8051  50					push	ax
2926:8052  E8 0501				call	sub_199			; (8556)
2926:8055  E9 0029				jmp	loc_931			; (8081)
2926:8058			loc_930:
2926:8058  C4 3E 83AF				les	di,dword ptr data_373	; (2926:83AF=0DA3Bh) Load seg:offset p
2926:805C  83 C7 38				add	di,38h
2926:805F  06					push	es
2926:8060  57					push	di
2926:8061  58					pop	ax
2926:8062  05 0000				add	ax,0
2926:8065  97					xchg	di,ax
2926:8066  8A 46 04				mov	al,[bp+4]
2926:8069  07					pop	es
2926:806A  26: 88 05				mov	es:[di],al
2926:806D  C4 3E 83AF				les	di,dword ptr data_373	; (2926:83AF=0DA3Bh) Load seg:offset p
2926:8071  06					push	es
2926:8072  57					push	di
2926:8073  C4 3E 83AF				les	di,dword ptr data_373	; (2926:83AF=0DA3Bh) Load seg:offset p
2926:8077  83 C7 28				add	di,28h
2926:807A  26: 8B 05				mov	ax,es:[di]
2926:807D  50					push	ax
           ICON.LST				Sourcer	v8.01  20-Jul-2026 12:15 am   Page 233

2926:807E  E8 0009				call	sub_175			; (808A)
2926:8081			loc_931:
2926:8081  8B E5				mov	sp,bp
2926:8083  5D					pop	bp
2926:8084  C2 0002				retn	2
				sub_174		endp

2926:8087  E9 00 00				db	0E9h, 00h, 00h

				;ßßßßßßßßßßßßßßßßßßßßßßßßßßßßßßßßßßßßßßßßßßßßßßßßßßßßßßßßßßßßßßßßßßßßßßßßßß
				;                              SUBROUTINE
				;ÜÜÜÜÜÜÜÜÜÜÜÜÜÜÜÜÜÜÜÜÜÜÜÜÜÜÜÜÜÜÜÜÜÜÜÜÜÜÜÜÜÜÜÜÜÜÜÜÜÜÜÜÜÜÜÜÜÜÜÜÜÜÜÜÜÜÜÜÜÜÜÜÜÜ

2926:808A			sub_175		proc	near
2926:808A			loc_932:
2926:808A  E9 0000				jmp	loc_933			; (808D)
2926:808D			loc_933:
2926:808D  55					push	bp
2926:808E  8B EC				mov	bp,sp
2926:8090  55					push	bp
2926:8091  81 EC 0002				sub	sp,2
2926:8095  C4 7E 06				les	di,dword ptr [bp+6]	; Load seg:offset ptr
2926:8098  06					push	es
2926:8099  57					push	di
2926:809A  58					pop	ax
2926:809B  A3 83AF				mov	data_373,ax		; (2926:83AF=0DA3Bh)
2926:809E  58					pop	ax
2926:809F  A3 83B1				mov	word ptr data_373+2,ax	; (2926:83B1=575h)
2926:80A2  E8 E8E3				call	sub_147			; (6988)
2926:80A5  8B E5				mov	sp,bp
2926:80A7  5D					pop	bp
2926:80A8  C2 0006				retn	6
				sub_175		endp

2926:80AB  E9 00 00				db	0E9h, 00h, 00h

				;ßßßßßßßßßßßßßßßßßßßßßßßßßßßßßßßßßßßßßßßßßßßßßßßßßßßßßßßßßßßßßßßßßßßßßßßßßß
				;                              SUBROUTINE
				;ÜÜÜÜÜÜÜÜÜÜÜÜÜÜÜÜÜÜÜÜÜÜÜÜÜÜÜÜÜÜÜÜÜÜÜÜÜÜÜÜÜÜÜÜÜÜÜÜÜÜÜÜÜÜÜÜÜÜÜÜÜÜÜÜÜÜÜÜÜÜÜÜÜÜ

2926:80AE			sub_176		proc	near
2926:80AE			loc_934:
2926:80AE  E9 0009				jmp	loc_935			; (80BA)

				;ßßßß External Entry into Subroutine ßßßßßßßßßßßßßßßßßßßßßßßßßßßßßßßßßßßßßß

2926:80B1			sub_177:
2926:80B1  E9 0024				jmp	loc_936			; (80D8)

				;ßßßß External Entry into Subroutine ßßßßßßßßßßßßßßßßßßßßßßßßßßßßßßßßßßßßßß

2926:80B4			sub_178:
2926:80B4  E9 003B				jmp	loc_937			; (80F2)

				;ßßßß External Entry into Subroutine ßßßßßßßßßßßßßßßßßßßßßßßßßßßßßßßßßßßßßß

2926:80B7			sub_179:
           ICON.LST				Sourcer	v8.01  20-Jul-2026 12:15 am   Page 234

2926:80B7  E9 007C				jmp	loc_940			; (8136)
2926:80BA			loc_935:
2926:80BA  55					push	bp
2926:80BB  8B EC				mov	bp,sp
2926:80BD  55					push	bp
2926:80BE  81 EC 000C				sub	sp,0Ch
2926:80C2  1E					push	ds
2926:80C3  B8 8A4F				mov	ax,8A4Fh
2926:80C6  89 46 F4				mov	[bp-0Ch],ax
2926:80C9  58					pop	ax
2926:80CA  89 46 F6				mov	[bp-0Ah],ax
2926:80CD  8B 46 F6				mov	ax,[bp-0Ah]
2926:80D0  93					xchg	bx,ax
2926:80D1  8B 46 F4				mov	ax,[bp-0Ch]
2926:80D4  8B E5				mov	sp,bp
2926:80D6  5D					pop	bp
2926:80D7  C3					retn
2926:80D8			loc_936:
2926:80D8  55					push	bp
2926:80D9  8B EC				mov	bp,sp
2926:80DB  55					push	bp
2926:80DC  81 EC 0002				sub	sp,2
2926:80E0  C7 06 8B4F 0001			mov	word ptr ds:[8B4Fh],1	; (2916:8B4F=0)
2926:80E6  90					nop
2926:80E7  B8 8A4F				mov	ax,8A4Fh
2926:80EA  97					xchg	di,ax
2926:80EB  C6 05 00				mov	byte ptr [di],0
2926:80EE  8B E5				mov	sp,bp
2926:80F0  5D					pop	bp
2926:80F1  C3					retn
2926:80F2			loc_937:
2926:80F2  55					push	bp
2926:80F3  8B EC				mov	bp,sp
2926:80F5  55					push	bp
2926:80F6  81 EC 0002				sub	sp,2
2926:80FA  81 3E 8B4F 0100			cmp	word ptr ds:[8B4Fh],100h	; (2916:8B4F=0)
2926:8100  7C 03				jl	loc_938			; Jump if <
2926:8102  E9 002B				jmp	loc_939			; (8130)
2926:8105			loc_938:
2926:8105  90					nop
2926:8106  B8 8A4F				mov	ax,8A4Fh
2926:8109  03 06 8B4F				add	ax,word ptr ds:[8B4Fh]	; (2916:8B4F=0)
2926:810D  97					xchg	di,ax
2926:810E  468A			data_310	dw	468Ah
2926:8110  04 88 05 1E B8 4F			db	 04h, 88h, 05h, 1Eh,0B8h, 4Fh
2926:8116  8A 50 1E B8 4F 8A			db	 8Ah, 50h, 1Eh,0B8h, 4Fh, 8Ah
2926:811C  97 07 26 8A 05 32			db	 97h, 07h, 26h, 8Ah, 05h, 32h
2926:8122  E4 40 5F 07 26 88			db	0E4h, 40h, 5Fh, 07h, 26h, 88h
2926:8128  05 A1 4F 8B 40 A3			db	 05h,0A1h, 4Fh, 8Bh, 40h,0A3h
2926:812E  4F 8B				db	 4Fh, 8Bh
2926:8130			loc_939:
2926:8130  8B E5				mov	sp,bp
2926:8132  5D					pop	bp
2926:8133  C2 0002				retn	2
2926:8136			loc_940:
2926:8136  55					push	bp
2926:8137  8B EC				mov	bp,sp
           ICON.LST				Sourcer	v8.01  20-Jul-2026 12:15 am   Page 235

2926:8139  55					push	bp
2926:813A  81 EC 0104				sub	sp,104h
2926:813E  16					push	ss
2926:813F  8D 86 FEFE				lea	ax,cs:[0FEFEh][bp]	; Load effective addr
2926:8143  50					push	ax
2926:8144  8B 46 06				mov	ax,[bp+6]
2926:8147  50					push	ax
2926:8148  8B 46 04				mov	ax,[bp+4]
2926:814B  50					push	ax
2926:814C  B8 00FF				mov	ax,0FFh
2926:814F  50					push	ax
2926:8150  E8 E4BF				call	sub_124			; (6612)
2926:8153  16					push	ss
2926:8154  8D 86 FEFE				lea	ax,cs:[0FEFEh][bp]	; Load effective addr
2926:8158  97					xchg	di,ax
2926:8159  07					pop	es
2926:815A  26: 8A 05				mov	al,es:[di]
2926:815D  32 E4				xor	ah,ah			; Zero register
2926:815F  89 86 FEFC				mov	[bp-104h],ax
2926:8163  8B 86 FEFC				mov	ax,[bp-104h]
2926:8167  03 06 8B4F				add	ax,word ptr ds:[8B4Fh]	; (2916:8B4F=0)
2926:816B  3D 0100				cmp	ax,100h
2926:816E  7F 03				jg	loc_941			; Jump if >
2926:8170  E9 0010				jmp	loc_942			; (8183)
2926:8173			loc_941:
2926:8173  B8 0100				mov	ax,100h
2926:8176  50					push	ax
2926:8177  8B 86 FEFC				mov	ax,[bp-104h]
2926:817B  5B					pop	bx
2926:817C  2B D8				sub	bx,ax
2926:817E  93					xchg	bx,ax
2926:817F  89 86 FEFC				mov	[bp-104h],ax
2926:8183			loc_942:
2926:8183  16					push	ss
2926:8184  8D 86 FEFE				lea	ax,cs:[0FEFEh][bp]	; Load effective addr
2926:8188  05 0001				add	ax,1
2926:818B  50					push	ax
2926:818C  1E					push	ds
2926:818D  B8 8A4F				mov	ax,8A4Fh
2926:8190  03 06 8B4F				add	ax,word ptr ds:[8B4Fh]	; (2916:8B4F=0)
2926:8194  50					push	ax
2926:8195  8B 86 FEFC				mov	ax,[bp-104h]
2926:8199  50					push	ax
2926:819A  E8 006A				call	sub_182			; (8207)
2926:819D  1E					push	ds
2926:819E  B8 8A4F				mov	ax,8A4Fh
2926:81A1  50					push	ax
2926:81A2  1E					push	ds
2926:81A3  B8 8A4F				mov	ax,8A4Fh
2926:81A6  97					xchg	di,ax
2926:81A7  07					pop	es
2926:81A8  26: 8A 05				mov	al,es:[di]
2926:81AB  32 E4				xor	ah,ah			; Zero register
2926:81AD  50					push	ax
2926:81AE  8B 86 FEFC				mov	ax,[bp-104h]
2926:81B2  5B					pop	bx
2926:81B3  03 C3				add	ax,bx
           ICON.LST				Sourcer	v8.01  20-Jul-2026 12:15 am   Page 236

2926:81B5  5F					pop	di
2926:81B6  07					pop	es
2926:81B7  26: 88 05				mov	es:[di],al
2926:81BA  A1 8B4F				mov	ax,word ptr ds:[8B4Fh]	; (2916:8B4F=0)
2926:81BD  50					push	ax
2926:81BE  8B 86 FEFC				mov	ax,[bp-104h]
2926:81C2  5B					pop	bx
2926:81C3  03 C3				add	ax,bx
2926:81C5  A3 8B4F				mov	word ptr ds:[8B4Fh],ax	; (2916:8B4F=0)
2926:81C8  8B E5				mov	sp,bp
2926:81CA  5D					pop	bp
2926:81CB  C2 0004				retn	4
				sub_176		endp


				;ßßßßßßßßßßßßßßßßßßßßßßßßßßßßßßßßßßßßßßßßßßßßßßßßßßßßßßßßßßßßßßßßßßßßßßßßßß
				;                              SUBROUTINE
				;ÜÜÜÜÜÜÜÜÜÜÜÜÜÜÜÜÜÜÜÜÜÜÜÜÜÜÜÜÜÜÜÜÜÜÜÜÜÜÜÜÜÜÜÜÜÜÜÜÜÜÜÜÜÜÜÜÜÜÜÜÜÜÜÜÜÜÜÜÜÜÜÜÜÜ

2926:81CE			sub_180		proc	near
2926:81CE  B9 0010				mov	cx,10h
2926:81D1  8B FC				mov	di,sp
2926:81D3  83 C7 02				add	di,2
2926:81D6  8B DC				mov	bx,sp
2926:81D8  83 C3 22				add	bx,22h

2926:81DB			locloop_943:
2926:81DB  36: 8B 05				mov	ax,ss:[di]
2926:81DE  36: 09 07				or	ss:[bx],ax
2926:81E1  83 C7 02				add	di,2
2926:81E4  83 C3 02				add	bx,2
2926:81E7  E2 F2				loop	locloop_943		; Loop if cx > 0

2926:81E9  58					pop	ax
2926:81EA  83 C4 20				add	sp,20h
2926:81ED  50					push	ax
2926:81EE  C3					retn
				sub_180		endp


				;ßßßßßßßßßßßßßßßßßßßßßßßßßßßßßßßßßßßßßßßßßßßßßßßßßßßßßßßßßßßßßßßßßßßßßßßßßß
				;                              SUBROUTINE
				;ÜÜÜÜÜÜÜÜÜÜÜÜÜÜÜÜÜÜÜÜÜÜÜÜÜÜÜÜÜÜÜÜÜÜÜÜÜÜÜÜÜÜÜÜÜÜÜÜÜÜÜÜÜÜÜÜÜÜÜÜÜÜÜÜÜÜÜÜÜÜÜÜÜÜ

2926:81EF			sub_181		proc	near
2926:81EF  55					push	bp
2926:81F0  8B EC				mov	bp,sp
2926:81F2  83 C5 04				add	bp,4
2926:81F5  8B 4E 00				mov	cx,[bp]
2926:81F8  1E					push	ds
2926:81F9  C4 7E 06				les	di,dword ptr [bp+6]	; Load seg:offset ptr
2926:81FC  C5 76 02				lds	si,dword ptr [bp+2]	; Load seg:offset ptr
2926:81FF  FC					cld				; Clear direction
2926:8200  F3/ A4				rep	movsb			; Rep when cx >0 Mov [si] to es:[di]
2926:8202  1F					pop	ds
2926:8203  5D					pop	bp
2926:8204  C2 000A				retn	0Ah
           ICON.LST				Sourcer	v8.01  20-Jul-2026 12:15 am   Page 237

				sub_181		endp


				;ßßßßßßßßßßßßßßßßßßßßßßßßßßßßßßßßßßßßßßßßßßßßßßßßßßßßßßßßßßßßßßßßßßßßßßßßßß
				;                              SUBROUTINE
				;ÜÜÜÜÜÜÜÜÜÜÜÜÜÜÜÜÜÜÜÜÜÜÜÜÜÜÜÜÜÜÜÜÜÜÜÜÜÜÜÜÜÜÜÜÜÜÜÜÜÜÜÜÜÜÜÜÜÜÜÜÜÜÜÜÜÜÜÜÜÜÜÜÜÜ

2926:8207			sub_182		proc	near
2926:8207  E9 0000				jmp	loc_944			; (820A)
2926:820A			loc_944:
2926:820A  55					push	bp
2926:820B  8B EC				mov	bp,sp
2926:820D  83 C5 04				add	bp,4
2926:8210  8B 4E 00				mov	cx,[bp]
2926:8213  1E					push	ds
2926:8214  C4 7E 02				les	di,dword ptr [bp+2]	; Load seg:offset ptr
2926:8217  C5 76 06				lds	si,dword ptr [bp+6]	; Load seg:offset ptr
2926:821A  FC					cld				; Clear direction
2926:821B  F3/ A4				rep	movsb			; Rep when cx >0 Mov [si] to es:[di]
2926:821D  1F					pop	ds
2926:821E  5D					pop	bp
2926:821F  C2 000A				retn	0Ah
				sub_182		endp

2926:8222  55 8B				db	 55h, 8Bh
2926:8224  EC			data_311	db	0ECh
2926:8225  83 C5 04 8B 4E 00			db	 83h,0C5h, 04h, 8Bh, 4Eh, 00h
2926:822B  1E C4 7E 06 03 F9			db	 1Eh,0C4h, 7Eh, 06h, 03h,0F9h
2926:8231  4F					db	4Fh
2926:8232  76C5			data_312	dw	76C5h
2926:8234  0302			data_313	dw	302h
2926:8236  4EF1			data_314	dw	4EF1h
2926:8238  F3FD			data_315	dw	0F3FDh
2926:823A  A4			data_316	db	0A4h
2926:823B  5D1F			data_317	dw	5D1Fh
2926:823D  C2FC			data_318	dw	0C2FCh
2926:823F  000A			data_319	dw	0Ah

				;ßßßßßßßßßßßßßßßßßßßßßßßßßßßßßßßßßßßßßßßßßßßßßßßßßßßßßßßßßßßßßßßßßßßßßßßßßß
				;                              SUBROUTINE
				;ÜÜÜÜÜÜÜÜÜÜÜÜÜÜÜÜÜÜÜÜÜÜÜÜÜÜÜÜÜÜÜÜÜÜÜÜÜÜÜÜÜÜÜÜÜÜÜÜÜÜÜÜÜÜÜÜÜÜÜÜÜÜÜÜÜÜÜÜÜÜÜÜÜÜ

2926:8241			sub_183		proc	near
2926:8241  55			data_320	db	55h
2926:8242  EC8B			data_321	dw	0EC8Bh
2926:8244  C583			data_322	dw	0C583h
2926:8246  8B04			data_323	dw	8B04h
2926:8248  4E 00				db	 4Eh, 00h
2926:824A  C41E			data_324	dw	0C41Eh
2926:824C  027E			data_325	dw	27Eh
2926:824E  F903			data_326	dw	0F903h
2926:8250  C54F			data_327	dw	0C54Fh
2926:8252  0676			data_328	dw	676h
2926:8254  F103			data_329	dw	0F103h
2926:8256  4E			data_330	db	4Eh
2926:8257  FD			data_331	db	0FDh
2926:8258  A4F3			data_332	dw	0A4F3h
           ICON.LST				Sourcer	v8.01  20-Jul-2026 12:15 am   Page 238

2926:825A  5D1F			data_333	dw	5D1Fh
2926:825C  FC C2 0A 00				db	0FCh,0C2h, 0Ah, 00h

				;ßßßß External Entry into Subroutine ßßßßßßßßßßßßßßßßßßßßßßßßßßßßßßßßßßßßßß

2926:8260			sub_184:
2926:8260  5A			data_334	db	5Ah
2926:8261  5B			data_335	db	5Bh
2926:8262  8358			data_336	dw	8358h
2926:8264  20EC			data_337	dw	20ECh
2926:8266  FC8B			data_338	dw	0FC8Bh
2926:8268  50			data_339	db	50h
2926:8269  5253			data_340	dw	5253h
2926:826B  8B55			data_341	dw	8B55h
2926:826D  45EC			data_342	dw	45ECh
2926:826F  45			data_343	db	45h
2926:8270  D18C			data_344	dw	0D18Ch
2926:8272  C18E			data_345	dw	0C18Eh
2926:8274  B9			data_346	db	0B9h
2926:8275  10 00 33 C0 FC F3			db	 10h, 00h, 33h,0C0h,0FCh,0F3h
2926:827B  AB					db	0ABh
2926:827C			loc_945:
2926:827C  8B 46 04				mov	ax,[bp+4]
2926:827F  3B 46 02				cmp	ax,[bp+2]
2926:8282  7F 1E				jg	loc_946			; Jump if >
2926:8284  8B C8				mov	cx,ax
2926:8286  8B D8				mov	bx,ax
2926:8288  B8 0001				mov	ax,1
2926:828B  81 E1 000F				and	cx,0Fh
2926:828F  D3 E0				shl	ax,cl			; Shift w/zeros fill
2926:8291  B1 04				mov	cl,4
2926:8293  D3 EB				shr	bx,cl			; Shift w/zeros fill
2926:8295  D1 E3				shl	bx,1			; Shift w/zeros fill
2926:8297  8B FB				mov	di,bx
2926:8299  09 43 06				or	[bp+di+6],ax
2926:829C  FF 46 04				inc	word ptr [bp+4]
2926:829F  E9 FFDA				jmp	loc_945			; (827C)
2926:82A2			loc_946:
2926:82A2  5D					pop	bp
2926:82A3  C2 0004				retn	4
				sub_183		endp


				;ßßßßßßßßßßßßßßßßßßßßßßßßßßßßßßßßßßßßßßßßßßßßßßßßßßßßßßßßßßßßßßßßßßßßßßßßßß
				;                              SUBROUTINE
				;ÜÜÜÜÜÜÜÜÜÜÜÜÜÜÜÜÜÜÜÜÜÜÜÜÜÜÜÜÜÜÜÜÜÜÜÜÜÜÜÜÜÜÜÜÜÜÜÜÜÜÜÜÜÜÜÜÜÜÜÜÜÜÜÜÜÜÜÜÜÜÜÜÜÜ

2926:82A6			sub_185		proc	near
2926:82A6  5B					pop	bx
2926:82A7  59					pop	cx
2926:82A8  58					pop	ax
2926:82A9  D3 E8				shr	ax,cl			; Shift w/zeros fill
2926:82AB  53					push	bx
2926:82AC  C3					retn
				sub_185		endp


           ICON.LST				Sourcer	v8.01  20-Jul-2026 12:15 am   Page 239

				;ßßßßßßßßßßßßßßßßßßßßßßßßßßßßßßßßßßßßßßßßßßßßßßßßßßßßßßßßßßßßßßßßßßßßßßßßßß
				;                              SUBROUTINE
				;ÜÜÜÜÜÜÜÜÜÜÜÜÜÜÜÜÜÜÜÜÜÜÜÜÜÜÜÜÜÜÜÜÜÜÜÜÜÜÜÜÜÜÜÜÜÜÜÜÜÜÜÜÜÜÜÜÜÜÜÜÜÜÜÜÜÜÜÜÜÜÜÜÜÜ

2926:82AD			sub_186		proc	near
2926:82AD  5B					pop	bx
2926:82AE  59					pop	cx
2926:82AF  58					pop	ax
2926:82B0  D3 E0				shl	ax,cl			; Shift w/zeros fill
2926:82B2  53					push	bx
2926:82B3  C3					retn
				sub_186		endp


				;ßßßßßßßßßßßßßßßßßßßßßßßßßßßßßßßßßßßßßßßßßßßßßßßßßßßßßßßßßßßßßßßßßßßßßßßßßß
				;                              SUBROUTINE
				;ÜÜÜÜÜÜÜÜÜÜÜÜÜÜÜÜÜÜÜÜÜÜÜÜÜÜÜÜÜÜÜÜÜÜÜÜÜÜÜÜÜÜÜÜÜÜÜÜÜÜÜÜÜÜÜÜÜÜÜÜÜÜÜÜÜÜÜÜÜÜÜÜÜÜ

2926:82B4			sub_187		proc	near
2926:82B4  5B					pop	bx
2926:82B5  8B F4				mov	si,sp
2926:82B7  1E					push	ds
2926:82B8  8C D0				mov	ax,ss
2926:82BA  8E D8				mov	ds,ax
2926:82BC  55					push	bp
2926:82BD  8B EC				mov	bp,sp
2926:82BF  83 C5 04				add	bp,4
2926:82C2  C4 7E 20				les	di,dword ptr [bp+20h]	; Load seg:offset ptr
2926:82C5  B9 0020				mov	cx,20h
2926:82C8  FC					cld				; Clear direction
2926:82C9  F3/ A4				rep	movsb			; Rep when cx >0 Mov [si] to es:[di]
2926:82CB  5D					pop	bp
2926:82CC  1F					pop	ds
2926:82CD  83 C4 24				add	sp,24h
2926:82D0  53					push	bx
2926:82D1  C3					retn
				sub_187		endp


				;ßßßßßßßßßßßßßßßßßßßßßßßßßßßßßßßßßßßßßßßßßßßßßßßßßßßßßßßßßßßßßßßßßßßßßßßßßß
				;                              SUBROUTINE
				;ÜÜÜÜÜÜÜÜÜÜÜÜÜÜÜÜÜÜÜÜÜÜÜÜÜÜÜÜÜÜÜÜÜÜÜÜÜÜÜÜÜÜÜÜÜÜÜÜÜÜÜÜÜÜÜÜÜÜÜÜÜÜÜÜÜÜÜÜÜÜÜÜÜÜ

2926:82D2			sub_188		proc	near
2926:82D2  5B					pop	bx
2926:82D3  5E					pop	si
2926:82D4  8C D8				mov	ax,ds
2926:82D6  1F					pop	ds
2926:82D7  83 EC 20				sub	sp,20h
2926:82DA  8C D1				mov	cx,ss
2926:82DC  8E C1				mov	es,cx
2926:82DE  8B FC				mov	di,sp
2926:82E0  B9 0020				mov	cx,20h
2926:82E3  FC					cld				; Clear direction
2926:82E4  F3/ A4				rep	movsb			; Rep when cx >0 Mov [si] to es:[di]
2926:82E6  8E D8				mov	ds,ax
2926:82E8  53					push	bx
           ICON.LST				Sourcer	v8.01  20-Jul-2026 12:15 am   Page 240

2926:82E9  C3					retn
				sub_188		endp


				;ßßßßßßßßßßßßßßßßßßßßßßßßßßßßßßßßßßßßßßßßßßßßßßßßßßßßßßßßßßßßßßßßßßßßßßßßßß
				;                              SUBROUTINE
				;ÜÜÜÜÜÜÜÜÜÜÜÜÜÜÜÜÜÜÜÜÜÜÜÜÜÜÜÜÜÜÜÜÜÜÜÜÜÜÜÜÜÜÜÜÜÜÜÜÜÜÜÜÜÜÜÜÜÜÜÜÜÜÜÜÜÜÜÜÜÜÜÜÜÜ

2926:82EA			sub_189		proc	near
2926:82EA  5A					pop	dx
2926:82EB  5B					pop	bx
2926:82EC  83 EC 20				sub	sp,20h
2926:82EF  8B FC				mov	di,sp
2926:82F1  8C D1				mov	cx,ss
2926:82F3  8E C1				mov	es,cx
2926:82F5  C033			data_347	dw	0C033h
2926:82F7  10B9			data_348	dw	10B9h
2926:82F9  FC00			data_349	dw	0FC00h
2926:82FB  ABF3			data_350	dw	0ABF3h
2926:82FD  8B FC 8B CB 81 E1			db	 8Bh,0FCh, 8Bh,0CBh, 81h,0E1h
2926:8303  0F 00 B8 01 00 D3			db	 0Fh, 00h,0B8h, 01h, 00h,0D3h
2926:8309  E0 B1 04 D3 EB D1			db	0E0h,0B1h, 04h,0D3h,0EBh,0D1h
2926:830F  E3 36 89 01 52 C3			db	0E3h, 36h, 89h, 01h, 52h,0C3h

				;ßßßß External Entry into Subroutine ßßßßßßßßßßßßßßßßßßßßßßßßßßßßßßßßßßßßßß

2926:8315			sub_190:
2926:8315  5B					pop	bx
2926:8316  58					pop	ax
2926:8317  2E: 3B 07				cmp	ax,cs:[bx]
2926:831A  7C 20				jl	loc_947			; Jump if <
2926:831C  2E: 8B 0F				mov	cx,cs:[bx]
2926:831F  2E: 03 4F 02				add	cx,cs:[bx+2]
2926:8323  3B C1				cmp	ax,cx
2926:8325  7F 15				jg	loc_947			; Jump if >
2926:8327  2E: 2B 07				sub	ax,cs:[bx]
2926:832A  D1 E0				shl	ax,1			; Shift w/zeros fill
2926:832C  8B F0				mov	si,ax
2926:832E  2E: 8B 40 04				mov	ax,cs:[bx+si+4]
2926:8332  8D 58 04				lea	bx,[bx+si+4]		; Load effective addr
2926:8335  03 C3				add	ax,bx
2926:8337  05 0002				add	ax,2
2926:833A  FF E0				jmp	ax			;*Register jump
2926:833C			loc_947:
2926:833C  2E: 8B 47 02				mov	ax,cs:[bx+2]
2926:8340  40					inc	ax
2926:8341  D1 E0				shl	ax,1			; Shift w/zeros fill
2926:8343  8B F0				mov	si,ax
2926:8345  2E: 8B 40 04				mov	ax,cs:[bx+si+4]
2926:8349  8D 58 04				lea	bx,[bx+si+4]		; Load effective addr
2926:834C  03 C3				add	ax,bx
2926:834E  05 0002				add	ax,2
2926:8351  FF E0				jmp	ax			;*Register jump

				;ßßßß External Entry into Subroutine ßßßßßßßßßßßßßßßßßßßßßßßßßßßßßßßßßßßßßß

2926:8353			sub_191:
           ICON.LST				Sourcer	v8.01  20-Jul-2026 12:15 am   Page 241

2926:8353  33 C0				xor	ax,ax			; Zero register
2926:8355  8B F0				mov	si,ax
2926:8357  E9 02B6				jmp	$+2B9h
				sub_189		endp


				;ßßßßßßßßßßßßßßßßßßßßßßßßßßßßßßßßßßßßßßßßßßßßßßßßßßßßßßßßßßßßßßßßßßßßßßßßßß
				;                              SUBROUTINE
				;ÜÜÜÜÜÜÜÜÜÜÜÜÜÜÜÜÜÜÜÜÜÜÜÜÜÜÜÜÜÜÜÜÜÜÜÜÜÜÜÜÜÜÜÜÜÜÜÜÜÜÜÜÜÜÜÜÜÜÜÜÜÜÜÜÜÜÜÜÜÜÜÜÜÜ

2926:835A			sub_192		proc	near
2926:835A  5B					pop	bx
2926:835B  58					pop	ax
2926:835C  59					pop	cx
2926:835D  5F					pop	di
2926:835E  07					pop	es
2926:835F  51					push	cx
2926:8360  D1 E9				shr	cx,1			; Shift w/zeros fill
2926:8362  8A E0				mov	ah,al
2926:8364  FC					cld				; Clear direction
2926:8365  F3/ AB				rep	stosw			; Rep when cx >0 Store ax to es:[di]
2926:8367  59					pop	cx
2926:8368  81 E1 0001				and	cx,1
2926:836C  74 01				jz	loc_948			; Jump if zero
2926:836E  AA					stosb				; Store al to es:[di]
2926:836F			loc_948:
2926:836F  53					push	bx
2926:8370  C3					retn
				sub_192		endp

2926:8371  E9 00 00				db	0E9h, 00h, 00h

				;ßßßßßßßßßßßßßßßßßßßßßßßßßßßßßßßßßßßßßßßßßßßßßßßßßßßßßßßßßßßßßßßßßßßßßßßßßß
				;                              SUBROUTINE
				;ÜÜÜÜÜÜÜÜÜÜÜÜÜÜÜÜÜÜÜÜÜÜÜÜÜÜÜÜÜÜÜÜÜÜÜÜÜÜÜÜÜÜÜÜÜÜÜÜÜÜÜÜÜÜÜÜÜÜÜÜÜÜÜÜÜÜÜÜÜÜÜÜÜÜ

2926:8374			sub_193		proc	near
2926:8374			loc_949:
2926:8374  E9 0000				jmp	loc_950			; (8377)
2926:8377			loc_950:
2926:8377  55					push	bp
2926:8378  8B EC				mov	bp,sp
2926:837A  55					push	bp
2926:837B  81 EC 0002				sub	sp,2
2926:837F  C4 7E 0A				les	di,dword ptr [bp+0Ah]	; Load seg:offset ptr
2926:8382  06					push	es
2926:8383  B857 0039		data_351	dw	0B857h, 39h
2926:8387  B850 0000		data_353	dw	0B850h, 0
2926:838B  E850 FFCB		data_355	dw	0E850h, 0FFCBh
2926:838F  7EC4 060A		data_357	dw	7EC4h, 60Ah
2926:8393  C457 047E		data_359	dw	0C457h, 47Eh
2926:8397  5706			data_361	dw	5706h
2926:8399  25B8			data_362	dw	25B8h
2926:839B  5000			data_363	dw	5000h
2926:839D  72E8			data_364	dw	72E8h
2926:839F  8BE2			data_365	dw	8BE2h
2926:83A1  5DE5			data_366	dw	5DE5h
           ICON.LST				Sourcer	v8.01  20-Jul-2026 12:15 am   Page 242

2926:83A3  0AC2			data_367	dw	0AC2h
2926:83A5  5F00			data_368	dw	5F00h
2926:83A7  595A			data_369	dw	595Ah
2926:83A9  585B			data_370	dw	585Bh
2926:83AB  C13B			data_371	dw	0C13Bh
2926:83AD  0975			data_372	dw	975h
2926:83AF  DA3B 0575		data_373	dw	0DA3Bh, 575h
2926:83B3			loc_951:
2926:83B3  01B8			data_375	dw	1B8h
2926:83B5  00 FF E7				db	 00h,0FFh,0E7h
2926:83B8			loc_952:
2926:83B8  33 C0				xor	ax,ax			; Zero register
2926:83BA  FF E7				jmp	di			;*Register jump

				;ßßßß External Entry into Subroutine ßßßßßßßßßßßßßßßßßßßßßßßßßßßßßßßßßßßßßß

2926:83BC			sub_194:
2926:83BC  5F					pop	di
2926:83BD  5A					pop	dx
2926:83BE  59					pop	cx
2926:83BF  5B					pop	bx
2926:83C0  58					pop	ax
2926:83C1  3B C1				cmp	ax,cx
2926:83C3  75 EE				jne	loc_951			; Jump if not equal
2926:83C5  3B DA				cmp	bx,dx
2926:83C7  74 EF				je	loc_952			; Jump if equal
2926:83C9  EB E8				jmp	short loc_951		; (83B3)
				sub_193		endp

							                        ;* No entry point to code
2926:83CB  5E					pop	si
2926:83CC  E8 0038				call	sub_196			; (8407)
2926:83CF  8B FE				mov	di,si
2926:83D1  0B DB				or	bx,bx			; Zero ?
2926:83D3  78 E3				js	loc_952			; Jump if sign=1
2926:83D5  0B C3				or	ax,bx
2926:83D7  74 DF				jz	loc_952			; Jump if zero
2926:83D9  EB D8				jmp	short loc_951		; (83B3)
							                        ;* No entry point to code
2926:83DB  5E					pop	si
2926:83DC  E8 0028				call	sub_196			; (8407)
2926:83DF  8B FE				mov	di,si
2926:83E1  0B DB				or	bx,bx			; Zero ?
2926:83E3  78 CE				js	loc_951			; Jump if sign=1
2926:83E5  EB D1				jmp	short loc_952		; (83B8)

				;ßßßßßßßßßßßßßßßßßßßßßßßßßßßßßßßßßßßßßßßßßßßßßßßßßßßßßßßßßßßßßßßßßßßßßßßßßß
				;                              SUBROUTINE
				;ÜÜÜÜÜÜÜÜÜÜÜÜÜÜÜÜÜÜÜÜÜÜÜÜÜÜÜÜÜÜÜÜÜÜÜÜÜÜÜÜÜÜÜÜÜÜÜÜÜÜÜÜÜÜÜÜÜÜÜÜÜÜÜÜÜÜÜÜÜÜÜÜÜÜ

2926:83E7			sub_195		proc	near
2926:83E7  5E					pop	si
2926:83E8  E8 001C				call	sub_196			; (8407)
2926:83EB  8B FE				mov	di,si
2926:83ED  0B C3				or	ax,bx
2926:83EF  74 C2				jz	loc_951			; Jump if zero
2926:83F1  0B DB				or	bx,bx			; Zero ?
           ICON.LST				Sourcer	v8.01  20-Jul-2026 12:15 am   Page 243

2926:83F3  78 C3				js	loc_952			; Jump if sign=1
2926:83F5  EB BC				jmp	short loc_951		; (83B3)
				sub_195		endp

							                        ;* No entry point to code
2926:83F7  5E					pop	si
2926:83F8  E8 000C				call	sub_196			; (8407)
2926:83FB  8B FE				mov	di,si
2926:83FD  0B C3				or	ax,bx
2926:83FF  74 B2				jz	loc_951			; Jump if zero
2926:8401  0B DB				or	bx,bx			; Zero ?
2926:8403  78 AE				js	loc_951			; Jump if sign=1
2926:8405  EB B1				jmp	short loc_952		; (83B8)

				;ßßßßßßßßßßßßßßßßßßßßßßßßßßßßßßßßßßßßßßßßßßßßßßßßßßßßßßßßßßßßßßßßßßßßßßßßßß
				;                              SUBROUTINE
				;ÜÜÜÜÜÜÜÜÜÜÜÜÜÜÜÜÜÜÜÜÜÜÜÜÜÜÜÜÜÜÜÜÜÜÜÜÜÜÜÜÜÜÜÜÜÜÜÜÜÜÜÜÜÜÜÜÜÜÜÜÜÜÜÜÜÜÜÜÜÜÜÜÜÜ

2926:8407			sub_196		proc	near
2926:8407  5F					pop	di
2926:8408  59					pop	cx
2926:8409  5A					pop	dx
2926:840A  58					pop	ax
2926:840B  5B					pop	bx
2926:840C  2B C1				sub	ax,cx
2926:840E  1B DA				sbb	bx,dx
2926:8410  FF E7				jmp	di			;*
							                        ;* No entry point to code
2926:8412  55					push	bp
2926:8413  8B EC				mov	bp,sp
2926:8415  83 EC 0E				sub	sp,0Eh
2926:8418  C7 46 F2 0001			mov	word ptr [bp-0Eh],1
2926:841D  EB 0B				jmp	short loc_953		; (842A)

				;ßßßß External Entry into Subroutine ßßßßßßßßßßßßßßßßßßßßßßßßßßßßßßßßßßßßßß

2926:841F			sub_197:
2926:841F  55					push	bp
2926:8420  8B EC				mov	bp,sp
2926:8422  83 EC 0E				sub	sp,0Eh
2926:8425  C7 46 F2 0000			mov	word ptr [bp-0Eh],0
2926:842A			loc_953:
2926:842A  8B 46 0A				mov	ax,[bp+0Ah]
2926:842D  33 46 06				xor	ax,[bp+6]
2926:8430  89 46 FE				mov	[bp-2],ax
2926:8433  F7 46 0A 8000			test	word ptr [bp+0Ah],8000h
2926:8438  74 0E				jz	loc_954			; Jump if zero
2926:843A  F7 56 08				not	word ptr [bp+8]
2926:843D  F7 56 0A				not	word ptr [bp+0Ah]
2926:8440  83 46 08 01				add	word ptr [bp+8],1
2926:8444  83 56 0A 00				adc	word ptr [bp+0Ah],0
2926:8448			loc_954:
2926:8448  F7 46 06 8000			test	word ptr [bp+6],8000h
2926:844D  74 0E				jz	loc_955			; Jump if zero
2926:844F  F7 56 06				not	word ptr [bp+6]
2926:8452  F7 56 04				not	word ptr [bp+4]
2926:8455  83 46 04 01				add	word ptr [bp+4],1
           ICON.LST				Sourcer	v8.01  20-Jul-2026 12:15 am   Page 244

2926:8459  83 56 06 00				adc	word ptr [bp+6],0
2926:845D			loc_955:
2926:845D  B9 0020				mov	cx,20h
2926:8460  8B 46 04				mov	ax,[bp+4]
2926:8463  0B 46 06				or	ax,[bp+6]
2926:8466  75 03				jnz	loc_956			; Jump if not zero
2926:8468  E9 0091				jmp	loc_962			; (84FC)
2926:846B			loc_956:
2926:846B  C7 46 FA 0000			mov	word ptr [bp-6],0
2926:8470  C7 46 F8 0000			mov	word ptr [bp-8],0
2926:8475  C7 46 F6 0000			mov	word ptr [bp-0Ah],0
2926:847A  C7 46 F4 0000			mov	word ptr [bp-0Ch],0

2926:847F			locloop_957:
2926:847F  F8					clc				; Clear carry flag
2926:8480  D1 56 08				rcl	word ptr [bp+8],1	; Rotate thru carry
2926:8483  D1 56 0A				rcl	word ptr [bp+0Ah],1	; Rotate thru carry
2926:8486  D1 56 F4				rcl	word ptr [bp-0Ch],1	; Rotate thru carry
2926:8489  D1 56 F6				rcl	word ptr [bp-0Ah],1	; Rotate thru carry
2926:848C  51					push	cx
2926:848D  FF 76 F6				push	word ptr [bp-0Ah]
2926:8490  FF 76 F4				push	word ptr [bp-0Ch]
2926:8493  FF 76 06				push	word ptr [bp+6]
2926:8496  FF 76 04				push	word ptr [bp+4]
2926:8499  E8 FF4B				call	sub_195			; (83E7)
2926:849C  59					pop	cx
2926:849D  D0 D8				rcr	al,1			; Rotate thru carry
2926:849F  73 22				jnc	loc_958			; Jump if carry=0
2926:84A1  51					push	cx
2926:84A2  FF 76 F6				push	word ptr [bp-0Ah]
2926:84A5  FF 76 F4				push	word ptr [bp-0Ch]
2926:84A8  FF 76 06				push	word ptr [bp+6]
2926:84AB  FF 76 04				push	word ptr [bp+4]
2926:84AE  E8 FF56				call	sub_196			; (8407)
2926:84B1  59					pop	cx
2926:84B2  89 46 F4				mov	[bp-0Ch],ax
2926:84B5  89 5E F6				mov	[bp-0Ah],bx
2926:84B8  F9					stc				; Set carry flag
2926:84B9  D1 56 F8				rcl	word ptr [bp-8],1	; Rotate thru carry
2926:84BC  D1 56 FA				rcl	word ptr [bp-6],1	; Rotate thru carry
2926:84BF  E2 BE				loop	locloop_957		; Loop if cx > 0

2926:84C1  EB 09				jmp	short loc_959		; (84CC)
2926:84C3			loc_958:
2926:84C3  F8					clc				; Clear carry flag
2926:84C4  D1 56 F8				rcl	word ptr [bp-8],1	; Rotate thru carry
2926:84C7  D1 56 FA				rcl	word ptr [bp-6],1	; Rotate thru carry
2926:84CA  E2 B3				loop	locloop_957		; Loop if cx > 0

2926:84CC			loc_959:
2926:84CC  F7 46 F2 0001			test	word ptr [bp-0Eh],1
2926:84D1  75 1D				jnz	loc_961			; Jump if not zero
2926:84D3  8B 46 F8				mov	ax,[bp-8]
2926:84D6  8B 5E FA				mov	bx,[bp-6]
2926:84D9  F7 46 FE 8000			test	word ptr [bp-2],8000h
2926:84DE  74 0A				jz	loc_960			; Jump if zero
2926:84E0  F7 D0				not	ax
           ICON.LST				Sourcer	v8.01  20-Jul-2026 12:15 am   Page 245

2926:84E2  F7 D3				not	bx
2926:84E4  05 0001				add	ax,1
2926:84E7  83 D3 00				adc	bx,0
2926:84EA			loc_960:
2926:84EA  8B E5				mov	sp,bp
2926:84EC  5D					pop	bp
2926:84ED  C2 0008				retn	8
2926:84F0			loc_961:
2926:84F0  8B 46 F4				mov	ax,[bp-0Ch]
2926:84F3  8B 5E F6				mov	bx,[bp-0Ah]
2926:84F6  8B E5				mov	sp,bp
2926:84F8  5D					pop	bp
2926:84F9  C2 0008				retn	8
2926:84FC			loc_962:
2926:84FC  C2 0008				retn	8
				sub_196		endp

							                        ;* No entry point to code
2926:84FF  5F					pop	di
2926:8500  58					pop	ax
2926:8501  5B					pop	bx
2926:8502  F7 D0				not	ax
2926:8504  F7 D3				not	bx
2926:8506  05 0001				add	ax,1
2926:8509  83 D3 00				adc	bx,0
2926:850C  53					push	bx
2926:850D  50					push	ax
2926:850E  FF E7				jmp	di			;*
							                        ;* No entry point to code
2926:8510  5A					pop	dx
2926:8511  5F					pop	di
2926:8512  07					pop	es
2926:8513  26: 8A 05				mov	al,es:[di]
2926:8516  32 E4				xor	ah,ah			; Zero register
2926:8518  50					push	ax
2926:8519  FF E2				jmp	dx			;*
							                        ;* No entry point to code
2926:851B  5A					pop	dx
2926:851C  5F					pop	di
2926:851D  07					pop	es
2926:851E  26: 8B 05				mov	ax,es:[di]
2926:8521  50					push	ax
2926:8522  FF E2				jmp	dx			;*
							                        ;* No entry point to code
2926:8524  5A					pop	dx
2926:8525  5F					pop	di
2926:8526  07					pop	es
2926:8527  26: 8B 45 02				mov	ax,es:[di+2]
2926:852B  50					push	ax
2926:852C  26: 8B 05				mov	ax,es:[di]
2926:852F  50					push	ax
2926:8530  FF E2				jmp	dx			;*
							                        ;* No entry point to code
2926:8532  5A					pop	dx
2926:8533  58					pop	ax
2926:8534  5F					pop	di
2926:8535  07					pop	es
           ICON.LST				Sourcer	v8.01  20-Jul-2026 12:15 am   Page 246

2926:8536  26: 88 05				mov	es:[di],al
2926:8539  FF E2				jmp	dx			;*
							                        ;* No entry point to code
2926:853B  5A					pop	dx
2926:853C  58					pop	ax
2926:853D  5F					pop	di
2926:853E  07					pop	es
2926:853F  26: 89 05				mov	es:[di],ax
2926:8542  FF E2				jmp	dx			;*Register jump

				;ßßßßßßßßßßßßßßßßßßßßßßßßßßßßßßßßßßßßßßßßßßßßßßßßßßßßßßßßßßßßßßßßßßßßßßßßßß
				;                              SUBROUTINE
				;ÜÜÜÜÜÜÜÜÜÜÜÜÜÜÜÜÜÜÜÜÜÜÜÜÜÜÜÜÜÜÜÜÜÜÜÜÜÜÜÜÜÜÜÜÜÜÜÜÜÜÜÜÜÜÜÜÜÜÜÜÜÜÜÜÜÜÜÜÜÜÜÜÜÜ

2926:8544			sub_198		proc	near
2926:8544  5A					pop	dx
2926:8545  58					pop	ax
2926:8546  5B					pop	bx
2926:8547  5F					pop	di
2926:8548  07					pop	es
2926:8549  26: 89 05				mov	es:[di],ax
2926:854C  26: 89 5D 02				mov	es:[di+2],bx
2926:8550  FF E2				jmp	dx			;*Register jump
2926:8552  FF 2E 83 83				db	0FFh, 2Eh, 83h, 83h

				;ßßßß External Entry into Subroutine ßßßßßßßßßßßßßßßßßßßßßßßßßßßßßßßßßßßßßß

2926:8556			sub_199:
2926:8556  FF 2E 8387				jmp	dword ptr data_353	; (2926:8387=0B850h)
				sub_198		endp


				;ßßßßßßßßßßßßßßßßßßßßßßßßßßßßßßßßßßßßßßßßßßßßßßßßßßßßßßßßßßßßßßßßßßßßßßßßßß
				;                              SUBROUTINE
				;ÜÜÜÜÜÜÜÜÜÜÜÜÜÜÜÜÜÜÜÜÜÜÜÜÜÜÜÜÜÜÜÜÜÜÜÜÜÜÜÜÜÜÜÜÜÜÜÜÜÜÜÜÜÜÜÜÜÜÜÜÜÜÜÜÜÜÜÜÜÜÜÜÜÜ

2926:855A			sub_200		proc	near
2926:855A  8C D8				mov	ax,ds
2926:855C  C3					retn
				sub_200		endp

							                        ;* No entry point to code
2926:855D  5B					pop	bx
2926:855E  59					pop	cx
2926:855F  5A					pop	dx
2926:8560  58					pop	ax
2926:8561  8A F0				mov	dh,al
2926:8563  B4 2B				mov	ah,2Bh			; '+'
2926:8565  06					push	es
2926:8566  CD 21				int	21h			; DOS Services  ah=function 2Bh
										;  set date, cx=year, dx=mon/day
2926:8568  07					pop	es
2926:8569  32 E4				xor	ah,ah			; Zero register
2926:856B  FF E3				jmp	bx			;*
							                        ;* No entry point to code
2926:856D  5B					pop	bx
2926:856E  B4 2A				mov	ah,2Ah			; '*'
           ICON.LST				Sourcer	v8.01  20-Jul-2026 12:15 am   Page 247

2926:8570  06					push	es
2926:8571  CD 21				int	21h			; DOS Services  ah=function 2Ah
										;  get date, cx=year, dh=month
										;   dl=day, al=day-of-week 0=SUN
2926:8573  07					pop	es
2926:8574  32 E4				xor	ah,ah			; Zero register
2926:8576  8B F0				mov	si,ax
2926:8578  5F					pop	di
2926:8579  07					pop	es
2926:857A  26: 89 0D				mov	es:[di],cx
2926:857D  5F					pop	di
2926:857E  07					pop	es
2926:857F  8A C2				mov	al,dl
2926:8581  26: 89 05				mov	es:[di],ax
2926:8584  5F					pop	di
2926:8585  07					pop	es
2926:8586  8A C6				mov	al,dh
2926:8588  26: 89 05				mov	es:[di],ax
2926:858B  8B C6				mov	ax,si
2926:858D  FF E3				jmp	bx			;*
							                        ;* No entry point to code
2926:858F  5B					pop	bx
2926:8590  5A					pop	dx
2926:8591  58					pop	ax
2926:8592  8A F0				mov	dh,al
2926:8594  59					pop	cx
2926:8595  58					pop	ax
2926:8596  8A E8				mov	ch,al
2926:8598  B4 2D				mov	ah,2Dh			; '-'
2926:859A  06					push	es
2926:859B  CD 21				int	21h			; DOS Services  ah=function 2Dh
										;  set time, cx=hrs/min, dx=sec
2926:859D  07					pop	es
2926:859E  32 E4				xor	ah,ah			; Zero register
2926:85A0  FF E3				jmp	bx			;*Register jump

				;ßßßßßßßßßßßßßßßßßßßßßßßßßßßßßßßßßßßßßßßßßßßßßßßßßßßßßßßßßßßßßßßßßßßßßßßßßß
				;                              SUBROUTINE
				;ÜÜÜÜÜÜÜÜÜÜÜÜÜÜÜÜÜÜÜÜÜÜÜÜÜÜÜÜÜÜÜÜÜÜÜÜÜÜÜÜÜÜÜÜÜÜÜÜÜÜÜÜÜÜÜÜÜÜÜÜÜÜÜÜÜÜÜÜÜÜÜÜÜÜ

2926:85A2			sub_201		proc	near
2926:85A2  5B					pop	bx
2926:85A3  B4 2C				mov	ah,2Ch			; ','
2926:85A5  06					push	es
2926:85A6  CD 21				int	21h			; DOS Services  ah=function 2Ch
										;  get time, cx=hrs/min, dx=sec
2926:85A8  07					pop	es
2926:85A9  32 E4				xor	ah,ah			; Zero register
2926:85AB  8B F0				mov	si,ax
2926:85AD  5F					pop	di
2926:85AE  07					pop	es
2926:85AF  8A C2				mov	al,dl
2926:85B1  26: 89 05				mov	es:[di],ax
2926:85B4  5F					pop	di
2926:85B5  07					pop	es
2926:85B6  8A C6				mov	al,dh
2926:85B8  26: 89 05				mov	es:[di],ax
           ICON.LST				Sourcer	v8.01  20-Jul-2026 12:15 am   Page 248

2926:85BB  5F					pop	di
2926:85BC  07					pop	es
2926:85BD  8A C1				mov	al,cl
2926:85BF  26: 89 05				mov	es:[di],ax
2926:85C2  5F					pop	di
2926:85C3  07					pop	es
2926:85C4  8A C5				mov	al,ch
2926:85C6  26: 89 05				mov	es:[di],ax
2926:85C9  8B C6				mov	ax,si
2926:85CB  FF E3				jmp	bx			;*Register jump

				;ßßßß External Entry into Subroutine ßßßßßßßßßßßßßßßßßßßßßßßßßßßßßßßßßßßßßß

2926:85CD			sub_202:
2926:85CD  5B					pop	bx
2926:85CE  5A					pop	dx
2926:85CF  07					pop	es
2926:85D0  58					pop	ax
2926:85D1  53					push	bx
2926:85D2  3C 1A				cmp	al,1Ah
2926:85D4  75 0A				jne	loc_963			; Jump if not equal
2926:85D6  8C 06 8B51				mov	ds:data_377e,es		; (2926:8B51=0)
2926:85DA  C7 06 8B55 00FF			mov	word ptr ds:data_378e,0FFh	; (2926:8B55=0)
2926:85E0			loc_963:
2926:85E0  55					push	bp
2926:85E1  2A E4				sub	ah,ah
2926:85E3  8B F0				mov	si,ax
2926:85E5  8A E0				mov	ah,al
2926:85E7  E8 0026				call	$+29h
2926:85EA  5D					pop	bp
2926:85EB  32 E4				xor	ah,ah			; Zero register
2926:85ED  C3					retn
				sub_201		endp


				;ßßßßßßßßßßßßßßßßßßßßßßßßßßßßßßßßßßßßßßßßßßßßßßßßßßßßßßßßßßßßßßßßßßßßßßßßßß
				;                              SUBROUTINE
				;ÜÜÜÜÜÜÜÜÜÜÜÜÜÜÜÜÜÜÜÜÜÜÜÜÜÜÜÜÜÜÜÜÜÜÜÜÜÜÜÜÜÜÜÜÜÜÜÜÜÜÜÜÜÜÜÜÜÜÜÜÜÜÜÜÜÜÜÜÜÜÜÜÜÜ

2926:85EE			sub_203		proc	near
2926:85EE  5B					pop	bx
2926:85EF  5A					pop	dx
2926:85F0  58					pop	ax
2926:85F1  53					push	bx
2926:85F2  55					push	bp
2926:85F3  2A E4				sub	ah,ah
2926:85F5  8B F0				mov	si,ax
2926:85F7  8A E0				mov	ah,al
2926:85F9  E8 0014				call	$+17h
2926:85FC  5D					pop	bp
2926:85FD  C3					retn
				sub_203		endp


				;ßßßßßßßßßßßßßßßßßßßßßßßßßßßßßßßßßßßßßßßßßßßßßßßßßßßßßßßßßßßßßßßßßßßßßßßßßß
				;                              SUBROUTINE
				;ÜÜÜÜÜÜÜÜÜÜÜÜÜÜÜÜÜÜÜÜÜÜÜÜÜÜÜÜÜÜÜÜÜÜÜÜÜÜÜÜÜÜÜÜÜÜÜÜÜÜÜÜÜÜÜÜÜÜÜÜÜÜÜÜÜÜÜÜÜÜÜÜÜÜ
           ICON.LST				Sourcer	v8.01  20-Jul-2026 12:15 am   Page 249


2926:85FE			sub_204		proc	near
2926:85FE  5B					pop	bx
2926:85FF  8C D9				mov	cx,ds
				sub_204		endp


				seg_a		ends



						end	start
