            ICON2.lst       ICON2.OVL				Sourcer	v8.01  20-Jul-2026 12:24 am   Page 1


				PAGE  59,132

				;ŰŰŰŰŰŰŰŰŰŰŰŰŰŰŰŰŰŰŰŰŰŰŰŰŰŰŰŰŰŰŰŰŰŰŰŰŰŰŰŰŰŰŰŰŰŰŰŰŰŰŰŰŰŰŰŰŰŰŰŰŰŰŰŰŰŰŰŰŰŰŰŰŰŰ
				;ŰŰ					                                 ŰŰ
				;ŰŰ				ICON2	                                 ŰŰ
				;ŰŰ					                                 ŰŰ
				;ŰŰ      Created:   20-Jul-26		                                 ŰŰ
				;ŰŰ      Code type: overlay		                                 ŰŰ
				;ŰŰ      Passes:    5          Analysis	Options on: QRS                  ŰŰ
				;ŰŰ      Warning:   The stack segment is in the code segment.   For      ŰŰ
				;ŰŰ                 program reassembly,	when linking the file, the       ŰŰ
				;ŰŰ                 option  /STACK:0X0080  must be used.                 ŰŰ
				;ŰŰ					                                 ŰŰ
				;ŰŰŰŰŰŰŰŰŰŰŰŰŰŰŰŰŰŰŰŰŰŰŰŰŰŰŰŰŰŰŰŰŰŰŰŰŰŰŰŰŰŰŰŰŰŰŰŰŰŰŰŰŰŰŰŰŰŰŰŰŰŰŰŰŰŰŰŰŰŰŰŰŰŰ

				target		EQU   'M5'                      ; Target assembler: MASM-5.1

				include  srmacros.inc


				; The following equates show data references outside the range of the program.

     = 0014			data_1e		equ	14h			; (0000:0014=54h)
     = 0020			data_2e		equ	20h			; (0000:0020=0A5h)
     = 0024			data_3e		equ	24h			; (0000:0024=87h)
     = 006C			data_4e		equ	6Ch			; (0000:006C=60h)
     = 0070			data_5e		equ	70h			; (0000:0070=60h)
     = 0074			data_6e		equ	74h			; (0000:0074=0A4h)
     = 008C			data_7e		equ	8Ch			; (0000:008C=91h)
     = 00DE			data_8e		equ	0DEh			; (0000:00DE=0F000h)
     = 0180			data_9e		equ	180h			; (0000:0180=0)
     = 0184			data_10e	equ	184h			; (0000:0184=0)
     = 0188			data_11e	equ	188h			; (0000:0188=0)
     = 0821			data_12e	equ	821h			;*(0000:0821=0FFh)
     = 0827			data_13e	equ	827h			;*(0000:0827=0FFh)
     = 0ADE			data_14e	equ	0ADEh			;*(0000:0ADE=0)
     = 26B1			data_15e	equ	26B1h			;*(0000:26B1=9Ah)
     = 44DE			data_16e	equ	44DEh			;*(0000:44DE=1EC7h)
     = AADE			data_17e	equ	0AADEh			;*(0000:AADE=472Ch)
     = B020			data_18e	equ	0B020h			;*(0000:B020=0FF1Dh)
     = DEA2			data_19e	equ	0DEA2h			;*(0000:DEA2=0A3h)
     = 0065			data_20e	equ	65h			; (0040:0065=29h)
     = 8272			data_21e	equ	8272h			;*(2073:8272=0)
     = 0002			data_22e	equ	2			; (2916:0002=0)
     = 0124			data_23e	equ	124h			;*(2916:0124=0)
     = 0126			data_24e	equ	126h			;*(2916:0126=0)
     = 8232			data_25e	equ	8232h			;*(2916:8232=0)
     = 8234			data_26e	equ	8234h			;*(2916:8234=0)
     = 824A			data_27e	equ	824Ah			;*(2916:824A=0)
     = 824C			data_28e	equ	824Ch			;*(2916:824C=0)
     = 8257			data_29e	equ	8257h			;*(2916:8257=0)
     = 8260			data_30e	equ	8260h			;*(2916:8260=0)
     = 8261			data_31e	equ	8261h			;*(2916:8261=0)
     = 8262			data_32e	equ	8262h			;*(2916:8262=0)
     = 8264			data_33e	equ	8264h			;*(2916:8264=0)
     = 8269			data_34e	equ	8269h			;*(2916:8269=0)
           ICON2.lst       ICON2.OVL		Sourcer	v8.01  20-Jul-2026 12:24 am   Page 2

     = 826B			data_35e	equ	826Bh			;*(2916:826B=0)
     = 8272			data_36e	equ	8272h			;*(2916:8272=0)
     = 8387			data_37e	equ	8387h			;*(2916:8387=0)
     = 83AF			data_39e	equ	83AFh			;*(2916:83AF=0)
     = 5DAA			data_150e	equ	5DAAh			;*(2926:5DAA=0)
     = 5DAC			data_151e	equ	5DACh			;*(2926:5DAC=0)
     = 5DAE			data_152e	equ	5DAEh			;*(2926:5DAE=0)
     = 5DDC			data_153e	equ	5DDCh			;*(2926:5DDC=0)
     = 5DE2			data_154e	equ	5DE2h			;*(2926:5DE2=0)
     = 5DEC			data_155e	equ	5DECh			;*(2926:5DEC=0)
     = 5DEE			data_156e	equ	5DEEh			;*(2926:5DEE=0)
     = 5DF4			data_157e	equ	5DF4h			;*(2926:5DF4=0)
     = 5E2E			data_158e	equ	5E2Eh			;*(2926:5E2E=0)
     = 8222			data_159e	equ	8222h			;*(2926:8222=0)
     = 8224			data_160e	equ	8224h			;*(2926:8224=0)
     = 8226			data_161e	equ	8226h			;*(2926:8226=0)
     = 8228			data_162e	equ	8228h			;*(2926:8228=0)
     = 822A			data_163e	equ	822Ah			;*(2926:822A=0)
     = 822E			data_164e	equ	822Eh			;*(2926:822E=0)
     = 8232			data_165e	equ	8232h			;*(2926:8232=0)
     = 8234			data_166e	equ	8234h			;*(2926:8234=0)
     = 824A			data_167e	equ	824Ah			;*(2926:824A=0)
     = 824C			data_168e	equ	824Ch			;*(2926:824C=0)
     = 8256			data_169e	equ	8256h			;*(2926:8256=0)
     = 8257			data_170e	equ	8257h			;*(2926:8257=0)
     = 8260			data_171e	equ	8260h			;*(2926:8260=0)
     = 8261			data_172e	equ	8261h			;*(2926:8261=0)
     = 8262			data_173e	equ	8262h			;*(2926:8262=0)
     = 8264			data_174e	equ	8264h			;*(2926:8264=0)
     = 8268			data_175e	equ	8268h			;*(2926:8268=0)
     = 8269			data_176e	equ	8269h			;*(2926:8269=0)
     = 826B			data_177e	equ	826Bh			;*(2926:826B=0)
     = 826D			data_178e	equ	826Dh			;*(2926:826D=0)
     = 8272			data_179e	equ	8272h			;*(2926:8272=0)
     = 82F9			data_180e	equ	82F9h			;*(2926:82F9=0)
     = 82FB			data_181e	equ	82FBh			;*(2926:82FB=0)
     = 8383			data_182e	equ	8383h			;*(2926:8383=0)
     = 8387			data_184e	equ	8387h			;*(2926:8387=0)
     = 838B			data_186e	equ	838Bh			;*(2926:838B=0)
     = 838F			data_188e	equ	838Fh			;*(2926:838F=0)
     = 8393			data_190e	equ	8393h			;*(2926:8393=0)
     = 8397			data_192e	equ	8397h			;*(2926:8397=0)
     = 8399			data_193e	equ	8399h			;*(2926:8399=0)
     = 839B			data_194e	equ	839Bh			;*(2926:839B=0)
     = 839D			data_195e	equ	839Dh			;*(2926:839D=0)
     = 839F			data_196e	equ	839Fh			;*(2926:839F=0)
     = 83A1			data_197e	equ	83A1h			;*(2926:83A1=0)
     = 83A3			data_198e	equ	83A3h			;*(2926:83A3=0)
     = 83A5			data_199e	equ	83A5h			;*(2926:83A5=0)
     = 83A7			data_200e	equ	83A7h			;*(2926:83A7=0)
     = 83A9			data_201e	equ	83A9h			;*(2926:83A9=0)
     = 83AB			data_202e	equ	83ABh			;*(2926:83AB=0)
     = 83AD			data_203e	equ	83ADh			;*(2926:83AD=0)
     = 83AF			data_204e	equ	83AFh			;*(2926:83AF=0)
     = 83B3			data_206e	equ	83B3h			;*(2926:83B3=0)
     = 8B4F			data_207e	equ	8B4Fh			;*(2926:8B4F=0)
     = 8B51			data_208e	equ	8B51h			;*(2926:8B51=0)
           ICON2.lst       ICON2.OVL		Sourcer	v8.01  20-Jul-2026 12:24 am   Page 3

     = 8B53			data_209e	equ	8B53h			;*(2926:8B53=0)
     = 8B55			data_210e	equ	8B55h			;*(2926:8B55=0)
     = 91B0			data_211e	equ	91B0h			;*(2926:91B0=0)
     = 99DE			data_212e	equ	99DEh			;*(2926:99DE=0)
     = AADE			data_213e	equ	0AADEh			;*(2926:AADE=0)
     = B019			data_214e	equ	0B019h			;*(2926:B019=0)
     = B082			data_215e	equ	0B082h			;*(2926:B082=0)
     = DE20			data_216e	equ	0DE20h			;*(2926:DE20=0)
     = FFFF			data_217e	equ	0FFFFh			;*(2926:FFFF)
     = 0000			data_218e	equ	0			;*(35A6:0000=0)
     = 0006			data_219e	equ	6			;*(35A6:0006=0)
     = 0009			data_220e	equ	9			;*(35A6:0009=35A6h)
     = 000C			data_221e	equ	0Ch			;*(35A6:000C=0)
     = 000E			data_222e	equ	0Eh			;*(35A6:000E=0)
     = 000F			data_223e	equ	0Fh			;*(35A6:000F=0)
     = 0012			data_224e	equ	12h			;*(35A6:0012=0)
     = 0015			data_225e	equ	15h			;*(35A6:0015=0)
     = 0040			data_226e	equ	40h			;*(35A6:0040=2916h)
     = 0000			data_227e	equ	0			;*(3E84:0000=0)

				seg_a		segment	byte public
						assume	cs:seg_a, ds:seg_a


						org	0

				ICON2		proc	far

2926:0000			start:
2926:0000  E8 36B8				call	sub_65			; (36BB)
2926:0003  80 0C B0				or	byte ptr [si],0B0h
2926:0006  08 90 0000				or	ds:data_227e[bx+si],dl	; (3E84:0000=0)
						nop	                        ;*ASM fixup - sign extn byte
2926:000A  00					db	0
2926:000B  00					db	0
2926:000C  00			data_49		db	0			;  xref 2926:376E
2926:000D  00					db	0
2926:000E  00			data_50		db	0			;  xref 2926:123D
2926:000F  0009[00]				db	9 dup (0)
2926:0018  0000			data_51		dw	0			; Data table (indexed access)
										;  xref 2926:1E1E
2926:001A  00 00 00 00 00 00			db	0, 0, 0, 0, 0, 0
2926:0020  00			data_52		db	0			; Data table (indexed access)
										;  xref 2926:25FA, 260C, 2610, 264C
2926:0021  002F[00]				db	47 dup (0)
2926:0050  0000			data_53		dw	0			; Data table (indexed access)
										;  xref 2926:08CC
2926:0052  000A[00]				db	10 dup (0)
2926:005C  00			data_55		db	0			;  xref 2926:4D3E, 4D51
2926:005D  000F[00]				db	15 dup (0)
2926:006C  0000			data_56		dw	0			;  xref 2926:4D74
2926:006E  000F[00]				db	15 dup (0)
2926:007D  00			data_57		db	0			;  xref 2926:4D5C
2926:007E  00 00				db	0, 0
2926:0080  90 90				db	 90h, 90h
2926:0082  90			data_59		db	90h			;  xref 2926:4D63
2926:0083  000D[90]				db	13 dup (90h)
           ICON2.lst       ICON2.OVL		Sourcer	v8.01  20-Jul-2026 12:24 am   Page 4

2926:0090  E9					db	0E9h
2926:0091  0DA4			data_60		dw	0DA4h			; Data table (indexed access)
										;  xref 2926:1E76
2926:0093  E9 2D 00				db	0E9h, 2Dh, 00h

				ICON2		endp

				;ßßßßßßßßßßßßßßßßßßßßßßßßßßßßßßßßßßßßßßßßßßßßßßßßßßßßßßßßßßßßßßßßßßßßßßßßßß
				;                              SUBROUTINE
				;
				;         Called from:   2926:0E02, 0E2E
				;ÜÜÜÜÜÜÜÜÜÜÜÜÜÜÜÜÜÜÜÜÜÜÜÜÜÜÜÜÜÜÜÜÜÜÜÜÜÜÜÜÜÜÜÜÜÜÜÜÜÜÜÜÜÜÜÜÜÜÜÜÜÜÜÜÜÜÜÜÜÜÜÜÜÜ

2926:0096			sub_1		proc	near
2926:0096  E9 006F				jmp	loc_5			; (0108)
2926:0099  E9 009B				jmp	loc_6			; (0137)

				;ßßßß External Entry into Subroutine ßßßßßßßßßßßßßßßßßßßßßßßßßßßßßßßßßßßßßß
				;
				;         Called from:   2926:0E93, 0E9A

2926:009C			sub_2:
2926:009C  E9 00D6				jmp	loc_11			; (0175)

				;ßßßß External Entry into Subroutine ßßßßßßßßßßßßßßßßßßßßßßßßßßßßßßßßßßßßßß
				;
				;         Called from:   2926:00FF, 07B5

2926:009F			sub_3:
2926:009F  E9 0103				jmp	loc_15			; (01A5)
2926:00A2  E9 016F				jmp	loc_16			; (0214)

				;ßßßß External Entry into Subroutine ßßßßßßßßßßßßßßßßßßßßßßßßßßßßßßßßßßßßßß
				;
				;         Called from:   2926:0EBD

2926:00A5			sub_4:
2926:00A5  E9 01E5				jmp	loc_23			; (028D)

				;ßßßß External Entry into Subroutine ßßßßßßßßßßßßßßßßßßßßßßßßßßßßßßßßßßßßßß
				;
				;         Called from:   2926:0DA8

2926:00A8			sub_5:
2926:00A8  E9 0219				jmp	loc_29			; (02C4)

				;ßßßß External Entry into Subroutine ßßßßßßßßßßßßßßßßßßßßßßßßßßßßßßßßßßßßßß
				;
				;         Called from:   2926:0D77, 0D9E

2926:00AB			sub_6:
2926:00AB  E9 02D8				jmp	loc_44			; (0386)

				;ßßßß External Entry into Subroutine ßßßßßßßßßßßßßßßßßßßßßßßßßßßßßßßßßßßßßß
				;
				;         Called from:   2926:0812

           ICON2.lst       ICON2.OVL		Sourcer	v8.01  20-Jul-2026 12:24 am   Page 5

2926:00AE			sub_7:
2926:00AE  E9 030A				jmp	loc_46			; (03BB)

				;ßßßß External Entry into Subroutine ßßßßßßßßßßßßßßßßßßßßßßßßßßßßßßßßßßßßßß
				;
				;         Called from:   2926:0803

2926:00B1			sub_8:
2926:00B1  E9 04FE				jmp	loc_67			; (05B2)
2926:00B4  E9 06AD				jmp	loc_91			; (0764)

				;ßßßß External Entry into Subroutine ßßßßßßßßßßßßßßßßßßßßßßßßßßßßßßßßßßßßßß
				;
				;         Called from:   2926:0F74

2926:00B7			sub_9:
2926:00B7  E9 0704				jmp	loc_94			; (07BE)

				;ßßßß External Entry into Subroutine ßßßßßßßßßßßßßßßßßßßßßßßßßßßßßßßßßßßßßß
				;
				;         Called from:   2926:0205, 0417, 04D3, 066A, 0F6B

2926:00BA			sub_10:
2926:00BA  E9 0CB2				jmp	loc_126			; (0D6F)

				;ßßßß External Entry into Subroutine ßßßßßßßßßßßßßßßßßßßßßßßßßßßßßßßßßßßßßß
				;
				;         Called from:   2926:0914, 091B, 0924, 092B, 0932, 0939, 0973
				;                             098F, 09AC, 0A31, 0A3C, 0A43, 0A4A, 0A51
				;                             0A58, 0A5F, 0A66, 0A6D, 0A74, 0A7B, 0A82
				;                             0A89, 0A90, 0A97, 0AD3, 0AF1, 0B10, 0B36
				;                             0B3F, 0B48, 0B51, 0B58, 0B5F, 0B66, 0B6F
				;                             0B76, 0B7D, 0B84, 0B8B, 0B92, 0B99, 0BC7
				;                             0BE0, 0C15, 0C31, 0C50, 0C6F, 0C8E, 0CAD
				;                             0CCE, 0CD8, 0CE5, 0CF2, 0CFF

2926:00BD			sub_11:
2926:00BD  E9 0D04				jmp	loc_133			; (0DC4)
2926:00C0  E9 0D48				jmp	loc_134			; (0E0B)
							                        ;* No entry point to code
2926:00C3  55					push	bp
2926:00C4  8B EC				mov	bp,sp
2926:00C6  55					push	bp
2926:00C7  81 EC 0002				sub	sp,2
2926:00CB  F6 46 06 01				test	byte ptr [bp+6],1
2926:00CF  75 03				jnz	loc_3			; Jump if not zero
2926:00D1  E9 002E				jmp	loc_4			; (0102)
2926:00D4			loc_3:						;  xref 2926:00CF
2926:00D4  E8 53F1				call	sub_128			; (54C8)
2926:00D7  0E E8 0012				callf	sub_12			; (00ED)
2926:00DB  11 50 61				adc	[bx+si+61h],dx
2926:00DE  73 63		;*		jnc	loc_7			;*Jump if carry=0
2926:00DE  73 63				db	 73h, 63h
2926:00E0  61 6C 20 4D 54 2B			db	'al MT+ Error '
2926:00E6  20 45 72 72 6F 72
2926:00EC  20

           ICON2.lst       ICON2.OVL		Sourcer	v8.01  20-Jul-2026 12:24 am   Page 6

				;ßßßß External Entry into Subroutine ßßßßßßßßßßßßßßßßßßßßßßßßßßßßßßßßßßßßßß
				;
				;         Called from:   2926:00D7

2926:00ED			sub_12:
2926:00ED  E8 53DE				call	sub_130			; (54CE)
2926:00F0  8B 46 04				mov	ax,[bp+4]
2926:00F3  05 0030				add	ax,30h
2926:00F6  50					push	ax
2926:00F7  E8 53D1				call	sub_129			; (54CB)
2926:00FA  E8 53C8				call	sub_127			; (54C5)
2926:00FD  53					push	bx
2926:00FE  50					push	ax
2926:00FF  E8 FF9D				call	sub_3			; (009F)
2926:0102			loc_4:						;  xref 2926:00D1
2926:0102  8B E5				mov	sp,bp
2926:0104  5D					pop	bp
2926:0105  C2 0004				retn	4
2926:0108			loc_5:						;  xref 2926:0096
2926:0108  55					push	bp
2926:0109  8B EC				mov	bp,sp
2926:010B  55					push	bp
2926:010C  81 EC 0002				sub	sp,2
2926:0110  A1 2904				mov	ax,data_102		; (2926:2904=20h)
2926:0113  50					push	ax
2926:0114  8B 46 04				mov	ax,[bp+4]
2926:0117  93					xchg	bx,ax
2926:0118  B8 000F				mov	ax,0Fh
2926:011B  23 C3				and	ax,bx
2926:011D  50					push	ax
2926:011E  A1 2904				mov	ax,data_102		; (2926:2904=20h)
2926:0121  93					xchg	bx,ax
2926:0122  B8 0007				mov	ax,7
2926:0125  23 C3				and	ax,bx
2926:0127  50					push	ax
2926:0128  E8 5599				call	sub_137			; (56C4)
2926:012B  5B					pop	bx
2926:012C  03 C3				add	ax,bx
2926:012E  A3 2904				mov	data_102,ax		; (2926:2904=20h)
2926:0131  8B E5				mov	sp,bp
2926:0133  5D					pop	bp
2926:0134  C2 0002				retn	2
2926:0137			loc_6:						;  xref 2926:0099
2926:0137  55					push	bp
2926:0138  8B EC				mov	bp,sp
2926:013A  55					push	bp
2926:013B  81 EC 0006				sub	sp,6
2926:013F  C7 46 FC 0000			mov	word ptr [bp-4],0
2926:0144  C7 46 FA 0082			mov	word ptr [bp-6],82h
2926:0149			loc_8:						;  xref 2926:016F
2926:0149 úFF 46 FC				inc	word ptr [bp-4]
2926:014C  FF 4E FA				dec	word ptr [bp-6]
2926:014F  7D 03				jge	loc_9			; Jump if > or =
2926:0151  E9 001D				jmp	loc_10			; (0171)
2926:0154			loc_9:						;  xref 2926:014F
2926:0154  1E					push	ds
2926:0155  B8 5A9C				mov	ax,5A9Ch
           ICON2.lst       ICON2.OVL		Sourcer	v8.01  20-Jul-2026 12:24 am   Page 7

2926:0158  50					push	ax
2926:0159  8B 46 FC				mov	ax,[bp-4]
2926:015C  48					dec	ax
2926:015D  BB 0006				mov	bx,6
2926:0160  F7 E3				mul	bx			; dx:ax = reg * ax
2926:0162  5B					pop	bx
2926:0163  03 C3				add	ax,bx
2926:0165  05 0004				add	ax,4
2926:0168  97					xchg	di,ax
2926:0169  07					pop	es
2926:016A  26: C7 05 FFFF			mov	word ptr es:[di],0FFFFh
2926:016F  EB D8				jmp	short loc_8		; (0149)
2926:0171			loc_10:						;  xref 2926:0151
2926:0171  8B E5				mov	sp,bp
2926:0173  5D					pop	bp
2926:0174  C3					retn
2926:0175			loc_11:						;  xref 2926:009C
2926:0175  55					push	bp
2926:0176  8B EC				mov	bp,sp
2926:0178  55					push	bp
2926:0179  81 EC 0002				sub	sp,2
2926:017D			loc_12:						;  xref 2926:0197
2926:017D úA1 8272				mov	ax,ds:data_36e		; (2916:8272=0)
2926:0180  50					push	ax
2926:0181  8B 46 04				mov	ax,[bp+4]
2926:0184  5B					pop	bx
2926:0185  3B D8				cmp	bx,ax
2926:0187  7C 03				jl	loc_13			; Jump if <
2926:0189  E9 000D				jmp	loc_14			; (0199)
2926:018C			loc_13:						;  xref 2926:0187
2926:018C  B8 0008				mov	ax,8
2926:018F  50					push	ax
2926:0190  B8 03D8				mov	ax,3D8h
2926:0193  50					push	ax
2926:0194  5A					pop	dx
2926:0195  58					pop	ax
2926:0196  90					nop
2926:0197  EB E4				jmp	short loc_12		; (017D)
2926:0199			loc_14:						;  xref 2926:0189
2926:0199  C7 06 8272 0000			mov	word ptr ds:data_36e,0	; (2916:8272=0)
2926:019F  8B E5				mov	sp,bp
2926:01A1  5D					pop	bp
2926:01A2  C2 0002				retn	2
2926:01A5			loc_15:						;  xref 2926:009F
2926:01A5  55					push	bp
2926:01A6  8B EC				mov	bp,sp
2926:01A8  55					push	bp
2926:01A9  81 EC 0076				sub	sp,76h
2926:01AD  16					push	ss
2926:01AE  8D 46 AD				lea	ax,[bp-53h]		; Load effective addr
2926:01B1  50					push	ax
2926:01B2  8B 46 06				mov	ax,[bp+6]
2926:01B5  50					push	ax
2926:01B6  8B 46 04				mov	ax,[bp+4]
2926:01B9  50					push	ax
2926:01BA  B8 0051				mov	ax,51h
2926:01BD  50					push	ax
           ICON2.lst       ICON2.OVL		Sourcer	v8.01  20-Jul-2026 12:24 am   Page 8

2926:01BE  E8 37D2				call	sub_73			; (3993)
2926:01C1  E8 0F24				call	sub_32			; (10E8)
2926:01C4  E8 0FA0				call	sub_33			; (1167)
2926:01C7  1E					push	ds
2926:01C8  B8 82FD				mov	ax,82FDh
2926:01CB  50					push	ax
2926:01CC  E8 3B2E				call	sub_91			; (3CFD)
2926:01CF  0E E8 0006				callf	sub_13			; (01D9)
2926:01D3  05 5245				add	ax,5245h
2926:01D6  52					push	dx
2926:01D7  4F					dec	di
2926:01D8 ú52					push	dx

				;ßßßß External Entry into Subroutine ßßßßßßßßßßßßßßßßßßßßßßßßßßßßßßßßßßßßßß
				;
				;         Called from:   2926:01CF

2926:01D9			sub_13:
2926:01D9  B8 FFFF				mov	ax,0FFFFh
2926:01DC  50					push	ax
2926:01DD  B8 FFFF				mov	ax,0FFFFh
2926:01E0  50					push	ax
2926:01E1  E8 516A				call	sub_122			; (534E)
2926:01E4  E8 4962				call	sub_105			; (4B49)
2926:01E7  16					push	ss
2926:01E8  8D 46 AD				lea	ax,[bp-53h]		; Load effective addr
2926:01EB  50					push	ax
2926:01EC  1E					push	ds
2926:01ED  B8 82FD				mov	ax,82FDh
2926:01F0  50					push	ax
2926:01F1  E8 3B09				call	sub_91			; (3CFD)
2926:01F4  B8 FFFF				mov	ax,0FFFFh
2926:01F7  50					push	ax
2926:01F8  B8 FFFF				mov	ax,0FFFFh
2926:01FB  50					push	ax
2926:01FC  E8 514F				call	sub_122			; (534E)
2926:01FF  E8 4947				call	sub_105			; (4B49)
2926:0202  E8 0DA2				call	sub_30			; (0FA7)
2926:0205  E8 FEB2				call	sub_10			; (00BA)
2926:0208  89 46 AA				mov	[bp-56h],ax
2926:020B  E8 55CB				call	sub_142			; (57D9)
2926:020E  8B E5				mov	sp,bp
2926:0210  5D					pop	bp
2926:0211  C2 0004				retn	4
2926:0214			loc_16:						;  xref 2926:00A2
2926:0214  55					push	bp
2926:0215  8B EC				mov	bp,sp
2926:0217  55					push	bp
2926:0218  81 EC 0061				sub	sp,61h
2926:021C  16					push	ss
2926:021D  8D 46 AD				lea	ax,[bp-53h]		; Load effective addr
2926:0220  50					push	ax
2926:0221  8B 46 06				mov	ax,[bp+6]
2926:0224  50					push	ax
2926:0225  8B 46 04				mov	ax,[bp+4]
2926:0228  50					push	ax
2926:0229  B8 0051				mov	ax,51h
           ICON2.lst       ICON2.OVL		Sourcer	v8.01  20-Jul-2026 12:24 am   Page 9

2926:022C  50					push	ax
2926:022D  E8 3763				call	sub_73			; (3993)
2926:0230  B8 0001				mov	ax,1
2926:0233  93					xchg	bx,ax
2926:0234  A1 2DA6				mov	ax,data_117		; (2926:2DA6=0DE06h)
2926:0237  93					xchg	bx,ax
2926:0238  89 46 A1				mov	[bp-5Fh],ax
2926:023B  93					xchg	bx,ax
2926:023C  FF 4E A1				dec	word ptr [bp-5Fh]
2926:023F  2B C3				sub	ax,bx
2926:0241  40					inc	ax
2926:0242  89 46 9F				mov	[bp-61h],ax
2926:0245			loc_17:						;  xref 2926:027D
2926:0245 úFF 46 A1				inc	word ptr [bp-5Fh]
2926:0248  FF 4E 9F				dec	word ptr [bp-61h]
2926:024B  7D 03				jge	loc_18			; Jump if > or =
2926:024D  E9 002F				jmp	loc_21			; (027F)
2926:0250			loc_18:						;  xref 2926:024B
2926:0250  16					push	ss
2926:0251  8D 46 AD				lea	ax,[bp-53h]		; Load effective addr
2926:0254  50					push	ax
2926:0255  1E					push	ds
2926:0256  B8 601C				mov	ax,601Ch
2926:0259  50					push	ax
2926:025A  8B 46 A1				mov	ax,[bp-5Fh]
2926:025D  48					dec	ax
2926:025E  BB 001D				mov	bx,1Dh
2926:0261  F7 E3				mul	bx			; dx:ax = reg * ax
2926:0263  5B					pop	bx
2926:0264  03 C3				add	ax,bx
2926:0266  05 0008				add	ax,8
2926:0269  50					push	ax
2926:026A  E8 4E98				call	sub_121			; (5105)
2926:026D  D0 D8				rcr	al,1			; Rotate thru carry
2926:026F  72 03				jc	loc_19			; Jump if carry Set
2926:0271  E9 0009				jmp	loc_20			; (027D)
2926:0274			loc_19:						;  xref 2926:026F
2926:0274  8B 46 A1				mov	ax,[bp-5Fh]
2926:0277  89 46 F4				mov	[bp-0Ch],ax
2926:027A  E9 0007				jmp	loc_22			; (0284)
2926:027D			loc_20:						;  xref 2926:0271
2926:027D  EB C6				jmp	short loc_17		; (0245)
2926:027F			loc_21:						;  xref 2926:024D
2926:027F  C7 46 F4 FFFF			mov	word ptr [bp-0Ch],0FFFFh
2926:0284			loc_22:						;  xref 2926:027A
2926:0284  8B 46 F4				mov	ax,[bp-0Ch]
2926:0287  8B E5				mov	sp,bp
2926:0289  5D					pop	bp
2926:028A  C2 0004				retn	4
2926:028D			loc_23:						;  xref 2926:00A5
2926:028D  55					push	bp
2926:028E  8B EC				mov	bp,sp
2926:0290  55					push	bp
2926:0291  81 EC 0002				sub	sp,2
2926:0295  A1 5E2E				mov	ax,ds:data_158e		; (2926:5E2E=0)
2926:0298  0B C0				or	ax,ax			; Zero ?
2926:029A  79 02				jns	loc_24			; Jump if not sign
           ICON2.lst       ICON2.OVL		Sourcer	v8.01  20-Jul-2026 12:24 am   Page 10

2926:029C  F7 D8				neg	ax
2926:029E			loc_24:						;  xref 2926:029A
2926:029E  3D 7530				cmp	ax,7530h
2926:02A1  7F 03				jg	loc_25			; Jump if >
2926:02A3  E9 001A				jmp	loc_28			; (02C0)
2926:02A6			loc_25:						;  xref 2926:02A1
2926:02A6  A1 5E2E				mov	ax,ds:data_158e		; (2926:5E2E=0)
2926:02A9  3D 7530				cmp	ax,7530h
2926:02AC  7F 03				jg	loc_26			; Jump if >
2926:02AE  E9 0009				jmp	loc_27			; (02BA)
2926:02B1			loc_26:						;  xref 2926:02AC
2926:02B1  C7 06 5E2E 7530			mov	word ptr ds:data_158e,7530h	; (2926:5E2E=0)
2926:02B7  E9 0006				jmp	loc_28			; (02C0)
2926:02BA			loc_27:						;  xref 2926:02AE
2926:02BA  C7 06 5E2E 8AD0			mov	word ptr ds:data_158e,8AD0h	; (2926:5E2E=0)
2926:02C0			loc_28:						;  xref 2926:02A3, 02B7
2926:02C0  8B E5				mov	sp,bp
2926:02C2  5D					pop	bp
2926:02C3  C3					retn
2926:02C4			loc_29:						;  xref 2926:00A8
2926:02C4  55					push	bp
2926:02C5  8B EC				mov	bp,sp
2926:02C7  55					push	bp
2926:02C8  81 EC 000D				sub	sp,0Dh
2926:02CC  B8 0007				mov	ax,7
2926:02CF  50					push	ax
2926:02D0  1E					push	ds
2926:02D1  B8 2C18				mov	ax,2C18h
2926:02D4  50					push	ax
2926:02D5  E8 573C				call	sub_153			; (5A14)
2926:02D8  88 46 F3				mov	[bp-0Dh],al
2926:02DB  8A 46 F3				mov	al,[bp-0Dh]
2926:02DE  32 E4				xor	ah,ah			; Zero register
2926:02E0  81 F8 001B				cmp	ax,1Bh
						nop	                        ;*ASM fixup - short reg form
2926:02E4  B8 0000				mov	ax,0
2926:02E7  75 01				jnz	loc_30			; Jump if not zero
2926:02E9  40					inc	ax
2926:02EA			loc_30:						;  xref 2926:02E7
2926:02EA  D0 D8				rcr	al,1			; Rotate thru carry
2926:02EC  72 03				jc	loc_31			; Jump if carry Set
2926:02EE  E9 0005				jmp	loc_32			; (02F6)
2926:02F1			loc_31:						;  xref 2926:02EC
2926:02F1  C6 06 5DF4 01			mov	byte ptr ds:data_157e,1	; (2926:5DF4=0)
2926:02F6			loc_32:						;  xref 2926:02EE
2926:02F6  8A 46 F3				mov	al,[bp-0Dh]
2926:02F9  32 E4				xor	ah,ah			; Zero register
2926:02FB  81 F8 003B				cmp	ax,3Bh
						nop	                        ;*ASM fixup - short reg form
2926:02FF  B8 0000				mov	ax,0
2926:0302  75 01				jnz	loc_33			; Jump if not zero
2926:0304  40					inc	ax
2926:0305			loc_33:						;  xref 2926:0302
2926:0305  D0 D8				rcr	al,1			; Rotate thru carry
2926:0307  72 03				jc	loc_34			; Jump if carry Set
2926:0309  E9 0004				jmp	loc_35			; (0310)
2926:030C			loc_34:						;  xref 2926:0307
           ICON2.lst       ICON2.OVL		Sourcer	v8.01  20-Jul-2026 12:24 am   Page 11

2926:030C  C6 46 F3 00				mov	byte ptr [bp-0Dh],0
2926:0310			loc_35:						;  xref 2926:0309
2926:0310  8A 46 F3				mov	al,[bp-0Dh]
2926:0313  32 E4				xor	ah,ah			; Zero register
2926:0315  81 F8 0000				cmp	ax,0
						nop	                        ;*ASM fixup - short reg form
2926:0319  B8 0000				mov	ax,0
2926:031C  75 01				jnz	loc_36			; Jump if not zero
2926:031E  40					inc	ax
2926:031F			loc_36:						;  xref 2926:031C
2926:031F  D0 D8				rcr	al,1			; Rotate thru carry
2926:0321  72 03				jc	loc_37			; Jump if carry Set
2926:0323  E9 0051				jmp	loc_43			; (0377)
2926:0326			loc_37:						;  xref 2926:0321
2926:0326  8A 46 F3				mov	al,[bp-0Dh]
2926:0329  A2 5DAE				mov	ds:data_152e,al		; (2926:5DAE=0)
2926:032C  B8 0007				mov	ax,7
2926:032F  50					push	ax
2926:0330  1E					push	ds
2926:0331  B8 2C18				mov	ax,2C18h
2926:0334  50					push	ax
2926:0335  E8 56DC				call	sub_153			; (5A14)
2926:0338  88 46 F3				mov	[bp-0Dh],al
2926:033B  8A 46 F3				mov	al,[bp-0Dh]
2926:033E  32 E4				xor	ah,ah			; Zero register
2926:0340  81 F8 003C				cmp	ax,3Ch
						nop	                        ;*ASM fixup - short reg form
2926:0344  B8 0000				mov	ax,0
2926:0347  75 01				jnz	loc_38			; Jump if not zero
2926:0349  40					inc	ax
2926:034A			loc_38:						;  xref 2926:0347
2926:034A  D0 D8				rcr	al,1			; Rotate thru carry
2926:034C  72 03				jc	loc_39			; Jump if carry Set
2926:034E  E9 000A				jmp	loc_40			; (035B)
2926:0351			loc_39:						;  xref 2926:034C
2926:0351  A0 5A7C				mov	al,byte ptr data_147+3	; (2926:5A7C='/Z/Z([/Z/Z/Z/Z/Z')
2926:0354  32 E4				xor	ah,ah			; Zero register
2926:0356  F7 D0				not	ax
2926:0358  A2 5A7C				mov	byte ptr data_147+3,al	; (2926:5A7C='/Z/Z([/Z/Z/Z/Z/Z')
2926:035B			loc_40:						;  xref 2926:034E
2926:035B  8A 46 F3				mov	al,[bp-0Dh]
2926:035E  32 E4				xor	ah,ah			; Zero register
2926:0360  81 F8 003B				cmp	ax,3Bh
						nop	                        ;*ASM fixup - short reg form
2926:0364  B8 0000				mov	ax,0
2926:0367  74 01				jz	loc_41			; Jump if zero
2926:0369  40					inc	ax
2926:036A			loc_41:						;  xref 2926:0367
2926:036A  D0 D8				rcr	al,1			; Rotate thru carry
2926:036C  72 03				jc	loc_42			; Jump if carry Set
2926:036E  E9 0006				jmp	loc_43			; (0377)
2926:0371			loc_42:						;  xref 2926:036C
2926:0371  A0 5DAE				mov	al,ds:data_152e		; (2926:5DAE=0)
2926:0374  88 46 F3				mov	[bp-0Dh],al
2926:0377			loc_43:						;  xref 2926:0323, 036E
2926:0377  8A 46 F3				mov	al,[bp-0Dh]
2926:037A  88 46 F4				mov	[bp-0Ch],al
           ICON2.lst       ICON2.OVL		Sourcer	v8.01  20-Jul-2026 12:24 am   Page 12

2926:037D  8A 46 F4				mov	al,[bp-0Ch]
2926:0380  32 E4				xor	ah,ah			; Zero register
2926:0382  8B E5				mov	sp,bp
2926:0384  5D					pop	bp
2926:0385  C3					retn
2926:0386			loc_44:						;  xref 2926:00AB
2926:0386  55					push	bp
2926:0387  8B EC				mov	bp,sp
2926:0389  55					push	bp
2926:038A  81 EC 000C				sub	sp,0Ch
2926:038E  B8 000B				mov	ax,0Bh
2926:0391  50					push	ax
2926:0392  0E					push	cs
2926:0393  0E					push	cs
2926:0394  B8 002C				mov	ax,2Ch
2926:0397  97					xchg	di,ax
2926:0398  07					pop	es
2926:0399  26: 8B 05				mov	ax,es:[di]
2926:039C  93					xchg	bx,ax
2926:039D  B8 002E				mov	ax,2Eh
2926:03A0  03 C3				add	ax,bx
2926:03A2  50					push	ax
2926:03A3  E8 566E				call	sub_153			; (5A14)
2926:03A6  3D 0000				cmp	ax,0
2926:03A9  B8 0000				mov	ax,0
2926:03AC  74 01				jz	loc_45			; Jump if zero
2926:03AE  40					inc	ax
2926:03AF			loc_45:						;  xref 2926:03AC
2926:03AF  88 46 F4				mov	[bp-0Ch],al
2926:03B2  8A 46 F4				mov	al,[bp-0Ch]
2926:03B5  32 E4				xor	ah,ah			; Zero register
2926:03B7  8B E5				mov	sp,bp
2926:03B9  5D					pop	bp
2926:03BA  C3					retn
				sub_1		endp

2926:03BB			loc_46:						;  xref 2926:00AE
2926:03BB  55					push	bp
2926:03BC  8B EC				mov	bp,sp
2926:03BE  55					push	bp
2926:03BF  81 EC 0007				sub	sp,7
2926:03C3  1E					push	ds
2926:03C4  B8 82FD				mov	ax,82FDh
2926:03C7  50					push	ax
2926:03C8  E8 3932				call	sub_91			; (3CFD)
2926:03CB  E8 477B				call	sub_105			; (4B49)
2926:03CE  1E					push	ds
2926:03CF  B8 82FD				mov	ax,82FDh
2926:03D2  50					push	ax
2926:03D3  E8 3927				call	sub_91			; (3CFD)
2926:03D6  E8 4770				call	sub_105			; (4B49)
2926:03D9  1E					push	ds
2926:03DA  B8 82FD				mov	ax,82FDh
2926:03DD  50					push	ax
2926:03DE  E8 391C				call	sub_91			; (3CFD)
2926:03E1  0E E8 0027				callf	sub_14			; (040C)
2926:03E5  26 20 45 6E 74 65			db	'& Enter the game save number (0,'
           ICON2.lst       ICON2.OVL		Sourcer	v8.01  20-Jul-2026 12:24 am   Page 13

2926:03EB  72 20 74 68 65 20
2926:03F1  67 61 6D 65 20 73
2926:03F7  61 76 65 20 6E 75
2926:03FD  6D 62 65 72 20 28
2926:0403  30 2C
2926:0405  20 31 2D 39 29 3F			db	' 1-9)? '
2926:040B  20

				;ßßßßßßßßßßßßßßßßßßßßßßßßßßßßßßßßßßßßßßßßßßßßßßßßßßßßßßßßßßßßßßßßßßßßßßßßßß
				;                              SUBROUTINE
				;
				;         Called from:   2926:03E1
				;ÜÜÜÜÜÜÜÜÜÜÜÜÜÜÜÜÜÜÜÜÜÜÜÜÜÜÜÜÜÜÜÜÜÜÜÜÜÜÜÜÜÜÜÜÜÜÜÜÜÜÜÜÜÜÜÜÜÜÜÜÜÜÜÜÜÜÜÜÜÜÜÜÜÜ

2926:040C			sub_14		proc	near
2926:040C  B8 FFFF				mov	ax,0FFFFh
2926:040F  50					push	ax
2926:0410  B8 FFFF				mov	ax,0FFFFh
2926:0413  50					push	ax
2926:0414  E8 4F37				call	sub_122			; (534E)
2926:0417			loc_47:						;  xref 2926:05AC
2926:0417 úE8 FCA0				call	sub_10			; (00BA)
2926:041A  88 46 F9				mov	[bp-7],al
2926:041D  8A 46 F9				mov	al,[bp-7]
2926:0420  32 E4				xor	ah,ah			; Zero register
2926:0422  81 F8 0030				cmp	ax,30h
						nop	                        ;*ASM fixup - short reg form
2926:0426  B8 0000				mov	ax,0
2926:0429  7D 01				jge	loc_48			; Jump if > or =
2926:042B  40					inc	ax
2926:042C			loc_48:						;  xref 2926:0429
2926:042C  50					push	ax
2926:042D  8A 46 F9				mov	al,[bp-7]
2926:0430  32 E4				xor	ah,ah			; Zero register
2926:0432  81 F8 0039				cmp	ax,39h
						nop	                        ;*ASM fixup - short reg form
2926:0436  B8 0000				mov	ax,0
2926:0439  7E 01				jle	loc_49			; Jump if < or =
2926:043B  40					inc	ax
2926:043C			loc_49:						;  xref 2926:0439
2926:043C  5B					pop	bx
2926:043D  0B C3				or	ax,bx
2926:043F  D0 D8				rcr	al,1			; Rotate thru carry
2926:0441  72 03				jc	loc_50			; Jump if carry Set
2926:0443  E9 0003				jmp	loc_51			; (0449)
2926:0446			loc_50:						;  xref 2926:0441
2926:0446  E9 0163				jmp	loc_65			; (05AC)
2926:0449			loc_51:						;  xref 2926:0443
2926:0449  8A 46 F9				mov	al,[bp-7]
2926:044C  32 E4				xor	ah,ah			; Zero register
2926:044E  50					push	ax
2926:044F  1E					push	ds
2926:0450  B8 82FD				mov	ax,82FDh
2926:0453  50					push	ax
2926:0454  E8 38A6				call	sub_91			; (3CFD)
2926:0457  B8 FFFF				mov	ax,0FFFFh
2926:045A  50					push	ax
           ICON2.lst       ICON2.OVL		Sourcer	v8.01  20-Jul-2026 12:24 am   Page 14

2926:045B  B8 FFFF				mov	ax,0FFFFh
2926:045E  50					push	ax
2926:045F  E8 4F1C				call	sub_123			; (537E)
2926:0462  E8 46E4				call	sub_105			; (4B49)
2926:0465  C4 7E 04				les	di,dword ptr [bp+4]	; Load seg:offset ptr
2926:0468  06					push	es
2926:0469  57					push	di
2926:046A  E8 505B				call	sub_128			; (54C8)
2926:046D  0E E8 0005				callf	sub_15			; (0476)
2926:0471  04 49				add	al,49h			; 'I'
2926:0473  43					inc	bx
2926:0474  4F					dec	di
2926:0475  4E					dec	si

				;ßßßß External Entry into Subroutine ßßßßßßßßßßßßßßßßßßßßßßßßßßßßßßßßßßßßßß
				;
				;         Called from:   2926:046D

2926:0476			sub_15:
2926:0476  E8 5055				call	sub_130			; (54CE)
2926:0479  8A 46 F9				mov	al,[bp-7]
2926:047C  32 E4				xor	ah,ah			; Zero register
2926:047E  50					push	ax
2926:047F  E8 5049				call	sub_129			; (54CB)
2926:0482  0E E8 0005				callf	sub_16			; (048B)
2926:0486  04 2E				add	al,2Eh			; '.'
2926:0488  47					inc	di
2926:0489  41					inc	cx
2926:048A  4D					dec	bp

				;ßßßß External Entry into Subroutine ßßßßßßßßßßßßßßßßßßßßßßßßßßßßßßßßßßßßßß
				;
				;         Called from:   2926:0482

2926:048B			sub_16:
2926:048B  E8 5040				call	sub_130			; (54CE)
2926:048E  E8 5034				call	sub_127			; (54C5)
2926:0491  53					push	bx
2926:0492  50					push	ax
2926:0493  B8 0051				mov	ax,51h
2926:0496  50					push	ax
2926:0497  E8 34F9				call	sub_73			; (3993)
2926:049A  1E					push	ds
2926:049B  B8 82FD				mov	ax,82FDh
2926:049E  50					push	ax
2926:049F  E8 385B				call	sub_91			; (3CFD)
2926:04A2  0E E8 0022				callf	sub_17			; (04C8)
2926:04A6  21 20 45 6E 74 65			db	'! Enter the disk drive (A, B, C)'
2926:04AC  72 20 74 68 65 20
2926:04B2  64 69 73 6B 20 64
2926:04B8  72 69 76 65 20 28
2926:04BE  41 2C 20 42 2C 20
2926:04C4  43 29
2926:04C6  3F 20				db	'? '

				;ßßßß External Entry into Subroutine ßßßßßßßßßßßßßßßßßßßßßßßßßßßßßßßßßßßßßß
				;
           ICON2.lst       ICON2.OVL				Sourcer	v8.01  20-Jul-2026 12:24 am   Page 15

				;         Called from:   2926:04A2

2926:04C8			sub_17:
2926:04C8  B8 FFFF				mov	ax,0FFFFh
2926:04CB  50					push	ax
2926:04CC  B8 FFFF				mov	ax,0FFFFh
2926:04CF  50					push	ax
2926:04D0  E8 4E7B				call	sub_122			; (534E)
2926:04D3			loc_52:						;  xref 2926:05AF
2926:04D3 úE8 FBE4				call	sub_10			; (00BA)
2926:04D6  88 46 F9				mov	[bp-7],al
2926:04D9  8A 46 F9				mov	al,[bp-7]
2926:04DC  32 E4				xor	ah,ah			; Zero register
2926:04DE  81 F8 000D				cmp	ax,0Dh
						nop	                        ;*ASM fixup - short reg form
2926:04E2  B8 0000				mov	ax,0
2926:04E5  75 01				jnz	loc_53			; Jump if not zero
2926:04E7  40					inc	ax
2926:04E8			loc_53:						;  xref 2926:04E5
2926:04E8  50					push	ax
2926:04E9  8A 46 F9				mov	al,[bp-7]
2926:04EC  32 E4				xor	ah,ah			; Zero register
2926:04EE  81 F8 0020				cmp	ax,20h
						nop	                        ;*ASM fixup - short reg form
2926:04F2  B8 0000				mov	ax,0
2926:04F5  75 01				jnz	loc_54			; Jump if not zero
2926:04F7  40					inc	ax
2926:04F8			loc_54:						;  xref 2926:04F5
2926:04F8  5B					pop	bx
2926:04F9  0B C3				or	ax,bx
2926:04FB  D0 D8				rcr	al,1			; Rotate thru carry
2926:04FD  72 03				jc	loc_55			; Jump if carry Set
2926:04FF  E9 0003				jmp	loc_56			; (0505)
2926:0502			loc_55:						;  xref 2926:04FD
2926:0502  E9 00A1				jmp	loc_64			; (05A6)
2926:0505			loc_56:						;  xref 2926:04FF
2926:0505  8A 46 F9				mov	al,[bp-7]
2926:0508  32 E4				xor	ah,ah			; Zero register
2926:050A  81 F8 0061				cmp	ax,61h
						nop	                        ;*ASM fixup - short reg form
2926:050E  B8 0000				mov	ax,0
2926:0511  7C 01				jl	loc_57			; Jump if <
2926:0513  40					inc	ax
2926:0514			loc_57:						;  xref 2926:0511
2926:0514  D0 D8				rcr	al,1			; Rotate thru carry
2926:0516  72 03				jc	loc_58			; Jump if carry Set
2926:0518  E9 000B				jmp	loc_59			; (0526)
2926:051B			loc_58:						;  xref 2926:0516
2926:051B  8A 46 F9				mov	al,[bp-7]
2926:051E  32 E4				xor	ah,ah			; Zero register
2926:0520  2D 0020				sub	ax,20h
2926:0523  88 46 F9				mov	[bp-7],al
2926:0526			loc_59:						;  xref 2926:0518
2926:0526  8A 46 F9				mov	al,[bp-7]
2926:0529  32 E4				xor	ah,ah			; Zero register
2926:052B  81 F8 0041				cmp	ax,41h
						nop	                        ;*ASM fixup - short reg form
           ICON2.lst       ICON2.OVL		Sourcer	v8.01  20-Jul-2026 12:24 am   Page 16

2926:052F  B8 0000				mov	ax,0
2926:0532  7D 01				jge	loc_60			; Jump if > or =
2926:0534  40					inc	ax
2926:0535			loc_60:						;  xref 2926:0532
2926:0535  50					push	ax
2926:0536  8A 46 F9				mov	al,[bp-7]
2926:0539  32 E4				xor	ah,ah			; Zero register
2926:053B  81 F8 005A				cmp	ax,5Ah
						nop	                        ;*ASM fixup - short reg form
2926:053F  B8 0000				mov	ax,0
2926:0542  7E 01				jle	loc_61			; Jump if < or =
2926:0544  40					inc	ax
2926:0545			loc_61:						;  xref 2926:0542
2926:0545  5B					pop	bx
2926:0546  0B C3				or	ax,bx
2926:0548  D0 D8				rcr	al,1			; Rotate thru carry
2926:054A  72 03				jc	loc_62			; Jump if carry Set
2926:054C  E9 0003				jmp	loc_63			; (0552)
2926:054F			loc_62:						;  xref 2926:054A
2926:054F  E9 005D				jmp	loc_66			; (05AF)
2926:0552			loc_63:						;  xref 2926:054C
2926:0552  8A 46 F9				mov	al,[bp-7]
2926:0555  32 E4				xor	ah,ah			; Zero register
2926:0557  50					push	ax
2926:0558  1E					push	ds
2926:0559  B8 82FD				mov	ax,82FDh
2926:055C  50					push	ax
2926:055D  E8 379D				call	sub_91			; (3CFD)
2926:0560  B8 FFFF				mov	ax,0FFFFh
2926:0563  50					push	ax
2926:0564  B8 FFFF				mov	ax,0FFFFh
2926:0567  50					push	ax
2926:0568  E8 4E13				call	sub_123			; (537E)
2926:056B  B8 003A				mov	ax,3Ah
2926:056E  50					push	ax
2926:056F  B8 FFFF				mov	ax,0FFFFh
2926:0572  50					push	ax
2926:0573  B8 FFFF				mov	ax,0FFFFh
2926:0576  50					push	ax
2926:0577  E8 4E04				call	sub_123			; (537E)
2926:057A  C4 7E 04				les	di,dword ptr [bp+4]	; Load seg:offset ptr
2926:057D  06					push	es
2926:057E  57					push	di
2926:057F  E8 4F46				call	sub_128			; (54C8)
2926:0582  8A 46 F9				mov	al,[bp-7]
2926:0585  32 E4				xor	ah,ah			; Zero register
2926:0587  50					push	ax
2926:0588  E8 4F40				call	sub_129			; (54CB)
2926:058B  B8 003A				mov	ax,3Ah
2926:058E  50					push	ax
2926:058F  E8 4F39				call	sub_129			; (54CB)
2926:0592  C4 7E 04				les	di,dword ptr [bp+4]	; Load seg:offset ptr
2926:0595  06					push	es
2926:0596  57					push	di
2926:0597  E8 4F34				call	sub_130			; (54CE)
2926:059A  E8 4F28				call	sub_127			; (54C5)
2926:059D  53					push	bx
           ICON2.lst       ICON2.OVL		Sourcer	v8.01  20-Jul-2026 12:24 am   Page 17

2926:059E  50					push	ax
2926:059F  B8 0051				mov	ax,51h
2926:05A2  50					push	ax
2926:05A3  E8 33ED				call	sub_73			; (3993)
2926:05A6			loc_64:						;  xref 2926:0502
2926:05A6  8B E5				mov	sp,bp
2926:05A8  5D					pop	bp
2926:05A9  C2 0004				retn	4
2926:05AC			loc_65:						;  xref 2926:0446
2926:05AC  E9 FE68				jmp	loc_47			; (0417)
2926:05AF			loc_66:						;  xref 2926:054F
2926:05AF  E9 FF21				jmp	loc_52			; (04D3)
				sub_14		endp

2926:05B2			loc_67:						;  xref 2926:00B1
2926:05B2  55					push	bp
2926:05B3  8B EC				mov	bp,sp
2926:05B5  55					push	bp
2926:05B6  81 EC 005E				sub	sp,5Eh
2926:05BA  16					push	ss
2926:05BB  8D 46 AD				lea	ax,[bp-53h]		; Load effective addr
2926:05BE  50					push	ax
2926:05BF  8B 46 08				mov	ax,[bp+8]
2926:05C2  50					push	ax
2926:05C3  8B 46 06				mov	ax,[bp+6]
2926:05C6  50					push	ax
2926:05C7  B8 0051				mov	ax,51h
2926:05CA  50					push	ax
2926:05CB  E8 33C5				call	sub_73			; (3993)
2926:05CE  16					push	ss
2926:05CF  8D 46 AD				lea	ax,[bp-53h]		; Load effective addr
2926:05D2  50					push	ax
2926:05D3  1E					push	ds
2926:05D4  B8 82FD				mov	ax,82FDh
2926:05D7  50					push	ax
2926:05D8  E8 3722				call	sub_91			; (3CFD)
2926:05DB  B8 FFFF				mov	ax,0FFFFh
2926:05DE  50					push	ax
2926:05DF  B8 FFFF				mov	ax,0FFFFh
2926:05E2  50					push	ax
2926:05E3  E8 4D68				call	sub_122			; (534E)
2926:05E6  1E					push	ds
2926:05E7  B8 82FD				mov	ax,82FDh
2926:05EA  50					push	ax
2926:05EB  E8 370F				call	sub_91			; (3CFD)
2926:05EE  0E E8 0003		;*		callf	sub_18			;*(05F5)
2926:05EE  0E E8 03 00				db	 0Eh,0E8h, 03h, 00h
2926:05F2  02 20				add	ah,[bx+si]
2926:05F4  28 B8 FFFF				sub	ds:data_217e[bx+si],bh	; (2926:FFFF=0)
2926:05F8  50					push	ax
2926:05F9  B8 FFFF				mov	ax,0FFFFh
2926:05FC  50					push	ax
2926:05FD  E8 4D4E				call	sub_122			; (534E)
2926:0600  8A 46 04				mov	al,[bp+4]
2926:0603  32 E4				xor	ah,ah			; Zero register
2926:0605  81 F8 0059				cmp	ax,59h
						nop	                        ;*ASM fixup - short reg form
           ICON2.lst       ICON2.OVL		Sourcer	v8.01  20-Jul-2026 12:24 am   Page 18

2926:0609  B8 0000				mov	ax,0
2926:060C  75 01				jnz	loc_68			; Jump if not zero
2926:060E  40					inc	ax
2926:060F			loc_68:						;  xref 2926:060C
2926:060F  D0 D8				rcr	al,1			; Rotate thru carry
2926:0611  72 03				jc	loc_69			; Jump if carry Set
2926:0613  E9 001E				jmp	loc_70			; (0634)
2926:0616			loc_69:						;  xref 2926:0611
2926:0616  1E					push	ds
2926:0617  B8 82FD				mov	ax,82FDh
2926:061A  50					push	ax
2926:061B  E8 36DF				call	sub_91			; (3CFD)
2926:061E  0E E8 0004				callf	sub_19			; (0626)
2926:0622  03 59 2F				add	bx,[bx+di+2Fh]
2926:0625  4E					dec	si

				;ßßßßßßßßßßßßßßßßßßßßßßßßßßßßßßßßßßßßßßßßßßßßßßßßßßßßßßßßßßßßßßßßßßßßßßßßßß
				;                              SUBROUTINE
				;
				;         Called from:   2926:061E
				;ÜÜÜÜÜÜÜÜÜÜÜÜÜÜÜÜÜÜÜÜÜÜÜÜÜÜÜÜÜÜÜÜÜÜÜÜÜÜÜÜÜÜÜÜÜÜÜÜÜÜÜÜÜÜÜÜÜÜÜÜÜÜÜÜÜÜÜÜÜÜÜÜÜÜ

2926:0626			sub_19		proc	near
2926:0626  B8 FFFF				mov	ax,0FFFFh
2926:0629  50					push	ax
2926:062A  B8 FFFF				mov	ax,0FFFFh
2926:062D  50					push	ax
2926:062E  E8 4D1D				call	sub_122			; (534E)
2926:0631  E9 001B				jmp	loc_71			; (064F)
2926:0634			loc_70:						;  xref 2926:0613
2926:0634  1E					push	ds
2926:0635  B8 82FD				mov	ax,82FDh
2926:0638  50					push	ax
2926:0639  E8 36C1				call	sub_91			; (3CFD)
2926:063C  0E E8 0004				callf	sub_20			; (0644)
2926:0640  03 4E 2F				add	cx,[bp+2Fh]
2926:0643  59					pop	cx

				;ßßßß External Entry into Subroutine ßßßßßßßßßßßßßßßßßßßßßßßßßßßßßßßßßßßßßß
				;
				;         Called from:   2926:063C

2926:0644			sub_20:
2926:0644  B8 FFFF				mov	ax,0FFFFh
2926:0647  50					push	ax
2926:0648  B8 FFFF				mov	ax,0FFFFh
2926:064B  50					push	ax
2926:064C  E8 4CFF				call	sub_122			; (534E)
2926:064F			loc_71:						;  xref 2926:0631
2926:064F  1E					push	ds
2926:0650  B8 82FD				mov	ax,82FDh
2926:0653  50					push	ax
2926:0654  E8 36A6				call	sub_91			; (3CFD)
2926:0657  0E E8 0004		;*		callf	sub_21			;*(065F)
2926:0657  0E E8 04 00				db	 0Eh,0E8h, 04h, 00h
2926:065B  03 29				add	bp,[bx+di]
2926:065D  3F					aas				; Ascii adjust
           ICON2.lst       ICON2.OVL		Sourcer	v8.01  20-Jul-2026 12:24 am   Page 19

2926:065E  20 B8 FFFF				and	ds:data_217e[bx+si],bh	; (2926:FFFF=0)
2926:0662  50					push	ax
2926:0663  B8 FFFF				mov	ax,0FFFFh
2926:0666  50					push	ax
2926:0667  E8 4CE4				call	sub_122			; (534E)
2926:066A			loc_72:						;  xref 2926:06FC
2926:066A úE8 FA4D				call	sub_10			; (00BA)
2926:066D  88 46 A2				mov	[bp-5Eh],al
2926:0670  8A 46 A2				mov	al,[bp-5Eh]
2926:0673  32 E4				xor	ah,ah			; Zero register
2926:0675  81 F8 0079				cmp	ax,79h
						nop	                        ;*ASM fixup - short reg form
2926:0679  B8 0000				mov	ax,0
2926:067C  75 01				jnz	loc_73			; Jump if not zero
2926:067E  40					inc	ax
2926:067F			loc_73:						;  xref 2926:067C
2926:067F  D0 D8				rcr	al,1			; Rotate thru carry
2926:0681  72 03				jc	loc_74			; Jump if carry Set
2926:0683  E9 0007				jmp	loc_75			; (068D)
2926:0686			loc_74:						;  xref 2926:0681
2926:0686  C6 46 A2 59				mov	byte ptr [bp-5Eh],59h	; 'Y'
2926:068A  E9 001A				jmp	loc_78			; (06A7)
2926:068D			loc_75:						;  xref 2926:0683
2926:068D  8A 46 A2				mov	al,[bp-5Eh]
2926:0690  32 E4				xor	ah,ah			; Zero register
2926:0692  81 F8 006E				cmp	ax,6Eh
						nop	                        ;*ASM fixup - short reg form
2926:0696  B8 0000				mov	ax,0
2926:0699  75 01				jnz	loc_76			; Jump if not zero
2926:069B  40					inc	ax
2926:069C			loc_76:						;  xref 2926:0699
2926:069C  D0 D8				rcr	al,1			; Rotate thru carry
2926:069E  72 03				jc	loc_77			; Jump if carry Set
2926:06A0  E9 0004				jmp	loc_78			; (06A7)
2926:06A3			loc_77:						;  xref 2926:069E
2926:06A3  C6 46 A2 4E				mov	byte ptr [bp-5Eh],4Eh	; 'N'
2926:06A7			loc_78:						;  xref 2926:068A, 06A0
2926:06A7  8A 46 A2				mov	al,[bp-5Eh]
2926:06AA  32 E4				xor	ah,ah			; Zero register
2926:06AC  81 F8 00C7				cmp	ax,0C7h
						nop	                        ;*ASM fixup - short reg form
2926:06B0  B8 0000				mov	ax,0
2926:06B3  75 01				jnz	loc_79			; Jump if not zero
2926:06B5  40					inc	ax
2926:06B6			loc_79:						;  xref 2926:06B3
2926:06B6  D0 D8				rcr	al,1			; Rotate thru carry
2926:06B8  72 03				jc	loc_80			; Jump if carry Set
2926:06BA  E9 0006				jmp	loc_81			; (06C3)
2926:06BD			loc_80:						;  xref 2926:06B8
2926:06BD  E8 0AA7				call	sub_33			; (1167)
2926:06C0  E8 5116				call	sub_142			; (57D9)
2926:06C3			loc_81:						;  xref 2926:06BA
2926:06C3  8A 46 A2				mov	al,[bp-5Eh]
2926:06C6  32 E4				xor	ah,ah			; Zero register
2926:06C8  81 F8 0059				cmp	ax,59h
						nop	                        ;*ASM fixup - short reg form
2926:06CC  B8 0000				mov	ax,0
           ICON2.lst       ICON2.OVL		Sourcer	v8.01  20-Jul-2026 12:24 am   Page 20

2926:06CF  75 01				jnz	loc_82			; Jump if not zero
2926:06D1  40					inc	ax
2926:06D2			loc_82:						;  xref 2926:06CF
2926:06D2  50					push	ax
2926:06D3  8A 46 A2				mov	al,[bp-5Eh]
2926:06D6  32 E4				xor	ah,ah			; Zero register
2926:06D8  81 F8 004E				cmp	ax,4Eh
						nop	                        ;*ASM fixup - short reg form
2926:06DC  B8 0000				mov	ax,0
2926:06DF  75 01				jnz	loc_83			; Jump if not zero
2926:06E1  40					inc	ax
2926:06E2			loc_83:						;  xref 2926:06DF
2926:06E2  5B					pop	bx
2926:06E3  0B C3				or	ax,bx
2926:06E5  50					push	ax
2926:06E6  8A 46 A2				mov	al,[bp-5Eh]
2926:06E9  32 E4				xor	ah,ah			; Zero register
2926:06EB  81 F8 000D				cmp	ax,0Dh
						nop	                        ;*ASM fixup - short reg form
2926:06EF  B8 0000				mov	ax,0
2926:06F2  75 01				jnz	loc_84			; Jump if not zero
2926:06F4  40					inc	ax
2926:06F5			loc_84:						;  xref 2926:06F2
2926:06F5  5B					pop	bx
2926:06F6  0B C3				or	ax,bx
2926:06F8  D0 D8				rcr	al,1			; Rotate thru carry
2926:06FA  72 03				jc	loc_85			; Jump if carry Set
2926:06FC  E9 FF6B				jmp	loc_72			; (066A)
2926:06FF			loc_85:						;  xref 2926:06FA
2926:06FF  8A 46 A2				mov	al,[bp-5Eh]
2926:0702  32 E4				xor	ah,ah			; Zero register
2926:0704  81 F8 0059				cmp	ax,59h
						nop	                        ;*ASM fixup - short reg form
2926:0708  B8 0000				mov	ax,0
2926:070B  74 01				jz	loc_86			; Jump if zero
2926:070D  40					inc	ax
2926:070E			loc_86:						;  xref 2926:070B
2926:070E  50					push	ax
2926:070F  8A 46 A2				mov	al,[bp-5Eh]
2926:0712  32 E4				xor	ah,ah			; Zero register
2926:0714  81 F8 004E				cmp	ax,4Eh
						nop	                        ;*ASM fixup - short reg form
2926:0718  B8 0000				mov	ax,0
2926:071B  74 01				jz	loc_87			; Jump if zero
2926:071D  40					inc	ax
2926:071E			loc_87:						;  xref 2926:071B
2926:071E  5B					pop	bx
2926:071F  23 C3				and	ax,bx
2926:0721  D0 D8				rcr	al,1			; Rotate thru carry
2926:0723  72 03				jc	loc_88			; Jump if carry Set
2926:0725  E9 0006				jmp	loc_89			; (072E)
2926:0728			loc_88:						;  xref 2926:0723
2926:0728  8A 46 04				mov	al,[bp+4]
2926:072B  88 46 A2				mov	[bp-5Eh],al
2926:072E			loc_89:						;  xref 2926:0725
2926:072E  8A 46 A2				mov	al,[bp-5Eh]
2926:0731  32 E4				xor	ah,ah			; Zero register
           ICON2.lst       ICON2.OVL		Sourcer	v8.01  20-Jul-2026 12:24 am   Page 21

2926:0733  50					push	ax
2926:0734  1E					push	ds
2926:0735  B8 82FD				mov	ax,82FDh
2926:0738  50					push	ax
2926:0739  E8 35C1				call	sub_91			; (3CFD)
2926:073C  B8 FFFF				mov	ax,0FFFFh
2926:073F  50					push	ax
2926:0740  B8 FFFF				mov	ax,0FFFFh
2926:0743  50					push	ax
2926:0744  E8 4C37				call	sub_123			; (537E)
2926:0747  8A 46 A2				mov	al,[bp-5Eh]
2926:074A  32 E4				xor	ah,ah			; Zero register
2926:074C  81 F8 0059				cmp	ax,59h
						nop	                        ;*ASM fixup - short reg form
2926:0750  B8 0000				mov	ax,0
2926:0753  75 01				jnz	loc_90			; Jump if not zero
2926:0755  40					inc	ax
2926:0756			loc_90:						;  xref 2926:0753
2926:0756  88 46 F4				mov	[bp-0Ch],al
2926:0759  8A 46 F4				mov	al,[bp-0Ch]
2926:075C  32 E4				xor	ah,ah			; Zero register
2926:075E  8B E5				mov	sp,bp
2926:0760  5D					pop	bp
2926:0761  C2 0006				retn	6
				sub_19		endp

2926:0764			loc_91:						;  xref 2926:00B4
2926:0764  55					push	bp
2926:0765  8B EC				mov	bp,sp
2926:0767  55					push	bp
2926:0768  81 EC 0053				sub	sp,53h
2926:076C  16					push	ss
2926:076D  8D 46 AD				lea	ax,[bp-53h]		; Load effective addr
2926:0770  50					push	ax
2926:0771  8B 46 06				mov	ax,[bp+6]
2926:0774  50					push	ax
2926:0775  8B 46 04				mov	ax,[bp+4]
2926:0778  50					push	ax
2926:0779  B8 0051				mov	ax,51h
2926:077C  50					push	ax
2926:077D  E8 3213				call	sub_73			; (3993)
2926:0780  E8 4596				call	sub_109			; (4D19)
2926:0783  3D 0000				cmp	ax,0
2926:0786  75 03				jne	loc_92			; Jump if not equal
2926:0788  E9 002D				jmp	loc_93			; (07B8)
2926:078B			loc_92:						;  xref 2926:0786
2926:078B  E8 4D3A				call	sub_128			; (54C8)
2926:078E  0E E8 0013				callf	sub_22			; (07A5)
2926:0792  12 43 61				adc	al,[bp+di+61h]
2926:0795  6E 27 74 20 6F 70			db	'n', 27h, 't open file - '
2926:079B  65 6E 20 66 69 6C
2926:07A1  65 20 2D 20

				;ßßßßßßßßßßßßßßßßßßßßßßßßßßßßßßßßßßßßßßßßßßßßßßßßßßßßßßßßßßßßßßßßßßßßßßßßßß
				;                              SUBROUTINE
				;
				;         Called from:   2926:078E
           ICON2.lst       ICON2.OVL		Sourcer	v8.01  20-Jul-2026 12:24 am   Page 22

				;ÜÜÜÜÜÜÜÜÜÜÜÜÜÜÜÜÜÜÜÜÜÜÜÜÜÜÜÜÜÜÜÜÜÜÜÜÜÜÜÜÜÜÜÜÜÜÜÜÜÜÜÜÜÜÜÜÜÜÜÜÜÜÜÜÜÜÜÜÜÜÜÜÜÜ

2926:07A5			sub_22		proc	near
2926:07A5  E8 4D26				call	sub_130			; (54CE)
2926:07A8  16					push	ss
2926:07A9  8D 46 AD				lea	ax,[bp-53h]		; Load effective addr
2926:07AC  50					push	ax
2926:07AD  E8 4D1E				call	sub_130			; (54CE)
2926:07B0  E8 4D12				call	sub_127			; (54C5)
2926:07B3  53					push	bx
2926:07B4  50					push	ax
2926:07B5  E8 F8E7				call	sub_3			; (009F)
2926:07B8			loc_93:						;  xref 2926:0788
2926:07B8  8B E5				mov	sp,bp
2926:07BA  5D					pop	bp
2926:07BB  C2 0004				retn	4
				sub_22		endp

2926:07BE			loc_94:						;  xref 2926:00B7
2926:07BE  55					push	bp
2926:07BF  8B EC				mov	bp,sp
2926:07C1  55					push	bp
2926:07C2  81 EC 0065				sub	sp,65h
2926:07C6  1E					push	ds
2926:07C7  B8 82FD				mov	ax,82FDh
2926:07CA  50					push	ax
2926:07CB  E8 352F				call	sub_91			; (3CFD)
2926:07CE  E8 4378				call	sub_105			; (4B49)
2926:07D1  1E					push	ds
2926:07D2  B8 82FD				mov	ax,82FDh
2926:07D5  50					push	ax
2926:07D6  E8 3524				call	sub_91			; (3CFD)
2926:07D9  E8 436D				call	sub_105			; (4B49)
2926:07DC  0E E8 001F				callf	sub_23			; (07FF)
2926:07E0  1E					push	ds
2926:07E1  20 44 6F				and	[si+6Fh],al
2926:07E4  20 79 6F				and	[bx+di+6Fh],bh
2926:07E7  75 20		;*		jnz	loc_95			;*Jump if not zero
2926:07E7  75 20				db	 75h, 20h
2926:07E9  77 69 73 68 20 74			db	'wish to save this game'
2926:07EF  6F 20 73 61 76 65
2926:07F5  20 74 68 69 73 20
2926:07FB  67 61 6D 65

				;ßßßßßßßßßßßßßßßßßßßßßßßßßßßßßßßßßßßßßßßßßßßßßßßßßßßßßßßßßßßßßßßßßßßßßßßßßß
				;                              SUBROUTINE
				;
				;         Called from:   2926:07DC
				;ÜÜÜÜÜÜÜÜÜÜÜÜÜÜÜÜÜÜÜÜÜÜÜÜÜÜÜÜÜÜÜÜÜÜÜÜÜÜÜÜÜÜÜÜÜÜÜÜÜÜÜÜÜÜÜÜÜÜÜÜÜÜÜÜÜÜÜÜÜÜÜÜÜÜ

2926:07FF			sub_23		proc	near
2926:07FF  B8 0059				mov	ax,59h
2926:0802  50					push	ax
2926:0803  E8 F8AB				call	sub_8			; (00B1)
2926:0806  D0 D8				rcr	al,1			; Rotate thru carry
2926:0808  72 03				jc	loc_96			; Jump if carry Set
2926:080A  E9 055B				jmp	loc_124			; (0D68)
           ICON2.lst       ICON2.OVL		Sourcer	v8.01  20-Jul-2026 12:24 am   Page 23

2926:080D			loc_96:						;  xref 2926:0808, 0D6C
2926:080D ú16					push	ss
2926:080E  8D 46 AD				lea	ax,[bp-53h]		; Load effective addr
2926:0811  50					push	ax
2926:0812  E8 F899				call	sub_7			; (00AE)
2926:0815  1E					push	ds
2926:0816  B8 2B24				mov	ax,2B24h
2926:0819  50					push	ax
2926:081A  B8 0080				mov	ax,80h
2926:081D  50					push	ax
2926:081E  16					push	ss
2926:081F  8D 46 AD				lea	ax,[bp-53h]		; Load effective addr
2926:0822  50					push	ax
2926:0823  E8 4FD4				call	sub_144			; (57FA)
2926:0826  1E					push	ds
2926:0827  B8 2B24				mov	ax,2B24h
2926:082A ú50					push	ax
2926:082B  B8 0080				mov	ax,80h
2926:082E  50					push	ax
2926:082F  E8 4560				call	sub_111			; (4D92)
2926:0832  E8 44E4				call	sub_109			; (4D19)
2926:0835  3D 0000				cmp	ax,0
2926:0838  75 03				jne	loc_97			; Jump if not equal
2926:083A  E9 0066				jmp	loc_101			; (08A3)
2926:083D			loc_97:						;  xref 2926:0838
2926:083D  1E					push	ds
2926:083E  B8 2B24				mov	ax,2B24h
2926:0841 ú50					push	ax
2926:0842  B8 0080				mov	ax,80h
2926:0845  50					push	ax
2926:0846  1E					push	ds
2926:0847  B8 5E22				mov	ax,5E22h
2926:084A  50					push	ax
2926:084B  E8 335D				call	sub_78			; (3BAB)
2926:084E  1E					push	ds
2926:084F  B8 82FD				mov	ax,82FDh
2926:0852  50					push	ax
2926:0853  E8 34A7				call	sub_91			; (3CFD)
2926:0856  E8 42F0				call	sub_105			; (4B49)
2926:0859  1E					push	ds
2926:085A			loc_100:					;  xref 2926:07F3
2926:085A  B8 82FD				mov	ax,82FDh
2926:085D  50					push	ax
2926:085E  E8 349C				call	sub_91			; (3CFD)
2926:0861  0E E8 002D				callf	sub_24			; (0892)
2926:0865  2C 43 41 4E 27 54			db	',CAN', 27h, 'T OPEN GAME FILE - '
2926:086B  20 4F 50 45 4E 20
2926:0871  47 41 4D 45 20 46
2926:0877  49 4C 45 20 2D 20
2926:087D  54 68 65 20 64 69			db	'The disk may be full.'
2926:0883  73 6B 20 6D 61 79
2926:0889  20 62 65 20 66 75
2926:088F  6C 6C 2E

				;ßßßß External Entry into Subroutine ßßßßßßßßßßßßßßßßßßßßßßßßßßßßßßßßßßßßßß
				;
				;         Called from:   2926:0861
           ICON2.lst       ICON2.OVL		Sourcer	v8.01  20-Jul-2026 12:24 am   Page 24


2926:0892			sub_24:
2926:0892  B8 FFFF				mov	ax,0FFFFh
2926:0895  50					push	ax
2926:0896  B8 FFFF				mov	ax,0FFFFh
2926:0899  50					push	ax
2926:089A  E8 4AB1				call	sub_122			; (534E)
2926:089D  E8 42A9				call	sub_105			; (4B49)
2926:08A0  E9 04C9				jmp	loc_125			; (0D6C)
2926:08A3			loc_101:					;  xref 2926:083A
2926:08A3  C7 06 2904 0000			mov	data_102,0		; (2926:2904=20h)
2926:08A9  1E					push	ds
2926:08AA  B8 2B24				mov	ax,2B24h
2926:08AD ú50					push	ax
2926:08AE  B8 0080				mov	ax,80h
2926:08B1  50					push	ax
2926:08B2  B8 001A				mov	ax,1Ah
2926:08B5  50					push	ax
2926:08B6  E8 2ED7				call	sub_68			; (3790)
2926:08B9  A2 2D9A				mov	data_116,al		; (2926:2D9A=2)
2926:08BC  16					push	ss
2926:08BD  8D 46 AD				lea	ax,[bp-53h]		; Load effective addr
2926:08C0  50					push	ax
2926:08C1  0E E8 0009		;*		callf	sub_25			;*(08CE)
2926:08C1  0E E8 09 00				db	 0Eh,0E8h, 09h, 00h
2926:08C5  08 49 43				or	[bx+di+43h],cl
2926:08C8  4F					dec	di
2926:08C9  4E					dec	si
2926:08CA  20 31				and	[bx+di],dh
2926:08CC  2E: 31 B8 0050			xor	cs:data_53[bx+si],di	; (2926:0050=0)
2926:08D1  50					push	ax
2926:08D2  E8 30BE				call	sub_73			; (3993)
2926:08D5  C7 46 A9 FFFF			mov	word ptr [bp-57h],0FFFFh
2926:08DA  C7 46 A7 0009			mov	word ptr [bp-59h],9
2926:08DF			loc_102:					;  xref 2926:090C
2926:08DF úFF 46 A9				inc	word ptr [bp-57h]
2926:08E2  FF 4E A7				dec	word ptr [bp-59h]
2926:08E5  7D 03				jge	loc_103			; Jump if > or =
2926:08E7  E9 0024				jmp	loc_104			; (090E)
2926:08EA			loc_103:					;  xref 2926:08E5
2926:08EA  1E					push	ds
2926:08EB  B8 2B24				mov	ax,2B24h
2926:08EE ú50					push	ax
2926:08EF  B8 0080				mov	ax,80h
2926:08F2  50					push	ax
2926:08F3  16					push	ss
2926:08F4  8D 46 AD				lea	ax,[bp-53h]		; Load effective addr
2926:08F7  50					push	ax
2926:08F8  8B 46 A9				mov	ax,[bp-57h]
2926:08FB  5B					pop	bx
2926:08FC  03 C3				add	ax,bx
2926:08FE  97					xchg	di,ax
2926:08FF  07					pop	es
2926:0900  26: 8A 05				mov	al,es:[di]
2926:0903  32 E4				xor	ah,ah			; Zero register
2926:0905  50					push	ax
2926:0906  E8 2E87				call	sub_68			; (3790)
           ICON2.lst       ICON2.OVL		Sourcer	v8.01  20-Jul-2026 12:24 am   Page 25

2926:0909  A2 2D9A				mov	data_116,al		; (2926:2D9A=2)
2926:090C  EB D1				jmp	short loc_102		; (08DF)
2926:090E			loc_104:					;  xref 2926:08E7
2926:090E  A0 2DA8				mov	al,data_118		; (2926:2DA8=0Ah)
2926:0911  32 E4				xor	ah,ah			; Zero register
2926:0913  50					push	ax
2926:0914  E8 F7A6				call	sub_11			; (00BD)
2926:0917  A1 5E2E				mov	ax,ds:data_158e		; (2926:5E2E=0)
2926:091A  50					push	ax
2926:091B  E8 F79F				call	sub_11			; (00BD)
2926:091E  A0 2070				mov	al,data_99		; (2926:2070=3)
2926:0921  32 E4				xor	ah,ah			; Zero register
2926:0923  50					push	ax
2926:0924  E8 F796				call	sub_11			; (00BD)
2926:0927  A1 2A46				mov	ax,data_107		; (2926:2A46=82h)
2926:092A  50					push	ax
2926:092B  E8 F78F				call	sub_11			; (00BD)
2926:092E  A1 2904				mov	ax,data_102		; (2926:2904=20h)
2926:0931  50					push	ax
2926:0932  E8 F788				call	sub_11			; (00BD)
2926:0935  A1 826D				mov	ax,ds:data_178e		; (2926:826D=0)
2926:0938  50					push	ax
2926:0939  E8 F781				call	sub_11			; (00BD)
2926:093C  B8 0001				mov	ax,1
2926:093F  93					xchg	bx,ax
2926:0940  A1 5A26				mov	ax,word ptr ds:[5A26h]	; (2926:5A26=0DE8Bh)
2926:0943  93					xchg	bx,ax
2926:0944  89 46 A9				mov	[bp-57h],ax
2926:0947  93					xchg	bx,ax
2926:0948  FF 4E A9				dec	word ptr [bp-57h]
2926:094B  2B C3				sub	ax,bx
2926:094D  40					inc	ax
2926:094E  89 46 A5				mov	[bp-5Bh],ax
2926:0951			loc_105:					;  xref 2926:09AF
2926:0951 úFF 46 A9				inc	word ptr [bp-57h]
2926:0954  FF 4E A5				dec	word ptr [bp-5Bh]
2926:0957  7D 03				jge	loc_106			; Jump if > or =
2926:0959  E9 0055				jmp	loc_107			; (09B1)
2926:095C			loc_106:					;  xref 2926:0957
2926:095C  1E					push	ds
2926:095D  B8 5A9C				mov	ax,5A9Ch
2926:0960  50					push	ax
2926:0961  8B 46 A9				mov	ax,[bp-57h]
2926:0964  48					dec	ax
2926:0965  BB 0006				mov	bx,6
2926:0968  F7 E3				mul	bx			; dx:ax = reg * ax
2926:096A  5B					pop	bx
2926:096B  03 C3				add	ax,bx
2926:096D  97					xchg	di,ax
2926:096E  07					pop	es
2926:096F  26: 8B 05				mov	ax,es:[di]
2926:0972  50					push	ax
2926:0973  E8 F747				call	sub_11			; (00BD)
2926:0976  1E					push	ds
2926:0977  B8 5A9C				mov	ax,5A9Ch
2926:097A  50					push	ax
2926:097B  8B 46 A9				mov	ax,[bp-57h]
           ICON2.lst       ICON2.OVL		Sourcer	v8.01  20-Jul-2026 12:24 am   Page 26

2926:097E  48					dec	ax
2926:097F  BB 0006				mov	bx,6
2926:0982  F7 E3				mul	bx			; dx:ax = reg * ax
2926:0984  5B					pop	bx
2926:0985  03 C3				add	ax,bx
2926:0987  40					inc	ax
2926:0988  40					inc	ax
2926:0989  97					xchg	di,ax
2926:098A  07					pop	es
2926:098B  26: 8B 05				mov	ax,es:[di]
2926:098E  50					push	ax
2926:098F  E8 F72B				call	sub_11			; (00BD)
2926:0992  1E					push	ds
2926:0993  B8 5A9C				mov	ax,5A9Ch
2926:0996  50					push	ax
2926:0997  8B 46 A9				mov	ax,[bp-57h]
2926:099A  48					dec	ax
2926:099B  BB 0006				mov	bx,6
2926:099E  F7 E3				mul	bx			; dx:ax = reg * ax
2926:09A0  5B					pop	bx
2926:09A1  03 C3				add	ax,bx
2926:09A3  05 0004				add	ax,4
2926:09A6  97					xchg	di,ax
2926:09A7  07					pop	es
2926:09A8  26: 8B 05				mov	ax,es:[di]
2926:09AB  50					push	ax
2926:09AC  E8 F70E				call	sub_11			; (00BD)
2926:09AF  EB A0				jmp	short loc_105		; (0951)
2926:09B1			loc_107:					;  xref 2926:0959
2926:09B1  C7 46 A9 0010			mov	word ptr [bp-57h],10h
2926:09B6  C7 46 A3 0010			mov	word ptr [bp-5Dh],10h
2926:09BB			loc_108:					;  xref 2926:0A36
2926:09BB úFF 46 A9				inc	word ptr [bp-57h]
2926:09BE  FF 4E A3				dec	word ptr [bp-5Dh]
2926:09C1  7D 03				jge	loc_109			; Jump if > or =
2926:09C3  E9 0072				jmp	loc_113			; (0A38)
2926:09C6			loc_109:					;  xref 2926:09C1
2926:09C6  C7 46 AB FFFF			mov	word ptr [bp-55h],0FFFFh
2926:09CB  C7 46 A1 0002			mov	word ptr [bp-5Fh],2
2926:09D0			loc_110:					;  xref 2926:0A34
2926:09D0 úFF 46 AB				inc	word ptr [bp-55h]
2926:09D3  FF 4E A1				dec	word ptr [bp-5Fh]
2926:09D6  7D 03				jge	loc_111			; Jump if > or =
2926:09D8  E9 005B				jmp	loc_112			; (0A36)
2926:09DB			loc_111:					;  xref 2926:09D6
2926:09DB  1E					push	ds
2926:09DC  B8 2906				mov	ax,2906h
2926:09DF  50					push	ax
2926:09E0  FF 76 A9				push	word ptr [bp-57h]
2926:09E3  58					pop	ax
2926:09E4  BB 0004				mov	bx,4
2926:09E7  F7 E3				mul	bx			; dx:ax = reg * ax
2926:09E9  5B					pop	bx
2926:09EA  03 C3				add	ax,bx
2926:09EC  50					push	ax
2926:09ED  8B 46 AB				mov	ax,[bp-55h]
2926:09F0  93					xchg	bx,ax
           ICON2.lst       ICON2.OVL		Sourcer	v8.01  20-Jul-2026 12:24 am   Page 27

2926:09F1  B8 0002				mov	ax,2
2926:09F4  F7 EB				imul	bx			; dx:ax = reg * ax
2926:09F6  5B					pop	bx
2926:09F7  03 C3				add	ax,bx
2926:09F9  97					xchg	di,ax
2926:09FA  07					pop	es
2926:09FB  26: 8A 05				mov	al,es:[di]
2926:09FE  32 E4				xor	ah,ah			; Zero register
2926:0A00  93					xchg	bx,ax
2926:0A01  B8 0100				mov	ax,100h
2926:0A04  F7 EB				imul	bx			; dx:ax = reg * ax
2926:0A06  50					push	ax
2926:0A07  1E					push	ds
2926:0A08  B8 2906				mov	ax,2906h
2926:0A0B  50					push	ax
2926:0A0C  FF 76 A9				push	word ptr [bp-57h]
2926:0A0F  58					pop	ax
2926:0A10  BB 0004				mov	bx,4
2926:0A13  F7 E3				mul	bx			; dx:ax = reg * ax
2926:0A15  5B					pop	bx
2926:0A16  03 C3				add	ax,bx
2926:0A18  50					push	ax
2926:0A19  8B 46 AB				mov	ax,[bp-55h]
2926:0A1C  93					xchg	bx,ax
2926:0A1D  B8 0002				mov	ax,2
2926:0A20  F7 EB				imul	bx			; dx:ax = reg * ax
2926:0A22  40					inc	ax
2926:0A23  5B					pop	bx
2926:0A24  03 C3				add	ax,bx
2926:0A26  97					xchg	di,ax
2926:0A27  07					pop	es
2926:0A28  26: 8A 05				mov	al,es:[di]
2926:0A2B  32 E4				xor	ah,ah			; Zero register
2926:0A2D  5B					pop	bx
2926:0A2E  03 C3				add	ax,bx
2926:0A30  50					push	ax
2926:0A31  E8 F689				call	sub_11			; (00BD)
2926:0A34  EB 9A				jmp	short loc_110		; (09D0)
2926:0A36			loc_112:					;  xref 2926:09D8
2926:0A36  EB 83				jmp	short loc_108		; (09BB)
2926:0A38			loc_113:					;  xref 2926:09C3
2926:0A38  A1 5A32				mov	ax,data_144		; (2926:5A32=5A57h)
2926:0A3B  50					push	ax
2926:0A3C  E8 F67E				call	sub_11			; (00BD)
2926:0A3F  A1 5A34				mov	ax,data_145		; (2926:5A34=5A5Ch)
2926:0A42  50					push	ax
2926:0A43  E8 F677				call	sub_11			; (00BD)
2926:0A46  A1 5DAA				mov	ax,ds:data_150e		; (2926:5DAA=0)
2926:0A49  50					push	ax
2926:0A4A  E8 F670				call	sub_11			; (00BD)
2926:0A4D  A1 5DAC				mov	ax,ds:data_151e		; (2926:5DAC=0)
2926:0A50  50					push	ax
2926:0A51  E8 F669				call	sub_11			; (00BD)
2926:0A54  A1 822A				mov	ax,ds:data_163e		; (2926:822A=0)
2926:0A57  50					push	ax
2926:0A58  E8 F662				call	sub_11			; (00BD)
2926:0A5B  A1 822E				mov	ax,ds:data_164e		; (2926:822E=0)
           ICON2.lst       ICON2.OVL		Sourcer	v8.01  20-Jul-2026 12:24 am   Page 28

2926:0A5E  50					push	ax
2926:0A5F  E8 F65B				call	sub_11			; (00BD)
2926:0A62  A1 29F8				mov	ax,data_104		; (2926:29F8=0DEA0h)
2926:0A65  50					push	ax
2926:0A66  E8 F654				call	sub_11			; (00BD)
2926:0A69  A1 29FA				mov	ax,data_105		; (2926:29FA=0B1AAh)
2926:0A6C  50					push	ax
2926:0A6D  E8 F64D				call	sub_11			; (00BD)
2926:0A70  A1 31C2				mov	ax,data_120		; (2926:31C2=0DE50h)
2926:0A73  50					push	ax
2926:0A74  E8 F646				call	sub_11			; (00BD)
2926:0A77  A1 8228				mov	ax,ds:data_162e		; (2926:8228=0)
2926:0A7A  50					push	ax
2926:0A7B  E8 F63F				call	sub_11			; (00BD)
2926:0A7E  A1 2BEC				mov	ax,word ptr ds:[2BECh]	; (2926:2BEC=0DE04h)
2926:0A81  50					push	ax
2926:0A82  E8 F638				call	sub_11			; (00BD)
2926:0A85  A1 31D0				mov	ax,data_121		; (2926:31D0=0DE48h)
2926:0A88  50					push	ax
2926:0A89  E8 F631				call	sub_11			; (00BD)
2926:0A8C  A1 31D2				mov	ax,data_122		; (2926:31D2=88h)
2926:0A8F  50					push	ax
2926:0A90  E8 F62A				call	sub_11			; (00BD)
2926:0A93  A1 8222				mov	ax,ds:data_159e		; (2926:8222=0)
2926:0A96  50					push	ax
2926:0A97  E8 F623				call	sub_11			; (00BD)
2926:0A9A  B8 0047				mov	ax,47h
2926:0A9D  93					xchg	bx,ax
2926:0A9E  A1 5A26				mov	ax,word ptr ds:[5A26h]	; (2926:5A26=0DE8Bh)
2926:0AA1  93					xchg	bx,ax
2926:0AA2  89 46 A9				mov	[bp-57h],ax
2926:0AA5  93					xchg	bx,ax
2926:0AA6  FF 4E A9				dec	word ptr [bp-57h]
2926:0AA9  2B C3				sub	ax,bx
2926:0AAB  40					inc	ax
2926:0AAC  89 46 9F				mov	[bp-61h],ax
2926:0AAF			loc_114:					;  xref 2926:0B13
2926:0AAF úFF 46 A9				inc	word ptr [bp-57h]
2926:0AB2  FF 4E 9F				dec	word ptr [bp-61h]
2926:0AB5  7D 03				jge	loc_115			; Jump if > or =
2926:0AB7  E9 005B				jmp	loc_116			; (0B15)
2926:0ABA			loc_115:					;  xref 2926:0AB5
2926:0ABA  1E					push	ds
2926:0ABB  B8 2C1A				mov	ax,2C1Ah
2926:0ABE  50					push	ax
2926:0ABF  8B 46 A9				mov	ax,[bp-57h]
2926:0AC2  2D 0047				sub	ax,47h
2926:0AC5  BB 0006				mov	bx,6
2926:0AC8  F7 E3				mul	bx			; dx:ax = reg * ax
2926:0ACA  5B					pop	bx
2926:0ACB  03 C3				add	ax,bx
2926:0ACD  97					xchg	di,ax
2926:0ACE  07					pop	es
2926:0ACF  26: 8B 05				mov	ax,es:[di]
2926:0AD2  50					push	ax
2926:0AD3  E8 F5E7				call	sub_11			; (00BD)
2926:0AD6  1E					push	ds
           ICON2.lst       ICON2.OVL		Sourcer	v8.01  20-Jul-2026 12:24 am   Page 29

2926:0AD7  B8 2C1A				mov	ax,2C1Ah
2926:0ADA  50					push	ax
2926:0ADB  8B 46 A9				mov	ax,[bp-57h]
2926:0ADE  2D 0047				sub	ax,47h
2926:0AE1  BB 0006				mov	bx,6
2926:0AE4  F7 E3				mul	bx			; dx:ax = reg * ax
2926:0AE6  5B					pop	bx
2926:0AE7  03 C3				add	ax,bx
2926:0AE9  40					inc	ax
2926:0AEA  40					inc	ax
2926:0AEB  97					xchg	di,ax
2926:0AEC  07					pop	es
2926:0AED  26: 8B 05				mov	ax,es:[di]
2926:0AF0  50					push	ax
2926:0AF1  E8 F5C9				call	sub_11			; (00BD)
2926:0AF4  1E					push	ds
2926:0AF5  B8 2C1A				mov	ax,2C1Ah
2926:0AF8  50					push	ax
2926:0AF9  8B 46 A9				mov	ax,[bp-57h]
2926:0AFC  2D 0047				sub	ax,47h
2926:0AFF  BB 0006				mov	bx,6
2926:0B02  F7 E3				mul	bx			; dx:ax = reg * ax
2926:0B04  5B					pop	bx
2926:0B05  03 C3				add	ax,bx
2926:0B07  05 0004				add	ax,4
2926:0B0A  97					xchg	di,ax
2926:0B0B  07					pop	es
2926:0B0C  26: 8B 05				mov	ax,es:[di]
2926:0B0F  50					push	ax
2926:0B10  E8 F5AA				call	sub_11			; (00BD)
2926:0B13  EB 9A				jmp	short loc_114		; (0AAF)
2926:0B15			loc_116:					;  xref 2926:0AB7
2926:0B15  1E					push	ds
2926:0B16  B8 2B24				mov	ax,2B24h
2926:0B19 ú50					push	ax
2926:0B1A  B8 0080				mov	ax,80h
2926:0B1D  50					push	ax
2926:0B1E  A0 2DA8				mov	al,data_118		; (2926:2DA8=0Ah)
2926:0B21  32 E4				xor	ah,ah			; Zero register
2926:0B23  93					xchg	bx,ax
2926:0B24  B8 0051				mov	ax,51h
2926:0B27  2B D8				sub	bx,ax
2926:0B29  53					push	bx
2926:0B2A  E8 2C63				call	sub_68			; (3790)
2926:0B2D  A2 2D9A				mov	data_116,al		; (2926:2D9A=2)
2926:0B30  A0 8226				mov	al,ds:data_161e		; (2926:8226=0)
2926:0B33  32 E4				xor	ah,ah			; Zero register
2926:0B35  50					push	ax
2926:0B36  E8 F584				call	sub_11			; (00BD)
2926:0B39  A0 298C				mov	al,data_103		; (2926:298C=0AAh)
2926:0B3C  32 E4				xor	ah,ah			; Zero register
2926:0B3E  50					push	ax
2926:0B3F  E8 F57B				call	sub_11			; (00BD)
2926:0B42  A0 2A3E				mov	al,data_106		; (2926:2A3E=5)
2926:0B45  32 E4				xor	ah,ah			; Zero register
2926:0B47  50					push	ax
2926:0B48  E8 F572				call	sub_11			; (00BD)
           ICON2.lst       ICON2.OVL		Sourcer	v8.01  20-Jul-2026 12:24 am   Page 30

2926:0B4B  A0 2DAA				mov	al,data_119		; (2926:2DAA=0AAh)
2926:0B4E  32 E4				xor	ah,ah			; Zero register
2926:0B50  50					push	ax
2926:0B51  E8 F569				call	sub_11			; (00BD)
2926:0B54  A1 2076				mov	ax,data_100		; (2926:2076=0B091h)
2926:0B57  50					push	ax
2926:0B58  E8 F562				call	sub_11			; (00BD)
2926:0B5B  A1 5A2A				mov	ax,word ptr ds:[5A2Ah]	; (2926:5A2A=0B0BBh)
2926:0B5E  50					push	ax
2926:0B5F  E8 F55B				call	sub_11			; (00BD)
2926:0B62  A1 5DE2				mov	ax,ds:data_154e		; (2926:5DE2=0)
2926:0B65  50					push	ax
2926:0B66  E8 F554				call	sub_11			; (00BD)
2926:0B69  A1 5E2E				mov	ax,ds:data_158e		; (2926:5E2E=0)
2926:0B6C  F7 D8				neg	ax
2926:0B6E  50					push	ax
2926:0B6F  E8 F54B				call	sub_11			; (00BD)
2926:0B72  A1 2A50				mov	ax,data_110		; (2926:2A50=0DEEEh)
2926:0B75  50					push	ax
2926:0B76  E8 F544				call	sub_11			; (00BD)
2926:0B79  A1 2A52				mov	ax,data_111		; (2926:2A52=0)
2926:0B7C  50					push	ax
2926:0B7D  E8 F53D				call	sub_11			; (00BD)
2926:0B80  A1 2A4C				mov	ax,data_108		; (2926:2A4C=0B002h)
2926:0B83  50					push	ax
2926:0B84  E8 F536				call	sub_11			; (00BD)
2926:0B87  A1 2A4E				mov	ax,data_109		; (2926:2A4E=0DE20h)
2926:0B8A  50					push	ax
2926:0B8B  E8 F52F				call	sub_11			; (00BD)
2926:0B8E  A1 2B1A				mov	ax,word ptr ds:[2B1Ah]	; (2926:2B1A=0DE02h)
2926:0B91  50					push	ax
2926:0B92  E8 F528				call	sub_11			; (00BD)
2926:0B95  A1 2B1C				mov	ax,word ptr ds:[2B1Ch]	; (2926:2B1C=22h)
2926:0B98  50					push	ax
2926:0B99  E8 F521				call	sub_11			; (00BD)
2926:0B9C  C7 46 A9 0046			mov	word ptr [bp-57h],46h
2926:0BA1  C7 46 9D 0014			mov	word ptr [bp-63h],14h
2926:0BA6			loc_117:					;  xref 2926:0BE3
2926:0BA6 úFF 46 A9				inc	word ptr [bp-57h]
2926:0BA9  FF 4E 9D				dec	word ptr [bp-63h]
2926:0BAC  7D 03				jge	loc_118			; Jump if > or =
2926:0BAE  E9 0034				jmp	loc_119			; (0BE5)
2926:0BB1			loc_118:					;  xref 2926:0BAC
2926:0BB1  1E					push	ds
2926:0BB2  B8 5DF8				mov	ax,5DF8h
2926:0BB5  50					push	ax
2926:0BB6  8B 46 A9				mov	ax,[bp-57h]
2926:0BB9  2D 0047				sub	ax,47h
2926:0BBC  D1 E0				shl	ax,1			; Shift w/zeros fill
2926:0BBE  5B					pop	bx
2926:0BBF  03 C3				add	ax,bx
2926:0BC1  97					xchg	di,ax
2926:0BC2  07					pop	es
2926:0BC3  26: 8B 05				mov	ax,es:[di]
2926:0BC6  50					push	ax
2926:0BC7  E8 F4F3				call	sub_11			; (00BD)
2926:0BCA  1E					push	ds
           ICON2.lst       ICON2.OVL		Sourcer	v8.01  20-Jul-2026 12:24 am   Page 31

2926:0BCB  B8 5DB0				mov	ax,5DB0h
2926:0BCE  50					push	ax
2926:0BCF  8B 46 A9				mov	ax,[bp-57h]
2926:0BD2  2D 0047				sub	ax,47h
2926:0BD5  D1 E0				shl	ax,1			; Shift w/zeros fill
2926:0BD7  5B					pop	bx
2926:0BD8  03 C3				add	ax,bx
2926:0BDA  97					xchg	di,ax
2926:0BDB  07					pop	es
2926:0BDC  26: 8B 05				mov	ax,es:[di]
2926:0BDF  50					push	ax
2926:0BE0  E8 F4DA				call	sub_11			; (00BD)
2926:0BE3  EB C1				jmp	short loc_117		; (0BA6)
2926:0BE5			loc_119:					;  xref 2926:0BAE
2926:0BE5  C7 46 A9 000A			mov	word ptr [bp-57h],0Ah
2926:0BEA  C7 46 9B 0050			mov	word ptr [bp-65h],50h
2926:0BEF			loc_120:					;  xref 2926:0CD1
2926:0BEF úFF 46 A9				inc	word ptr [bp-57h]
2926:0BF2  FF 4E 9B				dec	word ptr [bp-65h]
2926:0BF5  7D 03				jge	loc_121			; Jump if > or =
2926:0BF7  E9 00DA				jmp	loc_122			; (0CD4)
2926:0BFA			loc_121:					;  xref 2926:0BF5
2926:0BFA  1E					push	ds
2926:0BFB  B8 2DAC				mov	ax,2DACh
2926:0BFE  50					push	ax
2926:0BFF  8B 46 A9				mov	ax,[bp-57h]
2926:0C02  2D 000B				sub	ax,0Bh
2926:0C05  BB 000D				mov	bx,0Dh
2926:0C08  F7 E3				mul	bx			; dx:ax = reg * ax
2926:0C0A  5B					pop	bx
2926:0C0B  03 C3				add	ax,bx
2926:0C0D  40					inc	ax
2926:0C0E  40					inc	ax
2926:0C0F  97					xchg	di,ax
2926:0C10  07					pop	es
2926:0C11  26: 8B 05				mov	ax,es:[di]
2926:0C14  50					push	ax
2926:0C15  E8 F4A5				call	sub_11			; (00BD)
2926:0C18  1E					push	ds
2926:0C19  B8 2DAC				mov	ax,2DACh
2926:0C1C  50					push	ax
2926:0C1D  8B 46 A9				mov	ax,[bp-57h]
2926:0C20  2D 000B				sub	ax,0Bh
2926:0C23  BB 000D				mov	bx,0Dh
2926:0C26  F7 E3				mul	bx			; dx:ax = reg * ax
2926:0C28  5B					pop	bx
2926:0C29  03 C3				add	ax,bx
2926:0C2B  97					xchg	di,ax
2926:0C2C  07					pop	es
2926:0C2D  26: 8B 05				mov	ax,es:[di]
2926:0C30  50					push	ax
2926:0C31  E8 F489				call	sub_11			; (00BD)
2926:0C34  1E					push	ds
2926:0C35  B8 2DAC				mov	ax,2DACh
2926:0C38  50					push	ax
2926:0C39  8B 46 A9				mov	ax,[bp-57h]
2926:0C3C  2D 000B				sub	ax,0Bh
           ICON2.lst       ICON2.OVL		Sourcer	v8.01  20-Jul-2026 12:24 am   Page 32

2926:0C3F  BB 000D				mov	bx,0Dh
2926:0C42  F7 E3				mul	bx			; dx:ax = reg * ax
2926:0C44  5B					pop	bx
2926:0C45  03 C3				add	ax,bx
2926:0C47  05 0006				add	ax,6
2926:0C4A  97					xchg	di,ax
2926:0C4B  07					pop	es
2926:0C4C  26: 8B 05				mov	ax,es:[di]
2926:0C4F  50					push	ax
2926:0C50  E8 F46A				call	sub_11			; (00BD)
2926:0C53  1E					push	ds
2926:0C54  B8 2DAC				mov	ax,2DACh
2926:0C57  50					push	ax
2926:0C58  8B 46 A9				mov	ax,[bp-57h]
2926:0C5B  2D 000B				sub	ax,0Bh
2926:0C5E  BB 000D				mov	bx,0Dh
2926:0C61  F7 E3				mul	bx			; dx:ax = reg * ax
2926:0C63  5B					pop	bx
2926:0C64  03 C3				add	ax,bx
2926:0C66  05 0004				add	ax,4
2926:0C69  97					xchg	di,ax
2926:0C6A  07					pop	es
2926:0C6B  26: 8B 05				mov	ax,es:[di]
2926:0C6E  50					push	ax
2926:0C6F  E8 F44B				call	sub_11			; (00BD)
2926:0C72  1E					push	ds
2926:0C73  B8 2DAC				mov	ax,2DACh
2926:0C76  50					push	ax
2926:0C77  8B 46 A9				mov	ax,[bp-57h]
2926:0C7A  2D 000B				sub	ax,0Bh
2926:0C7D  BB 000D				mov	bx,0Dh
2926:0C80  F7 E3				mul	bx			; dx:ax = reg * ax
2926:0C82  5B					pop	bx
2926:0C83  03 C3				add	ax,bx
2926:0C85  05 0008				add	ax,8
2926:0C88  97					xchg	di,ax
2926:0C89  07					pop	es
2926:0C8A  26: 8B 05				mov	ax,es:[di]
2926:0C8D  50					push	ax
2926:0C8E  E8 F42C				call	sub_11			; (00BD)
2926:0C91  1E					push	ds
2926:0C92  B8 2DAC				mov	ax,2DACh
2926:0C95  50					push	ax
2926:0C96  8B 46 A9				mov	ax,[bp-57h]
2926:0C99  2D 000B				sub	ax,0Bh
2926:0C9C  BB 000D				mov	bx,0Dh
2926:0C9F  F7 E3				mul	bx			; dx:ax = reg * ax
2926:0CA1  5B					pop	bx
2926:0CA2  03 C3				add	ax,bx
2926:0CA4  05 000A				add	ax,0Ah
2926:0CA7  97					xchg	di,ax
2926:0CA8  07					pop	es
2926:0CA9  26: 8B 05				mov	ax,es:[di]
2926:0CAC  50					push	ax
2926:0CAD  E8 F40D				call	sub_11			; (00BD)
2926:0CB0  1E					push	ds
2926:0CB1  B8 2DAC				mov	ax,2DACh
           ICON2.lst       ICON2.OVL		Sourcer	v8.01  20-Jul-2026 12:24 am   Page 33

2926:0CB4  50					push	ax
2926:0CB5  8B 46 A9				mov	ax,[bp-57h]
2926:0CB8  2D 000B				sub	ax,0Bh
2926:0CBB  BB 000D				mov	bx,0Dh
2926:0CBE  F7 E3				mul	bx			; dx:ax = reg * ax
2926:0CC0  5B					pop	bx
2926:0CC1  03 C3				add	ax,bx
2926:0CC3  05 000C				add	ax,0Ch
2926:0CC6  97					xchg	di,ax
2926:0CC7  07					pop	es
2926:0CC8  26: 8A 05				mov	al,es:[di]
2926:0CCB  32 E4				xor	ah,ah			; Zero register
2926:0CCD  50					push	ax
2926:0CCE  E8 F3EC				call	sub_11			; (00BD)
2926:0CD1  E9 FF1B				jmp	loc_120			; (0BEF)
2926:0CD4			loc_122:					;  xref 2926:0BF7
2926:0CD4  A1 2904				mov	ax,data_102		; (2926:2904=20h)
2926:0CD7  50					push	ax
2926:0CD8  E8 F3E2				call	sub_11			; (00BD)
2926:0CDB  E8 095A				call	sub_37			; (1638)
2926:0CDE  89 46 A9				mov	[bp-57h],ax
2926:0CE1  A1 826D				mov	ax,ds:data_178e		; (2926:826D=0)
2926:0CE4  50					push	ax
2926:0CE5  E8 F3D5				call	sub_11			; (00BD)
2926:0CE8  E8 094D				call	sub_37			; (1638)
2926:0CEB  89 46 A9				mov	[bp-57h],ax
2926:0CEE  A1 826D				mov	ax,ds:data_178e		; (2926:826D=0)
2926:0CF1  50					push	ax
2926:0CF2  E8 F3C8				call	sub_11			; (00BD)
2926:0CF5  E8 0940				call	sub_37			; (1638)
2926:0CF8  89 46 A9				mov	[bp-57h],ax
2926:0CFB  A1 826D				mov	ax,ds:data_178e		; (2926:826D=0)
2926:0CFE  50					push	ax
2926:0CFF  E8 F3BB				call	sub_11			; (00BD)
2926:0D02  1E					push	ds
2926:0D03  B8 2B24				mov	ax,2B24h
2926:0D06 ú50					push	ax
2926:0D07  B8 0080				mov	ax,80h
2926:0D0A  50					push	ax
2926:0D0B  1E					push	ds
2926:0D0C  B8 5E22				mov	ax,5E22h
2926:0D0F  50					push	ax
2926:0D10  E8 2E98				call	sub_78			; (3BAB)
2926:0D13  E8 4003				call	sub_109			; (4D19)
2926:0D16  3D 0000				cmp	ax,0
2926:0D19  75 03				jne	loc_123			; Jump if not equal
2926:0D1B  E9 004A				jmp	loc_124			; (0D68)
2926:0D1E			loc_123:					;  xref 2926:0D19
2926:0D1E  1E					push	ds
2926:0D1F  B8 82FD				mov	ax,82FDh
2926:0D22  50					push	ax
2926:0D23  E8 2FD7				call	sub_91			; (3CFD)
2926:0D26  0E E8 002D				callf	sub_26			; (0D57)
2926:0D2A  2C 43 41 4E 27 54			db	',CAN', 27h, 'T SAVE GAME FILE - '
2926:0D30  20 53 41 56 45 20
2926:0D36  47 41 4D 45 20 46
2926:0D3C  49 4C 45 20 2D 20
           ICON2.lst       ICON2.OVL		Sourcer	v8.01  20-Jul-2026 12:24 am   Page 34

2926:0D42  54 68 65 20 64 69			db	'The disk may be full.'
2926:0D48  73 6B 20 6D 61 79
2926:0D4E  20 62 65 20 66 75
2926:0D54  6C 6C 2E

				;ßßßß External Entry into Subroutine ßßßßßßßßßßßßßßßßßßßßßßßßßßßßßßßßßßßßßß
				;
				;         Called from:   2926:0D26

2926:0D57			sub_26:
2926:0D57  B8 FFFF				mov	ax,0FFFFh
2926:0D5A  50					push	ax
2926:0D5B  B8 FFFF				mov	ax,0FFFFh
2926:0D5E  50					push	ax
2926:0D5F  E8 45EC				call	sub_122			; (534E)
2926:0D62  E8 3DE4				call	sub_105			; (4B49)
2926:0D65  E9 0004				jmp	loc_125			; (0D6C)
2926:0D68			loc_124:					;  xref 2926:080A, 0D1B
2926:0D68  8B E5				mov	sp,bp
2926:0D6A  5D					pop	bp
2926:0D6B  C3					retn
2926:0D6C			loc_125:					;  xref 2926:08A0, 0D65
2926:0D6C  E9 FA9E				jmp	loc_96			; (080D)
				sub_23		endp

2926:0D6F			loc_126:					;  xref 2926:00BA
2926:0D6F  55					push	bp
2926:0D70  8B EC				mov	bp,sp
2926:0D72  55					push	bp
2926:0D73  81 EC 002D				sub	sp,2Dh
2926:0D77			loc_127:					;  xref 2926:0D9B
2926:0D77 úE8 F331				call	sub_6			; (00AB)
2926:0D7A  50					push	ax
2926:0D7B  E8 062D				call	sub_35			; (13AB)
2926:0D7E  93					xchg	bx,ax
2926:0D7F  B8 0003				mov	ax,3
2926:0D82  23 C3				and	ax,bx
2926:0D84  3D 0000				cmp	ax,0
2926:0D87  B8 0000				mov	ax,0
2926:0D8A  74 01				jz	loc_128			; Jump if zero
2926:0D8C  40					inc	ax
2926:0D8D			loc_128:					;  xref 2926:0D8A
2926:0D8D  5B					pop	bx
2926:0D8E  0B C3				or	ax,bx
2926:0D90  50					push	ax
2926:0D91  E8 0E34				call	sub_42			; (1BC8)
2926:0D94  5B					pop	bx
2926:0D95  0B C3				or	ax,bx
2926:0D97  D0 D8				rcr	al,1			; Rotate thru carry
2926:0D99  72 03				jc	loc_129			; Jump if carry Set
2926:0D9B  E9 FFD9				jmp	loc_127			; (0D77)
						nop	                                        ;*jump fixup
2926:0D9E			loc_129:					;  xref 2926:0D99
2926:0D9E  E8 F30A				call	sub_6			; (00AB)
2926:0DA1  D0 D8				rcr	al,1			; Rotate thru carry
2926:0DA3  72 03				jc	loc_130			; Jump if carry Set
2926:0DA5  E9 0009				jmp	loc_131			; (0DB1)
           ICON2.lst       ICON2.OVL		Sourcer	v8.01  20-Jul-2026 12:24 am   Page 35

2926:0DA8			loc_130:					;  xref 2926:0DA3
2926:0DA8  E8 F2FD				call	sub_5			; (00A8)
2926:0DAB  88 46 F3				mov	[bp-0Dh],al
2926:0DAE  E9 0004				jmp	loc_132			; (0DB5)
2926:0DB1			loc_131:					;  xref 2926:0DA5
2926:0DB1  C6 46 F3 20				mov	byte ptr [bp-0Dh],20h	; ' '
2926:0DB5			loc_132:					;  xref 2926:0DAE
2926:0DB5  8A 46 F3				mov	al,[bp-0Dh]
2926:0DB8  88 46 F4				mov	[bp-0Ch],al
2926:0DBB  8A 46 F4				mov	al,[bp-0Ch]
2926:0DBE  32 E4				xor	ah,ah			; Zero register
2926:0DC0  8B E5				mov	sp,bp
2926:0DC2  5D					pop	bp
2926:0DC3  C3					retn
2926:0DC4			loc_133:					;  xref 2926:00BD
2926:0DC4  55					push	bp
2926:0DC5  8B EC				mov	bp,sp
2926:0DC7  55					push	bp
2926:0DC8  81 EC 0022				sub	sp,22h
2926:0DCC  1E					push	ds
2926:0DCD  B8 2B24				mov	ax,2B24h
2926:0DD0 ú50					push	ax
2926:0DD1  B8 0080				mov	ax,80h
2926:0DD4  50					push	ax
2926:0DD5  8B 46 04				mov	ax,[bp+4]
2926:0DD8  93					xchg	bx,ax
2926:0DD9  B8 00FF				mov	ax,0FFh
2926:0DDC  23 C3				and	ax,bx
2926:0DDE  50					push	ax
2926:0DDF  E8 29AE				call	sub_68			; (3790)
2926:0DE2  A2 2D9A				mov	data_116,al		; (2926:2D9A=2)
2926:0DE5  1E					push	ds
2926:0DE6  B8 2B24				mov	ax,2B24h
2926:0DE9  50					push	ax
2926:0DEA  B8 0080				mov	ax,80h
2926:0DED  50					push	ax
2926:0DEE  FF 76 04				push	word ptr [bp+4]
2926:0DF1  B8 0008				mov	ax,8
2926:0DF4  50					push	ax
2926:0DF5  E8 48C5				call	sub_136			; (56BD)
2926:0DF8  50					push	ax
2926:0DF9  E8 2994				call	sub_68			; (3790)
2926:0DFC  A2 2D9A				mov	data_116,al		; (2926:2D9A=2)
2926:0DFF  FF 76 04				push	word ptr [bp+4]
2926:0E02  E8 F291				call	sub_1			; (0096)
2926:0E05  8B E5				mov	sp,bp
2926:0E07  5D					pop	bp
2926:0E08  C2 0002				retn	2
2926:0E0B			loc_134:					;  xref 2926:00C0
2926:0E0B  55					push	bp
2926:0E0C  8B EC				mov	bp,sp
2926:0E0E  55					push	bp
2926:0E0F  81 EC 0002				sub	sp,2
2926:0E13  1E					push	ds
2926:0E14  B8 2B24				mov	ax,2B24h
2926:0E17 ú50					push	ax
2926:0E18  B8 0080				mov	ax,80h
           ICON2.lst       ICON2.OVL		Sourcer	v8.01  20-Jul-2026 12:24 am   Page 36

2926:0E1B  50					push	ax
2926:0E1C  8A 46 04				mov	al,[bp+4]
2926:0E1F  32 E4				xor	ah,ah			; Zero register
2926:0E21  50					push	ax
2926:0E22  E8 296B				call	sub_68			; (3790)
2926:0E25  A2 2D9A				mov	data_116,al		; (2926:2D9A=2)
2926:0E28  8A 46 04				mov	al,[bp+4]
2926:0E2B  32 E4				xor	ah,ah			; Zero register
2926:0E2D  50					push	ax
2926:0E2E  E8 F265				call	sub_1			; (0096)
2926:0E31  8B E5				mov	sp,bp
2926:0E33  5D					pop	bp
2926:0E34  C2 0002				retn	2
							                        ;* No entry point to code
2926:0E37  E8 29ED				call	sub_69			; (3827)
2926:0E3A  8B EC				mov	bp,sp
2926:0E3C  4D					dec	bp
2926:0E3D  4D					dec	bp
2926:0E3E  55					push	bp
2926:0E3F  1E					push	ds
2926:0E40  B8 5A3A				mov	ax,5A3Ah
2926:0E43 ú50					push	ax
2926:0E44  B8 0000				mov	ax,0
2926:0E47  50					push	ax
2926:0E48  1E					push	ds
2926:0E49  B8 5E22				mov	ax,5E22h
2926:0E4C  50					push	ax
2926:0E4D  E8 2D5B				call	sub_78			; (3BAB)
2926:0E50  A0 2DA8				mov	al,data_118		; (2926:2DA8=0Ah)
2926:0E53  32 E4				xor	ah,ah			; Zero register
2926:0E55  3D 0068				cmp	ax,68h
2926:0E58  74 03				je	loc_135			; Jump if equal
2926:0E5A  E9 0117				jmp	loc_136			; (0F74)
2926:0E5D			loc_135:					;  xref 2926:0E58
2926:0E5D  E8 014F				call	sub_31			; (0FAF)
2926:0E60  B8 0008				mov	ax,8
2926:0E63  50					push	ax
2926:0E64  B8 03D8				mov	ax,3D8h
2926:0E67  50					push	ax
2926:0E68  5A					pop	dx
2926:0E69  58					pop	ax
2926:0E6A  90					nop
2926:0E6B  B8 B800				mov	ax,0B800h
2926:0E6E  50					push	ax
2926:0E6F  B8 0000				mov	ax,0
2926:0E72  A3 5DEC				mov	ds:data_155e,ax		; (2926:5DEC=0)
2926:0E75  58					pop	ax
2926:0E76  A3 5DEE				mov	ds:data_156e,ax		; (2926:5DEE=0)
2926:0E79  0E					push	cs
2926:0E7A  B8 0E3C				mov	ax,0E3Ch
2926:0E7D  93					xchg	bx,ax
2926:0E7E  B8 0DFD				mov	ax,0DFDh
2926:0E81  03 C3				add	ax,bx
2926:0E83  50					push	ax
2926:0E84  A1 5DEE				mov	ax,ds:data_156e		; (2926:5DEE=0)
2926:0E87  50					push	ax
2926:0E88  A1 5DEC				mov	ax,ds:data_155e		; (2926:5DEC=0)
           ICON2.lst       ICON2.OVL		Sourcer	v8.01  20-Jul-2026 12:24 am   Page 37

2926:0E8B  50					push	ax
2926:0E8C  E8 0E03				call	sub_45			; (1C92)
2926:0E8F  B8 0000				mov	ax,0
2926:0E92  50					push	ax
2926:0E93  E8 F206				call	sub_2			; (009C)
2926:0E96  B8 0096				mov	ax,96h
2926:0E99  50					push	ax
2926:0E9A  E8 F1FF				call	sub_2			; (009C)
2926:0E9D  E8 0248				call	sub_32			; (10E8)
2926:0EA0  A0 2DA8				mov	al,data_118		; (2926:2DA8=0Ah)
2926:0EA3  32 E4				xor	ah,ah			; Zero register
2926:0EA5  50					push	ax
2926:0EA6  E8 238D				call	sub_46			; (3236)
2926:0EA9  B8 0000				mov	ax,0
2926:0EAC  50					push	ax
2926:0EAD  B8 0013				mov	ax,13h
2926:0EB0  50					push	ax
2926:0EB1  E8 0898				call	sub_39			; (174C)
2926:0EB4  A1 5E2E				mov	ax,ds:data_158e		; (2926:5E2E=0)
2926:0EB7  05 03E8				add	ax,3E8h
2926:0EBA  A3 5E2E				mov	ds:data_158e,ax		; (2926:5E2E=0)
2926:0EBD  E8 F1E5				call	sub_4			; (00A5)
2926:0EC0  1E					push	ds
2926:0EC1  B8 82FD				mov	ax,82FDh
2926:0EC4  50					push	ax
2926:0EC5  E8 2E35				call	sub_91			; (3CFD)
2926:0EC8  0E E8 0010				callf	sub_27			; (0EDC)
2926:0ECC  0F			;*		pop	cs			; Dangerous-8088 only
2926:0ECC  0F					db	0Fh
2926:0ECD  59					pop	cx
2926:0ECE  6F 75 72 20 73 63			db	'our score was '
2926:0ED4  6F 72 65 20 77 61
2926:0EDA  73 20

				;ßßßßßßßßßßßßßßßßßßßßßßßßßßßßßßßßßßßßßßßßßßßßßßßßßßßßßßßßßßßßßßßßßßßßßßßßßß
				;                              SUBROUTINE
				;
				;         Called from:   2926:0EC8
				;ÜÜÜÜÜÜÜÜÜÜÜÜÜÜÜÜÜÜÜÜÜÜÜÜÜÜÜÜÜÜÜÜÜÜÜÜÜÜÜÜÜÜÜÜÜÜÜÜÜÜÜÜÜÜÜÜÜÜÜÜÜÜÜÜÜÜÜÜÜÜÜÜÜÜ

2926:0EDC			sub_27		proc	near
2926:0EDC  B8 FFFF				mov	ax,0FFFFh
2926:0EDF  50					push	ax
2926:0EE0  B8 FFFF				mov	ax,0FFFFh
2926:0EE3  50					push	ax
2926:0EE4  E8 4467				call	sub_122			; (534E)
2926:0EE7  FF 36 5E2E				push	word ptr ds:data_158e	; (2926:5E2E=0)
2926:0EEB  B8 FFFF				mov	ax,0FFFFh
2926:0EEE  50					push	ax
2926:0EEF  B8 FFFF				mov	ax,0FFFFh
2926:0EF2  50					push	ax
2926:0EF3  E8 4063				call	sub_114			; (4F59)
2926:0EF6  B8 002E				mov	ax,2Eh
2926:0EF9  50					push	ax
2926:0EFA  B8 FFFF				mov	ax,0FFFFh
2926:0EFD  50					push	ax
2926:0EFE  B8 FFFF				mov	ax,0FFFFh
           ICON2.lst       ICON2.OVL		Sourcer	v8.01  20-Jul-2026 12:24 am   Page 38

2926:0F01  50					push	ax
2926:0F02  E8 4479				call	sub_123			; (537E)
2926:0F05  E8 3C41				call	sub_105			; (4B49)
2926:0F08  E8 009C				call	sub_30			; (0FA7)
2926:0F0B  B8 0004				mov	ax,4
2926:0F0E  50					push	ax
2926:0F0F  B8 0018				mov	ax,18h
2926:0F12  50					push	ax
2926:0F13  E8 0836				call	sub_39			; (174C)
2926:0F16  B8 B800				mov	ax,0B800h
2926:0F19  50					push	ax
2926:0F1A  B8 0780				mov	ax,780h
2926:0F1D  50					push	ax
2926:0F1E  B8 0028				mov	ax,28h
2926:0F21  50					push	ax
2926:0F22  B8 4F20				mov	ax,4F20h
2926:0F25  50					push	ax
2926:0F26  E8 0066				call	sub_29			; (0F8F)
2926:0F29  B8 0004				mov	ax,4
2926:0F2C  50					push	ax
2926:0F2D  B8 000F				mov	ax,0Fh
2926:0F30  50					push	ax
2926:0F31  E8 0364				call	sub_34			; (1298)
2926:0F34  1E					push	ds
2926:0F35  B8 82FD				mov	ax,82FDh
2926:0F38  50					push	ax
2926:0F39  E8 2DC1				call	sub_91			; (3CFD)
2926:0F3C  0E E8 0020				callf	sub_28			; (0F60)
2926:0F40  1F					pop	ds
2926:0F41  50					push	ax
2926:0F42  72 65		;*		jc	loc_141			;*Jump if carry Set
2926:0F42  72 65				db	 72h, 65h
2926:0F44  73 73 20 74 68 65			db	'ss the SPACE BAR to continue'
2926:0F4A  20 53 50 41 43 45
2926:0F50  20 42 41 52 20 74
2926:0F56  6F 20 63 6F 6E 74
2926:0F5C  69 6E 75 65

				;ßßßß External Entry into Subroutine ßßßßßßßßßßßßßßßßßßßßßßßßßßßßßßßßßßßßßß
				;
				;         Called from:   2926:0F3C

2926:0F60			sub_28:
2926:0F60  B8 FFFF				mov	ax,0FFFFh
2926:0F63  50					push	ax
2926:0F64  B8 FFFF				mov	ax,0FFFFh
2926:0F67  50					push	ax
2926:0F68  E8 43E3				call	sub_122			; (534E)
2926:0F6B  E8 F14C				call	sub_10			; (00BA)
2926:0F6E  A3 2C18				mov	word ptr ds:[2C18h],ax	; (2926:2C18=0AAh)
2926:0F71  E9 0003				jmp	loc_137			; (0F77)
2926:0F74			loc_136:					;  xref 2926:0E5A
2926:0F74  E8 F140				call	sub_9			; (00B7)
2926:0F77			loc_137:					;  xref 2926:0F71
2926:0F77  E8 01ED				call	sub_33			; (1167)
2926:0F7A  E8 485C				call	sub_142			; (57D9)
2926:0F7D  E9 0000				jmp	loc_138			; (0F80)
           ICON2.lst       ICON2.OVL		Sourcer	v8.01  20-Jul-2026 12:24 am   Page 39

2926:0F80			loc_138:					;  xref 2926:0F7D
2926:0F80  E9 0000				jmp	loc_139			; (0F83)
2926:0F83			loc_139:					;  xref 2926:0F80
2926:0F83  55					push	bp
2926:0F84  8B EC				mov	bp,sp
2926:0F86  55					push	bp
2926:0F87  81 EC 0002				sub	sp,2
2926:0F8B  8B E5				mov	sp,bp
2926:0F8D  5D					pop	bp
2926:0F8E  C3					retn

				;ßßßß External Entry into Subroutine ßßßßßßßßßßßßßßßßßßßßßßßßßßßßßßßßßßßßßß
				;
				;         Called from:   2926:0F26, 1120, 1133, 3699

2926:0F8F			sub_29:
2926:0F8F  5B					pop	bx
2926:0F90  58					pop	ax
2926:0F91  59					pop	cx
2926:0F92  5F					pop	di
2926:0F93  07					pop	es

2926:0F94			locloop_140:					;  xref 2926:0F95
2926:0F94  AB					stosw				; Store ax to es:[di]
2926:0F95  E2 FD				loop	locloop_140		; Loop if cx > 0

2926:0F97  FF E3				jmp	bx			;*
							                        ;* No entry point to code
2926:0F99  A1 5DDC				mov	ax,ds:data_153e		; (2926:5DDC=0)
2926:0F9C  24 01				and	al,1
2926:0F9E  D0 E0				shl	al,1			; Shift w/zeros fill
2926:0FA0  D0 E0				shl	al,1			; Shift w/zeros fill
2926:0FA2  B4 05				mov	ah,5
2926:0FA4  CD 10				int	10h			; Video display   ah=functn 05h
										;  set display page al
2926:0FA6  C3					retn

				;ßßßß External Entry into Subroutine ßßßßßßßßßßßßßßßßßßßßßßßßßßßßßßßßßßßßßß
				;
				;         Called from:   2926:0202, 0F08

2926:0FA7			sub_30:
2926:0FA7  B8 0C06				mov	ax,0C06h
2926:0FAA  B2 FF				mov	dl,0FFh
2926:0FAC  CD 21				int	21h			; DOS Services  ah=function 0Ch
										;  clear keybd buffer & input al
2926:0FAE  C3					retn
				sub_27		endp


				;ßßßßßßßßßßßßßßßßßßßßßßßßßßßßßßßßßßßßßßßßßßßßßßßßßßßßßßßßßßßßßßßßßßßßßßßßßß
				;                              SUBROUTINE
				;
				;         Called from:   2926:0E5D
				;ÜÜÜÜÜÜÜÜÜÜÜÜÜÜÜÜÜÜÜÜÜÜÜÜÜÜÜÜÜÜÜÜÜÜÜÜÜÜÜÜÜÜÜÜÜÜÜÜÜÜÜÜÜÜÜÜÜÜÜÜÜÜÜÜÜÜÜÜÜÜÜÜÜÜ

2926:0FAF			sub_31		proc	near
           ICON2.lst       ICON2.OVL		Sourcer	v8.01  20-Jul-2026 12:24 am   Page 40

2926:0FAF  33 DB				xor	bx,bx			; Zero register
2926:0FB1  8E C3				mov	es,bx
2926:0FB3 úBF 0074				mov	di,data_6e		; (0000:0074=0A4h)
2926:0FB6  8D 06 8275				lea	ax,cs:[8275h]		; Load effective addr
2926:0FBA  26: 89 05				mov	es:[di],ax
2926:0FBD  83 C7 02				add	di,2
2926:0FC0  8C DB				mov	bx,ds
2926:0FC2  26: 89 1D				mov	es:[di],bx
2926:0FC5  8C DB				mov	bx,ds
2926:0FC7  FC					cld				; Clear direction
2926:0FC8  8B 36 8262				mov	si,ds:data_173e		; (2926:8262=0)
2926:0FCC  8E 1E 8264				mov	ds,ds:data_174e		; (2926:8264=0)
2926:0FD0  8B F8				mov	di,ax
2926:0FD2  8E C3				mov	es,bx
2926:0FD4  B9 0040				mov	cx,40h
2926:0FD7  F3/ A5				rep	movsw			; Rep when cx >0 Mov [si] to es:[di]
2926:0FD9  8E DB				mov	ds,bx
2926:0FDB  8B F8				mov	di,ax
2926:0FDD  83 C7 04				add	di,4
2926:0FE0  C6 05 7F				mov	byte ptr [di],7Fh
2926:0FE3  83 C7 02				add	di,2
2926:0FE6  C6 05 64				mov	byte ptr [di],64h	; 'd'
2926:0FE9  83 C7 01				add	di,1
2926:0FEC  C6 05 70				mov	byte ptr [di],70h	; 'p'
2926:0FEF  83 C7 02				add	di,2
2926:0FF2  C6 05 01				mov	byte ptr [di],1
2926:0FF5  83 C7 08				add	di,8
2926:0FF8  C6 05 01				mov	byte ptr [di],1
2926:0FFB  83 C7 03				add	di,3
2926:0FFE  C6 05 7F				mov	byte ptr [di],7Fh
2926:1001  83 C7 02				add	di,2
2926:1004  C6 05 01				mov	byte ptr [di],1
2926:1007  47					inc	di
2926:1008  C6 05 70				mov	byte ptr [di],70h	; 'p'
2926:100B  83 C7 02				add	di,2
2926:100E  C6 05 01				mov	byte ptr [di],1
2926:1011  33 C0				xor	ax,ax			; Zero register
2926:1013  CD 10				int	10h			; Video display   ah=functn 00h
										;  set display mode in al
2926:1015  B9 0040				mov	cx,40h
2926:1018  8E C1				mov	es,cx
2926:101A úBF 0065				mov	di,data_20e		; (0040:0065=29h)
2926:101D  26: 8A 1D				mov	bl,es:[di]
2926:1020  80 FB 2C				cmp	bl,2Ch			; ','
2926:1023  75 13				jne	loc_143			; Jump if not equal
2926:1025  B8 0001				mov	ax,1
2926:1028  CD 10				int	10h			; Video display   ah=functn 00h
										;  set display mode in al
2926:102A  26: 8A 1D				mov	bl,es:[di]
2926:102D  80 FB 28				cmp	bl,28h			; '('
2926:1030  75 06				jne	loc_143			; Jump if not equal
2926:1032  80 E3 1F				and	bl,1Fh
2926:1035  26: 88 1D				mov	es:[di],bl
2926:1038			loc_143:					;  xref 2926:1023, 1030
2926:1038  B4 0B				mov	ah,0Bh
2926:103A  33 DB				xor	bx,bx			; Zero register
2926:103C  CD 10				int	10h			; Video display   ah=functn 0Bh
           ICON2.lst       ICON2.OVL		Sourcer	v8.01  20-Jul-2026 12:24 am   Page 41

										;  set color from bx (CGA modes)
2926:103E  80 3E 8256 01			cmp	byte ptr ds:data_169e,1	; (2926:8256=0)
2926:1043  75 12				jne	loc_144			; Jump if not equal
2926:1045  B8 0001				mov	ax,1
2926:1048  CD 10				int	10h			; Video display   ah=functn 00h
										;  set display mode in al
2926:104A  BA 03DA				mov	dx,3DAh
2926:104D  EC					in	al,dx			; port 3DAh, CGA/EGA vid status
2926:104E  B0 03				mov	al,3
2926:1050  EE					out	dx,al			; port 3DAh, VGA feature contrl
2926:1051  B0 00				mov	al,0
2926:1053  EE					out	dx,al			; port 3DAh, VGA feature contrl
2926:1054  E9 003B				jmp	loc_145			; (1092)
2926:1057			loc_144:					;  xref 2926:1043
2926:1057  B8 0001				mov	ax,1
2926:105A  CD 10				int	10h			; Video display   ah=functn 00h
										;  set display mode in al
2926:105C  B8 1130				mov	ax,1130h
2926:105F  B7 FF				mov	bh,0FFh
2926:1061  CD 10				int	10h			; Video display   ah=functn 11h
										;  get font type bh info into
										;   cx=points,dl=rows, es:bp=ptr
2926:1063  80 FF FF				cmp	bh,0FFh
2926:1066  75 2A				jne	loc_145			; Jump if not equal
2926:1068  B8 1102				mov	ax,1102h
2926:106B  BB 0000				mov	bx,0
2926:106E  CD 10				int	10h			; Video display   ah=functn 11h
										;  load 8x8 font, bl=block
2926:1070  B8 1102				mov	ax,1102h
2926:1073  BB 0001				mov	bx,1
2926:1076  CD 10				int	10h			; Video display   ah=functn 11h
										;  load 8x8 font, bl=block
2926:1078  BA 03DA				mov	dx,3DAh
2926:107B  EC					in	al,dx			; port 3DAh, CGA/EGA vid status
2926:107C  BA 03C0				mov	dx,3C0h
2926:107F  B0 30				mov	al,30h			; '0'
2926:1081  EE					out	dx,al			; port 3C0h, EGA attributes
2926:1082  B0 00				mov	al,0
2926:1084  EE					out	dx,al			; port 3C0h, EGA attributes
2926:1085  BA 03D4				mov	dx,3D4h
2926:1088  B0 09				mov	al,9
2926:108A  EE					out	dx,al			; port 3D4h, CGA/EGA reg index
										;  al = 9, max raster address
2926:108B  B0 81				mov	al,81h
2926:108D  42					inc	dx
2926:108E  EE					out	dx,al			; port 3D5h, CGA/EGA indxd data
2926:108F  90					nop
2926:1090  90					nop
2926:1091  90					nop
2926:1092			loc_145:					;  xref 2926:1054, 1066
2926:1092  BA 03DA				mov	dx,3DAh
2926:1095  EC					in	al,dx			; port 3DAh, CGA/EGA vid status
2926:1096  BA 03C0				mov	dx,3C0h
2926:1099  B0 10				mov	al,10h
2926:109B  EE					out	dx,al			; port 3C0h, EGA attributes
										;  al = 10h, mode control
2926:109C  B0 04				mov	al,4
           ICON2.lst       ICON2.OVL		Sourcer	v8.01  20-Jul-2026 12:24 am   Page 42

2926:109E  EE					out	dx,al			; port 3C0h, EGA attributes
2926:109F  BA 03DA				mov	dx,3DAh
2926:10A2  EC					in	al,dx			; port 3DAh, CGA/EGA vid status
2926:10A3  B0 20				mov	al,20h			; ' '
2926:10A5  BA 03C0				mov	dx,3C0h
2926:10A8  EE					out	dx,al			; port 3C0h, EGA attributes
2926:10A9  EB 0E				jmp	short loc_147		; (10B9)
							                        ;* No entry point to code
2926:10AB  C4 8A EE05				les	cx,dword ptr [bp+si-11FBh]	; Load seg:offset ptr
2926:10AF  47					inc	di
2926:10B0  4A					dec	dx
2926:10B1  E2 F3		;*		loop	locloop_146		;*Loop if cx > 0

2926:10B1  E2 F3				db	0E2h,0F3h
2926:10B3  B0 08				mov	al,8
2926:10B5  BA 03D8				mov	dx,3D8h
2926:10B8  90					nop
2926:10B9			loc_147:					;  xref 2926:10A9
2926:10B9  E8 0AC9		;*		call	sub_40			;*(1B85)
2926:10B9  E8 C9 0A				db	0E8h,0C9h, 0Ah
2926:10BC  E8 0BA2				call	sub_43			; (1C61)
2926:10BF  33 DB				xor	bx,bx			; Zero register
2926:10C1  8E C3				mov	es,bx
2926:10C3 úBF 006C				mov	di,data_4e		; (0000:006C=60h)
2926:10C6  FA					cli				; Disable interrupts
2926:10C7  B9 11D0				mov	cx,11D0h
2926:10CA  26: 89 0D				mov	es:[di],cx
2926:10CD  83 C7 02				add	di,2
2926:10D0  26: 8C 0D				mov	es:[di],cs
2926:10D3 úBF 008C				mov	di,data_7e		; (0000:008C=91h)
2926:10D6  BB 11D0				mov	bx,11D0h
2926:10D9  26: 89 1D				mov	es:[di],bx
2926:10DC  47					inc	di
2926:10DD  47					inc	di
2926:10DE  26: 8C 0D				mov	es:[di],cs
2926:10E1  FB					sti				; Enable interrupts
2926:10E2  2E: 8C 1E 11CE			mov	word ptr cs:[11CEh],ds	; (2926:11CE=74h)
2926:10E7  C3					retn
				sub_31		endp


				;ßßßßßßßßßßßßßßßßßßßßßßßßßßßßßßßßßßßßßßßßßßßßßßßßßßßßßßßßßßßßßßßßßßßßßßßßßß
				;                              SUBROUTINE
				;
				;         Called from:   2926:01C1, 0E9D
				;ÜÜÜÜÜÜÜÜÜÜÜÜÜÜÜÜÜÜÜÜÜÜÜÜÜÜÜÜÜÜÜÜÜÜÜÜÜÜÜÜÜÜÜÜÜÜÜÜÜÜÜÜÜÜÜÜÜÜÜÜÜÜÜÜÜÜÜÜÜÜÜÜÜÜ

2926:10E8			sub_32		proc	near
2926:10E8  33 DB				xor	bx,bx			; Zero register
2926:10EA  8E C3				mov	es,bx
2926:10EC úBF 0074				mov	di,data_6e		; (0000:0074=0A4h)
2926:10EF  8B 1E 8262				mov	bx,ds:data_32e		; (2916:8262=0)
2926:10F3  26: 89 1D				mov	es:[di],bx
2926:10F6  83 C7 02				add	di,2
2926:10F9  8B 1E 8264				mov	bx,ds:data_33e		; (2916:8264=0)
2926:10FD  26: 89 1D				mov	es:[di],bx
2926:1100  B8 0001				mov	ax,1
           ICON2.lst       ICON2.OVL		Sourcer	v8.01  20-Jul-2026 12:24 am   Page 43

2926:1103  CD 10				int	10h			; Video display   ah=functn 00h
										;  set display mode in al
2926:1105  B4 0B				mov	ah,0Bh
2926:1107  BB 0001				mov	bx,1
2926:110A  CD 10				int	10h			; Video display   ah=functn 0Bh
										;  set color from bx (CGA modes)
2926:110C  B8 0500				mov	ax,500h
2926:110F  CD 10				int	10h			; Video display   ah=functn 05h
										;  set display page al
2926:1111  BB B800				mov	bx,0B800h
2926:1114  53					push	bx
2926:1115  33 DB				xor	bx,bx			; Zero register
2926:1117  53					push	bx
2926:1118  BB 0800				mov	bx,800h
2926:111B  53					push	bx
2926:111C úBB 1F20		;*		mov	bx,offset loc_2		;*
2926:111C  BB 20 1F				db	0BBh, 20h, 1Fh
2926:111F  53					push	bx
2926:1120  E8 FE6C				call	sub_29			; (0F8F)
2926:1123  BB B800				mov	bx,0B800h
2926:1126  53					push	bx
2926:1127  BB 07D0				mov	bx,7D0h
2926:112A  53					push	bx
2926:112B  BB 03F2				mov	bx,3F2h
2926:112E  53					push	bx
2926:112F úBB 1120		;*		mov	bx,offset loc_1		;*
2926:112F  BB 20 11				db	0BBh, 20h, 11h
2926:1132  53					push	bx
2926:1133  E8 FE59				call	sub_29			; (0F8F)
2926:1136  BB 0001				mov	bx,1
2926:1139  53					push	bx
2926:113A  BB 000F				mov	bx,0Fh
2926:113D  53					push	bx
2926:113E  E8 0157				call	sub_34			; (1298)
2926:1141  33 DB				xor	bx,bx			; Zero register
2926:1143  8E C3				mov	es,bx
2926:1145 úBF 006C				mov	di,data_4e		; (0000:006C=60h)
2926:1148  FA					cli				; Disable interrupts
2926:1149  B9 0188				mov	cx,188h
2926:114C  26: 89 0D				mov	es:[di],cx
2926:114F  47					inc	di
2926:1150  47					inc	di
2926:1151  26: 89 1D				mov	es:[di],bx
2926:1154 úBF 008C				mov	di,data_7e		; (0000:008C=91h)
2926:1157  26: 89 0D				mov	es:[di],cx
2926:115A  47					inc	di
2926:115B  47					inc	di
2926:115C  26: 89 1D				mov	es:[di],bx
2926:115F  FB					sti				; Enable interrupts
2926:1160  E8 0A4D				call	sub_41			; (1BB0)
2926:1163  E8 0B1A				call	sub_44			; (1C80)
2926:1166  C3					retn
				sub_32		endp


				;ßßßßßßßßßßßßßßßßßßßßßßßßßßßßßßßßßßßßßßßßßßßßßßßßßßßßßßßßßßßßßßßßßßßßßßßßßß
				;                              SUBROUTINE
           ICON2.lst       ICON2.OVL				Sourcer	v8.01  20-Jul-2026 12:24 am   Page 44

				;
				;         Called from:   2926:01C4, 06BD, 0F77
				;ÜÜÜÜÜÜÜÜÜÜÜÜÜÜÜÜÜÜÜÜÜÜÜÜÜÜÜÜÜÜÜÜÜÜÜÜÜÜÜÜÜÜÜÜÜÜÜÜÜÜÜÜÜÜÜÜÜÜÜÜÜÜÜÜÜÜÜÜÜÜÜÜÜÜ

2926:1167			sub_33		proc	near
2926:1167  B4 0B				mov	ah,0Bh
2926:1169  33 DB				xor	bx,bx			; Zero register
2926:116B  CD 10				int	10h			; Video display   ah=functn 0Bh
										;  set color from bx (CGA modes)
2926:116D  32 E4				xor	ah,ah			; Zero register
2926:116F  A0 8261				mov	al,ds:data_31e		; (2916:8261=0)
2926:1172  CD 10				int	10h			; Video display   ah=functn 00h
										;  set display mode in al
2926:1174  33 DB				xor	bx,bx			; Zero register
2926:1176  8E C3				mov	es,bx
2926:1178 úBF 006C				mov	di,data_4e		; (0000:006C=60h)
2926:117B  8B 1E 8232				mov	bx,ds:data_25e		; (2916:8232=0)
2926:117F  FA					cli				; Disable interrupts
2926:1180  26: 89 1D				mov	es:[di],bx
2926:1183  47					inc	di
2926:1184  47					inc	di
2926:1185  8B 1E 8234				mov	bx,ds:data_26e		; (2916:8234=0)
2926:1189  26: 89 1D				mov	es:[di],bx
2926:118C úBF 008C				mov	di,data_7e		; (0000:008C=91h)
2926:118F  8B 1E 824A				mov	bx,ds:data_27e		; (2916:824A=0)
2926:1193  26: 89 1D				mov	es:[di],bx
2926:1196  8B 1E 824C				mov	bx,ds:data_28e		; (2916:824C=0)
2926:119A  47					inc	di
2926:119B  47					inc	di
2926:119C  26: 89 1D				mov	es:[di],bx
2926:119F úBF 0014				mov	di,data_1e		; (0000:0014=54h)
2926:11A2  8B 1E 8269				mov	bx,ds:data_34e		; (2916:8269=0)
2926:11A6  26: 89 1D				mov	es:[di],bx
2926:11A9  47					inc	di
2926:11AA  47					inc	di
2926:11AB  8B 1E 826B				mov	bx,ds:data_35e		; (2916:826B=0)
2926:11AF  26: 89 1D				mov	es:[di],bx
2926:11B2  FB					sti				; Enable interrupts
2926:11B3  FB					sti				; Enable interrupts
2926:11B4  8B 1E 0124				mov	bx,ds:data_23e		; (2916:0124=0)
2926:11B8  8B 0E 0126				mov	cx,ds:data_24e		; (2916:0126=0)
2926:11BC  51					push	cx
2926:11BD  53					push	bx
2926:11BE  E8 00D7				call	sub_34			; (1298)
2926:11C1  C3					retn
				sub_33		endp

							                        ;* No entry point to code
2926:11C2  B4 0F				mov	ah,0Fh
2926:11C4  CD 10				int	10h			; Video display   ah=functn 0Fh
										;  get state, al=mode, bh=page
										;   ah=columns on screen
2926:11C6  A2 8261				mov	ds:data_172e,al		; (2926:8261=0)
2926:11C9  33 DB				xor	bx,bx			; Zero register
2926:11CB  8E C3				mov	es,bx
2926:11CD úBF 0074				mov	di,data_6e		; (0000:0074=0A4h)
2926:11D0  26: 8B 1D				mov	bx,es:[di]
           ICON2.lst       ICON2.OVL		Sourcer	v8.01  20-Jul-2026 12:24 am   Page 45

2926:11D3  89 1E 8262				mov	ds:data_173e,bx		; (2926:8262=0)
2926:11D7  83 C7 02				add	di,2
2926:11DA  26: 8B 1D				mov	bx,es:[di]
2926:11DD  89 1E 8264				mov	ds:data_174e,bx		; (2926:8264=0)
2926:11E1  FA					cli				; Disable interrupts
2926:11E2  33 DB				xor	bx,bx			; Zero register
2926:11E4  8E C3				mov	es,bx
2926:11E6 úBF 006C				mov	di,data_4e		; (0000:006C=60h)
2926:11E9  26: 8B 1D				mov	bx,es:[di]
2926:11EC  89 1E 8232				mov	ds:data_165e,bx		; (2926:8232=0)
2926:11F0  47					inc	di
2926:11F1  47					inc	di
2926:11F2  26: 8B 1D				mov	bx,es:[di]
2926:11F5  89 1E 8234				mov	ds:data_166e,bx		; (2926:8234=0)
2926:11F9 úBF 008C				mov	di,data_7e		; (0000:008C=91h)
2926:11FC  26: 8B 1D				mov	bx,es:[di]
2926:11FF  89 1E 824A				mov	ds:data_167e,bx		; (2926:824A=0)
2926:1203  47					inc	di
2926:1204  47					inc	di
2926:1205  26: 8B 1D				mov	bx,es:[di]
2926:1208  89 1E 824C				mov	ds:data_168e,bx		; (2926:824C=0)
2926:120C úBF 0188				mov	di,data_11e		; (0000:0188=0)
2926:120F  B3 CF				mov	bl,0CFh
2926:1211  26: 88 1D				mov	es:[di],bl
2926:1214 úBF 0014				mov	di,data_1e		; (0000:0014=54h)
2926:1217  26: 8B 1D				mov	bx,es:[di]
2926:121A  89 1E 8269				mov	ds:data_176e,bx		; (2926:8269=0)
2926:121E  BB 0188				mov	bx,188h
2926:1221  26: 89 1D				mov	es:[di],bx
2926:1224  47					inc	di
2926:1225  47					inc	di
2926:1226  26: 8B 1D				mov	bx,es:[di]
2926:1229  89 1E 826B				mov	ds:data_177e,bx		; (2926:826B=0)
2926:122D  8C C3				mov	bx,es
2926:122F  26: 89 1D				mov	es:[di],bx
2926:1232  FB					sti				; Enable interrupts
2926:1233  C6 06 8256 00			mov	byte ptr ds:data_169e,0	; (2926:8256=0)
2926:1238  B9 FFFF				mov	cx,0FFFFh
2926:123B  8E C1				mov	es,cx
2926:123D úBF 000E				mov	di,offset data_50	; (2926:000E=0)
2926:1240  26: 8A 1D				mov	bl,es:[di]
2926:1243  80 FB FD				cmp	bl,0FDh
2926:1246  75 05				jne	loc_ret_148		; Jump if not equal
2926:1248  C6 06 8256 01			mov	byte ptr ds:data_169e,1	; (2926:8256=0)

2926:124D			loc_ret_148:					;  xref 2926:1246
2926:124D  C3					retn
2926:124E  00 00 FB 1E 2E 8E			db	 00h, 00h,0FBh, 1Eh, 2Eh, 8Eh
2926:1254  1E CE 11 C7 06 F4			db	 1Eh,0CEh, 11h,0C7h, 06h,0F4h
2926:125A  5D 01 00 1F CF FC			db	 5Dh, 01h, 00h, 1Fh,0CFh,0FCh
2926:1260  5B 59 5F 07 5E 58			db	 5Bh, 59h, 5Fh, 07h, 5Eh, 58h
2926:1266  8C DA 8E D8 F3 A5			db	 8Ch,0DAh, 8Eh,0D8h,0F3h,0A5h
2926:126C  8E DA FF E3 5B 59			db	 8Eh,0DAh,0FFh,0E3h, 5Bh, 59h
2926:1272  5F 07 5E 58 8C DA			db	 5Fh, 07h, 5Eh, 58h, 8Ch,0DAh
2926:1278  8E D8 8B C1 48 D1			db	 8Eh,0D8h, 8Bh,0C1h, 48h,0D1h
2926:127E  E0 03 F8 03 F0 FD			db	0E0h, 03h,0F8h, 03h,0F0h,0FDh
2926:1284  F3 A5 FC 8E DA FF			db	0F3h,0A5h,0FCh, 8Eh,0DAh,0FFh
           ICON2.lst       ICON2.OVL		Sourcer	v8.01  20-Jul-2026 12:24 am   Page 46

2926:128A  E3 1B 5B 30 3B 24			db	0E3h, 1Bh, 5Bh, 30h, 3Bh, 24h
2926:1290  00 04 02 06 01 05			db	 00h, 04h, 02h, 06h, 01h, 05h
2926:1296  03 07				db	 03h, 07h

				;ßßßßßßßßßßßßßßßßßßßßßßßßßßßßßßßßßßßßßßßßßßßßßßßßßßßßßßßßßßßßßßßßßßßßßßßßßß
				;                              SUBROUTINE
				;
				;         Called from:   2926:0F31, 113E, 11BE, 36A4
				;ÜÜÜÜÜÜÜÜÜÜÜÜÜÜÜÜÜÜÜÜÜÜÜÜÜÜÜÜÜÜÜÜÜÜÜÜÜÜÜÜÜÜÜÜÜÜÜÜÜÜÜÜÜÜÜÜÜÜÜÜÜÜÜÜÜÜÜÜÜÜÜÜÜÜ

2926:1298			sub_34		proc	near
2926:1298  B4 03				mov	ah,3
2926:129A  33 DB				xor	bx,bx			; Zero register
2926:129C  CD 10				int	10h			; Video display   ah=functn 03h
										;  get cursor loc in dx, mode cx
2926:129E  5B					pop	bx
2926:129F  58					pop	ax
2926:12A0  59					pop	cx
2926:12A1  53					push	bx
2926:12A2  8B 1E 0122				mov	bx,word ptr ds:[122h]	; (2926:0122=7B8h)
2926:12A6  0B DB				or	bx,bx			; Zero ?
2926:12A8  75 01				jnz	loc_149			; Jump if not zero
2926:12AA  C3					retn
2926:12AB			loc_149:					;  xref 2926:12A8
2926:12AB  52					push	dx
2926:12AC  51					push	cx
2926:12AD  50					push	ax
2926:12AE  B4 09				mov	ah,9
2926:12B0  1E					push	ds
2926:12B1  8C CA				mov	dx,cs
2926:12B3  8E DA				mov	ds,dx
2926:12B5 úBA 120B				mov	dx,120Bh		; (2926:120B='      &    ')
2926:12B8  CD 21				int	21h			; DOS Services  ah=function 09h
										;  display char string at ds:dx
2926:12BA  1F					pop	ds
2926:12BB  B4 06				mov	ah,6
2926:12BD  5B					pop	bx
2926:12BE  80 FB 08				cmp	bl,8
2926:12C1  7C 0B				jl	loc_150			; Jump if <
2926:12C3  B2 31				mov	dl,31h			; '1'
2926:12C5  CD 21				int	21h			; DOS Services  ah=function 06h
										;  special char i/o, dl=subfunc
2926:12C7  B2 3B				mov	dl,3Bh			; ';'
2926:12C9  CD 21				int	21h			; DOS Services  ah=function 06h
										;  special char i/o, dl=subfunc
2926:12CB  80 EB 08				sub	bl,8
2926:12CE			loc_150:					;  xref 2926:12C1
2926:12CE  B2 33				mov	dl,33h			; '3'
2926:12D0  CD 21				int	21h			; DOS Services  ah=function 06h
										;  special char i/o, dl=subfunc
2926:12D2  8A C3				mov	al,bl
2926:12D4 úBB 1210				mov	bx,1210h		; (2926:1210=' ')
2926:12D7  2E: D7				xlat	cs:[bx]			; al=[al+[bx]] table
2926:12D9  8A D0				mov	dl,al
2926:12DB  80 C2 30				add	dl,30h			; '0'
2926:12DE  B4 06				mov	ah,6
2926:12E0  CD 21				int	21h			; DOS Services  ah=function 06h
           ICON2.lst       ICON2.OVL		Sourcer	v8.01  20-Jul-2026 12:24 am   Page 47

										;  special char i/o, dl=subfunc
2926:12E2  B2 3B				mov	dl,3Bh			; ';'
2926:12E4  CD 21				int	21h			; DOS Services  ah=function 06h
										;  special char i/o, dl=subfunc
2926:12E6  5B					pop	bx
2926:12E7  80 FB 08				cmp	bl,8
2926:12EA  7C 0B				jl	loc_151			; Jump if <
2926:12EC  B2 35				mov	dl,35h			; '5'
2926:12EE  CD 21				int	21h			; DOS Services  ah=function 06h
										;  special char i/o, dl=subfunc
2926:12F0  B2 3B				mov	dl,3Bh			; ';'
2926:12F2  CD 21				int	21h			; DOS Services  ah=function 06h
										;  special char i/o, dl=subfunc
2926:12F4  80 EB 08				sub	bl,8
2926:12F7			loc_151:					;  xref 2926:12EA
2926:12F7  B2 34				mov	dl,34h			; '4'
2926:12F9  CD 21				int	21h			; DOS Services  ah=function 06h
										;  special char i/o, dl=subfunc
2926:12FB  8A C3				mov	al,bl
2926:12FD úBB 1210				mov	bx,1210h		; (2926:1210=' ')
2926:1300  2E: D7				xlat	cs:[bx]			; al=[al+[bx]] table
2926:1302  8A D0				mov	dl,al
2926:1304  80 C2 30				add	dl,30h			; '0'
2926:1307  B4 06				mov	ah,6
2926:1309  CD 21				int	21h			; DOS Services  ah=function 06h
										;  special char i/o, dl=subfunc
2926:130B  B2 6D				mov	dl,6Dh			; 'm'
2926:130D  CD 21				int	21h			; DOS Services  ah=function 06h
										;  special char i/o, dl=subfunc
2926:130F  B8 0500				mov	ax,500h
2926:1312  CD 10				int	10h			; Video display   ah=functn 05h
										;  set display page al
2926:1314  B4 02				mov	ah,2
2926:1316  33 DB				xor	bx,bx			; Zero register
2926:1318  5A					pop	dx
2926:1319  CD 10				int	10h			; Video display   ah=functn 02h
										;  set cursor location in dx
2926:131B  C3					retn
				sub_34		endp

							                        ;* No entry point to code
2926:131C  B8 09CE				mov	ax,9CEh
2926:131F  BB 0000				mov	bx,0
2926:1322  B9 0001				mov	cx,1
2926:1325  CD 10				int	10h			; Video display   ah=functn 09h
										;  set char al & attrib bl @curs
										;   cx=# of chars to replicate
2926:1327  B8 0920				mov	ax,920h
2926:132A  BB 0007				mov	bx,7
2926:132D  B9 0001				mov	cx,1
2926:1330  CD 10				int	10h			; Video display   ah=functn 09h
										;  set char al & attrib bl @curs
										;   cx=# of chars to replicate
2926:1332  B8 B800				mov	ax,0B800h
2926:1335  8E C0				mov	es,ax
2926:1337  33 C0				xor	ax,ax			; Zero register
2926:1339  8B F8				mov	di,ax
           ICON2.lst       ICON2.OVL		Sourcer	v8.01  20-Jul-2026 12:24 am   Page 48

2926:133B  B8 00CE				mov	ax,0CEh
2926:133E  B9 07DA				mov	cx,7DAh
2926:1341  F3/ AF				repe	scasw			; Rep zf=1+cx >0 Scan es:[di] for ax
2926:1343  0B C9				or	cx,cx			; Zero ?
2926:1345  75 03				jnz	loc_152			; Jump if not zero
2926:1347  33 C0				xor	ax,ax			; Zero register
2926:1349  C3					retn
2926:134A			loc_152:					;  xref 2926:1345
2926:134A  33 C0				xor	ax,ax			; Zero register
2926:134C  F7 D0				not	ax
2926:134E  C3					retn
							                        ;* No entry point to code
2926:134F  1E					push	ds
2926:1350  8C CA				mov	dx,cs
2926:1352  8E DA				mov	ds,dx
2926:1354  A0 12F2				mov	al,byte ptr ds:[12F2h]	; (2926:12F2=0CDh)
2926:1357  04 1D				add	al,1Dh
2926:1359  A2 12F2				mov	byte ptr ds:[12F2h],al	; (2926:12F2=0CDh)
2926:135C  80 0E 12F3 03			or	byte ptr ds:[12F3h],3	; (2926:12F3=21h)
2926:1361  E8 009A				call	sub_36			; (13FE)
2926:1364  33 D2				xor	dx,dx			; Zero register
2926:1366			loc_153:					;  xref 2926:1386
2926:1366  B9 0004				mov	cx,4

2926:1369			locloop_154:					;  xref 2926:137F
2926:1369  51					push	cx
2926:136A  B1 80				mov	cl,80h
2926:136C  B5 27				mov	ch,27h			; '''
2926:136E  B4 04				mov	ah,4
2926:1370  B0 01				mov	al,1
2926:1372  B0 10				mov	al,10h
2926:1374  59					pop	cx
2926:1375  73 08				jnc	loc_155			; Jump if carry=0
2926:1377  80 E4 EF				and	ah,0EFh
2926:137A  75 03				jnz	loc_155			; Jump if not zero
2926:137C  E9 001A				jmp	loc_156			; (1399)
2926:137F			loc_155:					;  xref 2926:1375, 137A
2926:137F  E2 E8				loop	locloop_154		; Loop if cx > 0

2926:1381  FE C2				inc	dl
2926:1383  80 FA 02				cmp	dl,2
2926:1386  7C DE				jl	loc_153			; Jump if <
2926:1388  80 26 12F3 10			and	byte ptr ds:[12F3h],10h	; (2926:12F3=21h)
2926:138D  A0 12F2				mov	al,byte ptr ds:[12F2h]	; (2926:12F2=0CDh)
2926:1390  2C 1D				sub	al,1Dh
2926:1392  A2 12F2				mov	byte ptr ds:[12F2h],al	; (2926:12F2=0CDh)
2926:1395  1F					pop	ds
2926:1396  33 C0				xor	ax,ax			; Zero register
2926:1398  C3					retn
2926:1399			loc_156:					;  xref 2926:137C
2926:1399  80 26 12F3 10			and	byte ptr ds:[12F3h],10h	; (2926:12F3=21h)
2926:139E  A0 12F2				mov	al,byte ptr ds:[12F2h]	; (2926:12F2=0CDh)
2926:13A1  2C 1D				sub	al,1Dh
2926:13A3  A2 12F2				mov	byte ptr ds:[12F2h],al	; (2926:12F2=0CDh)
2926:13A6  1F					pop	ds
2926:13A7  B8 0001				mov	ax,1
2926:13AA  C3					retn
           ICON2.lst       ICON2.OVL		Sourcer	v8.01  20-Jul-2026 12:24 am   Page 49


				;ßßßßßßßßßßßßßßßßßßßßßßßßßßßßßßßßßßßßßßßßßßßßßßßßßßßßßßßßßßßßßßßßßßßßßßßßßß
				;                              SUBROUTINE
				;
				;         Called from:   2926:0D7B
				;ÜÜÜÜÜÜÜÜÜÜÜÜÜÜÜÜÜÜÜÜÜÜÜÜÜÜÜÜÜÜÜÜÜÜÜÜÜÜÜÜÜÜÜÜÜÜÜÜÜÜÜÜÜÜÜÜÜÜÜÜÜÜÜÜÜÜÜÜÜÜÜÜÜÜ

2926:13AB			sub_35		proc	near
2926:13AB  33 C0				xor	ax,ax			; Zero register
2926:13AD  80 3E 8224 00			cmp	byte ptr ds:data_160e,0	; (2926:8224=0)
2926:13B2  74 1E				je	loc_ret_159		; Jump if equal
2926:13B4  33 DB				xor	bx,bx			; Zero register
2926:13B6  B1 04				mov	cl,4
2926:13B8  BA 0201				mov	dx,201h
2926:13BB			loc_157:					;  xref 2926:13C8, 13D0
2926:13BB úEC					in	al,dx			; port 201h, start game 1-shots
2926:13BC  D2 E8				shr	al,cl			; Shift w/zeros fill
2926:13BE  F6 D0				not	al
2926:13C0  3A C3				cmp	al,bl
2926:13C2  74 07				je	loc_158			; Jump if equal
2926:13C4  32 FF				xor	bh,bh			; Zero register
2926:13C6  8A D8				mov	bl,al
2926:13C8  E9 FFF0				jmp	loc_157			; (13BB)
						nop	                                        ;*jump fixup
2926:13CB			loc_158:					;  xref 2926:13C2
2926:13CB  FE C7				inc	bh
2926:13CD  80 FF 32				cmp	bh,32h			; '2'
2926:13D0  7C E9				jl	loc_157			; Jump if <

2926:13D2			loc_ret_159:					;  xref 2926:13B2
2926:13D2  C3					retn
				sub_35		endp

2926:13D3  28 63 29 20 38 34			db	'(c) 84 - NW & RB'
2926:13D9  20 2D 20 4E 57 20
2926:13DF  26 20 52 42
2926:13E3  FA B9 FF 00 BA 01			db	0FAh,0B9h,0FFh, 00h,0BAh, 01h
2926:13E9  02 33 F6 BB 01 01			db	 02h, 33h,0F6h,0BBh, 01h, 01h
2926:13EF  EE					db	0EEh

2926:13F0			locloop_160:					;  xref 2926:13F9
2926:13F0  EC					in	al,dx			; port 201h, start game 1-shots
2926:13F1  8A E0				mov	ah,al
2926:13F3  D0 EC				shr	ah,1			; Shift w/zeros fill
2926:13F5  23 D8				and	bx,ax
2926:13F7  03 F3				add	si,bx
2926:13F9  E2 F5				loop	locloop_160		; Loop if cx > 0

2926:13FB  8B C6				mov	ax,si
2926:13FD  FB					sti				; Enable interrupts

				;ßßßßßßßßßßßßßßßßßßßßßßßßßßßßßßßßßßßßßßßßßßßßßßßßßßßßßßßßßßßßßßßßßßßßßßßßßß
				;                              SUBROUTINE
				;
				;         Called from:   2926:1361
				;ÜÜÜÜÜÜÜÜÜÜÜÜÜÜÜÜÜÜÜÜÜÜÜÜÜÜÜÜÜÜÜÜÜÜÜÜÜÜÜÜÜÜÜÜÜÜÜÜÜÜÜÜÜÜÜÜÜÜÜÜÜÜÜÜÜÜÜÜÜÜÜÜÜÜ

           ICON2.lst       ICON2.OVL		Sourcer	v8.01  20-Jul-2026 12:24 am   Page 50

2926:13FE			sub_36		proc	near
2926:13FE  C7 06 2C18 FFFF			mov	word ptr ds:[2C18h],0FFFFh	; (2926:2C18=0AAh)
2926:1404  C3					retn
				sub_36		endp

2926:1405  00 01 1F 00 02 01			db	 00h, 01h, 1Fh, 00h, 02h, 01h
2926:140B  00 DA C4 00 03 23			db	 00h,0DAh,0C4h, 00h, 03h, 23h
2926:1411  C4 BF 00 02 01 01			db	0C4h,0BFh, 00h, 02h, 01h, 01h
2926:1417  B3 20 20 20 20 DC			db	0B3h, 20h, 20h, 20h, 20h,0DCh
2926:141D  DC DC DC DC 20 20			db	0DCh,0DCh,0DCh,0DCh, 20h, 20h
2926:1423  DC DC DC DC DC 20			db	0DCh,0DCh,0DCh,0DCh,0DCh, 20h
2926:1429  20 DC DC DC DC DC			db	 20h,0DCh,0DCh,0DCh,0DCh,0DCh
2926:142F  20 20 DC DC DC DC			db	 20h, 20h,0DCh,0DCh,0DCh,0DCh
2926:1435  DC 00 02 26 01 B3			db	0DCh, 00h, 02h, 26h, 01h,0B3h
2926:143B  00 02 01 02 B3 20			db	 00h, 02h, 01h, 02h,0B3h, 20h
2926:1441  20 20 20 20 20 DB			db	 20h, 20h, 20h, 20h, 20h,0DBh
2926:1447  20 20 20 20 DB 20			db	 20h, 20h, 20h, 20h,0DBh, 20h
2926:144D  20 20 DB 20 20 DB			db	 20h, 20h,0DBh, 20h, 20h,0DBh
2926:1453  20 20 20 DB 20 20			db	 20h, 20h, 20h,0DBh, 20h, 20h
2926:1459  DB 20 20 20 DB 00			db	0DBh, 20h, 20h, 20h,0DBh, 00h
2926:145F  02 26 02 B3 00 02			db	 02h, 26h, 02h,0B3h, 00h, 02h
2926:1465  01 03 B3 20 20 20			db	 01h, 03h,0B3h, 20h, 20h, 20h
2926:146B  20 20 20 DB 20 20			db	 20h, 20h, 20h,0DBh, 20h, 20h
2926:1471  20 20 DB 20 20 20			db	 20h, 20h,0DBh, 20h, 20h, 20h
2926:1477  20 20 20 DB 20 20			db	 20h, 20h, 20h,0DBh, 20h, 20h
2926:147D  20 DB 20 20 DB 20			db	 20h,0DBh, 20h, 20h,0DBh, 20h
2926:1483  20 20 DB 00 02 26			db	 20h, 20h,0DBh, 00h, 02h, 26h
2926:1489  03 B3 00 02 01 04			db	 03h,0B3h, 00h, 02h, 01h, 04h
2926:148F  B3 20 20 20 20 20			db	0B3h, 20h, 20h, 20h, 20h, 20h
2926:1495  20 DB 20 20 20 20			db	 20h,0DBh, 20h, 20h, 20h, 20h
2926:149B  DB 20 20 20 DB 20			db	0DBh, 20h, 20h, 20h,0DBh, 20h
2926:14A1  20 DB 20 20 20 DB			db	 20h,0DBh, 20h, 20h, 20h,0DBh
2926:14A7  20 20 DB 20 20 20			db	 20h, 20h,0DBh, 20h, 20h, 20h
2926:14AD  DB 00 02 26 04 B3			db	0DBh, 00h, 02h, 26h, 04h,0B3h
2926:14B3  00 02 01 05 B3 20			db	 00h, 02h, 01h, 05h,0B3h, 20h
2926:14B9  20 20 20 DF DF DF			db	 20h, 20h, 20h,0DFh,0DFh,0DFh
2926:14BF  DF DF 20 20 DF DF			db	0DFh,0DFh, 20h, 20h,0DFh,0DFh
2926:14C5  DF DF DF 20 20 DF			db	0DFh,0DFh,0DFh, 20h, 20h,0DFh
2926:14CB  DF DF DF DF 20 20			db	0DFh,0DFh,0DFh,0DFh, 20h, 20h
2926:14D1  DF 20 20 20 DF 00			db	0DFh, 20h, 20h, 20h,0DFh, 00h
2926:14D7  02 26 05 B3 00 02			db	 02h, 26h, 05h,0B3h, 00h, 02h
2926:14DD  01 06 B3 00 02 08			db	 01h, 06h,0B3h, 00h, 02h, 08h
2926:14E3  06					db	 06h
2926:14E4  54 48 45 20 51 55			db	'THE QUEST FOR THE RING'
2926:14EA  45 53 54 20 46 4F
2926:14F0  52 20 54 48 45 20
2926:14F6  52 49 4E 47
2926:14FA  00 02 26 06 B3 00			db	 00h, 02h, 26h, 06h,0B3h, 00h
2926:1500  02 01 07 B3 00 02			db	 02h, 01h, 07h,0B3h, 00h, 02h
2926:1506  26 07 B3 00 02 01			db	 26h, 07h,0B3h, 00h, 02h, 01h
2926:150C  08 B3 00 02				db	 08h,0B3h, 00h, 02h
2926:1510  0A 08 28 43 29 20			db	0Ah, 8, '(C) Copyright 1984,'
2926:1516  43 6F 70 79 72 69
2926:151C  67 68 74 20 31 39
2926:1522  38 34 2C
2926:1525  00 02 26 08 B3 00			db	 00h, 02h, 26h, 08h,0B3h, 00h
2926:152B  02 01 09 B3				db	 02h, 01h, 09h,0B3h
           ICON2.lst       ICON2.OVL		Sourcer	v8.01  20-Jul-2026 12:24 am   Page 51

2926:152F  20					db	20h
2926:1530  4E 65 61 6C 20 57			db	'Neal White III a'
2926:1536  68 69 74 65 20 49
2926:153C  49 49 20 61
2926:1540  6E 64 20 52 61 6E			db	'nd Rand E. Bohrer  '
2926:1546  64 20 45 2E 20 42
2926:154C  6F 68 72 65 72 20
2926:1552  20
2926:1553  B3 00 02 01 0A B3			db	0B3h, 00h, 02h, 01h, 0Ah,0B3h
2926:1559  00 02				db	 00h, 02h
2926:155B  0A 0A 41 6C 6C 20			db	0Ah, 0Ah, 'All Rights Reserved'
2926:1561  52 69 67 68 74 73
2926:1567  20 52 65 73 65 72
2926:156D  76 65 64
2926:1570  00 02 26 0A B3 00			db	 00h, 02h, 26h, 0Ah,0B3h, 00h
2926:1576  02 01 0B C3 00 03			db	 02h, 01h, 0Bh,0C3h, 00h, 03h
2926:157C  24 C4 B4 00 02 01			db	 24h,0C4h,0B4h, 00h, 02h, 01h
2926:1582  0C B3 00 02				db	 0Ch,0B3h, 00h, 02h
2926:1586  0D 0C 4D 61 63 72			db	0Dh, 0Ch, 'Macrocom, Inc.'
2926:158C  6F 63 6F 6D 2C 20
2926:1592  49 6E 63 2E
2926:1596  00 02 26 0C B3 00			db	 00h, 02h, 26h, 0Ch,0B3h, 00h
2926:159C  02 01 0D C0 00 03			db	 02h, 01h, 0Dh,0C0h, 00h, 03h
2926:15A2  24 C4 D9 00 02 01			db	 24h,0C4h,0D9h, 00h, 02h, 01h
2926:15A8  0E					db	 0Eh
2926:15A9  54 68				db	 54h, 68h
2926:15AB  69 73 20 67 61 6D			db	'is game re'
2926:15B1  65 20 72 65
2926:15B5  71 75 69 72 65 73			db	'quires an IBM PC or true'
2926:15BB  20 61 6E 20 49 42
2926:15C1  4D 20 50 43 20 6F
2926:15C7  72 20 74 72 75 65
2926:15CD  00 02 01 0F				db	 00h, 02h, 01h, 0Fh
2926:15D1  63 6F 6D 70 61 74			db	'compatibl'
2926:15D7  69 62 6C
2926:15DA  65 20 77 69 74 68			db	'e with a color graphics card.'
2926:15E0  20 61 20 63 6F 6C
2926:15E6  6F 72 20 67 72 61
2926:15EC  70 68 69 63 73 20
2926:15F2  63 61 72 64 2E
2926:15F7  00 02 01 11				db	 00h, 02h, 01h, 11h
2926:15FB  41					db	'A'
2926:15FC  66 74 65 72 20 74			db	'fter the game'
2926:1602  68 65 20 67 61 6D
2926:1608  65
2926:1609  20 68 61 73 20 62			db	' has begun, press the F1'
2926:160F  65 67 75 6E 2C 20
2926:1615  70 72 65 73 73 20
2926:161B  74 68 65 20 46 31
2926:1621  00 02 01 12				db	 00h, 02h, 01h, 12h
2926:1625  6B 65 79 20 66 6F			db	'key for HELP.'
2926:162B  72 20 48 45 4C 50
2926:1631  2E
2926:1632  00 02 00 14 00 00			db	 00h, 02h, 00h, 14h, 00h, 00h

				;ßßßßßßßßßßßßßßßßßßßßßßßßßßßßßßßßßßßßßßßßßßßßßßßßßßßßßßßßßßßßßßßßßßßßßßßßßß
				;                              SUBROUTINE
           ICON2.lst       ICON2.OVL				Sourcer	v8.01  20-Jul-2026 12:24 am   Page 52

				;
				;         Called from:   2926:0CDB, 0CE8, 0CF5
				;ÜÜÜÜÜÜÜÜÜÜÜÜÜÜÜÜÜÜÜÜÜÜÜÜÜÜÜÜÜÜÜÜÜÜÜÜÜÜÜÜÜÜÜÜÜÜÜÜÜÜÜÜÜÜÜÜÜÜÜÜÜÜÜÜÜÜÜÜÜÜÜÜÜÜ

2926:1638			sub_37		proc	near
2926:1638  A1 826D				mov	ax,ds:data_178e		; (2926:826D=0)
2926:163B  05 9248				add	ax,9248h
2926:163E  B1 03				mov	cl,3
2926:1640  D3 C8				ror	ax,cl			; Rotate
2926:1642  A3 826D				mov	ds:data_178e,ax		; (2926:826D=0)
2926:1645  BB 2710				mov	bx,2710h
2926:1648  33 D2				xor	dx,dx			; Zero register
2926:164A  F7 F3				div	bx			; ax,dx rem=dx:ax/reg
2926:164C  8B C2				mov	ax,dx
2926:164E  C3					retn
				sub_37		endp


				;ßßßßßßßßßßßßßßßßßßßßßßßßßßßßßßßßßßßßßßßßßßßßßßßßßßßßßßßßßßßßßßßßßßßßßßßßßß
				;                              SUBROUTINE
				;ÜÜÜÜÜÜÜÜÜÜÜÜÜÜÜÜÜÜÜÜÜÜÜÜÜÜÜÜÜÜÜÜÜÜÜÜÜÜÜÜÜÜÜÜÜÜÜÜÜÜÜÜÜÜÜÜÜÜÜÜÜÜÜÜÜÜÜÜÜÜÜÜÜÜ

2926:164F			sub_38		proc	near
2926:164F  2E: 8C 1E 16EB			mov	word ptr cs:[16EBh],ds	; (2926:16EB=16EBh)
2926:1654  8C C8				mov	ax,cs
2926:1656  8E D8				mov	ds,ax
2926:1658  2E: C7 06 16E8 0001			mov	word ptr cs:[16E8h],1	; (2926:16E8=8E2Eh)
2926:165F  FC					cld				; Clear direction
2926:1660			loc_161:					;  xref 2926:16A5, 16B6, 16C7, 16D5
2926:1660 úAC					lodsb				; String [si] to al
2926:1661  0A C0				or	al,al			; Zero ?
2926:1663  74 43				jz	loc_164			; Jump if zero
2926:1665			loc_162:					;  xref 2926:16CC
2926:1665  2E: A2 16E5				mov	byte ptr cs:[16E5h],al	; (2926:16E5=2)
2926:1669  2E: 8A 16 16E6			mov	dl,byte ptr cs:[16E6h]	; (2926:16E6=0CDh)
2926:166E  2E: 8A 36 16E7			mov	dh,byte ptr cs:[16E7h]	; (2926:16E7=10h)
2926:1673  32 FF				xor	bh,bh			; Zero register
2926:1675  B4 02				mov	ah,2
2926:1677  CD 10				int	10h			; Video display   ah=functn 02h
										;  set cursor location in dx
2926:1679  33 C0				xor	ax,ax			; Zero register
2926:167B  2E: A0 16E5				mov	al,byte ptr cs:[16E5h]	; (2926:16E5=2)
2926:167F  2E: 8B 0E 16E8			mov	cx,word ptr cs:[16E8h]	; (2926:16E8=8E2Eh)
2926:1684  2E: 8A 1E 16EA			mov	bl,byte ptr cs:[16EAh]	; (2926:16EA=1Eh)
2926:1689  3D 00B3				cmp	ax,0B3h
2926:168C  7C 07				jl	loc_163			; Jump if <
2926:168E  3D 00DA				cmp	ax,0DAh
2926:1691  7F 02				jg	loc_163			; Jump if >
2926:1693  B3 10				mov	bl,10h
2926:1695			loc_163:					;  xref 2926:168C, 1691
2926:1695  B4 09				mov	ah,9
2926:1697  CD 10				int	10h			; Video display   ah=functn 09h
										;  set char al & attrib bl @curs
										;   cx=# of chars to replicate
2926:1699  2E: 00 0E 16E6			add	byte ptr cs:[16E6h],cl	; (2926:16E6=0CDh)
2926:169E  2E: C7 06 16E8 0001			mov	word ptr cs:[16E8h],1	; (2926:16E8=8E2Eh)
2926:16A5  E9 FFB8				jmp	loc_161			; (1660)
           ICON2.lst       ICON2.OVL		Sourcer	v8.01  20-Jul-2026 12:24 am   Page 53

						nop	                                        ;*jump fixup
2926:16A8			loc_164:					;  xref 2926:1663
2926:16A8  AC					lodsb				; String [si] to al
2926:16A9  0A C0				or	al,al			; Zero ?
2926:16AB  74 2B				jz	loc_167			; Jump if zero
2926:16AD  3C 01				cmp	al,1
2926:16AF  75 08				jne	loc_165			; Jump if not equal
2926:16B1  AC					lodsb				; String [si] to al
2926:16B2  2E: A2 16EA				mov	byte ptr cs:[16EAh],al	; (2926:16EA=1Eh)
2926:16B6  E9 FFA7				jmp	loc_161			; (1660)
						nop	                                        ;*jump fixup
2926:16B9			loc_165:					;  xref 2926:16AF
2926:16B9  3C 02				cmp	al,2
2926:16BB  75 0D				jne	loc_166			; Jump if not equal
2926:16BD  AC					lodsb				; String [si] to al
2926:16BE  2E: A2 16E6				mov	byte ptr cs:[16E6h],al	; (2926:16E6=0CDh)
2926:16C2  AC					lodsb				; String [si] to al
2926:16C3  2E: A2 16E7				mov	byte ptr cs:[16E7h],al	; (2926:16E7=10h)
2926:16C7  E9 FF96				jmp	loc_161			; (1660)
						nop	                                        ;*jump fixup
2926:16CA			loc_166:					;  xref 2926:16BB
2926:16CA  3C 03				cmp	al,3
2926:16CC  75 97				jne	loc_162			; Jump if not equal
2926:16CE  AC					lodsb				; String [si] to al
2926:16CF  32 E4				xor	ah,ah			; Zero register
2926:16D1  2E: A3 16E8				mov	word ptr cs:[16E8h],ax	; (2926:16E8=8E2Eh)
2926:16D5  E9 FF88				jmp	loc_161			; (1660)
						nop	                                        ;*jump fixup
2926:16D8			loc_167:					;  xref 2926:16AB
2926:16D8  2E: 8A 16 16E6			mov	dl,byte ptr cs:[16E6h]	; (2926:16E6=0CDh)
2926:16DD  2E: 8A 36 16E7			mov	dh,byte ptr cs:[16E7h]	; (2926:16E7=10h)
2926:16E2  32 FF				xor	bh,bh			; Zero register
2926:16E4  B4 02				mov	ah,2
2926:16E6  CD 10				int	10h			; Video display   ah=functn 02h
										;  set cursor location in dx
2926:16E8  2E: 8E 1E 16EB			mov	ds,word ptr cs:[16EBh]	; (2926:16EB=16EBh)
2926:16ED  C3					retn
				sub_38		endp

2926:16EE ú8D 36 ED 16 E8 5A			db	 8Dh, 36h,0EDh, 16h,0E8h, 5Ah
2926:16F4  FF C3				db	0FFh,0C3h
2926:16F6 ú8D 36 85 13 E8 52			db	 8Dh, 36h, 85h, 13h,0E8h, 52h
2926:16FC  FF C3				db	0FFh,0C3h
2926:16FE ú8D 36 1D 1A E8 4A			db	 8Dh, 36h, 1Dh, 1Ah,0E8h, 4Ah
2926:1704  FF C3 00 2E 80 3E			db	0FFh,0C3h, 00h, 2Eh, 80h, 3Eh
2926:170A  86 16 00 74 0C 32			db	 86h, 16h, 00h, 74h, 0Ch, 32h
2926:1710  E4 2E A0 86 16 2E			db	0E4h, 2Eh,0A0h, 86h, 16h, 2Eh
2926:1716  88 26 86 16 C3 32			db	 88h, 26h, 86h, 16h,0C3h, 32h
2926:171C  E4 2E 88 26 86 16			db	0E4h, 2Eh, 88h, 26h, 86h, 16h
2926:1722  CD 16 3C 00 75 05			db	0CDh, 16h, 3Ch, 00h, 75h, 05h
2926:1728  2E 88 26 86 16 32			db	 2Eh, 88h, 26h, 86h, 16h, 32h
2926:172E  E4 C3 B9 04 00			db	0E4h,0C3h,0B9h, 04h, 00h

2926:1733			locloop_168:					;  xref 2926:1742
2926:1733  51					push	cx
2926:1734  32 F6				xor	dh,dh			; Zero register
2926:1736  B1 05				mov	cl,5
           ICON2.lst       ICON2.OVL		Sourcer	v8.01  20-Jul-2026 12:24 am   Page 54

2926:1738  B5 29				mov	ch,29h			; ')'
2926:173A  B8 0401				mov	ax,401h
2926:173D  CD 13				int	13h			; Disk  dl=drive a  ah=func 04h
										;  verify sectors with mem es:bx
										;   al=#,ch=cyl,cl=sectr,dh=head
2926:173F  59					pop	cx
2926:1740  73 06				jnc	loc_169			; Jump if carry=0
2926:1742  E2 EF				loop	locloop_168		; Loop if cx > 0

2926:1744  B8 0000				mov	ax,0
2926:1747  C3					retn
2926:1748			loc_169:					;  xref 2926:1740
2926:1748  B8 0001				mov	ax,1
2926:174B  C3					retn

				;ßßßßßßßßßßßßßßßßßßßßßßßßßßßßßßßßßßßßßßßßßßßßßßßßßßßßßßßßßßßßßßßßßßßßßßßßßß
				;                              SUBROUTINE
				;
				;         Called from:   2926:0EB1, 0F13, 36AF
				;ÜÜÜÜÜÜÜÜÜÜÜÜÜÜÜÜÜÜÜÜÜÜÜÜÜÜÜÜÜÜÜÜÜÜÜÜÜÜÜÜÜÜÜÜÜÜÜÜÜÜÜÜÜÜÜÜÜÜÜÜÜÜÜÜÜÜÜÜÜÜÜÜÜÜ

2926:174C			sub_39		proc	near
2926:174C  5B					pop	bx
2926:174D  59					pop	cx
2926:174E  8A F1				mov	dh,cl
2926:1750  2E: 88 36 16E7			mov	byte ptr cs:[16E7h],dh	; (2926:16E7=10h)
2926:1755  59					pop	cx
2926:1756  8A D1				mov	dl,cl
2926:1758  2E: 88 16 16E6			mov	byte ptr cs:[16E6h],dl	; (2926:16E6=0CDh)
2926:175D  53					push	bx
2926:175E  32 FF				xor	bh,bh			; Zero register
2926:1760  B4 02				mov	ah,2
2926:1762  CD 10				int	10h			; Video display   ah=functn 02h
										;  set cursor location in dx
2926:1764  C3					retn
				sub_39		endp

2926:1765  00 00 00 01 00 07			db	 00h, 00h, 00h, 01h, 00h, 07h
2926:176B  00 00 00 01 1F 00			db	 00h, 00h, 00h, 01h, 1Fh, 00h
2926:1771  02 13 01 48 20 45			db	 02h, 13h, 01h, 48h, 20h, 45h
2926:1777  20 4C 20 50 00 02			db	 20h, 4Ch, 20h, 50h, 00h, 02h
2926:177D  00 02 00 03 16 C4			db	 00h, 02h, 00h, 03h, 16h,0C4h
2926:1783  C2 00 03 11 C4 00			db	0C2h, 00h, 03h, 11h,0C4h, 00h
2926:1789  02 00 03 DA C4 C4			db	 02h, 00h, 03h,0DAh,0C4h,0C4h
2926:178F  BF 00 02 0C 03 DA			db	0BFh, 00h, 02h, 0Ch, 03h,0DAh
2926:1795  C4 C4 C4 BF 20 20			db	0C4h,0C4h,0C4h,0BFh, 20h, 20h
2926:179B  20 20 20 B3				db	 20h, 20h, 20h,0B3h
2926:179F  4D 6F 76 65 6D 65			db	'Movement Commands'
2926:17A5  6E 74 20 43 6F 6D
2926:17AB  6D 61 6E 64 73
2926:17B0  00 02 00 04 B3 50			db	 00h, 02h, 00h, 04h,0B3h, 50h
2926:17B6  20 B3				db	 20h,0B3h
2926:17B8  50 69 63 6B 20 75			db	'Pick up '
2926:17BE  70 20
2926:17C0  B3 45 73 63 B3 51			db	0B3h, 45h, 73h, 63h,0B3h, 51h
2926:17C6  75 69 74 20 C3 00			db	 75h, 69h, 74h, 20h,0C3h, 00h
2926:17CC  03 11 C4 00 02 00			db	 03h, 11h,0C4h, 00h, 02h, 00h
           ICON2.lst       ICON2.OVL		Sourcer	v8.01  20-Jul-2026 12:24 am   Page 55

2926:17D2  05 C0 C4 C4 D9			db	 05h,0C0h,0C4h,0C4h,0D9h
2926:17D7  6F 62 6A 65 63 74			db	'object  '
2926:17DD  20 20
2926:17DF  C0 C4 C4 C4 D9 20			db	0C0h,0C4h,0C4h,0C4h,0D9h, 20h
2926:17E5  20 20 20 20 B3 20			db	 20h, 20h, 20h, 20h,0B3h, 20h
2926:17EB  20 DA C4 C4 C4 D2			db	 20h,0DAh,0C4h,0C4h,0C4h,0D2h
2926:17F1  C4 C4 C4 D2 C4 C4			db	0C4h,0C4h,0C4h,0D2h,0C4h,0C4h
2926:17F7  C4 BF 00 02 00 06			db	0C4h,0BFh, 00h, 02h, 00h, 06h
2926:17FD  DA C4 C4 BF 00 02			db	0DAh,0C4h,0C4h,0BFh, 00h, 02h
2926:1803  0C 06 DA C4 C4 BF			db	 0Ch, 06h,0DAh,0C4h,0C4h,0BFh
2926:1809  20 20 20 20 20 20			db	 20h, 20h, 20h, 20h, 20h, 20h
2926:180F  B3 20 20 B3 37 20			db	0B3h, 20h, 20h,0B3h, 37h, 20h
2926:1815  20 BA 38 20 20 BA			db	 20h,0BAh, 38h, 20h, 20h,0BAh
2926:181B  39 20 20 B3 00 02			db	 39h, 20h, 20h,0B3h, 00h, 02h
2926:1821  00 07 B3 44 20 B3			db	 00h, 07h,0B3h, 44h, 20h,0B3h
2926:1827  44 72 6F 70 20 20			db	'Drop    '
2926:182D  20 20
2926:182F  B3 46 31 B3 48 45			db	0B3h, 46h, 31h,0B3h, 48h, 45h
2926:1835  4C 50 20 20 B3 20			db	 4Ch, 50h, 20h, 20h,0B3h, 20h
2926:183B  20 B3 20 20 5C BA			db	 20h,0B3h, 20h, 20h, 5Ch,0BAh
2926:1841  20 18 20 BA 20 2F			db	 20h, 18h, 20h,0BAh, 20h, 2Fh
2926:1847  20 B3 00 02 00 08			db	 20h,0B3h, 00h, 02h, 00h, 08h
2926:184D  C0 C4 C4 D9				db	0C0h,0C4h,0C4h,0D9h
2926:1851  6F 62 6A 65 63 74			db	'object  '
2926:1857  20 20
2926:1859  C0 C4 C4 D9 20 20			db	0C0h,0C4h,0C4h,0D9h, 20h, 20h
2926:185F  20 20 20 20 B3 20			db	 20h, 20h, 20h, 20h,0B3h, 20h
2926:1865  20 C6 CD CD CD CE			db	 20h,0C6h,0CDh,0CDh,0CDh,0CEh
2926:186B  CD CD CD CE CD CD			db	0CDh,0CDh,0CDh,0CEh,0CDh,0CDh
2926:1871  CD B5 00 02 00 09			db	0CDh,0B5h, 00h, 02h, 00h, 09h
2926:1877  DA C4 C4 BF 00 02			db	0DAh,0C4h,0C4h,0BFh, 00h, 02h
2926:187D  0C 09 DA C4 C4 BF			db	 0Ch, 09h,0DAh,0C4h,0C4h,0BFh
2926:1883  20 20 20 20 20 20			db	 20h, 20h, 20h, 20h, 20h, 20h
2926:1889  B3 20 20 B3 34 20			db	0B3h, 20h, 20h,0B3h, 34h, 20h
2926:188F  20 BA 35 20 20 BA			db	 20h,0BAh, 35h, 20h, 20h,0BAh
2926:1895  36 20 20 B3 00 02			db	 36h, 20h, 20h,0B3h, 00h, 02h
2926:189B  00 0A B3 57 20 B3			db	 00h, 0Ah,0B3h, 57h, 20h,0B3h
2926:18A1  57 65 61 70 6F 6E			db	'Weapon  '
2926:18A7  20 20
2926:18A9  B3 46 32 B3				db	0B3h, 46h, 32h,0B3h
2926:18AD  53 6F 75 6E				db	 53h, 6Fh, 75h, 6Eh
2926:18B1  64			data_89		db	64h			;  xref 2926:1CCF, 1D0B, 1D33
2926:18B2  20 B3 20 20 B3 20			db	 20h,0B3h, 20h, 20h,0B3h, 20h
2926:18B8  11 2D BA 20 20 20			db	 11h, 2Dh,0BAh, 20h, 20h, 20h
2926:18BE  BA 20 2D 10 B3 00			db	0BAh, 20h, 2Dh, 10h,0B3h, 00h
2926:18C4  02 00 0B C0 C4 C4			db	 02h, 00h, 0Bh,0C0h,0C4h,0C4h
2926:18CA  D9					db	0D9h
2926:18CB  73 65 6C 65 63 74			db	'select  '
2926:18D1  20 20
2926:18D3  C0 C4 C4 D9 4F 4E			db	0C0h,0C4h,0C4h,0D9h, 4Fh, 4Eh
2926:18D9  2F 4F 46 46 B3 20			db	 2Fh, 4Fh, 46h, 46h,0B3h, 20h
2926:18DF  20 C6 CD CD CD CE			db	 20h,0C6h,0CDh,0CDh,0CDh,0CEh
2926:18E5  CD CD CD CE CD CD			db	0CDh,0CDh,0CDh,0CEh,0CDh,0CDh
2926:18EB  CD B5 00 02 00 0C			db	0CDh,0B5h, 00h, 02h, 00h, 0Ch
2926:18F1  DA C4 C4 BF 00 02			db	0DAh,0C4h,0C4h,0BFh, 00h, 02h
2926:18F7  0C 0C DA C4 C4 BF			db	 0Ch, 0Ch,0DAh,0C4h,0C4h,0BFh
2926:18FD  20 20 20 20 20 20			db	 20h, 20h, 20h, 20h, 20h, 20h
           ICON2.lst       ICON2.OVL		Sourcer	v8.01  20-Jul-2026 12:24 am   Page 56

2926:1903  B3 20 20 B3 31 20			db	0B3h, 20h, 20h,0B3h, 31h, 20h
2926:1909  20 BA 32 20 20 BA			db	 20h,0BAh, 32h, 20h, 20h,0BAh
2926:190F  33 20 20 B3 00 02			db	 33h, 20h, 20h,0B3h, 00h, 02h
2926:1915  00 0D B3 53 20 B3			db	 00h, 0Dh,0B3h, 53h, 20h,0B3h
2926:191B  53 74 61 74 75 73			db	'Status  '
2926:1921  20 20
2926:1923  B3 4A 20 B3 4A 6F			db	0B3h, 4Ah, 20h,0B3h, 4Ah, 6Fh
2926:1929  79 2D 20 20 B3 20			db	 79h, 2Dh, 20h, 20h,0B3h, 20h
2926:192F  20 B3 20 20 2F BA			db	 20h,0B3h, 20h, 20h, 2Fh,0BAh
2926:1935  20 19 20 BA 20 5C			db	 20h, 19h, 20h,0BAh, 20h, 5Ch
2926:193B  20 B3 00 02 00 0E			db	 20h,0B3h, 00h, 02h, 00h, 0Eh
2926:1941  C0 C4 C4 D9 00 02			db	0C0h,0C4h,0C4h,0D9h, 00h, 02h
2926:1947  0C 0E C0 C4 C4 D9			db	 0Ch, 0Eh,0C0h,0C4h,0C4h,0D9h
2926:194D  73 74 69 63 6B 20			db	 73h, 74h, 69h, 63h, 6Bh, 20h
2926:1953  B3 20 20 C0 C4 C4			db	0B3h, 20h, 20h,0C0h,0C4h,0C4h
2926:1959  C4 D0 C4 C4 C4 D0			db	0C4h,0D0h,0C4h,0C4h,0C4h,0D0h
2926:195F  C4 C4 C4 D9 00 02			db	0C4h,0C4h,0C4h,0D9h, 00h, 02h
2926:1965  00 0F DA 00 03 09			db	 00h, 0Fh,0DAh, 00h, 03h, 09h
2926:196B  C4 BF 00 02 16 0F			db	0C4h,0BFh, 00h, 02h, 16h, 0Fh
2926:1971  B3 00 02 00 10 B3			db	0B3h, 00h, 02h, 00h, 10h,0B3h
2926:1977  53 70 61 63 65 20			db	'Space Bar'
2926:197D  42 61 72
2926:1980  B3					db	0B3h
2926:1981  41 74 74 61 63 6B			db	'Attack with'
2926:1987  20 77 69 74 68
2926:198C  B3					db	0B3h
2926:198D  20 50 72 65 73 73			db	' Press the key in'
2926:1993  20 74 68 65 20 6B
2926:1999  65 79 20 69 6E
2926:199E  00 02 00 11 C0 00			db	 00h, 02h, 00h, 11h,0C0h, 00h
2926:19A4  03 09 C4 D9				db	 03h, 09h,0C4h,0D9h
2926:19A8  73 77 6F 72 64 20			db	'sword or'
2926:19AE  6F 72
2926:19B0  20			data_90		db	20h			;  xref 2926:1CBF, 1D3B, 1D63
2926:19B1  2061			data_91		dw	2061h			; Data table (indexed access)
										;  xref 2926:1D97, 1E07
2926:19B3  B3					db	0B3h
2926:19B4  20 6F 6E 65 20 6F			db	' one of the eight'
2926:19BA  66 20 74 68 65 20
2926:19C0  65 69 67 68 74
2926:19C5  00 02 00 12				db	 00h, 02h, 00h, 12h
2926:19C9  6D 61 67 69 63 20			db	'magic wand. When using'
2926:19CF  77 61 6E 64 2E 20
2926:19D5  57 68 65 6E 20 75
2926:19DB  73 69 6E 67
2926:19DF  B3					db	0B3h
2926:19E0  20 64 69 72 65 63			db	' directions you'
2926:19E6  74 69 6F 6E 73 20
2926:19EC  79 6F 75
2926:19EF  00 02 00 13				db	 00h, 02h, 00h, 13h
2926:19F3  61 20 77 61 6E 64			db	'a wand, follow with a '
2926:19F9  2C 20 66 6F 6C 6C
2926:19FF  6F 77 20 77 69 74
2926:1A05  68 20 61 20
2926:1A09  B3					db	0B3h
2926:1A0A  20 77 69 73 68 20			db	' wish to move or'
2926:1A10  74 6F 20 6D 6F 76
           ICON2.lst       ICON2.OVL		Sourcer	v8.01  20-Jul-2026 12:24 am   Page 57

2926:1A16  65 20 6F 72
2926:1A1A  00 02 00 14				db	 00h, 02h, 00h, 14h
2926:1A1E  61 20 64 69 72 65			db	'a direction to fire.  '
2926:1A24  63 74 69 6F 6E 20
2926:1A2A  74 6F 20 66 69 72
2926:1A30  65 2E 20 20
2926:1A34  B3					db	0B3h
2926:1A35  20 74 6F 20 66 69			db	' to fire a wand.'
2926:1A3B  72 65 20 61 20 77
2926:1A41  61 6E 64 2E
2926:1A45  00 02 00 15 00 03			db	 00h, 02h, 00h, 15h, 00h, 03h
2926:1A4B  16 C4 C1 00 03 11			db	 16h,0C4h,0C1h, 00h, 03h, 11h
2926:1A51  C4 00 02 04 17			db	0C4h, 00h, 02h, 04h, 17h
2926:1A56  53 65				db	'Se'
2926:1A58  6C 65 63 74 20 79			db	'lect your command or pres'
2926:1A5E  6F 75 72 20 63 6F
2926:1A64  6D 6D 61 6E 64 20
2926:1A6A  6F 72 20 70 72 65
2926:1A70  73
2926:1A71  2073			data_93		dw	2073h			;  xref 2926:1BAA, 1C53
2926:1A73  74 68 65 00 02 04			db	 74h, 68h, 65h, 00h, 02h, 04h
2926:1A79  18					db	 18h
2926:1A7A  53 70				db	'Sp'
2926:1A7C  61 63 65 20 42 61			db	'ace Bar to return to your game.'
2926:1A82  72 20 74 6F 20 72
2926:1A88  65 74 75 72 6E 20
2926:1A8E  74 6F 20 79 6F 75
2926:1A94  72 20 67 61 6D 65
2926:1A9A  2E
2926:1A9B  00 00 00 01 1F 00			db	 00h, 00h, 00h, 01h, 1Fh, 00h
2926:1AA1  02 01 00				db	 02h, 01h, 00h
2926:1AA4  50 75 74				db	'Put'
2926:1AA7  20 74 68 65 20 6F	data_96		db	' the original game disk in flopp'
2926:1AAD  72 69 67 69 6E 61
2926:1AB3  6C 20 67 61 6D 65
2926:1AB9  20 64 69 73 6B 20
2926:1ABF  69 6E 20 66 6C 6F
2926:1AC5  70 70
2926:1AC7  79 00				db	'y', 0
2926:1AC9  02 01 02 64 72			db	 02h, 01h, 02h, 64h, 72h
2926:1ACE  69 76 65 20 41			db	'ive A'
2926:1AD3  20 6F 72 20 42 20			db	' or B & press the Space Bar.'
2926:1AD9  26 20 70 72 65 73
2926:1ADF  73 20 74 68 65 20
2926:1AE5  53 70 61 63 65 20
2926:1AEB  42 61 72 2E
2926:1AEF  00 00 00 00 FB 50			db	 00h, 00h, 00h, 00h,0FBh, 50h
2926:1AF5  53 51 52 55 1E 06			db	 53h, 51h, 52h, 55h, 1Eh, 06h
2926:1AFB  57 56 2E A1 71 1A			db	 57h, 56h, 2Eh,0A1h, 71h, 1Ah
2926:1B01  8E D8 33 C0 E4 60			db	 8Eh,0D8h, 33h,0C0h,0E4h, 60h
2926:1B07  8B D0 3C FF 74 06			db	 8Bh,0D0h, 3Ch,0FFh, 74h, 06h
2926:1B0D  24 7F				db	 24h, 7Fh
2926:1B0F  3C 47 7D 0C				db	 3Ch, 47h, 7Dh, 0Ch
2926:1B13			loc_170:					;  xref 2926:1B21, 1B25, 1B29
2926:1B13  5E					pop	si
2926:1B14  5F					pop	di
2926:1B15  07					pop	es
           ICON2.lst       ICON2.OVL		Sourcer	v8.01  20-Jul-2026 12:24 am   Page 58

2926:1B16  1F					pop	ds
2926:1B17  5D					pop	bp
2926:1B18  5A					pop	dx
2926:1B19  59					pop	cx
2926:1B1A  5B					pop	bx
2926:1B1B			loc_171:
2926:1B1B  58					pop	ax
2926:1B1C  CD 60				int	60h			; ??INT Non-standard interrupt
2926:1B1E  CF					iret				; Interrupt return
2926:1B1F			loc_172:
2926:1B1F  3C 4A				cmp	al,4Ah			; 'J'
2926:1B21  74 F0				je	loc_170			; Jump if equal
2926:1B23  3C 4E				cmp	al,4Eh			; 'N'
2926:1B25  74 EC				je	loc_170			; Jump if equal
2926:1B27  3C 51				cmp	al,51h			; 'Q'
2926:1B29  7F E8				jg	loc_170			; Jump if >
2926:1B2B úBB 1AB3				mov	bx,offset data_96+0Ch	; (2926:1AB3='l game disk in f')
2926:1B2E  2E: D7				xlat	cs:[bx]			; al=[al+[bx]] table
2926:1B30  8A D8				mov	bl,al
2926:1B32  8B C2				mov	ax,dx
2926:1B34  A8 80				test	al,80h
2926:1B36  74 1F				jz	loc_174			; Jump if zero
2926:1B38  A0 8268				mov	al,ds:data_175e		; (2926:8268=0)
2926:1B3B  0A C0				or	al,al			; Zero ?
2926:1B3D  75 06				jnz	loc_173			; Jump if not zero
2926:1B3F  A0 8257				mov	al,ds:data_170e		; (2926:8257=0)
2926:1B42  A2 8260				mov	ds:data_171e,al		; (2926:8260=0)
2926:1B45			loc_173:					;  xref 2926:1B3D
2926:1B45  33 C0				xor	ax,ax			; Zero register
2926:1B47  A2 8268				mov	ds:data_175e,al		; (2926:8268=0)
2926:1B4A  A0 8257				mov	al,ds:data_170e		; (2926:8257=0)
2926:1B4D  F6 D3				not	bl
2926:1B4F  22 C3				and	al,bl
2926:1B51  A2 8257				mov	ds:data_170e,al		; (2926:8257=0)
2926:1B54  E9 0008				jmp	loc_175			; (1B5F)
2926:1B57			loc_174:					;  xref 2926:1B36
2926:1B57  A0 8257				mov	al,ds:data_170e		; (2926:8257=0)
2926:1B5A  0A C3				or	al,bl
2926:1B5C  A2 8257				mov	ds:data_170e,al		; (2926:8257=0)
2926:1B5F			loc_175:					;  xref 2926:1B54
2926:1B5F  E4 61				in	al,61h			; port 61h, 8255 port B, read
2926:1B61  8A E0				mov	ah,al
2926:1B63  0C 80				or	al,80h
2926:1B65  E6 61				out	61h,al			; port 61h, 8255 B - spkr, etc
2926:1B67  86 E0				xchg	ah,al
2926:1B69  E6 61				out	61h,al			; port 61h, 8255 B - spkr, etc
2926:1B6B  FA					cli				; Disable interrupts
2926:1B6C  B0 20				mov	al,20h			; ' '
2926:1B6E  E6 20				out	20h,al			; port 20h, 8259-1 int command
										;  al = 20h, end of interrupt
2926:1B70  5E					pop	si
2926:1B71  5F					pop	di
2926:1B72  07					pop	es
2926:1B73  1F					pop	ds
2926:1B74  5D					pop	bp
2926:1B75  5A					pop	dx
2926:1B76  59					pop	cx
           ICON2.lst       ICON2.OVL		Sourcer	v8.01  20-Jul-2026 12:24 am   Page 59

2926:1B77  5B					pop	bx
2926:1B78  58					pop	ax
2926:1B79  CF					iret				; Interrupt return
							                        ;* No entry point to code
2926:1B7A  80 40 20 00				add	byte ptr [bx+si+20h],0
2926:1B7E  10 00				adc	[bx+si],al
2926:1B80  08 00				or	[bx+si],al
2926:1B82  04 02				add	al,2
2926:1B84  01 FC				add	sp,di
2926:1B86  33 C0				xor	ax,ax			; Zero register
2926:1B88  8E C0				mov	es,ax
2926:1B8A  A2 8257				mov	ds:data_170e,al		; (2926:8257=0)
2926:1B8D  A2 8260				mov	ds:data_171e,al		; (2926:8260=0)
2926:1B90  A2 8268				mov	ds:data_175e,al		; (2926:8268=0)
2926:1B93  FA					cli				; Disable interrupts
2926:1B94 úBE 0024				mov	si,data_3e		; (0000:0024=87h)
2926:1B97 úBF 0180				mov	di,data_9e		; (0000:0180=0)
2926:1B9A  26: A5				movs	word ptr es:[di],word ptr es:[si]	; Mov [si] to es:[di]
2926:1B9C  26: A5				movs	word ptr es:[di],word ptr es:[si]	; Mov [si] to es:[di]
2926:1B9E úBF 0024				mov	di,data_3e		; (0000:0024=87h)
2926:1BA1  B8 1A73				mov	ax,1A73h
2926:1BA4  AB					stosw				; Store ax to es:[di]
2926:1BA5  8C C8				mov	ax,cs
2926:1BA7  AB					stosw				; Store ax to es:[di]
2926:1BA8  8C D8				mov	ax,ds
2926:1BAA  2E: A3 1A71				mov	cs:data_93,ax		; (2926:1A71=2073h)
2926:1BAE  FB					sti				; Enable interrupts
2926:1BAF  C3					retn

				;ßßßßßßßßßßßßßßßßßßßßßßßßßßßßßßßßßßßßßßßßßßßßßßßßßßßßßßßßßßßßßßßßßßßßßßßßßß
				;                              SUBROUTINE
				;
				;         Called from:   2926:1160
				;ÜÜÜÜÜÜÜÜÜÜÜÜÜÜÜÜÜÜÜÜÜÜÜÜÜÜÜÜÜÜÜÜÜÜÜÜÜÜÜÜÜÜÜÜÜÜÜÜÜÜÜÜÜÜÜÜÜÜÜÜÜÜÜÜÜÜÜÜÜÜÜÜÜÜ

2926:1BB0			sub_41		proc	near
2926:1BB0  FC					cld				; Clear direction
2926:1BB1  33 C0				xor	ax,ax			; Zero register
2926:1BB3  8E C0				mov	es,ax
2926:1BB5  A2 8257				mov	ds:data_29e,al		; (2916:8257=0)
2926:1BB8  A2 8260				mov	ds:data_30e,al		; (2916:8260=0)
2926:1BBB  FA					cli				; Disable interrupts
2926:1BBC úBE 0180				mov	si,data_9e		; (0000:0180=0)
2926:1BBF úBF 0024				mov	di,data_3e		; (0000:0024=87h)
2926:1BC2  26: A5				movs	word ptr es:[di],word ptr es:[si]	; Mov [si] to es:[di]
2926:1BC4  26: A5				movs	word ptr es:[di],word ptr es:[si]	; Mov [si] to es:[di]
2926:1BC6  FB					sti				; Enable interrupts
2926:1BC7  C3					retn
				sub_41		endp


				;ßßßßßßßßßßßßßßßßßßßßßßßßßßßßßßßßßßßßßßßßßßßßßßßßßßßßßßßßßßßßßßßßßßßßßßßßßß
				;                              SUBROUTINE
				;
				;         Called from:   2926:0D91
				;ÜÜÜÜÜÜÜÜÜÜÜÜÜÜÜÜÜÜÜÜÜÜÜÜÜÜÜÜÜÜÜÜÜÜÜÜÜÜÜÜÜÜÜÜÜÜÜÜÜÜÜÜÜÜÜÜÜÜÜÜÜÜÜÜÜÜÜÜÜÜÜÜÜÜ

           ICON2.lst       ICON2.OVL		Sourcer	v8.01  20-Jul-2026 12:24 am   Page 60

2926:1BC8			sub_42		proc	near
2926:1BC8  33 C0				xor	ax,ax			; Zero register
2926:1BCA  A0 8257				mov	al,ds:data_170e		; (2926:8257=0)
2926:1BCD  0A 06 8260				or	al,ds:data_171e		; (2926:8260=0)
2926:1BD1  0B C0				or	ax,ax			; Zero ?
2926:1BD3  74 03				jz	loc_ret_176		; Jump if zero
2926:1BD5  B8 0001				mov	ax,1

2926:1BD8			loc_ret_176:					;  xref 2926:1BD3
2926:1BD8  C3					retn
				sub_42		endp

							                        ;* No entry point to code
2926:1BD9  33 C0				xor	ax,ax			; Zero register
2926:1BDB  A0 8260				mov	al,ds:data_171e		; (2926:8260=0)
2926:1BDE  0B C0				or	ax,ax			; Zero ?
2926:1BE0  75 08				jnz	loc_177			; Jump if not zero
2926:1BE2  B0 01				mov	al,1
2926:1BE4  A2 8268				mov	ds:data_175e,al		; (2926:8268=0)
2926:1BE7  A0 8257				mov	al,ds:data_170e		; (2926:8257=0)
2926:1BEA			loc_177:					;  xref 2926:1BE0
2926:1BEA  A8 40				test	al,40h			; '@'
2926:1BEC  75 29				jnz	loc_180			; Jump if not zero
2926:1BEE  A8 02				test	al,2
2926:1BF0  75 4B				jnz	loc_185			; Jump if not zero
2926:1BF2  A8 10				test	al,10h
2926:1BF4  75 35				jnz	loc_182			; Jump if not zero
2926:1BF6  A8 08				test	al,8
2926:1BF8  75 37				jnz	loc_183			; Jump if not zero
2926:1BFA  A8 80				test	al,80h
2926:1BFC  75 13				jnz	loc_179			; Jump if not zero
2926:1BFE  A8 20				test	al,20h			; ' '
2926:1C00  75 23				jnz	loc_181			; Jump if not zero
2926:1C02  A8 04				test	al,4
2926:1C04  75 31				jnz	loc_184			; Jump if not zero
2926:1C06  A8 01				test	al,1
2926:1C08  75 41				jnz	loc_186			; Jump if not zero
2926:1C0A			loc_178:					;  xref 2926:1C14, 1C22, 1C28, 1C2E
										;            1C34, 1C3A, 1C48, 1C4E
2926:1C0A ú33 DB				xor	bx,bx			; Zero register
2926:1C0C  88 1E 8260				mov	ds:data_171e,bl		; (2926:8260=0)
2926:1C10  C3					retn
2926:1C11			loc_179:					;  xref 2926:1BFC, 1C19
2926:1C11  B8 0047				mov	ax,47h
2926:1C14  E9 FFF3				jmp	loc_178			; (1C0A)
						nop	                                        ;*jump fixup
2926:1C17			loc_180:					;  xref 2926:1BEC
2926:1C17  A8 10				test	al,10h
2926:1C19  75 F6				jnz	loc_179			; Jump if not zero
2926:1C1B  A8 08				test	al,8
2926:1C1D  75 06				jnz	loc_181			; Jump if not zero
2926:1C1F  B8 0048				mov	ax,48h
2926:1C22  E9 FFE5				jmp	loc_178			; (1C0A)
						nop	                                        ;*jump fixup
2926:1C25			loc_181:					;  xref 2926:1C00, 1C1D
2926:1C25  B8 0049				mov	ax,49h
2926:1C28  E9 FFDF				jmp	loc_178			; (1C0A)
           ICON2.lst       ICON2.OVL		Sourcer	v8.01  20-Jul-2026 12:24 am   Page 61

						nop	                                        ;*jump fixup
2926:1C2B			loc_182:					;  xref 2926:1BF4
2926:1C2B  B8 004B				mov	ax,4Bh
2926:1C2E  E9 FFD9				jmp	loc_178			; (1C0A)
						nop	                                        ;*jump fixup
2926:1C31			loc_183:					;  xref 2926:1BF8
2926:1C31  B8 004D				mov	ax,4Dh
2926:1C34  E9 FFD3				jmp	loc_178			; (1C0A)
						nop	                                        ;*jump fixup
2926:1C37			loc_184:					;  xref 2926:1C04, 1C3F
2926:1C37  B8 004F				mov	ax,4Fh
2926:1C3A  E9 FFCD				jmp	loc_178			; (1C0A)
						nop	                                        ;*jump fixup
2926:1C3D			loc_185:					;  xref 2926:1BF0
2926:1C3D  A8 10				test	al,10h
2926:1C3F  75 F6				jnz	loc_184			; Jump if not zero
2926:1C41  A8 08				test	al,8
2926:1C43  75 06				jnz	loc_186			; Jump if not zero
2926:1C45  B8 0050				mov	ax,50h
2926:1C48  E9 FFBF				jmp	loc_178			; (1C0A)
						nop	                                        ;*jump fixup
2926:1C4B			loc_186:					;  xref 2926:1C08, 1C43
2926:1C4B  B8 0051				mov	ax,51h
2926:1C4E  E9 FFB9				jmp	loc_178			; (1C0A)
						nop	                                        ;*jump fixup
							                        ;* No entry point to code
2926:1C51  FB					sti				; Enable interrupts
2926:1C52  1E					push	ds
2926:1C53  2E: A1 1A71				mov	ax,cs:data_93		; (2926:1A71=2073h)
2926:1C57  8E D8				mov	ds,ax
2926:1C59  FE 06 8272				inc	byte ptr ds:data_21e	; (2073:8272=0)
2926:1C5D  1F					pop	ds
2926:1C5E  CD 61				int	61h			; ??INT Non-standard interrupt
2926:1C60  CF					iret				; Interrupt return

				;ßßßßßßßßßßßßßßßßßßßßßßßßßßßßßßßßßßßßßßßßßßßßßßßßßßßßßßßßßßßßßßßßßßßßßßßßßß
				;                              SUBROUTINE
				;
				;         Called from:   2926:10BC
				;ÜÜÜÜÜÜÜÜÜÜÜÜÜÜÜÜÜÜÜÜÜÜÜÜÜÜÜÜÜÜÜÜÜÜÜÜÜÜÜÜÜÜÜÜÜÜÜÜÜÜÜÜÜÜÜÜÜÜÜÜÜÜÜÜÜÜÜÜÜÜÜÜÜÜ

2926:1C61			sub_43		proc	near
2926:1C61  FC					cld				; Clear direction
2926:1C62  33 C0				xor	ax,ax			; Zero register
2926:1C64  8E C0				mov	es,ax
2926:1C66  A3 8272				mov	ds:data_179e,ax		; (2926:8272=0)
2926:1C69  FA					cli				; Disable interrupts
2926:1C6A úBE 0070				mov	si,data_5e		; (0000:0070=60h)
2926:1C6D úBF 0184				mov	di,data_10e		; (0000:0184=0)
2926:1C70  26: A5				movs	word ptr es:[di],word ptr es:[si]	; Mov [si] to es:[di]
2926:1C72  26: A5				movs	word ptr es:[di],word ptr es:[si]	; Mov [si] to es:[di]
2926:1C74 úBF 0070				mov	di,data_5e		; (0000:0070=60h)
2926:1C77  B8 1BD1				mov	ax,1BD1h
2926:1C7A  AB					stosw				; Store ax to es:[di]
2926:1C7B  8C C8				mov	ax,cs
2926:1C7D  AB					stosw				; Store ax to es:[di]
2926:1C7E  FB					sti				; Enable interrupts
           ICON2.lst       ICON2.OVL		Sourcer	v8.01  20-Jul-2026 12:24 am   Page 62

2926:1C7F  C3					retn
				sub_43		endp


				;ßßßßßßßßßßßßßßßßßßßßßßßßßßßßßßßßßßßßßßßßßßßßßßßßßßßßßßßßßßßßßßßßßßßßßßßßßß
				;                              SUBROUTINE
				;
				;         Called from:   2926:1163
				;ÜÜÜÜÜÜÜÜÜÜÜÜÜÜÜÜÜÜÜÜÜÜÜÜÜÜÜÜÜÜÜÜÜÜÜÜÜÜÜÜÜÜÜÜÜÜÜÜÜÜÜÜÜÜÜÜÜÜÜÜÜÜÜÜÜÜÜÜÜÜÜÜÜÜ

2926:1C80			sub_44		proc	near
2926:1C80  FC					cld				; Clear direction
2926:1C81  33 C0				xor	ax,ax			; Zero register
2926:1C83  8E C0				mov	es,ax
2926:1C85  FA					cli				; Disable interrupts
2926:1C86 úBE 0184				mov	si,data_10e		; (0000:0184=0)
2926:1C89 úBF 0070				mov	di,data_5e		; (0000:0070=60h)
2926:1C8C  26: A5				movs	word ptr es:[di],word ptr es:[si]	; Mov [si] to es:[di]
2926:1C8E  26: A5				movs	word ptr es:[di],word ptr es:[si]	; Mov [si] to es:[di]
2926:1C90  FB					sti				; Enable interrupts
2926:1C91  C3					retn
				sub_44		endp


				;ßßßßßßßßßßßßßßßßßßßßßßßßßßßßßßßßßßßßßßßßßßßßßßßßßßßßßßßßßßßßßßßßßßßßßßßßßß
				;                              SUBROUTINE
				;
				;         Called from:   2926:0E8C
				;ÜÜÜÜÜÜÜÜÜÜÜÜÜÜÜÜÜÜÜÜÜÜÜÜÜÜÜÜÜÜÜÜÜÜÜÜÜÜÜÜÜÜÜÜÜÜÜÜÜÜÜÜÜÜÜÜÜÜÜÜÜÜÜÜÜÜÜÜÜÜÜÜÜÜ

2926:1C92			sub_45		proc	near
2926:1C92  58					pop	ax
2926:1C93  5F					pop	di
2926:1C94  07					pop	es
2926:1C95  5E					pop	si
2926:1C96  5B					pop	bx
2926:1C97  50					push	ax
2926:1C98  1E					push	ds
2926:1C99  8E DB				mov	ds,bx
2926:1C9B  FC					cld				; Clear direction
2926:1C9C			loc_187:					;  xref 2926:1CA4, 1CB4
2926:1C9C úAD					lodsw				; String [si] to ax
2926:1C9D  3C 00				cmp	al,0
2926:1C9F  74 06				je	loc_188			; Jump if equal
2926:1CA1  AB					stosw				; Store ax to es:[di]
2926:1CA2  8B D8				mov	bx,ax
2926:1CA4  E9 FFF5				jmp	loc_187			; (1C9C)
						nop	                                        ;*jump fixup
2926:1CA7			loc_188:					;  xref 2926:1C9F
2926:1CA7  0B C0				or	ax,ax			; Zero ?
2926:1CA9  74 0C				jz	loc_189			; Jump if zero
2926:1CAB  86 E0				xchg	ah,al
2926:1CAD  8B C8				mov	cx,ax
2926:1CAF  49					dec	cx
2926:1CB0  8B C3				mov	ax,bx
2926:1CB2  F3/ AB				rep	stosw			; Rep when cx >0 Store ax to es:[di]
2926:1CB4  E9 FFE5				jmp	loc_187			; (1C9C)
           ICON2.lst       ICON2.OVL		Sourcer	v8.01  20-Jul-2026 12:24 am   Page 63

						nop	                                        ;*jump fixup
2926:1CB7			loc_189:					;  xref 2926:1CA9
2926:1CB7  1F					pop	ds
2926:1CB8  C3					retn
				sub_45		endp

							                        ;* No entry point to code
2926:1CB9  B1 18				mov	cl,18h
2926:1CBB  00 10				add	[bx+si],dl
2926:1CBD  DE 11				ficom	word ptr [bx+di]	; Compare with st
2926:1CBF  00 06 19B0				add	data_90,al		; (2926:19B0=20h)
2926:1CC3  00 03				add	[bp+di],al
2926:1CC5  B1 19				mov	cl,19h
2926:1CC7  B0 19				mov	al,19h
2926:1CC9  B1 19				mov	cl,19h
2926:1CCB  B0 19				mov	al,19h
2926:1CCD  DE 11				ficom	word ptr [bx+di]	; Compare with st
2926:1CCF  00 06 18B1				add	data_89,al		; (2926:18B1=64h)
2926:1CD3  00 14				add	[si],dl
2926:1CD5  DE 11				ficom	word ptr [bx+di]	; Compare with st
2926:1CD7  B1 18				mov	cl,18h
2926:1CD9  DE 11				ficom	word ptr [bx+di]	; Compare with st
2926:1CDB  00 05				add	[di],al
2926:1CDD  B0 19				mov	al,19h
2926:1CDF  B1 19				mov	cl,19h
2926:1CE1  00 02				add	[bp+si],al
2926:1CE3  B0 19				mov	al,19h
2926:1CE5  B1 19				mov	cl,19h
2926:1CE7  B0 19				mov	al,19h
2926:1CE9  00 03				add	[bp+di],al
2926:1CEB  DE 11				ficom	word ptr [bx+di]	; Compare with st
2926:1CED  00 08				add	[bx+si],cl
2926:1CEF  B1 18				mov	cl,18h
2926:1CF1  00 10				add	[bx+si],dl
2926:1CF3  DE 11				ficom	word ptr [bx+di]	; Compare with st
2926:1CF5  00 05				add	[di],al
2926:1CF7  B0 19				mov	al,19h
2926:1CF9  DE 11				ficom	word ptr [bx+di]	; Compare with st
2926:1CFB  B0 19				mov	al,19h
2926:1CFD  00 02				add	[bp+si],al
2926:1CFF  B1 19				mov	cl,19h
2926:1D01  00 05				add	[di],al
2926:1D03  B0 19				mov	al,19h
2926:1D05  B1 19				mov	cl,19h
2926:1D07  B0 19				mov	al,19h
2926:1D09  DE 11				ficom	word ptr [bx+di]	; Compare with st
2926:1D0B  00 06 18B1				add	data_89,al		; (2926:18B1=64h)
2926:1D0F  DE 11				ficom	word ptr [bx+di]	; Compare with st
2926:1D11  B1 18				mov	cl,18h
2926:1D13  00 0E 11DE				add	byte ptr ds:[11DEh],cl	; (2926:11DE=1Eh)
2926:1D17  00 07				add	[bx],al
2926:1D19  B0 19				mov	al,19h
2926:1D1B  00 03				add	[bp+di],al
2926:1D1D  B1 19				mov	cl,19h
2926:1D1F  B0 91				mov	al,91h
2926:1D21  B1 19				mov	cl,19h
2926:1D23  00 02				add	[bp+si],al
           ICON2.lst       ICON2.OVL		Sourcer	v8.01  20-Jul-2026 12:24 am   Page 64

2926:1D25  B0 19				mov	al,19h
2926:1D27  B1 19				mov	cl,19h
2926:1D29  B0 19				mov	al,19h
2926:1D2B  B1 19				mov	cl,19h
2926:1D2D  B0 19				mov	al,19h
2926:1D2F  00 02				add	[bp+si],al
2926:1D31  DE 11				ficom	word ptr [bx+di]	; Compare with st
2926:1D33  00 06 18B1				add	data_89,al		; (2926:18B1=64h)
2926:1D37  00 0F				add	[bx],cl
2926:1D39  DE 11				ficom	word ptr [bx+di]	; Compare with st
2926:1D3B  00 06 19B0				add	data_90,al		; (2926:19B0=20h)
2926:1D3F  00 02				add	[bp+si],al
2926:1D41  B1 19				mov	cl,19h
2926:1D43  00 02				add	[bp+si],al
2926:1D45  B0 91				mov	al,91h
2926:1D47  00 02				add	[bp+si],al
2926:1D49  B1 19				mov	cl,19h
2926:1D4B  00 04				add	[si],al
2926:1D4D  B0 19				mov	al,19h
2926:1D4F  00 02				add	[bp+si],al
2926:1D51  DE 11				ficom	word ptr [bx+di]	; Compare with st
2926:1D53  B0 19				mov	al,19h
2926:1D55  DE 11				ficom	word ptr [bx+di]	; Compare with st
2926:1D57  00 04				add	[si],al
2926:1D59  B1 18				mov	cl,18h
2926:1D5B  DE 11				ficom	word ptr [bx+di]	; Compare with st
2926:1D5D  B1 18				mov	cl,18h
2926:1D5F  00 0D				add	[di],cl
2926:1D61  DE 11				ficom	word ptr [bx+di]	; Compare with st
2926:1D63  00 06 19B0				add	data_90,al		; (2926:19B0=20h)
2926:1D67  00 02				add	[bp+si],al
2926:1D69  B1 19				mov	cl,19h
2926:1D6B  00 02				add	[bp+si],al
2926:1D6D  B0 91				mov	al,91h
2926:1D6F  00 05				add	[di],al
2926:1D71  B1 19				mov	cl,19h
2926:1D73  00 02				add	[bp+si],al
2926:1D75  B0 19				mov	al,19h
2926:1D77  B1 19				mov	cl,19h
2926:1D79  B0 19				mov	al,19h
2926:1D7B  00 03				add	[bp+di],al
2926:1D7D  DE 11				ficom	word ptr [bx+di]	; Compare with st
2926:1D7F  00 05				add	[di],al
2926:1D81  B1 18				mov	cl,18h
2926:1D83  00 0C				add	[si],cl
2926:1D85  DE 11				ficom	word ptr [bx+di]	; Compare with st
2926:1D87  00 04				add	[si],al
2926:1D89  B0 19				mov	al,19h
2926:1D8B  DE 11				ficom	word ptr [bx+di]	; Compare with st
2926:1D8D  B0 19				mov	al,19h
2926:1D8F  00 02				add	[bp+si],al
2926:1D91  B1 19				mov	cl,19h
2926:1D93  00 02				add	[bp+si],al
2926:1D95  B0 91				mov	al,91h
2926:1D97  00 06 19B1				add	byte ptr data_91,al	; (2926:19B1=61h)
2926:1D9B  B0 91				mov	al,91h
2926:1D9D  B1 19				mov	cl,19h
           ICON2.lst       ICON2.OVL		Sourcer	v8.01  20-Jul-2026 12:24 am   Page 65

2926:1D9F  00 02				add	[bp+si],al
2926:1DA1  B0 19				mov	al,19h
2926:1DA3  B1 19				mov	cl,19h
2926:1DA5  DE 11				ficom	word ptr [bx+di]	; Compare with st
2926:1DA7  00 03				add	[bp+di],al
2926:1DA9  B0 19				mov	al,19h
2926:1DAB  DE 11				ficom	word ptr [bx+di]	; Compare with st
2926:1DAD  00 02				add	[bp+si],al
2926:1DAF  B1 18				mov	cl,18h
2926:1DB1  00 0B				add	[bp+di],cl
2926:1DB3  DE 11				ficom	word ptr [bx+di]	; Compare with st
2926:1DB5  B1 18				mov	cl,18h
2926:1DB7  DE 11				ficom	word ptr [bx+di]	; Compare with st
2926:1DB9  00 03				add	[bp+di],al
2926:1DBB  B0 19				mov	al,19h
2926:1DBD  00 03				add	[bp+di],al
2926:1DBF  B1 19				mov	cl,19h
2926:1DC1  00 02				add	[bp+si],al
2926:1DC3  89 09				mov	[bx+di],cx
2926:1DC5  00 02				add	[bp+si],al
2926:1DC7  B0 91				mov	al,91h
2926:1DC9  00 02				add	[bp+si],al
2926:1DCB  DE 99 91B0				ficomp	word ptr ds:data_211e[bx+di]	; (2926:91B0=0) Compare st & pop 1
2926:1DCF  DE 99 91B0				ficomp	word ptr ds:data_211e[bx+di]	; (2926:91B0=0) Compare st & pop 1
2926:1DD3  B1 19				mov	cl,19h
2926:1DD5  00 02				add	[bp+si],al
2926:1DD7  B0 19				mov	al,19h
2926:1DD9  B1 19				mov	cl,19h
2926:1DDB  B0 19				mov	al,19h
2926:1DDD  00 04				add	[si],al
2926:1DDF  DE 11				ficom	word ptr [bx+di]	; Compare with st
2926:1DE1  B0 19				mov	al,19h
2926:1DE3  DE 11				ficom	word ptr [bx+di]	; Compare with st
2926:1DE5  B1 18				mov	cl,18h
2926:1DE7  00 03				add	[bp+di],al
2926:1DE9  28 1B				sub	[bp+di],bl
2926:1DEB  B1 18				mov	cl,18h
2926:1DED  00 08				add	[bx+si],cl
2926:1DEF  DE 11				ficom	word ptr [bx+di]	; Compare with st
2926:1DF1  00 03				add	[bp+di],al
2926:1DF3  B0 19				mov	al,19h
2926:1DF5  00 03				add	[bp+di],al
2926:1DF7  B1 19				mov	cl,19h
2926:1DF9  00 02				add	[bp+si],al
2926:1DFB  B0 91				mov	al,91h
2926:1DFD  DE 00				fiadd	word ptr [bx+si]
2926:1DFF  00 02				add	[bp+si],al
2926:1E01  B0 91				mov	al,91h
2926:1E03  00 04				add	[si],al
2926:1E05  B1 91				mov	cl,91h
2926:1E07  DE 99 19B1				ficomp	data_91[bx+di]		; (2926:19B1=2061h) Compare st & pop 1
2926:1E0B  00 03				add	[bp+di],al
2926:1E0D  B0 19				mov	al,19h
2926:1E0F  B1 19				mov	cl,19h
2926:1E11  B0 19				mov	al,19h
2926:1E13  B1 19				mov	cl,19h
2926:1E15  B0 19				mov	al,19h
           ICON2.lst       ICON2.OVL		Sourcer	v8.01  20-Jul-2026 12:24 am   Page 66

2926:1E17  00 04				add	[si],al
2926:1E19  B1 18				mov	cl,18h
2926:1E1B  00 03				add	[bp+di],al
2926:1E1D  27					daa				; Decimal adjust
2926:1E1E  1B B1 0018				sbb	si,data_51[bx+di]	; (2926:0018=0)
2926:1E22  07					pop	es
2926:1E23  DE 11				ficom	word ptr [bx+di]	; Compare with st
2926:1E25  00 04				add	[si],al
2926:1E27  B0 19				mov	al,19h
2926:1E29  B1 19				mov	cl,19h
2926:1E2B  00 03				add	[bp+di],al
2926:1E2D  B0 91				mov	al,91h
2926:1E2F  00 02				add	[bp+si],al
2926:1E31  A3 0008				mov	word ptr ds:[8],ax	; (2926:0008=0)
2926:1E34  02 DE				add	bl,dh
2926:1E36  99					cwd				; Word to double word
2926:1E37  B0 91				mov	al,91h
2926:1E39  00 02				add	[bp+si],al
2926:1E3B  89 09				mov	[bx+di],cx
2926:1E3D  00 02				add	[bp+si],al
2926:1E3F  B1 91				mov	cl,91h
2926:1E41  00 02				add	[bp+si],al
2926:1E43  B0 91				mov	al,91h
2926:1E45  00 02				add	[bp+si],al
2926:1E47  B1 19				mov	cl,19h
2926:1E49  00 03				add	[bp+di],al
2926:1E4B  B0 19				mov	al,19h
2926:1E4D  00 03				add	[bp+di],al
2926:1E4F  B1 19				mov	cl,19h
2926:1E51  B0 19				mov	al,19h
2926:1E53  B1 18				mov	cl,18h
2926:1E55  00 03				add	[bp+di],al
2926:1E57  29 1B				sub	[bp+di],bx
2926:1E59  B1 18				mov	cl,18h
2926:1E5B  00 06 11DE				add	byte ptr ds:[11DEh],al	; (2926:11DE=1Eh)
2926:1E5F  B1 18				mov	cl,18h
2926:1E61  DE 11				ficom	word ptr [bx+di]	; Compare with st
2926:1E63  00 02				add	[bp+si],al
2926:1E65  B0 19				mov	al,19h
2926:1E67  00 02				add	[bp+si],al
2926:1E69  B1 19				mov	cl,19h
2926:1E6B  00 02				add	[bp+si],al
2926:1E6D  89 09				mov	[bx+di],cx
2926:1E6F  00 02				add	[bp+si],al
2926:1E71  B1 19				mov	cl,19h
2926:1E73  06					push	es
2926:1E74  01 00				add	[bx+si],ax
2926:1E76  02 B0 0091				add	dh,byte ptr data_60[bx+si]	; (2926:0091=0A4h)
2926:1E7A  02 DE				add	bl,dh
2926:1E7C  99					cwd				; Word to double word
2926:1E7D  DE 00				fiadd	word ptr [bx+si]
2926:1E7F  00 02				add	[bp+si],al
2926:1E81  B1 91				mov	cl,91h
2926:1E83  DE 99 91B0				ficomp	word ptr ds:data_211e[bx+di]	; (2926:91B0=0) Compare st & pop 1
2926:1E87  B1 19				mov	cl,19h
2926:1E89  00 04				add	[si],al
2926:1E8B  B0 19				mov	al,19h
           ICON2.lst       ICON2.OVL		Sourcer	v8.01  20-Jul-2026 12:24 am   Page 67

2926:1E8D  B1 19				mov	cl,19h
2926:1E8F  B0 19				mov	al,19h
2926:1E91  00 03				add	[bp+di],al
2926:1E93  B1 18				mov	cl,18h
2926:1E95  00 03				add	[bp+di],al
2926:1E97  6A 1B B1 18 00 07			db	 6Ah, 1Bh,0B1h, 18h, 00h, 07h
2926:1E9D  DE 11 00 03 B0 19			db	0DEh, 11h, 00h, 03h,0B0h, 19h
2926:1EA3  B1 19 00 02 B0 91			db	0B1h, 19h, 00h, 02h,0B0h, 91h
2926:1EA9  DE 00 00 02 B0 91			db	0DEh, 00h, 00h, 02h,0B0h, 91h
2926:1EAF  06 01 00 02 B1 91			db	 06h, 01h, 00h, 02h,0B1h, 91h
2926:1EB5  B0 91 B1 91 A3 08			db	0B0h, 91h,0B1h, 91h,0A3h, 08h
2926:1EBB  00 02 B0 91 00 04			db	 00h, 02h,0B0h, 91h, 00h, 04h
2926:1EC1  B1 19 B0 91 B0 19			db	0B1h, 19h,0B0h, 91h,0B0h, 19h
2926:1EC7  B1 19 00 02 B0 19			db	0B1h, 19h, 00h, 02h,0B0h, 19h
2926:1ECD  00 03 B1 18 00 0A			db	 00h, 03h,0B1h, 18h, 00h, 0Ah
2926:1ED3  DE 11 00 04 B0 19			db	0DEh, 11h, 00h, 04h,0B0h, 19h
2926:1ED9  B1 19 B0 91 B1 19			db	0B1h, 19h,0B0h, 91h,0B1h, 19h
2926:1EDF  A3 08 00 02 B0 91			db	0A3h, 08h, 00h, 02h,0B0h, 91h
2926:1EE5  82 09 00 02 89 49			db	 82h, 09h, 00h, 02h, 89h, 49h
2926:1EEB  B1 91 00 02 06 01			db	0B1h, 91h, 00h, 02h, 06h, 01h
2926:1EF1  00 02 B1 91 B0 91			db	 00h, 02h,0B1h, 91h,0B0h, 91h
2926:1EF7  00 04 B1 19 00 03			db	 00h, 04h,0B1h, 19h, 00h, 03h
2926:1EFD  B0 19 B1 19 B0 19			db	0B0h, 19h,0B1h, 19h,0B0h, 19h
2926:1F03  B1 19 B1 18 00 09			db	0B1h, 19h,0B1h, 18h, 00h, 09h
2926:1F09  DE 11 B1 18 DE 11			db	0DEh, 11h,0B1h, 18h,0DEh, 11h
2926:1F0F  00 02 B0 19 B1 19			db	 00h, 02h,0B0h, 19h,0B1h, 19h
2926:1F15  B0 91 00 03 06 01			db	0B0h, 91h, 00h, 03h, 06h, 01h
2926:1F1B  00 02 B1 19 27 08			db	 00h, 02h,0B1h, 19h, 27h, 08h
2926:1F21  DE 00 B1 04 89 49			db	0DEh, 00h,0B1h, 04h, 89h, 49h
2926:1F27  B1 91 06 01 00 02			db	0B1h, 91h, 06h, 01h, 00h, 02h
2926:1F2D  B0 91 B1 91 B0 91			db	0B0h, 91h,0B1h, 91h,0B0h, 91h
2926:1F33  B1 19 B0 91 00 02			db	0B1h, 19h,0B0h, 91h, 00h, 02h
2926:1F39  B1 19 B0 91 B1 19			db	0B1h, 19h,0B0h, 91h,0B1h, 19h
2926:1F3F  00 03 B0 19 B1 18			db	 00h, 03h,0B0h, 19h,0B1h, 18h
2926:1F45  00 0A DE 11 00 03			db	 00h, 0Ah,0DEh, 11h, 00h, 03h
2926:1F4B  B0 19 00 02 B1 19			db	0B0h, 19h, 00h, 02h,0B1h, 19h
2926:1F51  00 03 06 01 00 02			db	 00h, 03h, 06h, 01h, 00h, 02h
2926:1F57  B0 91 27 08 DE 00			db	0B0h, 91h, 27h, 08h,0DEh, 00h
2926:1F5D  B1 04 00 02 89 49			db	0B1h, 04h, 00h, 02h, 89h, 49h
2926:1F63  82 09 00 02 B1 91			db	 82h, 09h, 00h, 02h,0B1h, 91h
2926:1F69  B0 91 DE 99 B0 91			db	0B0h, 91h,0DEh, 99h,0B0h, 91h
2926:1F6F  00 02 B1 19 B0 91			db	 00h, 02h,0B1h, 19h,0B0h, 91h
2926:1F75  B1 19 00 03 B0 19			db	0B1h, 19h, 00h, 03h,0B0h, 19h
2926:1F7B  B1 19 B1 18 00 09			db	0B1h, 19h,0B1h, 18h, 00h, 09h
2926:1F81  DE 11 00 05 B0 19			db	0DEh, 11h, 00h, 05h,0B0h, 19h
2926:1F87  00 02 B1 19 00 02			db	 00h, 02h,0B1h, 19h, 00h, 02h
2926:1F8D  82 09 00 02 89 49			db	 82h, 09h, 00h, 02h, 89h, 49h
2926:1F93  27 08 DE 00 B1 04			db	 27h, 08h,0DEh, 00h,0B1h, 04h
2926:1F99  00 03 27 08 DE 00			db	 00h, 03h, 27h, 08h,0DEh, 00h
2926:1F9F  B0 91 00 08 B1 19			db	0B0h, 91h, 00h, 08h,0B1h, 19h
2926:1FA5  B0 91 B1 19 B0 19			db	0B0h, 91h,0B1h, 19h,0B0h, 19h
2926:1FAB  B1 18 00 08 DE 11			db	0B1h, 18h, 00h, 08h,0DEh, 11h
2926:1FB1  00 03 B0 19 DE 11			db	 00h, 03h,0B0h, 19h,0DEh, 11h
2926:1FB7  B0 19 B1 19 B0 19			db	0B0h, 19h,0B1h, 19h,0B0h, 19h
2926:1FBD  B1 19 00 02 27 08			db	0B1h, 19h, 00h, 02h, 27h, 08h
2926:1FC3  DE 00 B1 04 27 08			db	0DEh, 00h,0B1h, 04h, 27h, 08h
2926:1FC9  DE 00 B1 04 00 03			db	0DEh, 00h,0B1h, 04h, 00h, 03h
           ICON2.lst       ICON2.OVL		Sourcer	v8.01  20-Jul-2026 12:24 am   Page 68

2926:1FCF  27 08 DE 00 B1 91			db	 27h, 08h,0DEh, 00h,0B1h, 91h
2926:1FD5  00 02 B0 91 00 04			db	 00h, 02h,0B0h, 91h, 00h, 04h
2926:1FDB  B1 19 B0 91 00 02			db	0B1h, 19h,0B0h, 91h, 00h, 02h
2926:1FE1  B1 19 00 03 B1 18			db	0B1h, 19h, 00h, 03h,0B1h, 18h
2926:1FE7  00 09 DE 11 00 03			db	 00h, 09h,0DEh, 11h, 00h, 03h
2926:1FED  B0 19 00 03 B1 19			db	0B0h, 19h, 00h, 03h,0B1h, 19h
2926:1FF3  00 02 B0 91 27 08			db	 00h, 02h,0B0h, 91h, 27h, 08h
2926:1FF9  DE 00 B1 04 27 08			db	0DEh, 00h,0B1h, 04h, 27h, 08h
2926:1FFF  DE 00 B1 04 00 03			db	0DEh, 00h,0B1h, 04h, 00h, 03h
2926:2005  27 08 DE 00 B0 91			db	 27h, 08h,0DEh, 00h,0B0h, 91h
2926:200B  00 04 DE 99 B0 91			db	 00h, 04h,0DEh, 99h,0B0h, 91h
2926:2011  00 02 B1 19 B0 91			db	 00h, 02h,0B1h, 19h,0B0h, 91h
2926:2017  00 02 B1 19 00 02			db	 00h, 02h,0B1h, 19h, 00h, 02h
2926:201D  B1 18 00 08 DE 11			db	0B1h, 18h, 00h, 08h,0DEh, 11h
2926:2023  00 04 B0 19 B1 19			db	 00h, 04h,0B0h, 19h,0B1h, 19h
2926:2029  B0 19 B1 19 B0 91			db	0B0h, 19h,0B1h, 19h,0B0h, 91h
2926:202F  B1 19 27 08 DE 00			db	0B1h, 19h, 27h, 08h,0DEh, 00h
2926:2035  B1 04 27 08 DE 00			db	0B1h, 04h, 27h, 08h,0DEh, 00h
2926:203B  B1 04 00 03 27 08			db	0B1h, 04h, 00h, 03h, 27h, 08h
2926:2041  DE 00 B1 91 00 02			db	0DEh, 00h,0B1h, 91h, 00h, 02h
2926:2047  B0 91 00 09 B1 19			db	0B0h, 91h, 00h, 09h,0B1h, 19h
2926:204D  B1 18 00 08 DE 11			db	0B1h, 18h, 00h, 08h,0DEh, 11h
2926:2053  00 03 B0 19 DE 11			db	 00h, 03h,0B0h, 19h,0DEh, 11h
2926:2059  B0 19 B1 19 00 02			db	0B0h, 19h,0B1h, 19h, 00h, 02h
2926:205F  B0 91 00 02 27 08			db	0B0h, 91h, 00h, 02h, 27h, 08h
2926:2065  DE 00 B1 04 27 08			db	0DEh, 00h,0B1h, 04h, 27h, 08h
2926:206B  DE 00 B1 04 00			db	0DEh, 00h,0B1h, 04h, 00h
2926:2070  03			data_99		db	3			;  xref 2926:091E
2926:2071  27 08 DE 00 B1			db	 27h, 08h,0DEh, 00h,0B1h
2926:2076  B091			data_100	dw	0B091h			;  xref 2926:0B54
2926:2078  91 B1 91 00 03 B0			db	 91h,0B1h, 91h, 00h, 03h,0B0h
2926:207E  91 00 05 B1 19 B0			db	 91h, 00h, 05h,0B1h, 19h,0B0h
2926:2084  91 B1 18 00 06 DE			db	 91h,0B1h, 18h, 00h, 06h,0DEh
2926:208A  11 00 05 B0 19 00			db	 11h, 00h, 05h,0B0h, 19h, 00h
2926:2090  03 B1 19 B0 91 B1			db	 03h,0B1h, 19h,0B0h, 91h,0B1h
2926:2096  19 B0 91 27 08 DE			db	 19h,0B0h, 91h, 27h, 08h,0DEh
2926:209C  00 B1 04 27 08 DE			db	 00h,0B1h, 04h, 27h, 08h,0DEh
2926:20A2  00 B1 04 DE 00 B1			db	 00h,0B1h, 04h,0DEh, 00h,0B1h
2926:20A8  04 27 08 DE 00 B1			db	 04h, 27h, 08h,0DEh, 00h,0B1h
2926:20AE  91 00 04 B0 91 25			db	 91h, 00h, 04h,0B0h, 91h, 25h
2926:20B4  90 B0 91 00 06 B1			db	 90h,0B0h, 91h, 00h, 06h,0B1h
2926:20BA  18 00 07 DE 11 00			db	 18h, 00h, 07h,0DEh, 11h, 00h
2926:20C0  03 B0 19 00 03 B1			db	 03h,0B0h, 19h, 00h, 03h,0B1h
2926:20C6  19 00 02 B0 91 00			db	 19h, 00h, 02h,0B0h, 91h, 00h
2926:20CC  03 27 08 DE 00 B1			db	 03h, 27h, 08h,0DEh, 00h,0B1h
2926:20D2  04 27 08 DE 00 B1			db	 04h, 27h, 08h,0DEh, 00h,0B1h
2926:20D8  04 DE 00 B1 04 27			db	 04h,0DEh, 00h,0B1h, 04h, 27h
2926:20DE  08 DE 00 B0 19 00			db	 08h,0DEh, 00h,0B0h, 19h, 00h
2926:20E4  02 B1 91 00 03 B0			db	 02h,0B1h, 91h, 00h, 03h,0B0h
2926:20EA  01 B0 91 00 02 DE			db	 01h,0B0h, 91h, 00h, 02h,0DEh
2926:20F0  99 B0 91 00 02 B1			db	 99h,0B0h, 91h, 00h, 02h,0B1h
2926:20F6  19 B1 18 00 05 DE			db	 19h,0B1h, 18h, 00h, 05h,0DEh
2926:20FC  11 00 05 B0 19 B1			db	 11h, 00h, 05h,0B0h, 19h,0B1h
2926:2102  19 B0 19 B1 19 00			db	 19h,0B0h, 19h,0B1h, 19h, 00h
2926:2108  02 B0 91 00 03 27			db	 02h,0B0h, 91h, 00h, 03h, 27h
2926:210E  08 DE 00 B1 04 27			db	 08h,0DEh, 00h,0B1h, 04h, 27h
2926:2114  08 DE 00 B1 04 DE			db	 08h,0DEh, 00h,0B1h, 04h,0DEh
           ICON2.lst       ICON2.OVL		Sourcer	v8.01  20-Jul-2026 12:24 am   Page 69

2926:211A  00 B1 04 27 08 DE			db	 00h,0B1h, 04h, 27h, 08h,0DEh
2926:2120  00 DE 11 00 02 B0			db	 00h,0DEh, 11h, 00h, 02h,0B0h
2926:2126  19 00 02 B1 91 4F			db	 19h, 00h, 02h,0B1h, 91h, 4Fh
2926:212C  10 B1 91 B0 91 00			db	 10h,0B1h, 91h,0B0h, 91h, 00h
2926:2132  02 DE 99 B0 91 00			db	 02h,0DEh, 99h,0B0h, 91h, 00h
2926:2138  02 B1 18 00 06 DE			db	 02h,0B1h, 18h, 00h, 06h,0DEh
2926:213E  11 00 05 B0 19 B1			db	 11h, 00h, 05h,0B0h, 19h,0B1h
2926:2144  19 00 03 B0 91 DE			db	 19h, 00h, 03h,0B0h, 91h,0DEh
2926:214A  99 B0 91 27 08 DE			db	 99h,0B0h, 91h, 27h, 08h,0DEh
2926:2150  00 B1 04 27 08 DE			db	 00h,0B1h, 04h, 27h, 08h,0DEh
2926:2156  00 B1 04 DE 00 B1			db	 00h,0B1h, 04h,0DEh, 00h,0B1h
2926:215C  04 27 08 DE 00 DE			db	 04h, 27h, 08h,0DEh, 00h,0DEh
2926:2162  01 25 10 DE 11 B0			db	 01h, 25h, 10h,0DEh, 11h,0B0h
2926:2168  19 00 02 B0 01 B1			db	 19h, 00h, 02h,0B0h, 01h,0B1h
2926:216E  91 00 02 B0 91 00			db	 91h, 00h, 02h,0B0h, 91h, 00h
2926:2174  04 B1 18 00 05 DE			db	 04h,0B1h, 18h, 00h, 05h,0DEh
2926:217A  11 00 04 B0 19 00			db	 11h, 00h, 04h,0B0h, 19h, 00h
2926:2180  03 B1 19 00 02 B0			db	 03h,0B1h, 19h, 00h, 02h,0B0h
2926:2186  91 DE 99 B0 91 DE			db	 91h,0DEh, 99h,0B0h, 91h,0DEh
2926:218C  99 27 08 DE 00 B1			db	 99h, 27h, 08h,0DEh, 00h,0B1h
2926:2192  04 DE 88 00 02 B0			db	 04h,0DEh, 88h, 00h, 02h,0B0h
2926:2198  82 B1 70 B0 82 DE			db	 82h,0B1h, 70h,0B0h, 82h,0DEh
2926:219E  88 00 02 DE 00 00			db	 88h, 00h, 02h,0DEh, 00h, 00h
2926:21A4  02 DE 11 00 03 7C			db	 02h,0DEh, 11h, 00h, 03h, 7Ch
2926:21AA  10 B0 19 00 02 B1			db	 10h,0B0h, 19h, 00h, 02h,0B1h
2926:21B0  91 B0 91 00 03 B1			db	 91h,0B0h, 91h, 00h, 03h,0B1h
2926:21B6  18 00 04 DE 11 00			db	 18h, 00h, 04h,0DEh, 11h, 00h
2926:21BC  05 B0 19 B1 19 B0			db	 05h,0B0h, 19h,0B1h, 19h,0B0h
2926:21C2  19 B1 19 B0 91 00			db	 19h,0B1h, 19h,0B0h, 91h, 00h
2926:21C8  03 DE 99 DE 90 27			db	 03h,0DEh, 99h,0DEh, 90h, 27h
2926:21CE  08 DE 00 B0 02 B0			db	 08h,0DEh, 00h,0B0h, 02h,0B0h
2926:21D4  82 B1 20 B0 20 B1			db	 82h,0B1h, 20h,0B0h, 20h,0B1h
2926:21DA  70 B1 20 B0 82 00			db	 70h,0B1h, 20h,0B0h, 82h, 00h
2926:21E0  02 B0 02 DE 00 00			db	 02h,0B0h, 02h,0DEh, 00h, 00h
2926:21E6  02 1F 10 25 10 7C			db	 02h, 1Fh, 10h, 25h, 10h, 7Ch
2926:21EC  10 DE 11 00 02 B0			db	 10h,0DEh, 11h, 00h, 02h,0B0h
2926:21F2  19 B1 91 B0 91 00			db	 19h,0B1h, 91h,0B0h, 91h, 00h
2926:21F8  02 B1 18 00 03 DE			db	 02h,0B1h, 18h, 00h, 03h,0DEh
2926:21FE  11 B1 18 DE 11 00			db	 11h,0B1h, 18h,0DEh, 11h, 00h
2926:2204  03 B0 19 00 03 B1			db	 03h,0B0h, 19h, 00h, 03h,0B1h
2926:220A  19 00 02 B0 91 00			db	 19h, 00h, 02h,0B0h, 91h, 00h
2926:2210  03 DE 99 DE 90 DE			db	 03h,0DEh, 99h,0DEh, 90h,0DEh
2926:2216  00 B0 02 B1 20 00			db	 00h,0B0h, 02h,0B1h, 20h, 00h
2926:221C  02 B0 20 B1 70 B0			db	 02h,0B0h, 20h,0B1h, 70h,0B0h
2926:2222  20 B0 82 B1 20 B0			db	 20h,0B0h, 82h,0B1h, 20h,0B0h
2926:2228  82 69 02 B0 02 DE			db	 82h, 69h, 02h,0B0h, 02h,0DEh
2926:222E  00 00 04 1F 10 DE			db	 00h, 00h, 04h, 1Fh, 10h,0DEh
2926:2234  11 00 02 B0 19 B1			db	 11h, 00h, 02h,0B0h, 19h,0B1h
2926:223A  91 00 02 B1 18 00			db	 91h, 00h, 02h,0B1h, 18h, 00h
2926:2240  02 DE 11 00 06 B0			db	 02h,0DEh, 11h, 00h, 06h,0B0h
2926:2246  19 DE 11 B0 19 B1			db	 19h,0DEh, 11h,0B0h, 19h,0B1h
2926:224C  19 00 03 B0 91 00			db	 19h, 00h, 03h,0B0h, 91h, 00h
2926:2252  02 DE 99 DE 00 00			db	 02h,0DEh, 99h,0DEh, 00h, 00h
2926:2258  02 69 02 B0 82 B0			db	 02h, 69h, 02h,0B0h, 82h,0B0h
2926:225E  20 B1 70 B0 20 B1			db	 20h,0B1h, 70h,0B0h, 20h,0B1h
2926:2264  20 B0 20 B0 82 B1			db	 20h,0B0h, 20h,0B0h, 82h,0B1h
2926:226A  20 B0 82 69 02 B0			db	 20h,0B0h, 82h, 69h, 02h,0B0h
           ICON2.lst       ICON2.OVL		Sourcer	v8.01  20-Jul-2026 12:24 am   Page 70

2926:2270  02 DE 00 00 05 25			db	 02h,0DEh, 00h, 00h, 05h, 25h
2926:2276  10 DE 11 B0 19 B1			db	 10h,0DEh, 11h,0B0h, 19h,0B1h
2926:227C  91 B1 18 00 03 DE			db	 91h,0B1h, 18h, 00h, 03h,0DEh
2926:2282  11 00 03 B0 19 DE			db	 11h, 00h, 03h,0B0h, 19h,0DEh
2926:2288  11 B0 19 00 03 B1			db	 11h,0B0h, 19h, 00h, 03h,0B1h
2926:228E  19 00 02 B0 91 00			db	 19h, 00h, 02h,0B0h, 91h, 00h
2926:2294  02 DE 99 DE 90 DE			db	 02h,0DEh, 99h,0DEh, 90h,0DEh
2926:229A  00 6A 02 B0 02 B1			db	 00h, 6Ah, 02h,0B0h, 02h,0B1h
2926:22A0  20 B0 20 00 02 B1			db	 20h,0B0h, 20h, 00h, 02h,0B1h
2926:22A6  70 B0 20 00 03 B0			db	 70h,0B0h, 20h, 00h, 03h,0B0h
2926:22AC  82 00 04 69 02 DE			db	 82h, 00h, 04h, 69h, 02h,0DEh
2926:22B2  00 69 02 DE 00 DE			db	 00h, 69h, 02h,0DEh, 00h,0DEh
2926:22B8  08 DE 00 1F 10 DE			db	 08h,0DEh, 00h, 1Fh, 10h,0DEh
2926:22BE  11 B0 19 B1 18 DE			db	 11h,0B0h, 19h,0B1h, 18h,0DEh
2926:22C4  11 00 06 B0 19 00			db	 11h, 00h, 06h,0B0h, 19h, 00h
2926:22CA  03 B1 19 00 03 B0			db	 03h,0B1h, 19h, 00h, 03h,0B0h
2926:22D0  91 00 02 DE 99 DE			db	 91h, 00h, 02h,0DEh, 99h,0DEh
2926:22D6  90 69 02 B0 02 B0			db	 90h, 69h, 02h,0B0h, 02h,0B0h
2926:22DC  82 00				db	 82h, 00h
2926:22DE  B102			data_101	dw	0B102h			; Data table (indexed access)
										;  xref 2926:2A99
2926:22E0  20 B0 20 00 02 B1			db	 20h,0B0h, 20h, 00h, 02h,0B1h
2926:22E6  70 B0 20 B1 20 B0			db	 70h,0B0h, 20h,0B1h, 20h,0B0h
2926:22EC  20 B1 20 B0 82 00			db	 20h,0B1h, 20h,0B0h, 82h, 00h
2926:22F2  03 B0 02 00 02 DE			db	 03h,0B0h, 02h, 00h, 02h,0DEh
2926:22F8  00 00 05 25 10 B1			db	 00h, 00h, 05h, 25h, 10h,0B1h
2926:22FE  18 DE 11 00 05 B0			db	 18h,0DEh, 11h, 00h, 05h,0B0h
2926:2304  19 00 03 B1 19 00			db	 19h, 00h, 03h,0B1h, 19h, 00h
2926:230A  03 B0 91 00 03 DE			db	 03h,0B0h, 91h, 00h, 03h,0DEh
2926:2310  99 DE 00 00 02 B0			db	 99h,0DEh, 00h, 00h, 02h,0B0h
2926:2316  02 B0 82 00 02 B1			db	 02h,0B0h, 82h, 00h, 02h,0B1h
2926:231C  20 00 02 B0 20 00			db	 20h, 00h, 02h,0B0h, 20h, 00h
2926:2322  02 B1 70 B0 20 00			db	 02h,0B1h, 70h,0B0h, 20h, 00h
2926:2328  03 B0 82 B1 20 B0			db	 03h,0B0h, 82h,0B1h, 20h,0B0h
2926:232E  82 00 02 69 02 DE			db	 82h, 00h, 02h, 69h, 02h,0DEh
2926:2334  00 00 06 DE 11 00			db	 00h, 00h, 06h,0DEh, 11h, 00h
2926:233A  05 B0 19 00 02 DE			db	 05h,0B0h, 19h, 00h, 02h,0DEh
2926:2340  11 B0 19 B1 19 00			db	 11h,0B0h, 19h,0B1h, 19h, 00h
2926:2346  02 B0 91 00 03 DE			db	 02h,0B0h, 91h, 00h, 03h,0DEh
2926:234C  99 00 02 DE 00 00			db	 99h, 00h, 02h,0DEh, 00h, 00h
2926:2352  02 69 02 B1 20 B0			db	 02h, 69h, 02h,0B1h, 20h,0B0h
2926:2358  82 B1 20 B0 20 B1			db	 82h,0B1h, 20h,0B0h, 20h,0B1h
2926:235E  20 B0 20 00 02 B1			db	 20h,0B0h, 20h, 00h, 02h,0B1h
2926:2364  70 B0 20 B1 20 B0			db	 70h,0B0h, 20h,0B1h, 20h,0B0h
2926:236A  20 B1 20 00 02 B0			db	 20h,0B1h, 20h, 00h, 02h,0B0h
2926:2370  82 00 03 B0 02 DE			db	 82h, 00h, 03h,0B0h, 02h,0DEh
2926:2376  00 00 02 DE 08 DE			db	 00h, 00h, 02h,0DEh, 08h,0DEh
2926:237C  00 B1 18 DE 11 00			db	 00h,0B1h, 18h,0DEh, 11h, 00h
2926:2382  03 B0 19 00 05 B1			db	 03h,0B0h, 19h, 00h, 05h,0B1h
2926:2388  19 00 02 B0 91 00			db	 19h, 00h, 02h,0B0h, 91h, 00h
2926:238E  02 DE 99 00 02 DE			db	 02h,0DEh, 99h, 00h, 02h,0DEh
2926:2394  90 DE 00 00 02 B0			db	 90h,0DEh, 00h, 00h, 02h,0B0h
2926:239A  02 B0 82 B1 20 B0			db	 02h,0B0h, 82h,0B1h, 20h,0B0h
2926:23A0  82 B1 20 B0 20 B1			db	 82h,0B1h, 20h,0B0h, 20h,0B1h
2926:23A6  20 B0 20 00 02 B1			db	 20h,0B0h, 20h, 00h, 02h,0B1h
2926:23AC  70 B0 20 00 03 B0			db	 70h,0B0h, 20h, 00h, 03h,0B0h
2926:23B2  82 B1 20 B0 82 00			db	 82h,0B1h, 20h,0B0h, 82h, 00h
           ICON2.lst       ICON2.OVL		Sourcer	v8.01  20-Jul-2026 12:24 am   Page 71

2926:23B8  03 B0 02 DE 00 00			db	 03h,0B0h, 02h,0DEh, 00h, 00h
2926:23BE  03 DE 11 00 03 B0			db	 03h,0DEh, 11h, 00h, 03h,0B0h
2926:23C4  19 DE 11 B1 19 B0			db	 19h,0DEh, 11h,0B1h, 19h,0B0h
2926:23CA  19 B1 19 00 03 B0			db	 19h,0B1h, 19h, 00h, 03h,0B0h
2926:23D0  91 00 02 DE 99 00			db	 91h, 00h, 02h,0DEh, 99h, 00h
2926:23D6  02 25 90 DE 00 DE			db	 02h, 25h, 90h,0DEh, 00h,0DEh
2926:23DC  80 6A 02 B0 82 00			db	 80h, 6Ah, 02h,0B0h, 82h, 00h
2926:23E2  03 B1 20 B0 82 B1			db	 03h,0B1h, 20h,0B0h, 82h,0B1h
2926:23E8  20 B0 20 00 04 B1			db	 20h,0B0h, 20h, 00h, 04h,0B1h
2926:23EE  70 B0 20 00 02 B1			db	 70h,0B0h, 20h, 00h, 02h,0B1h
2926:23F4  20 00 02 B0 82 B1			db	 20h, 00h, 02h,0B0h, 82h,0B1h
2926:23FA  20 B0 82 69 02 DE			db	 20h,0B0h, 82h, 69h, 02h,0DEh
2926:2400  00 00 03 DE 11 00			db	 00h, 00h, 03h,0DEh, 11h, 00h
2926:2406  02 B0 19 00 04 B1			db	 02h,0B0h, 19h, 00h, 04h,0B1h
2926:240C  19 00 04 B0 91 00			db	 19h, 00h, 04h,0B0h, 91h, 00h
2926:2412  02 DE 99 00 02 DE			db	 02h,0DEh, 99h, 00h, 02h,0DEh
2926:2418  00 00 03 B0 02 B1			db	 00h, 00h, 03h,0B0h, 02h,0B1h
2926:241E  20 B0 82 B1 20 B0			db	 20h,0B0h, 82h,0B1h, 20h,0B0h
2926:2424  82 B1 20 00 02 B0			db	 82h,0B1h, 20h, 00h, 02h,0B0h
2926:242A  20 00 04 B0 70 B0			db	 20h, 00h, 04h,0B0h, 70h,0B0h
2926:2430  20 B1 20 B0 20 B1			db	 20h,0B1h, 20h,0B0h, 20h,0B1h
2926:2436  20 00 02 B0 82 B1			db	 20h, 00h, 02h,0B0h, 82h,0B1h
2926:243C  20 B0 82 B0 02 69			db	 20h,0B0h, 82h,0B0h, 02h, 69h
2926:2442  02 DE 00 B0 19 00			db	 02h,0DEh, 00h,0B0h, 19h, 00h
2926:2448  05 B1 19 00 03 B0			db	 05h,0B1h, 19h, 00h, 03h,0B0h
2926:244E  91 00 03 B1 19 DE			db	 91h, 00h, 03h,0B1h, 19h,0DEh
2926:2454  99 DE 00 00 03 6A			db	 99h,0DEh, 00h, 00h, 03h, 6Ah
2926:245A  02 B0 82 00 02 B1			db	 02h,0B0h, 82h, 00h, 02h,0B1h
2926:2460  20 B0 82 B1 20 00			db	 20h,0B0h, 82h,0B1h, 20h, 00h
2926:2466  02 B0 20 B1 20 B0			db	 02h,0B0h, 20h,0B1h, 20h,0B0h
2926:246C  20 00 02 B0 70 00			db	 20h, 00h, 02h,0B0h, 70h, 00h
2926:2472  02 DE 22 B0 20 B1			db	 02h,0DEh, 22h,0B0h, 20h,0B1h
2926:2478  20 B0 20 B1 20 00			db	 20h,0B0h, 20h,0B1h, 20h, 00h
2926:247E  02 B0 82 B1 20 B0			db	 02h,0B0h, 82h,0B1h, 20h,0B0h
2926:2484  82 B0 02 DE 00 B0			db	 82h,0B0h, 02h,0DEh, 00h,0B0h
2926:248A  19 00 02 B1 19 B0			db	 19h, 00h, 02h,0B1h, 19h,0B0h
2926:2490  19 B1 19 00 03 B0			db	 19h,0B1h, 19h, 00h, 03h,0B0h
2926:2496  91 00 05 DE 90 DE			db	 91h, 00h, 05h,0DEh, 90h,0DEh
2926:249C  80 DE 00 00 02 B0			db	 80h,0DEh, 00h, 00h, 02h,0B0h
2926:24A2  02 B0 82 B1 20 00			db	 02h,0B0h, 82h,0B1h, 20h, 00h
2926:24A8  04 B0 20 B1 20 B0			db	 04h,0B0h, 20h,0B1h, 20h,0B0h
2926:24AE  20 00 02 B0 70 00			db	 20h, 00h, 02h,0B0h, 70h, 00h
2926:24B4  02 35 27 B0 20 00			db	 02h, 35h, 27h,0B0h, 20h, 00h
2926:24BA  03 B1 20 B0 20 00			db	 03h,0B1h, 20h,0B0h, 20h, 00h
2926:24C0  02 B1 20 00 02 B0			db	 02h,0B1h, 20h, 00h, 02h,0B0h
2926:24C6  82 00 02 B0 02 DE			db	 82h, 00h, 02h,0B0h, 02h,0DEh
2926:24CC  11 B0 19 00 02 B1			db	 11h,0B0h, 19h, 00h, 02h,0B1h
2926:24D2  19 00 03 B0 91 B1			db	 19h, 00h, 03h,0B0h, 91h,0B1h
2926:24D8  19 B0 91 00 03 DE			db	 19h,0B0h, 91h, 00h, 03h,0DEh
2926:24DE  99 DE 90 DE 00 00			db	 99h,0DEh, 90h,0DEh, 00h, 00h
2926:24E4  02 B0 02 B0 82 00			db	 02h,0B0h, 02h,0B0h, 82h, 00h
2926:24EA  02 B1 20 B0 20 B1			db	 02h,0B1h, 20h,0B0h, 20h,0B1h
2926:24F0  20 B0 20 00 04 B0			db	 20h,0B0h, 20h, 00h, 04h,0B0h
2926:24F6  70 00 02 35 27 DE			db	 70h, 00h, 02h, 35h, 27h,0DEh
2926:24FC  22 00 03 B0 20 00			db	 22h, 00h, 03h,0B0h, 20h, 00h
2926:2502  03 B1 20 00 02 B0			db	 03h,0B1h, 20h, 00h, 02h,0B0h
2926:2508  82 00 02 B1 20 69			db	 82h, 00h, 02h,0B1h, 20h, 69h
           ICON2.lst       ICON2.OVL		Sourcer	v8.01  20-Jul-2026 12:24 am   Page 72

2926:250E  02 B0 19 00 02 B1			db	 02h,0B0h, 19h, 00h, 02h,0B1h
2926:2514  19 00 03 B0 91 00			db	 19h, 00h, 03h,0B0h, 91h, 00h
2926:251A  03 DE 99 B0 91 DE			db	 03h,0DEh, 99h,0B0h, 91h,0DEh
2926:2520  99 00 02 DE 90 DE			db	 99h, 00h, 02h,0DEh, 90h,0DEh
2926:2526  00 6A 02 B0 82 00			db	 00h, 6Ah, 02h,0B0h, 82h, 00h
2926:252C  02 B1 20 B0 20 B1			db	 02h,0B1h, 20h,0B0h, 20h,0B1h
2926:2532  20 B0 20 00 04 B0			db	 20h,0B0h, 20h, 00h, 04h,0B0h
2926:2538  70 00 02 35 27 DE			db	 70h, 00h, 02h, 35h, 27h,0DEh
2926:253E  22 00 03 B0 20 DE			db	 22h, 00h, 03h,0B0h, 20h,0DEh
2926:2544  22 B0 20 00 02 B1			db	 22h,0B0h, 20h, 00h, 02h,0B1h
2926:254A  20 B0 20 B1 20 00			db	 20h,0B0h, 20h,0B1h, 20h, 00h
2926:2550  02 B0 82 00 02 B0			db	 02h,0B0h, 82h, 00h, 02h,0B0h
2926:2556  19 B1 19 00 03 B0			db	 19h,0B1h, 19h, 00h, 03h,0B0h
2926:255C  91 00 05 DE 99 00			db	 91h, 00h, 05h,0DEh, 99h, 00h
2926:2562  02 2A 90 DE 00 00			db	 02h, 2Ah, 90h,0DEh, 00h, 00h
2926:2568  02 B0 02 00 02 B1			db	 02h,0B0h, 02h, 00h, 02h,0B1h
2926:256E  20 B0 20 00 06 B0			db	 20h,0B0h, 20h, 00h, 06h,0B0h
2926:2574  70 00 02 35 27 DE			db	 70h, 00h, 02h, 35h, 27h,0DEh
2926:257A  22 00 02 B0 20 DE			db	 22h, 00h, 02h,0B0h, 20h,0DEh
2926:2580  22 00 02 B0 20 00			db	 22h, 00h, 02h,0B0h, 20h, 00h
2926:2586  05 B1 20 00 03 B0			db	 05h,0B1h, 20h, 00h, 03h,0B0h
2926:258C  82 B1 19 00 04 B0			db	 82h,0B1h, 19h, 00h, 04h,0B0h
2926:2592  91 00 02 B1 19 B0			db	 91h, 00h, 02h,0B1h, 19h,0B0h
2926:2598  91 DE 99 DE 90 25			db	 91h,0DEh, 99h,0DEh, 90h, 25h
2926:259E  90 DE 00 00 02 6A			db	 90h,0DEh, 00h, 00h, 02h, 6Ah
2926:25A4  02 B0 82 00 02 B1			db	 02h,0B0h, 82h, 00h, 02h,0B1h
2926:25AA  20 00 02 B0 20 00			db	 20h, 00h, 02h,0B0h, 20h, 00h
2926:25B0  04 B0 70 00 02 35			db	 04h,0B0h, 70h, 00h, 02h, 35h
2926:25B6  27 DE 22 B0 20 DE			db	 27h,0DEh, 22h,0B0h, 20h,0DEh
2926:25BC  22 B1 26 DE 22 00			db	 22h,0B1h, 26h,0DEh, 22h, 00h
2926:25C2  03 B0 20 DE 22 B0			db	 03h,0B0h, 20h,0DEh, 22h,0B0h
2926:25C8  20 B1 20 00 02 B0			db	 20h,0B1h, 20h, 00h, 02h,0B0h
2926:25CE  20 B0 82 B1 20 B1			db	 20h,0B0h, 82h,0B1h, 20h,0B1h
2926:25D4  19 00 02 B0				db	 19h, 00h, 02h,0B0h
2926:25D8			loc_190:					;  xref 2926:25F8
2926:25D8  91					xchg	cx,ax
2926:25D9  00 03				add	[bp+di],al
2926:25DB  B1 19				mov	cl,19h
2926:25DD  B0 91				mov	al,91h
2926:25DF  DE 99 0200				ficomp	word ptr ds:[200h][bx+di]	; (2926:0200=4947h) Compare st & pop 1
2926:25E3  DE 90 00DE				ficom	word ptr ds:[0DEh][bx+si]	; (2926:00DE=6373h) Compare with st
2926:25E7  00 03				add	[bp+di],al
2926:25E9  B0 02				mov	al,2
2926:25EB  B0 82				mov	al,82h
2926:25ED  B1 20				mov	cl,20h			; ' '
2926:25EF  B0 20				mov	al,20h			; ' '
2926:25F1  00 05				add	[di],al
2926:25F3  B0 70				mov	al,70h			; 'p'
2926:25F5  DE 77 B0				fidiv	word ptr [bx-50h]	; st = st / memory
2926:25F8  70 DE				jo	loc_190			; Jump if overflow=1
2926:25FA  22 B0 0020				and	dh,data_52[bx+si]	; (2926:0020=0)
2926:25FE  03 DE				add	bx,si
2926:2600  22 00				and	al,[bx+si]
2926:2602  02 B0 DE20				add	dh,ds:data_216e[bx+si]	; (2926:DE20=0)
2926:2606  22 00				and	al,[bx+si]
2926:2608  02 B0 DE20				add	dh,ds:data_216e[bx+si]	; (2926:DE20=0)
2926:260C  22 B0 0020				and	dh,data_52[bx+si]	; (2926:0020=0)
           ICON2.lst       ICON2.OVL		Sourcer	v8.01  20-Jul-2026 12:24 am   Page 73

2926:2610  02 B1 0020				add	dh,data_52[bx+di]	; (2926:0020=0)
2926:2614  03 B1 B019				add	si,ds:data_214e[bx+di]	; (2926:B019=0)
2926:2618			loc_192:					;  xref 2926:2638
2926:2618  91					xchg	cx,ax
2926:2619  00 06 99DE				add	ds:data_212e,al		; (2926:99DE=0)
2926:261D  00 02				add	[bp+si],al
2926:261F  DE 00				fiadd	word ptr [bx+si]
2926:2621  DE 80 00DE				fiadd	word ptr ds:[0DEh][bx+si]	; (2926:00DE=6373h)
2926:2625  B0 02				mov	al,2
2926:2627  B0 82				mov	al,82h
2926:2629  00 02				add	[bp+si],al
2926:262B  B1 20				mov	cl,20h			; ' '
2926:262D  B0 20				mov	al,20h			; ' '
2926:262F  00 04				add	[si],al
2926:2631  B0 70				mov	al,70h			; 'p'
2926:2633  DE 77 B0				fidiv	word ptr [bx-50h]	; st = st / memory
2926:2636  70 DE		;*		jo	loc_191			;*Jump if overflow=1
2926:2636  70 DE				db	 70h,0DEh
2926:2638  72 DE				jc	loc_192			; Jump if carry Set
2926:263A  22 00				and	al,[bx+si]
2926:263C  02 B0 DE20				add	dh,ds:data_216e[bx+si]	; (2926:DE20=0)
2926:2640  22 00				and	al,[bx+si]
2926:2642  02 B0 DE20				add	dh,ds:data_216e[bx+si]	; (2926:DE20=0)
2926:2646  22 B0 DE20				and	dh,ds:data_216e[bx+si]	; (2926:DE20=0)
2926:264A  22 00				and	al,[bx+si]
2926:264C  02 B0 0020				add	dh,data_52[bx+si]	; (2926:0020=0)
2926:2650  04 B1				add	al,0B1h
2926:2652  20 B0 B082				and	ds:data_215e[bx+si],dh	; (2926:B082=0)
2926:2656  91					xchg	cx,ax
2926:2657  B1 19				mov	cl,19h
2926:2659  B0 91				mov	al,91h
2926:265B  DE 99 0500				ficomp	word ptr ds:[500h][bx+di]	; (2926:0500=3) Compare st & pop 1
2926:265F  DE 90 00DE				ficom	word ptr ds:[0DEh][bx+si]	; (2926:00DE=6373h) Compare with st
2926:2663  00 03				add	[bp+di],al
2926:2665  B0 02				mov	al,2
2926:2667  B0 82				mov	al,82h
2926:2669  B1 20				mov	cl,20h			; ' '
2926:266B  B0 20				mov	al,20h			; ' '
2926:266D  00 02				add	[bp+si],al
2926:266F  B1 26				mov	cl,26h			; '&'
2926:2671  DE 22				fisub	word ptr [bp+si]	; st = st - memory
2926:2673  B0 70				mov	al,70h			; 'p'
2926:2675  DE 77 00		;*		fidiv	word ptr [bx+0]		; st = st / memory
2926:2675  DE 77 00				db	0DEh, 77h, 00h
2926:2678  02 B0 70 DE 22 00			db	 02h,0B0h, 70h,0DEh, 22h, 00h
2926:267E  04 B0 20 DE 22 00			db	 04h,0B0h, 20h,0DEh, 22h, 00h
2926:2684  02 B1 26 DE 22 00			db	 02h,0B1h, 26h,0DEh, 22h, 00h
2926:268A  02 B0 20 DE 22 B0			db	 02h,0B0h, 20h,0DEh, 22h,0B0h
2926:2690  20 DE 22 B1 20 B0			db	 20h,0DEh, 22h,0B1h, 20h,0B0h
2926:2696  20 B1 20 B0 91 00			db	 20h,0B1h, 20h,0B0h, 91h, 00h
2926:269C  03 DE 99 00 02 25			db	 03h,0DEh, 99h, 00h, 02h, 25h
2926:26A2  90 00 02 DE 90 DE			db	 90h, 00h, 02h,0DEh, 90h,0DEh
2926:26A8  00 00 02 6A 02 B0			db	 00h, 00h, 02h, 6Ah, 02h,0B0h
2926:26AE  02 B0 82 B1 20 B0			db	 02h,0B0h, 82h,0B1h, 20h,0B0h
2926:26B4  20 00 03 DE 22 DE			db	 20h, 00h, 03h,0DEh, 22h,0DEh
2926:26BA  27 B0 72 00 02 B0			db	 27h,0B0h, 72h, 00h, 02h,0B0h
2926:26C0  70 DE 72 DE 22 B1			db	 70h,0DEh, 72h,0DEh, 22h,0B1h
           ICON2.lst       ICON2.OVL		Sourcer	v8.01  20-Jul-2026 12:24 am   Page 74

2926:26C6  26 DE 22 00 06 B0			db	 26h,0DEh, 22h, 00h, 06h,0B0h
2926:26CC  20 DE 22 00 04 B0			db	 20h,0DEh, 22h, 00h, 04h,0B0h
2926:26D2  20 00 04 B0 91 00			db	 20h, 00h, 04h,0B0h, 91h, 00h
2926:26D8  03 DE 99 1F 90 DE			db	 03h,0DEh, 99h, 1Fh, 90h,0DEh
2926:26DE  00 00 05 B0 02 B0			db	 00h, 00h, 05h,0B0h, 02h,0B0h
2926:26E4  82 B1 20 00 02 B0			db	 82h,0B1h, 20h, 00h, 02h,0B0h
2926:26EA  20 DE 22 00 03 B0			db	 20h,0DEh, 22h, 00h, 03h,0B0h
2926:26F0  70 B0 72 00 02 B0			db	 70h,0B0h, 72h, 00h, 02h,0B0h
2926:26F6  70 DE 22 00 0B B0			db	 70h,0DEh, 22h, 00h, 0Bh,0B0h
2926:26FC  20 DE 22 B0 20 DE			db	 20h,0DEh, 22h,0B0h, 20h,0DEh
2926:2702  22 B0 20 DE 22 B1			db	 22h,0B0h, 20h,0DEh, 22h,0B1h
2926:2708  20 B0 91 00 02 DE			db	 20h,0B0h, 91h, 00h, 02h,0DEh
2926:270E  99 DE 00 00 07 B0			db	 99h,0DEh, 00h, 00h, 07h,0B0h
2926:2714  02 B0 82 B1 20 B0			db	 02h,0B0h, 82h,0B1h, 20h,0B0h
2926:271A  20 DE 22 B0 20 DE			db	 20h,0DEh, 22h,0B0h, 20h,0DEh
2926:2720  22 DE 27 B0 72 00			db	 22h,0DEh, 27h,0B0h, 72h, 00h
2926:2726  03 DE 72 DE 22 00			db	 03h,0DEh, 72h,0DEh, 22h, 00h
2926:272C  06 B0 2A DE 22 00			db	 06h,0B0h, 2Ah,0DEh, 22h, 00h
2926:2732  02 DE BB DE 22 00			db	 02h,0DEh,0BBh,0DEh, 22h, 00h
2926:2738  02 B0 20 DE 22 B0			db	 02h,0B0h, 20h,0DEh, 22h,0B0h
2926:273E  20 DE 22 B0 20 00			db	 20h,0DEh, 22h,0B0h, 20h, 00h
2926:2744  02 B0 91 DE 99 DE			db	 02h,0B0h, 91h,0DEh, 99h,0DEh
2926:274A  90 DE 00 00 05 B0			db	 90h,0DEh, 00h, 00h, 05h,0B0h
2926:2750  02 00 02 B0 82 B1			db	 02h, 00h, 02h,0B0h, 82h,0B1h
2926:2756  20 B0 20 DE 22 B0			db	 20h,0B0h, 20h,0DEh, 22h,0B0h
2926:275C  20 DE 22 00 02 B0			db	 20h,0DEh, 22h, 00h, 02h,0B0h
2926:2762  72 00 03 B0 70 DE			db	 72h, 00h, 03h,0B0h, 70h,0DEh
2926:2768  22 00 05 B1 26 DE			db	 22h, 00h, 05h,0B1h, 26h,0DEh
2926:276E  22 00 03 DE 2B DE			db	 22h, 00h, 03h,0DEh, 2Bh,0DEh
2926:2774  AA DE 32 DE 22 00			db	0AAh,0DEh, 32h,0DEh, 22h, 00h
2926:277A  02 B0 20 DE 22 B0			db	 02h,0B0h, 20h,0DEh, 22h,0B0h
2926:2780  20 00 02 B1 20 DE			db	 20h, 00h, 02h,0B1h, 20h,0DEh
2926:2786  99 00 02 DE 00 00			db	 99h, 00h, 02h,0DEh, 00h, 00h
2926:278C  04 B0 02 69 02 B0			db	 04h,0B0h, 02h, 69h, 02h,0B0h
2926:2792  82 00 02 B1 20 00			db	 82h, 00h, 02h,0B1h, 20h, 00h
2926:2798  02 B0 20 00 02 DE			db	 02h,0B0h, 20h, 00h, 02h,0DEh
2926:279E  22 00 02 DE 27 B1			db	 22h, 00h, 02h,0DEh, 27h,0B1h
2926:27A4  72 00 03 DE 72 DE			db	 72h, 00h, 03h,0DEh, 72h,0DEh
2926:27AA  22 00 09 DE BA 00			db	 22h, 00h, 09h,0DEh,0BAh, 00h
2926:27B0  02 DE A3 DE 22 00			db	 02h,0DEh,0A3h,0DEh, 22h, 00h
2926:27B6  02 B1 26 B0 20 00			db	 02h,0B1h, 26h,0B0h, 20h, 00h
2926:27BC  02 B1 20 00 02 DE			db	 02h,0B1h, 20h, 00h, 02h,0DEh
2926:27C2  99 DE 90 DE 00 DE			db	 99h,0DEh, 90h,0DEh, 00h,0DEh
2926:27C8  80 DE 00 6A 02 B0			db	 80h,0DEh, 00h, 6Ah, 02h,0B0h
2926:27CE  02 00 02 B0 82 00			db	 02h, 00h, 02h,0B0h, 82h, 00h
2926:27D4  02 B1 20 B0 20 DE			db	 02h,0B1h, 20h,0B0h, 20h,0DEh
2926:27DA  22 00 02 B0 2A DE			db	 22h, 00h, 02h,0B0h, 2Ah,0DEh
2926:27E0  22 B1 72 00 02 B0			db	 22h,0B1h, 72h, 00h, 02h,0B0h
2926:27E6  72 B1 72 B0 27 DE			db	 72h,0B1h, 72h,0B0h, 27h,0DEh
2926:27EC  22 00 09 B1 A2 DE			db	 22h, 00h, 09h,0B1h,0A2h,0DEh
2926:27F2  AA 00 02 DE 32 B1			db	0AAh, 00h, 02h,0DEh, 32h,0B1h
2926:27F8  26 DE 22 00 02 B0			db	 26h,0DEh, 22h, 00h, 02h,0B0h
2926:27FE  20 00 02 B1 20 DE			db	 20h, 00h, 02h,0B1h, 20h,0DEh
2926:2804  99 DE 00 00 03 B0			db	 99h,0DEh, 00h, 00h, 03h,0B0h
2926:280A  02 00 03 B0 82 00			db	 02h, 00h, 03h,0B0h, 82h, 00h
2926:2810  02 B1 20 B0 20 00			db	 02h,0B1h, 20h,0B0h, 20h, 00h
2926:2816  03 B1 26 DE 22 B0			db	 03h,0B1h, 26h,0DEh, 22h,0B0h
           ICON2.lst       ICON2.OVL		Sourcer	v8.01  20-Jul-2026 12:24 am   Page 75

2926:281C  27 00 02 B0 72 B1			db	 27h, 00h, 02h,0B0h, 72h,0B1h
2926:2822  72 00 02 DE 22 00			db	 72h, 00h, 02h,0DEh, 22h, 00h
2926:2828  09 DE 2B DE AA 00			db	 09h,0DEh, 2Bh,0DEh,0AAh, 00h
2926:282E  02 28 A0 DE A2 DE			db	 02h, 28h,0A0h,0DEh,0A2h,0DEh
2926:2834  22 00 04 B0 20 00			db	 22h, 00h, 04h,0B0h, 20h, 00h
2926:283A  02 DE 90 DE 00 00			db	 02h,0DEh, 90h,0DEh, 00h, 00h
2926:2840  02 B0 02 00 03 B0			db	 02h,0B0h, 02h, 00h, 03h,0B0h
2926:2846  82 00 03 B1 20 00			db	 82h, 00h, 03h,0B1h, 20h, 00h
2926:284C  02 B0 20 DE 22 00			db	 02h,0B0h, 20h,0DEh, 22h, 00h
2926:2852  04 B1 72 00 02 B0			db	 04h,0B1h, 72h, 00h, 02h,0B0h
2926:2858  27 B1 72 DE 22 B1			db	 27h,0B1h, 72h,0DEh, 22h,0B1h
2926:285E  26 DE 22 00 07 DE			db	 26h,0DEh, 22h, 00h, 07h,0DEh
2926:2864  BA 00 02 2F A0 DE			db	0BAh, 00h, 02h, 2Fh,0A0h,0DEh
2926:286A  AA DE A2 DE 22 00			db	0AAh,0DEh,0A2h,0DEh, 22h, 00h
2926:2870  03 B0 20 00 02 B1			db	 03h,0B0h, 20h, 00h, 02h,0B1h
2926:2876  20 DE 90 DE 80 DE			db	 20h,0DEh, 90h,0DEh, 80h,0DEh
2926:287C  00 69 02 B0 02 69			db	 00h, 69h, 02h,0B0h, 02h, 69h
2926:2882  02 B0 82 00 02 B1			db	 02h,0B0h, 82h, 00h, 02h,0B1h
2926:2888  20 B0 20 00 02 DE			db	 20h,0B0h, 20h, 00h, 02h,0DEh
2926:288E  22 00 04 B0 27 00			db	 22h, 00h, 04h,0B0h, 27h, 00h
2926:2894  03 B1 72 B0 27 DE			db	 03h,0B1h, 72h,0B0h, 27h,0DEh
2926:289A  22 00 08 DE 2B DE			db	 22h, 00h, 08h,0DEh, 2Bh,0DEh
2926:28A0  AA 29 A0 DE AA 00			db	0AAh, 29h,0A0h,0DEh,0AAh, 00h
2926:28A6  02 DE A2 DE 22 B0			db	 02h,0DEh,0A2h,0DEh, 22h,0B0h
2926:28AC  20 00 04 B1 20 DE			db	 20h, 00h, 04h,0B1h, 20h,0DEh
2926:28B2  00 00 03 B0 02 00			db	 00h, 00h, 03h,0B0h, 02h, 00h
2926:28B8  02 B0 82 00 03 B0			db	 02h,0B0h, 82h, 00h, 03h,0B0h
2926:28BE  20 00 02 DE 22 B0			db	 20h, 00h, 02h,0DEh, 22h,0B0h
2926:28C4  20 DE 22 00 02 02			db	 20h,0DEh, 22h, 00h, 02h, 02h
2926:28CA  20 DE 22 00 02 B0			db	 20h,0DEh, 22h, 00h, 02h,0B0h
2926:28D0  27 00 03 DE 22 00			db	 27h, 00h, 03h,0DEh, 22h, 00h
2926:28D6  02 B0 2A DE 22 00			db	 02h,0B0h, 2Ah,0DEh, 22h, 00h
2926:28DC  06 B1 A2 DE AA DE			db	 06h,0B1h,0A2h,0DEh,0AAh,0DEh
2926:28E2  3A B1 A2 DE 22 00			db	 3Ah,0B1h,0A2h,0DEh, 22h, 00h
2926:28E8  03 B0 20 DE 22 B0			db	 03h,0B0h, 20h,0DEh, 22h,0B0h
2926:28EE  20 00 02 DE 00 00			db	 20h, 00h, 02h,0DEh, 00h, 00h
2926:28F4  02 6A 02 B0 02 B0			db	 02h, 6Ah, 02h,0B0h, 02h,0B0h
2926:28FA  82 B0 02 B0 82 B1			db	 82h,0B0h, 02h,0B0h, 82h,0B1h
2926:2900  20 00 02 B0				db	 20h, 00h, 02h,0B0h
2926:2904  0020			data_102	dw	20h			;  xref 2926:0110, 011E, 012E, 08A3
										;            092E, 0CD4
2926:2906  02 DE 22 00 03 2A			db	 02h,0DEh, 22h, 00h, 03h, 2Ah
2926:290C  F1 DE 22 B0 27 DE			db	0F1h,0DEh, 22h,0B0h, 27h,0DEh
2926:2912  22 B0 27 DE 22 00			db	 22h,0B0h, 27h,0DEh, 22h, 00h
2926:2918  0B B1 A2 DE AA 00			db	 0Bh,0B1h,0A2h,0DEh,0AAh, 00h
2926:291E  02 DE 22 00 04 B0			db	 02h,0DEh, 22h, 00h, 04h,0B0h
2926:2924  20 DE 22 B0 20 DE			db	 20h,0DEh, 22h,0B0h, 20h,0DEh
2926:292A  00 00 02 B0 02 00			db	 00h, 00h, 02h,0B0h, 02h, 00h
2926:2930  02 B0 82 00 02 B1			db	 02h,0B0h, 82h, 00h, 02h,0B1h
2926:2936  20 B0 20 00 02 DE			db	 20h,0B0h, 20h, 00h, 02h,0DEh
2926:293C  22 00 03 B0 2A DE			db	 22h, 00h, 03h,0B0h, 2Ah,0DEh
2926:2942  22 09 F4 DE 22 00			db	 22h, 09h,0F4h,0DEh, 22h, 00h
2926:2948  02 B0 27 DE 22 00			db	 02h,0B0h, 27h,0DEh, 22h, 00h
2926:294E  0B DE 2B DE BA 5C			db	 0Bh,0DEh, 2Bh,0DEh,0BAh, 5Ch
2926:2954  A0 DE AA DE 32 DE			db	0A0h,0DEh,0AAh,0DEh, 32h,0DEh
2926:295A  22 B0 2A DE 22 00			db	 22h,0B0h, 2Ah,0DEh, 22h, 00h
2926:2960  02 B0 20 00 02 DE			db	 02h,0B0h, 20h, 00h, 02h,0DEh
           ICON2.lst       ICON2.OVL		Sourcer	v8.01  20-Jul-2026 12:24 am   Page 76

2926:2966  00 6A 02 B0 02 B0			db	 00h, 6Ah, 02h,0B0h, 02h,0B0h
2926:296C  82 00 03 B0 20 B1			db	 82h, 00h, 03h,0B0h, 20h,0B1h
2926:2972  20 B0 20 00 02 DE			db	 20h,0B0h, 20h, 00h, 02h,0DEh
2926:2978  22 00 04 12 2F DE			db	 22h, 00h, 04h, 12h, 2Fh,0DEh
2926:297E  22 00 03 B0 27 DE			db	 22h, 00h, 03h,0B0h, 27h,0DEh
2926:2984  22 00 0A DE BA 29			db	 22h, 00h, 0Ah,0DEh,0BAh, 29h
2926:298A  A0 DE				db	0A0h,0DEh
2926:298C  AA			data_103	db	0AAh			;  xref 2926:0B39
2926:298D  DE 3A DE A3 DE 22			db	0DEh, 3Ah,0DEh,0A3h,0DEh, 22h
2926:2993  00 04 B0 20 B1 20			db	 00h, 04h,0B0h, 20h,0B1h, 20h
2926:2999  DE 00 B0 02 69 02			db	0DEh, 00h,0B0h, 02h, 69h, 02h
2926:299F  B0 02 B0 82 B1 20			db	0B0h, 02h,0B0h, 82h,0B1h, 20h
2926:29A5  B0 20 00 02 DE 22			db	0B0h, 20h, 00h, 02h,0DEh, 22h
2926:29AB  00 05 DE 25 DE 55			db	 00h, 05h,0DEh, 25h,0DEh, 55h
2926:29B1  DE 52 DE 22 00 0C			db	0DEh, 52h,0DEh, 22h, 00h, 0Ch
2926:29B7  DE 2B DE AA B1 A2			db	0DEh, 2Bh,0DEh,0AAh,0B1h,0A2h
2926:29BD  DE AA 2F A0 DE AA			db	0DEh,0AAh, 2Fh,0A0h,0DEh,0AAh
2926:29C3  DE 22 00 03 B0 20			db	0DEh, 22h, 00h, 03h,0B0h, 20h
2926:29C9  DE 22 B0 20 6A 02			db	0DEh, 22h,0B0h, 20h, 6Ah, 02h
2926:29CF  B0 02 00 03 B0 82			db	0B0h, 02h, 00h, 03h,0B0h, 82h
2926:29D5  B0 20 B1 20 27 2E			db	0B0h, 20h,0B1h, 20h, 27h, 2Eh
2926:29DB  B0 20 B1 26 DE 22			db	0B0h, 20h,0B1h, 26h,0DEh, 22h
2926:29E1  00 03 7C 25 12 5A			db	 00h, 03h, 7Ch, 25h, 12h, 5Ah
2926:29E7  7C 25 DE 22 27 2E			db	 7Ch, 25h,0DEh, 22h, 27h, 2Eh
2926:29ED  DE 22 00 0A DE 2B			db	0DEh, 22h, 00h, 0Ah,0DEh, 2Bh
2926:29F3  DE AA DE				db	0DEh,0AAh,0DEh
2926:29F6  3A 2F				db	 3Ah, 2Fh
2926:29F8  DEA0			data_104	dw	0DEA0h			;  xref 2926:0A62
2926:29FA  B1AA			data_105	dw	0B1AAh			;  xref 2926:0A69
2926:29FC  A2 DE 22 00 06 B0			db	0A2h,0DEh, 22h, 00h, 06h,0B0h
2926:2A02  02 B0 82 B0 02 B0			db	 02h,0B0h, 82h,0B0h, 02h,0B0h
2926:2A08  82 00 02 B0 20 00			db	 82h, 00h, 02h,0B0h, 20h, 00h
2926:2A0E  02 DE E0 DE 00 DE			db	 02h,0DEh,0E0h,0DEh, 00h,0DEh
2926:2A14  02 DE 22 00 03 7C			db	 02h,0DEh, 22h, 00h, 03h, 7Ch
2926:2A1A  25 02 5A 7C 25 DE			db	 25h, 02h, 5Ah, 7Ch, 25h,0DEh
2926:2A20  22 DE EE DE 00 00			db	 22h,0DEh,0EEh,0DEh, 00h, 00h
2926:2A26  02 1F 20 DE 22 00			db	 02h, 1Fh, 20h,0DEh, 22h, 00h
2926:2A2C  06 B1 26 DE 22 B1			db	 06h,0B1h, 26h,0DEh, 22h,0B1h
2926:2A32  A2 DE AA DE 0A DE			db	0A2h,0DEh,0AAh,0DEh, 0Ah,0DEh
2926:2A38  AA DE A2 DE 22 00			db	0AAh,0DEh,0A2h,0DEh, 22h, 00h
2926:2A3E  05			data_106	db	5			;  xref 2926:0B42
2926:2A3F  B0 20 B0 02 69 02			db	0B0h, 20h,0B0h, 02h, 69h, 02h
2926:2A45  B0					db	0B0h
2926:2A46  0082			data_107	dw	82h			;  xref 2926:0927
2926:2A48  02 B1 20 00				db	 02h,0B1h, 20h, 00h
2926:2A4C  B002			data_108	dw	0B002h			;  xref 2926:0B80
2926:2A4E  DE20			data_109	dw	0DE20h			;  xref 2926:0B87
2926:2A50  DEEE			data_110	dw	0DEEEh			;  xref 2926:0B72
2926:2A52  0000			data_111	dw	0			;  xref 2926:0B79
2926:2A54  02 DE 22 00 03 7C			db	 02h,0DEh, 22h, 00h, 03h, 7Ch
2926:2A5A  2F 1F 09 7C 2F DE			db	 2Fh, 1Fh, 09h, 7Ch, 2Fh,0DEh
2926:2A60  22 DE 2E DE 00 00			db	 22h,0DEh, 2Eh,0DEh, 00h, 00h
2926:2A66  02 1F 00				db	 02h, 1Fh, 00h
2926:2A69			loc_193:					;  xref 2926:2AD5
2926:2A69  DE 00				fiadd	word ptr [bx+si]
2926:2A6B  DE 22				fisub	word ptr [bp+si]	; st = st - memory
2926:2A6D  00 08				add	[bx+si],cl
           ICON2.lst       ICON2.OVL		Sourcer	v8.01  20-Jul-2026 12:24 am   Page 77

2926:2A6F  B1 A2				mov	cl,0A2h
2926:2A71  DE 0A				fimul	word ptr [bp+si]	; st = st * memory
2926:2A73  B1 A2				mov	cl,0A2h
2926:2A75  DE A2 22DE				fisub	word ptr [bp+si+22DEh]	; st = st - memory
2926:2A79  00 04				add	[si],al
2926:2A7B  B0 20				mov	al,20h			; ' '
2926:2A7D  00 02				add	[bp+si],al
2926:2A7F  B0 02				mov	al,2
2926:2A81  B0 82				mov	al,82h
2926:2A83  00 03				add	[bp+di],al
2926:2A85  B1 20				mov	cl,20h			; ' '
2926:2A87  00 02				add	[bp+si],al
2926:2A89  B0 20				mov	al,20h			; ' '
2926:2A8B  DE 2E AADE				fisubr	word ptr ds:data_213e	; (2926:AADE=0) st = memory - st
2926:2A8F  DE A0 02DE				fisub	word ptr ds:[2DEh][bx+si]	; (2926:02DE=0E432h) st = st - memory
2926:2A93  B1 26				mov	cl,26h			; '&'
2926:2A95  DE 22				fisub	word ptr [bp+si]	; st = st - memory
2926:2A97  00 02				add	[bp+si],al
2926:2A99  DE 99 22DE				ficomp	data_101[bx+di]		; (2926:22DE=0B102h) Compare st & pop
2926:2A9D			loc_194:					;  xref 2926:2B09
2926:2A9D  7C 20		;*		jl	loc_195			;*Jump if <
2926:2A9D  7C 20				db	 7Ch, 20h
2926:2A9F  DE 2A				fisubr	word ptr [bp+si]	; st = memory - st
2926:2AA1  DE AA 0200				fisubr	word ptr [bp+si+200h]	; st = memory - st
2926:2AA5  1F					pop	ds
2926:2AA6  0A DE				or	bl,dh
2926:2AA8  00 00				add	[bx+si],al
2926:2AAA  02 DE				add	bl,dh
2926:2AAC  22 00				and	al,[bx+si]
2926:2AAE  08 21				or	[bx+di],ah
2926:2AB0  08 B1 DEA2				or	ds:data_19e[bx+di],dh	; (0000:DEA2=0A3h)
2926:2AB4  22 00				and	al,[bx+si]
2926:2AB6  04 B0				add	al,0B0h
2926:2AB8  20 DE				and	dh,bl
2926:2ABA  22 B0 B020				and	dh,ds:data_18e[bx+si]	; (0000:B020=1Dh)
2926:2ABE  82 00 02				add	byte ptr [bx+si],2
2926:2AC1  B1 20				mov	cl,20h			; ' '
2926:2AC3  00 02				add	[bp+si],al
2926:2AC5  B0 20				mov	al,20h			; ' '
2926:2AC7  00 03				add	[bp+di],al
2926:2AC9  DE 2A				fisubr	word ptr [bp+si]	; st = memory - st
2926:2ACB  DE AA 0200				fisubr	word ptr [bp+si+200h]	; st = memory - st
2926:2ACF  DE 00				fiadd	word ptr [bx+si]
2926:2AD1  DE 22				fisub	word ptr [bp+si]	; st = st - memory
2926:2AD3  00 03				add	[bp+di],al
2926:2AD5  7C 92				jl	loc_193			; Jump if <
2926:2AD7  DE 22				fisub	word ptr [bp+si]	; st = st - memory
2926:2AD9  7C 20				jl	loc_196			; Jump if <
2926:2ADB  DE 22				fisub	word ptr [bp+si]	; st = st - memory
2926:2ADD  DE AA 0400				fisubr	word ptr [bp+si+400h]	; st = memory - st
2926:2AE1  DE 00				fiadd	word ptr [bx+si]
2926:2AE3  00 02				add	[bp+si],al
2926:2AE5  DE 22				fisub	word ptr [bp+si]	; st = st - memory
2926:2AE7  00 07				add	[bx],al
2926:2AE9  21 08				and	[bx+si],cx
2926:2AEB  DE 22				fisub	word ptr [bp+si]	; st = st - memory
2926:2AED  00 08				add	[bx+si],cl
           ICON2.lst       ICON2.OVL		Sourcer	v8.01  20-Jul-2026 12:24 am   Page 78

2926:2AEF  B0 82				mov	al,82h
2926:2AF1  00 03				add	[bp+di],al
2926:2AF3  B1 20				mov	cl,20h			; ' '
2926:2AF5  00 02				add	[bp+si],al
2926:2AF7  B0 20				mov	al,20h			; ' '
2926:2AF9  DE 22				fisub	word ptr [bp+si]	; st = st - memory
2926:2AFB			loc_196:					;  xref 2926:2AD9
2926:2AFB  00 02				add	[bp+si],al
2926:2AFD  B0 20				mov	al,20h			; ' '
2926:2AFF  DE AA A0DE				fisubr	word ptr [bp+si-5F22h]	; st = memory - st
2926:2B03  DE 02				fiadd	word ptr [bp+si]
2926:2B05  DE 22				fisub	word ptr [bp+si]	; st = st - memory
2926:2B07  00 02				add	[bp+si],al
2926:2B09  7C 92				jl	loc_194			; Jump if <
2926:2B0B  DE 22				fisub	word ptr [bp+si]	; st = st - memory
2926:2B0D  DE 00				fiadd	word ptr [bx+si]
2926:2B0F  DE 22				fisub	word ptr [bp+si]	; st = st - memory
2926:2B11  00 02				add	[bp+si],al
2926:2B13  DE AA 0400				fisubr	word ptr [bp+si+400h]	; st = memory - st
2926:2B17  DE 00				fiadd	word ptr [bx+si]
2926:2B19  DE 02				fiadd	word ptr [bp+si]
2926:2B1B  DE 22				fisub	word ptr [bp+si]	; st = st - memory
2926:2B1D  00 06 0827				add	ds:data_13e,al		; (0000:0827=0FFh)
2926:2B21  DE 22				fisub	word ptr [bp+si]	; st = st - memory
2926:2B23  00 08				add	[bx+si],cl
2926:2B25  B0 02				mov	al,2
2926:2B27  B0 82				mov	al,82h
2926:2B29  00 02				add	[bp+si],al
2926:2B2B  B1 20				mov	cl,20h			; ' '
2926:2B2D  B0 20				mov	al,20h			; ' '
2926:2B2F  00 02				add	[bp+si],al
2926:2B31  DE 22				fisub	word ptr [bp+si]	; st = st - memory
2926:2B33  B0 2A				mov	al,2Ah			; '*'
2926:2B35  DE 22				fisub	word ptr [bp+si]	; st = st - memory
2926:2B37  DE 2A				fisubr	word ptr [bp+si]	; st = memory - st
2926:2B39  DE AA 00DE				fisubr	word ptr [bp+si+0DEh]	; st = memory - st
2926:2B3D  00 02				add	[bp+si],al
2926:2B3F  DE 20				fisub	word ptr [bx+si]	; st = st - memory
2926:2B41  7C 02				jl	loc_197			; Jump if <
2926:2B43  DE 02				fiadd	word ptr [bp+si]
2926:2B45			loc_197:					;  xref 2926:2B41
2926:2B45  7C 2B		;*		jl	loc_198			;*Jump if <
2926:2B45  7C 2B				db	 7Ch, 2Bh
2926:2B47  DE 22				fisub	word ptr [bp+si]	; st = st - memory
2926:2B49  00 03				add	[bp+di],al
2926:2B4B  1F					pop	ds
2926:2B4C  A2 AADE				mov	ds:data_17e,al		; (0000:AADE=2Ch)
2926:2B4F  00 03				add	[bp+di],al
2926:2B51  DE 02				fiadd	word ptr [bp+si]
2926:2B53  DE 22				fisub	word ptr [bp+si]	; st = st - memory
2926:2B55  00 06 0821				add	ds:data_12e,al		; (0000:0821=0FFh)
2926:2B59  DE 22				fisub	word ptr [bp+si]	; st = st - memory
2926:2B5B  00 06 26B1				add	ds:data_15e,al		; (0000:26B1=9Ah)
2926:2B5F  B0 20				mov	al,20h			; ' '
2926:2B61  B0 82				mov	al,82h
2926:2B63  00 02				add	[bp+si],al
2926:2B65  B1 20				mov	cl,20h			; ' '
           ICON2.lst       ICON2.OVL		Sourcer	v8.01  20-Jul-2026 12:24 am   Page 79

2926:2B67  B0 20				mov	al,20h			; ' '
2926:2B69  00 02				add	[bp+si],al
2926:2B6B  DE 22				fisub	word ptr [bp+si]	; st = st - memory
2926:2B6D  B0 20				mov	al,20h			; ' '
2926:2B6F  DE 22				fisub	word ptr [bp+si]	; st = st - memory
2926:2B71  00 03				add	[bp+di],al
2926:2B73  DE 0A				fimul	word ptr [bp+si]	; st = st * memory
2926:2B75  DE A0 00DE				fisub	word ptr ds:data_8e[bx+si]	; (0000:00DE=0F000h) st = st - memory
2926:2B79  00 04				add	[si],al
2926:2B7B  7C 0B		;*		jl	loc_199			;*Jump if <
2926:2B7B  7C 0B				db	 7Ch, 0Bh
2926:2B7D  DE 00				fiadd	word ptr [bx+si]
2926:2B7F  DE 22				fisub	word ptr [bp+si]	; st = st - memory
2926:2B81  00 04				add	[si],al
2926:2B83  DE 2A				fisubr	word ptr [bp+si]	; st = memory - st
2926:2B85  DE AA 02DE				fisubr	word ptr [bp+si+2DEh]	; st = memory - st
2926:2B89  DE 22				fisub	word ptr [bp+si]	; st = st - memory
2926:2B8B  00 06 0821				add	ds:data_12e,al		; (0000:0821=0FFh)
2926:2B8F  DE 22				fisub	word ptr [bp+si]	; st = st - memory
2926:2B91  00 07				add	[bx],al
2926:2B93  B0 20				mov	al,20h			; ' '
2926:2B95  B0 82				mov	al,82h
2926:2B97  B1 20				mov	cl,20h			; ' '
2926:2B99  B0 82				mov	al,82h
2926:2B9B  B1 20				mov	cl,20h			; ' '
2926:2B9D  B0 20				mov	al,20h			; ' '
2926:2B9F  00 02				add	[bp+si],al
2926:2BA1  DE 22				fisub	word ptr [bp+si]	; st = st - memory
2926:2BA3  B0 20				mov	al,20h			; ' '
2926:2BA5  DE 22				fisub	word ptr [bp+si]	; st = st - memory
2926:2BA7  00 02				add	[bp+si],al
2926:2BA9  DE 00				fiadd	word ptr [bx+si]
2926:2BAB  DE AA A0DE				fisubr	word ptr [bp+si-5F22h]	; st = memory - st
2926:2BAF  DE 00				fiadd	word ptr [bx+si]
2926:2BB1  00 03				add	[bp+di],al
2926:2BB3  7C 0B		;*		jl	loc_200			;*Jump if <
2926:2BB3  7C 0B				db	 7Ch, 0Bh
2926:2BB5  DE 00				fiadd	word ptr [bx+si]
2926:2BB7  00 04				add	[si],al
2926:2BB9  DE 0A				fimul	word ptr [bp+si]	; st = st * memory
2926:2BBB  DE AA A0DE				fisubr	word ptr [bp+si-5F22h]	; st = memory - st
2926:2BBF  DE 02				fiadd	word ptr [bp+si]
2926:2BC1  DE 22				fisub	word ptr [bp+si]	; st = st - memory
2926:2BC3  00 06 0821				add	ds:data_12e,al		; (0000:0821=0FFh)
2926:2BC7  DE 22				fisub	word ptr [bp+si]	; st = st - memory
2926:2BC9  00 08				add	[bx+si],cl
2926:2BCB  B0 82				mov	al,82h
2926:2BCD  B1 20				mov	cl,20h			; ' '
2926:2BCF  00 03				add	[bp+di],al
2926:2BD1  B0 20				mov	al,20h			; ' '
2926:2BD3  DE 22				fisub	word ptr [bp+si]	; st = st - memory
2926:2BD5  B0 20				mov	al,20h			; ' '
2926:2BD7  DE 22				fisub	word ptr [bp+si]	; st = st - memory
2926:2BD9  00 03				add	[bp+di],al
2926:2BDB  DE 00				fiadd	word ptr [bx+si]
2926:2BDD  DE 0A				fimul	word ptr [bp+si]	; st = st * memory
2926:2BDF  DE AA A0DE				fisubr	word ptr [bp+si-5F22h]	; st = memory - st
           ICON2.lst       ICON2.OVL		Sourcer	v8.01  20-Jul-2026 12:24 am   Page 80

2926:2BE3  DE 0A				fimul	word ptr [bp+si]	; st = st * memory
2926:2BE5  DE AA 44DE				fisubr	word ptr [bp+si+44DEh]	; st = memory - st
2926:2BE9  DE 00				fiadd	word ptr [bx+si]
2926:2BEB  00 04				add	[si],al
2926:2BED  DE 0A				fimul	word ptr [bp+si]	; st = st * memory
2926:2BEF  DE AA A0DE				fisubr	word ptr [bp+si-5F22h]	; st = memory - st
2926:2BF3  DE 22				fisub	word ptr [bp+si]	; st = st - memory
2926:2BF5  00 07				add	[bx],al
2926:2BF7  27					daa				; Decimal adjust
2926:2BF8  08 DE				or	dh,bl
2926:2BFA  22 00				and	al,[bx+si]
2926:2BFC  08 B1 0020				or	ds:data_2e[bx+di],dh	; (0000:0020=0A5h)
2926:2C00  04 B0				add	al,0B0h
2926:2C02  20 DE				and	dh,bl
2926:2C04  22 00				and	al,[bx+si]
2926:2C06  04 DE				add	al,0DEh
2926:2C08  20 DE				and	dh,bl
2926:2C0A  0A DE				or	bl,dh
2926:2C0C  00 DE				add	dh,bl
2926:2C0E  AA					stosb				; Store al to es:[di]
2926:2C0F  DE A0 AADE				fisub	word ptr ds:data_17e[bx+si]	; (0000:AADE=472Ch) st = st - memory
2926:2C13  00 02				add	[bp+si],al
2926:2C15  DE 44 DE				fiadd	word ptr [si-22h]
2926:2C18  AA					stosb				; Store al to es:[di]
2926:2C19  00 03				add	[bp+di],al
2926:2C1B  DE 00				fiadd	word ptr [bx+si]
2926:2C1D  DE AA 0200				fisubr	word ptr [bp+si+200h]	; st = memory - st
2926:2C21  DE 00				fiadd	word ptr [bx+si]
2926:2C23  DE 22				fisub	word ptr [bp+si]	; st = st - memory
2926:2C25  00 07				add	[bx],al
2926:2C27  21 08				and	[bx+si],cx
2926:2C29  DE 22				fisub	word ptr [bp+si]	; st = st - memory
2926:2C2B  00 07				add	[bx],al
2926:2C2D  B0 20				mov	al,20h			; ' '
2926:2C2F  B0 82				mov	al,82h
2926:2C31  B0 20				mov	al,20h			; ' '
2926:2C33  B1 20				mov	cl,20h			; ' '
2926:2C35  B0 20				mov	al,20h			; ' '
2926:2C37  00 02				add	[bp+si],al
2926:2C39  B1 26				mov	cl,26h			; '&'
2926:2C3B  DE 22				fisub	word ptr [bp+si]	; st = st - memory
2926:2C3D  00 03				add	[bp+di],al
2926:2C3F  DE 00				fiadd	word ptr [bx+si]
2926:2C41  DE 0A				fimul	word ptr [bp+si]	; st = st * memory
2926:2C43  DE A0 AADE				fisub	word ptr ds:data_17e[bx+si]	; (0000:AADE=472Ch) st = st - memory
2926:2C47  00 02				add	[bp+si],al
2926:2C49  DE 0A				fimul	word ptr [bp+si]	; st = st * memory
2926:2C4B  DE AA 44DE				fisubr	word ptr [bp+si+44DEh]	; st = memory - st
2926:2C4F  DE AA 0300				fisubr	word ptr [bp+si+300h]	; st = memory - st
2926:2C53  DE 0A				fimul	word ptr [bp+si]	; st = st * memory
2926:2C55  DE AA 0200				fisubr	word ptr [bp+si+200h]	; st = memory - st
2926:2C59  DE 00				fiadd	word ptr [bx+si]
2926:2C5B  DE 02				fiadd	word ptr [bp+si]
2926:2C5D  DE 22				fisub	word ptr [bp+si]	; st = st - memory
2926:2C5F  00 05				add	[di],al
2926:2C61  01 20				add	[bx+si],sp
2926:2C63  21 08				and	[bx+si],cx
           ICON2.lst       ICON2.OVL		Sourcer	v8.01  20-Jul-2026 12:24 am   Page 81

2926:2C65  DE 22				fisub	word ptr [bp+si]	; st = st - memory
2926:2C67  00 08				add	[bx+si],cl
2926:2C69  B1 20				mov	cl,20h			; ' '
2926:2C6B  00 02				add	[bp+si],al
2926:2C6D  B0 20				mov	al,20h			; ' '
2926:2C6F  00 02				add	[bp+si],al
2926:2C71  B1 26				mov	cl,26h			; '&'
2926:2C73  DE 22				fisub	word ptr [bp+si]	; st = st - memory
2926:2C75  00 04				add	[si],al
2926:2C77  DE 00				fiadd	word ptr [bx+si]
2926:2C79  DE AA A0DE				fisubr	word ptr [bp+si-5F22h]	; st = memory - st
2926:2C7D  DE AA 0200				fisubr	word ptr [bp+si+200h]	; st = memory - st
2926:2C81  DE 0A				fimul	word ptr [bp+si]	; st = st * memory
2926:2C83  DE A4 44DE				fisub	word ptr ds:data_16e[si]	; (0000:44DE=1EC7h) st = st - memory
2926:2C87  DE AA 0200				fisubr	word ptr [bp+si+200h]	; st = memory - st
2926:2C8B  DE A0 0ADE				fisub	word ptr ds:data_14e[bx+si]	; (0000:0ADE=0) st = st - memory
2926:2C8F  DE AA A0DE				fisubr	word ptr [bp+si-5F22h]	; st = memory - st
2926:2C93  DE 0A				fimul	word ptr [bp+si]	; st = st * memory
2926:2C95  DE 02				fiadd	word ptr [bp+si]
2926:2C97  DE 22				fisub	word ptr [bp+si]	; st = st - memory
2926:2C99  00 05				add	[di],al
2926:2C9B  2F					das				; Decimal adjust
2926:2C9C  20 DE				and	dh,bl
2926:2C9E  20 01				and	[bx+di],al
2926:2CA0  20 DE				and	dh,bl
2926:2CA2  22 00				and	al,[bx+si]
2926:2CA4  07					pop	es
2926:2CA5  B1 20				mov	cl,20h			; ' '
2926:2CA7  B0 20				mov	al,20h			; ' '
2926:2CA9  00 02				add	[bp+si],al
2926:2CAB  B0 2A				mov	al,2Ah			; '*'
2926:2CAD  DE 22				fisub	word ptr [bp+si]	; st = st - memory
2926:2CAF  00 04				add	[si],al
2926:2CB1  DE 20				fisub	word ptr [bx+si]	; st = st - memory
2926:2CB3  DE 0A				fimul	word ptr [bp+si]	; st = st * memory
2926:2CB5  DE AA A0DE				fisubr	word ptr [bp+si-5F22h]	; st = memory - st
2926:2CB9  DE 0A				fimul	word ptr [bp+si]	; st = st * memory
2926:2CBB  DE AA 00DE				fisubr	word ptr [bp+si+0DEh]	; st = memory - st
2926:2CBF  DE 44 00		;*		fiadd	word ptr [si+0]
2926:2CBF  DE 44 00				db	0DEh, 44h, 00h
2926:2CC2  02 DE AA 00 02 DE			db	 02h,0DEh,0AAh, 00h, 02h,0DEh
2926:2CC8  A0 DE AA 00 02 DE			db	0A0h,0DEh,0AAh, 00h, 02h,0DEh
2926:2CCE  A0 DE AA DE 00 DE			db	0A0h,0DEh,0AAh,0DEh, 00h,0DEh
2926:2CD4  22 00 06 64 20 DE			db	 22h, 00h, 06h, 64h, 20h,0DEh
2926:2CDA  22 00 08 B0 20 00			db	 22h, 00h, 08h,0B0h, 20h, 00h
2926:2CE0  03 DE 22 00 05 DE			db	 03h,0DEh, 22h, 00h, 05h,0DEh
2926:2CE6  20 DE AA 00 02 DE			db	 20h,0DEh,0AAh, 00h, 02h,0DEh
2926:2CEC  A0 DE 00 DE AA DE			db	0A0h,0DEh, 00h,0DEh,0AAh,0DEh
2926:2CF2  A0 DE 44 00 02 DE			db	0A0h,0DEh, 44h, 00h, 02h,0DEh
2926:2CF8  AA 00 02 DE 00 DE			db	0AAh, 00h, 02h,0DEh, 00h,0DEh
2926:2CFE  AA 00 02 DE 00 DE			db	0AAh, 00h, 02h,0DEh, 00h,0DEh
2926:2D04  AA DE A0 DE 02 DE			db	0AAh,0DEh,0A0h,0DEh, 02h,0DEh
2926:2D0A  22 00 0E B0 20 00			db	 22h, 00h, 0Eh,0B0h, 20h, 00h
2926:2D10  02 DE 22 00 06 DE			db	 02h,0DEh, 22h, 00h, 06h,0DEh
2926:2D16  00 DE AA 00 02 DE			db	 00h,0DEh,0AAh, 00h, 02h,0DEh
2926:2D1C  A0 00 02 DE AA DE			db	0A0h, 00h, 02h,0DEh,0AAh,0DEh
2926:2D22  A0 DE 44 00 02 DE			db	0A0h,0DEh, 44h, 00h, 02h,0DEh
           ICON2.lst       ICON2.OVL		Sourcer	v8.01  20-Jul-2026 12:24 am   Page 82

2926:2D28  4A DE AA DE 0A DE			db	 4Ah,0DEh,0AAh,0DEh, 0Ah,0DEh
2926:2D2E  AA DE A0 DE 00 DE			db	0AAh,0DEh,0A0h,0DEh, 00h,0DEh
2926:2D34  0A DE AA DE 02 DE			db	 0Ah,0DEh,0AAh,0DEh, 02h,0DEh
2926:2D3A  22 00 0F B0 20 00			db	 22h, 00h, 0Fh,0B0h, 20h, 00h
2926:2D40  02 DE 22 00 05 DE			db	 02h,0DEh, 22h, 00h, 05h,0DEh
2926:2D46  0A DE AA 00 02 DE			db	 0Ah,0DEh,0AAh, 00h, 02h,0DEh
2926:2D4C  A0 00 02 DE AA 00			db	0A0h, 00h, 02h,0DEh,0AAh, 00h
2926:2D52  02 DE 04 DE 44 DE			db	 02h,0DEh, 04h,0DEh, 44h,0DEh
2926:2D58  4A DE AA DE 0A DE			db	 4Ah,0DEh,0AAh,0DEh, 0Ah,0DEh
2926:2D5E  AA DE A0 00 02 DE			db	0AAh,0DEh,0A0h, 00h, 02h,0DEh
2926:2D64  00 DE AA DE A0 DE			db	 00h,0DEh,0AAh,0DEh,0A0h,0DEh
2926:2D6A  22 00 0E B0 20 00			db	 22h, 00h, 0Eh,0B0h, 20h, 00h
2926:2D70  02 DE 22 00 06 DE			db	 02h,0DEh, 22h, 00h, 06h,0DEh
2926:2D76  0A DE AA 00 02 DE			db	 0Ah,0DEh,0AAh, 00h, 02h,0DEh
2926:2D7C  A0 DE 0A DE AA 00			db	0A0h,0DEh, 0Ah,0DEh,0AAh, 00h
2926:2D82  02 DE 04 DE 44 00			db	 02h,0DEh, 04h,0DEh, 44h, 00h
2926:2D88  02 DE A0 DE 0A DE			db	 02h,0DEh,0A0h,0DEh, 0Ah,0DEh
2926:2D8E  AA DE 00 DE AA DE			db	0AAh,0DEh, 00h,0DEh,0AAh,0DEh
2926:2D94  00 DE 0A DE A0 DE			db	 00h,0DEh, 0Ah,0DEh,0A0h,0DEh
2926:2D9A  02			data_116	db	2			;  xref 2926:08B9, 0909, 0B2D, 0DE2
										;            0DFC, 0E25
2926:2D9B  DE 22 00 0D B0 20			db	0DEh, 22h, 00h, 0Dh,0B0h, 20h
2926:2DA1  00 02 DE 22 00			db	 00h, 02h,0DEh, 22h, 00h
2926:2DA6  DE06			data_117	dw	0DE06h			;  xref 2926:0234
2926:2DA8  0A			data_118	db	0Ah			;  xref 2926:090E, 0B1E, 0E50, 0EA0
2926:2DA9  DE					db	0DEh
2926:2DAA  AA			data_119	db	0AAh			;  xref 2926:0B4B
2926:2DAB  00 03 DE 0A DE AA			db	 00h, 03h,0DEh, 0Ah,0DEh,0AAh
2926:2DB1  00 02 DE 00 DE 44			db	 00h, 02h,0DEh, 00h,0DEh, 44h
2926:2DB7  00 02 DE A0 DE AA			db	 00h, 02h,0DEh,0A0h,0DEh,0AAh
2926:2DBD  00 02 DE 0A DE AA			db	 00h, 02h,0DEh, 0Ah,0DEh,0AAh
2926:2DC3  DE A0 DE 0A DE AA			db	0DEh,0A0h,0DEh, 0Ah,0DEh,0AAh
2926:2DC9  DE 02 DE 22 00 0D			db	0DEh, 02h,0DEh, 22h, 00h, 0Dh
2926:2DCF  B0 20 DE 22 00 02			db	0B0h, 20h,0DEh, 22h, 00h, 02h
2926:2DD5  1F 20 DE 22 00 04			db	 1Fh, 20h,0DEh, 22h, 00h, 04h
2926:2DDB  DE 0A DE AA 00 03			db	0DEh, 0Ah,0DEh,0AAh, 00h, 03h
2926:2DE1  DE 0A DE AA 00 02			db	0DEh, 0Ah,0DEh,0AAh, 00h, 02h
2926:2DE7  DE A0 DE 44 00 02			db	0DEh,0A0h,0DEh, 44h, 00h, 02h
2926:2DED  DE 00 DE AA 00 02			db	0DEh, 00h,0DEh,0AAh, 00h, 02h
2926:2DF3  DE 0A DE AA 00 02			db	0DEh, 0Ah,0DEh,0AAh, 00h, 02h
2926:2DF9  DE 00 DE AA DE A0			db	0DEh, 00h,0DEh,0AAh,0DEh,0A0h
2926:2DFF  DE 22 00 0D B0 20			db	0DEh, 22h, 00h, 0Dh,0B0h, 20h
2926:2E05  00 02 DE 20 DE 00			db	 00h, 02h,0DEh, 20h,0DEh, 00h
2926:2E0B  DE 02 DE 22 00 03			db	0DEh, 02h,0DEh, 22h, 00h, 03h
2926:2E11  DE 0A DE AA 00 03			db	0DEh, 0Ah,0DEh,0AAh, 00h, 03h
2926:2E17  DE 0A DE AA 00 02			db	0DEh, 0Ah,0DEh,0AAh, 00h, 02h
2926:2E1D  DE A0 DE 44 00 02			db	0DEh,0A0h,0DEh, 44h, 00h, 02h
2926:2E23  DE 0A DE AA 00 05			db	0DEh, 0Ah,0DEh,0AAh, 00h, 05h
2926:2E29  DE A0 DE AA DE A0			db	0DEh,0A0h,0DEh,0AAh,0DEh,0A0h
2926:2E2F  DE 02 DE 22 00 0C			db	0DEh, 02h,0DEh, 22h, 00h, 0Ch
2926:2E35  B0 20 DE 22 DE 20			db	0B0h, 20h,0DEh, 22h,0DEh, 20h
2926:2E3B  1F 0A DE 00 00 02			db	 1Fh, 0Ah,0DEh, 00h, 00h, 02h
2926:2E41  DE 22 00 02 DE 0A			db	0DEh, 22h, 00h, 02h,0DEh, 0Ah
2926:2E47  DE AA 00 03 DE 0A			db	0DEh,0AAh, 00h, 03h,0DEh, 0Ah
2926:2E4D  DE AA 00 02 DE A0			db	0DEh,0AAh, 00h, 02h,0DEh,0A0h
2926:2E53  DE 44 00 02 DE 00			db	0DEh, 44h, 00h, 02h,0DEh, 00h
2926:2E59  DE AA 00 05 DE A0			db	0DEh,0AAh, 00h, 05h,0DEh,0A0h
           ICON2.lst       ICON2.OVL		Sourcer	v8.01  20-Jul-2026 12:24 am   Page 83

2926:2E5F  DE 0A DE AA DE 02			db	0DEh, 0Ah,0DEh,0AAh,0DEh, 02h
2926:2E65  DE 22 00 08 B1 26			db	0DEh, 22h, 00h, 08h,0B1h, 26h
2926:2E6B  DE 22 00 05 DE 20			db	0DEh, 22h, 00h, 05h,0DEh, 20h
2926:2E71  DE AA DE A0 DE 00			db	0DEh,0AAh,0DEh,0A0h,0DEh, 00h
2926:2E77  00 02 DE 20 DE 0A			db	 00h, 02h,0DEh, 20h,0DEh, 0Ah
2926:2E7D  DE AA 00 03 DE 0A			db	0DEh,0AAh, 00h, 03h,0DEh, 0Ah
2926:2E83  DE AA 00 02 DE A0			db	0DEh,0AAh, 00h, 02h,0DEh,0A0h
2926:2E89  DE 04 DE 44 DE 00			db	0DEh, 04h,0DEh, 44h,0DEh, 00h
2926:2E8F  DE 0A DE AA 00 05			db	0DEh, 0Ah,0DEh,0AAh, 00h, 05h
2926:2E95  DE 0A DE AA DE A0			db	0DEh, 0Ah,0DEh,0AAh,0DEh,0A0h
2926:2E9B  DE 22 00 0F DE E2			db	0DEh, 22h, 00h, 0Fh,0DEh,0E2h
2926:2EA1  DE AA 00 02 DE 00			db	0DEh,0AAh, 00h, 02h,0DEh, 00h
2926:2EA7  00 02 DE 0A DE AA			db	 00h, 02h,0DEh, 0Ah,0DEh,0AAh
2926:2EAD  00 03 DE 0A DE AA			db	 00h, 03h,0DEh, 0Ah,0DEh,0AAh
2926:2EB3  00 03 DE 04 DE 44			db	 00h, 03h,0DEh, 04h,0DEh, 44h
2926:2EB9  DE A0 DE 00 DE AA			db	0DEh,0A0h,0DEh, 00h,0DEh,0AAh
2926:2EBF  00 05 DE 0A DE AA			db	 00h, 05h,0DEh, 0Ah,0DEh,0AAh
2926:2EC5  DE A0 DE 02 DE 22			db	0DEh,0A0h,0DEh, 02h,0DEh, 22h
2926:2ECB  00 08 B1 26 DE 22			db	 00h, 08h,0B1h, 26h,0DEh, 22h
2926:2ED1  00 05 27 2E DE EA			db	 00h, 05h, 27h, 2Eh,0DEh,0EAh
2926:2ED7  DE AA DE A0 DE 00			db	0DEh,0AAh,0DEh,0A0h,0DEh, 00h
2926:2EDD  DE AA 00 04 DE 00			db	0DEh,0AAh, 00h, 04h,0DEh, 00h
2926:2EE3  DE AA 00 03 DE 04			db	0DEh,0AAh, 00h, 03h,0DEh, 04h
2926:2EE9  DE 44 DE AA DE 00			db	0DEh, 44h,0DEh,0AAh,0DEh, 00h
2926:2EEF  DE 0A DE AA 00 04			db	0DEh, 0Ah,0DEh,0AAh, 00h, 04h
2926:2EF5  DE 0A DE AA 00 02			db	0DEh, 0Ah,0DEh,0AAh, 00h, 02h
2926:2EFB  DE 02 DE 22 00 0F			db	0DEh, 02h,0DEh, 22h, 00h, 0Fh
2926:2F01  27 2E DE EA DE AA			db	 27h, 2Eh,0DEh,0EAh,0DEh,0AAh
2926:2F07  00 06 DE A0 DE AA			db	 00h, 06h,0DEh,0A0h,0DEh,0AAh
2926:2F0D  00 03 DE 04 DE 44			db	 00h, 03h,0DEh, 04h,0DEh, 44h
2926:2F13  DE AA DE A0 DE 00			db	0DEh,0AAh,0DEh,0A0h,0DEh, 00h
2926:2F19  DE AA 00 03 DE A0			db	0DEh,0AAh, 00h, 03h,0DEh,0A0h
2926:2F1F  DE 0A DE AA 00 02			db	0DEh, 0Ah,0DEh,0AAh, 00h, 02h
2926:2F25  DE A0 DE 22 00 0E			db	0DEh,0A0h,0DEh, 22h, 00h, 0Eh
2926:2F2B  27 2E DE 22 27 2E			db	 27h, 2Eh,0DEh, 22h, 27h, 2Eh
2926:2F31  DE AA 00 06 DE A0			db	0DEh,0AAh, 00h, 06h,0DEh,0A0h
2926:2F37  DE 0A DE AA 00 02			db	0DEh, 0Ah,0DEh,0AAh, 00h, 02h
2926:2F3D  DE 04 DE 44 DE 4A			db	0DEh, 04h,0DEh, 44h,0DEh, 4Ah
2926:2F43  DE AA DE 00 DE 0A			db	0DEh,0AAh,0DEh, 00h,0DEh, 0Ah
2926:2F49  DE AA 00 02 DE A0			db	0DEh,0AAh, 00h, 02h,0DEh,0A0h
2926:2F4F  DE AA 00 03 DE A0			db	0DEh,0AAh, 00h, 03h,0DEh,0A0h
2926:2F55  DE 02 DE 22 00 0C			db	0DEh, 02h,0DEh, 22h, 00h, 0Ch
2926:2F5B  DE 00 DE E2 27 2E			db	0DEh, 00h,0DEh,0E2h, 27h, 2Eh
2926:2F61  DE 22 DE 2A DE AA			db	0DEh, 22h,0DEh, 2Ah,0DEh,0AAh
2926:2F67  00 04 DE 88 00 02			db	 00h, 04h,0DEh, 88h, 00h, 02h
2926:2F6D  DE 0A DE AA 00 02			db	0DEh, 0Ah,0DEh,0AAh, 00h, 02h
2926:2F73  DE 08 DE 44 00 02			db	0DEh, 08h,0DEh, 44h, 00h, 02h
2926:2F79  DE AA DE A0 DE 00			db	0DEh,0AAh,0DEh,0A0h,0DEh, 00h
2926:2F7F  DE AA 00 02 DE 00			db	0DEh,0AAh, 00h, 02h,0DEh, 00h
2926:2F85  DE AA 00 04 DE 00			db	0DEh,0AAh, 00h, 04h,0DEh, 00h
2926:2F8B  DE 22 00 0B DE 20			db	0DEh, 22h, 00h, 0Bh,0DEh, 20h
2926:2F91  DE 00 DE 02 DE E2			db	0DEh, 00h,0DEh, 02h,0DEh,0E2h
2926:2F97  27 2E DE 00 DE AA			db	 27h, 2Eh,0DEh, 00h,0DEh,0AAh
2926:2F9D  00 04 DE 85 DE 58			db	 00h, 04h,0DEh, 85h,0DEh, 58h
2926:2FA3  DE 00 DE AA DE A0			db	0DEh, 00h,0DEh,0AAh,0DEh,0A0h
2926:2FA9  DE 05 7C 84 27 84			db	0DEh, 05h, 7Ch, 84h, 27h, 84h
2926:2FAF  DE 88 00 02 DE 00			db	0DEh, 88h, 00h, 02h,0DEh, 00h
           ICON2.lst       ICON2.OVL		Sourcer	v8.01  20-Jul-2026 12:24 am   Page 84

2926:2FB5  00 03 DE 08 DE 88			db	 00h, 03h,0DEh, 08h,0DEh, 88h
2926:2FBB  DE AA 00 03 DE A0			db	0DEh,0AAh, 00h, 03h,0DEh,0A0h
2926:2FC1  DE 02 DE 22 00 0A			db	0DEh, 02h,0DEh, 22h, 00h, 0Ah
2926:2FC7  DE 20 DE A8 DE 00			db	0DEh, 20h,0DEh,0A8h,0DEh, 00h
2926:2FCD  00 04 DE 0A DE AA			db	 00h, 04h,0DEh, 0Ah,0DEh,0AAh
2926:2FD3  00 02 DE A8 DE 55			db	 00h, 02h,0DEh,0A8h,0DEh, 55h
2926:2FD9  DE 22 DE 80 DE AA			db	0DEh, 22h,0DEh, 80h,0DEh,0AAh
2926:2FDF  DE A0 DE 44 DE 55			db	0DEh,0A0h,0DEh, 44h,0DEh, 55h
2926:2FE5  00 04 DE 50 DE 00			db	 00h, 04h,0DEh, 50h,0DEh, 00h
2926:2FEB  00 02 DE 05 DE 55			db	 00h, 02h,0DEh, 05h,0DEh, 55h
2926:2FF1  DE 50 DE AA 00 03			db	0DEh, 50h,0DEh,0AAh, 00h, 03h
2926:2FF7  DE 00 DE 22 00 0A			db	0DEh, 00h,0DEh, 22h, 00h, 0Ah
2926:2FFD  DE 20 DE A8 DE A0			db	0DEh, 20h,0DEh,0A8h,0DEh,0A0h
2926:3003  DE 00 DE 0A DE AA			db	0DEh, 00h,0DEh, 0Ah,0DEh,0AAh
2926:3009  DE 0A DE AA 00 02			db	0DEh, 0Ah,0DEh,0AAh, 00h, 02h
2926:300F  DE A8 DE 55 DE 22			db	0DEh,0A8h,0DEh, 55h,0DEh, 22h
2926:3015  DE 80 DE 00 00 02			db	0DEh, 80h,0DEh, 00h, 00h, 02h
2926:301B  DE 44 DE A8 DE 00			db	0DEh, 44h,0DEh,0A8h,0DEh, 00h
2926:3021  00 03 DE 25 DE 88			db	 00h, 03h,0DEh, 25h,0DEh, 88h
2926:3027  DE 55 DE 52 00 02			db	0DEh, 55h,0DEh, 52h, 00h, 02h
2926:302D  DE 25 DE AA 00 03			db	0DEh, 25h,0DEh,0AAh, 00h, 03h
2926:3033  DE A0 DE 02 DE 22			db	0DEh,0A0h,0DEh, 02h,0DEh, 22h
2926:3039  00 09 DE 20 DE AA			db	 00h, 09h,0DEh, 20h,0DEh,0AAh
2926:303F  00 08 DE A5 DE 25			db	 00h, 08h,0DEh,0A5h,0DEh, 25h
2926:3045  DE 22 DE 8A DE 00			db	0DEh, 22h,0DEh, 8Ah,0DEh, 00h
2926:304B  DE 04 DE 48 DE 88			db	0DEh, 04h,0DEh, 48h,0DEh, 88h
2926:3051  00 03 DE 22 00 02			db	 00h, 03h,0DEh, 22h, 00h, 02h
2926:3057  DE 55 DE 25 DE 22			db	0DEh, 55h,0DEh, 25h,0DEh, 22h
2926:305D  27 25 DE 25 DE 50			db	 27h, 25h,0DEh, 25h,0DEh, 50h
2926:3063  DE AA 00 03 DE 00			db	0DEh,0AAh, 00h, 03h,0DEh, 00h
2926:3069  DE 22 00 09 DE 20			db	0DEh, 22h, 00h, 09h,0DEh, 20h
2926:306F  DE AA 00 04 DE A0			db	0DEh,0AAh, 00h, 04h,0DEh,0A0h
2926:3075  DE AA 00 03 DE A5			db	0DEh,0AAh, 00h, 03h,0DEh,0A5h
2926:307B  DE 22 5C 25 DE 88			db	0DEh, 22h, 5Ch, 25h,0DEh, 88h
2926:3081  DE AA DE 04 DE 88			db	0DEh,0AAh,0DEh, 04h,0DEh, 88h
2926:3087  00 02 DE AA DE 02			db	 00h, 02h,0DEh,0AAh,0DEh, 02h
2926:308D  DE 22 00 02 DE 52			db	0DEh, 22h, 00h, 02h,0DEh, 52h
2926:3093  2F 25 DE 22 00 02			db	 2Fh, 25h,0DEh, 22h, 00h, 02h
2926:3099  2F 25 DE 25 DE AA			db	 2Fh, 25h,0DEh, 25h,0DEh,0AAh
2926:309F  00 03 DE A0 DE 00			db	 00h, 03h,0DEh,0A0h,0DEh, 00h
2926:30A5  DE 22 00 09 DE AA			db	0DEh, 22h, 00h, 09h,0DEh,0AAh
2926:30AB  00 04 DE A0 DE 0A			db	 00h, 04h,0DEh,0A0h,0DEh, 0Ah
2926:30B1  DE A0 DE 0A DE 85			db	0DEh,0A0h,0DEh, 0Ah,0DEh, 85h
2926:30B7  DE 52 DE 22 DE 28			db	0DEh, 52h,0DEh, 22h,0DEh, 28h
2926:30BD  DE AA DE 48 DE 88			db	0DEh,0AAh,0DEh, 48h,0DEh, 88h
2926:30C3  DE 8A DE AA DE 02			db	0DEh, 8Ah,0DEh,0AAh,0DEh, 02h
2926:30C9  DE 22 00 02 27 25			db	0DEh, 22h, 00h, 02h, 27h, 25h
2926:30CF  DE 22 00 04 DE 25			db	0DEh, 22h, 00h, 04h,0DEh, 25h
2926:30D5  DE AA 00 04 DE 00			db	0DEh,0AAh, 00h, 04h,0DEh, 00h
2926:30DB  00 02 DE 22 00 09			db	 00h, 02h,0DEh, 22h, 00h, 09h
2926:30E1  DE AA 00 05 DE A0			db	0DEh,0AAh, 00h, 05h,0DEh,0A0h
2926:30E7  DE 0A DE 55 7C 25			db	0DEh, 0Ah,0DEh, 55h, 7Ch, 25h
2926:30ED  DE 22 DE 28 DE 88			db	0DEh, 22h,0DEh, 28h,0DEh, 88h
2926:30F3  27 84 DE 84 DE 44			db	 27h, 84h,0DEh, 84h,0DEh, 44h
2926:30F9  DE AA DE 00 00 04			db	0DEh,0AAh,0DEh, 00h, 00h, 04h
2926:30FF  DE 82 DE 22 00 03			db	0DEh, 82h,0DEh, 22h, 00h, 03h
2926:3105  DE 25 DE 50 DE AA			db	0DEh, 25h,0DEh, 50h,0DEh,0AAh
           ICON2.lst       ICON2.OVL		Sourcer	v8.01  20-Jul-2026 12:24 am   Page 85

2926:310B  00 04 DE 00 00 02			db	 00h, 04h,0DEh, 00h, 00h, 02h
2926:3111  DE 22 00 09 DE AA			db	0DEh, 22h, 00h, 09h,0DEh,0AAh
2926:3117  00 03 DE EE DE 55			db	 00h, 03h,0DEh,0EEh,0DEh, 55h
2926:311D  DE 00 DE 52 DE 22			db	0DEh, 00h,0DEh, 52h,0DEh, 22h
2926:3123  00 02 DE 28 DE 88			db	 00h, 02h,0DEh, 28h,0DEh, 88h
2926:3129  DE 44 00 04 DE 40			db	0DEh, 44h, 00h, 04h,0DEh, 40h
2926:312F  DE 88 00 02 DE 82			db	0DEh, 88h, 00h, 02h,0DEh, 82h
2926:3135  DE 22 00 04 2F 25			db	0DEh, 22h, 00h, 04h, 2Fh, 25h
2926:313B  DE 25 DE A5 DE 0A			db	0DEh, 25h,0DEh,0A5h,0DEh, 0Ah
2926:3141  DE AA 00 03 DE 00			db	0DEh,0AAh, 00h, 03h,0DEh, 00h
2926:3147  00 02 DE 22 00 09			db	 00h, 02h,0DEh, 22h, 00h, 09h
2926:314D  DE AA 00 02 DE EE			db	0DEh,0AAh, 00h, 02h,0DEh,0EEh
2926:3153  DE 55 DE 00 DE 55			db	0DEh, 55h,0DEh, 00h,0DEh, 55h
2926:3159  DE 22 00 02 DE 88			db	0DEh, 22h, 00h, 02h,0DEh, 88h
2926:315F  DE 84 DE 44 00 03			db	0DEh, 84h,0DEh, 44h, 00h, 03h
2926:3165  DE 88 DE 44 DE 40			db	0DEh, 88h,0DEh, 44h,0DEh, 40h
2926:316B  DE 00 00 05 DE 22			db	0DEh, 00h, 00h, 05h,0DEh, 22h
2926:3171  00 02 2F 25 DE 22			db	 00h, 02h, 2Fh, 25h,0DEh, 22h
2926:3177  DE 52 DE AA 00 04			db	0DEh, 52h,0DEh,0AAh, 00h, 04h
2926:317D  DE 00 00 02 DE 22			db	0DEh, 00h, 00h, 02h,0DEh, 22h
2926:3183  00 09 DE AA DE AE			db	 00h, 09h,0DEh,0AAh,0DEh,0AEh
2926:3189  DE E5 DE 50 DE 55			db	0DEh,0E5h,0DEh, 50h,0DEh, 55h
2926:318F  DE 22 DE 20 DE 88			db	0DEh, 22h,0DEh, 20h,0DEh, 88h
2926:3195  2F 84 00 02 7C 84			db	 2Fh, 84h, 00h, 02h, 7Ch, 84h
2926:319B  27 84 DE 84 DE 44			db	 27h, 84h,0DEh, 84h,0DEh, 44h
2926:31A1  DE 00 DE 88 00 04			db	0DEh, 00h,0DEh, 88h, 00h, 04h
2926:31A7  DE 22 00 05 27 25			db	0DEh, 22h, 00h, 05h, 27h, 25h
2926:31AD  DE 50 DE AA 00 04			db	0DEh, 50h,0DEh,0AAh, 00h, 04h
2926:31B3  DE 00 DE 02 DE 22			db	0DEh, 00h,0DEh, 02h,0DEh, 22h
2926:31B9  00 08 DE EA DE 5E			db	 00h, 08h,0DEh,0EAh,0DEh, 5Eh
2926:31BF  DE E5 DE				db	0DEh,0E5h,0DEh
2926:31C2  DE50			data_120	dw	0DE50h			;  xref 2926:0A70
2926:31C4  25 DE 52 DE 20 DE			db	 25h,0DEh, 52h,0DEh, 20h,0DEh
2926:31CA  00 DE 44 00 05 DE			db	 00h,0DEh, 44h, 00h, 05h,0DEh
2926:31D0  DE48			data_121	dw	0DE48h			;  xref 2926:0A85
2926:31D2  0088			data_122	dw	88h			;  xref 2926:0A8C
2926:31D4  03 DE 22 00 08 DE			db	 03h,0DEh, 22h, 00h, 08h,0DEh
2926:31DA  52 DE 58 DE AA 00			db	 52h,0DEh, 58h,0DEh,0AAh, 00h
2926:31E0  04 DE 00 DE 22 00			db	 04h,0DEh, 00h,0DEh, 22h, 00h
2926:31E6  08 DE E2 64 25 DE			db	 08h,0DEh,0E2h, 64h, 25h,0DEh
2926:31EC  E2 DE 55 DE 22 64			db	0E2h,0DEh, 55h,0DEh, 22h, 64h
2926:31F2  25 DE EE DE 00 23			db	 25h,0DEh,0EEh,0DEh, 00h, 23h
2926:31F8  84 7C 84 23 84 2F			db	 84h, 7Ch, 84h, 23h, 84h, 2Fh
2926:31FE  84 23 84 DE 88 00			db	 84h, 23h, 84h,0DEh, 88h, 00h
2926:3204  03 DE 22 00 09 27			db	 03h,0DEh, 22h, 00h, 09h, 27h
2926:320A  25 00 02 DE 58 00			db	 25h, 00h, 02h,0DEh, 58h, 00h
2926:3210  04 DE AA DE 00 DE			db	 04h,0DEh,0AAh,0DEh, 00h,0DEh
2926:3216  22 00 06 DE 44 00			db	 22h, 00h, 06h,0DEh, 44h, 00h
2926:321C  14 DE 22 00 08 27			db	 14h,0DEh, 22h, 00h, 08h, 27h
2926:3222  25 00 05 DE 22 00			db	 25h, 00h, 05h,0DEh, 22h, 00h
2926:3228  06 DE 44 00 17 DE			db	 06h,0DEh, 44h, 00h, 17h,0DEh
2926:322E  22 00 0D 00 00 E9			db	 22h, 00h, 0Dh, 00h, 00h,0E9h
2926:3234  00 00				db	 00h, 00h

				;ßßßßßßßßßßßßßßßßßßßßßßßßßßßßßßßßßßßßßßßßßßßßßßßßßßßßßßßßßßßßßßßßßßßßßßßßßß
				;                              SUBROUTINE
				;
           ICON2.lst       ICON2.OVL				Sourcer	v8.01  20-Jul-2026 12:24 am   Page 86

				;         Called from:   2926:0EA6
				;ÜÜÜÜÜÜÜÜÜÜÜÜÜÜÜÜÜÜÜÜÜÜÜÜÜÜÜÜÜÜÜÜÜÜÜÜÜÜÜÜÜÜÜÜÜÜÜÜÜÜÜÜÜÜÜÜÜÜÜÜÜÜÜÜÜÜÜÜÜÜÜÜÜÜ

2926:3236			sub_46		proc	near
2926:3236  E9 0448				jmp	loc_202			; (3681)
				sub_46		endp


				;ßßßßßßßßßßßßßßßßßßßßßßßßßßßßßßßßßßßßßßßßßßßßßßßßßßßßßßßßßßßßßßßßßßßßßßßßßß
				;                              SUBROUTINE
				;
				;         Called from:   2926:36B2
				;ÜÜÜÜÜÜÜÜÜÜÜÜÜÜÜÜÜÜÜÜÜÜÜÜÜÜÜÜÜÜÜÜÜÜÜÜÜÜÜÜÜÜÜÜÜÜÜÜÜÜÜÜÜÜÜÜÜÜÜÜÜÜÜÜÜÜÜÜÜÜÜÜÜÜ

2926:3239			sub_47		proc	near
2926:3239  E9 0000				jmp	loc_201			; (323C)
2926:323C			loc_201:					;  xref 2926:3239
2926:323C  55					push	bp
2926:323D  8B C4				mov	ax,sp
2926:323F  FF 76 FE				push	word ptr [bp-2]
2926:3242  8B E8				mov	bp,ax
2926:3244  55					push	bp
2926:3245  81 EC 0004				sub	sp,4
2926:3249  1E					push	ds
2926:324A  B8 82FD				mov	ax,82FDh
2926:324D  50					push	ax
2926:324E  E8 0AAC				call	sub_91			; (3CFD)
2926:3251  0E E8 0025				callf	sub_48			; (327A)
2926:3255  24					db	'$'
2926:3256  53 6F 20 74 68 65			db	'So the story  of the  Ring  has '
2926:325C  20 73 74 6F 72 79
2926:3262  20 20 6F 66 20 74
2926:3268  68 65 20 20 52 69
2926:326E  6E 67 20 20 68 61
2926:3274  73 20
2926:3276  62 65 65 6E				db	'been'

				;ßßßß External Entry into Subroutine ßßßßßßßßßßßßßßßßßßßßßßßßßßßßßßßßßßßßßß
				;
				;         Called from:   2926:3251

2926:327A			sub_48:
2926:327A  B8 FFFF				mov	ax,0FFFFh
2926:327D  50					push	ax
2926:327E  B8 FFFF				mov	ax,0FFFFh
2926:3281  50					push	ax
2926:3282  E8 20C9				call	sub_122			; (534E)
2926:3285  E8 18C1				call	sub_105			; (4B49)
2926:3288  1E					push	ds
2926:3289  B8 82FD				mov	ax,82FDh
2926:328C  50					push	ax
2926:328D  E8 0A6D				call	sub_91			; (3CFD)
2926:3290  0E E8 0027				callf	sub_49			; (32BB)
2926:3294  26 62 72 6F 75 67			db	'&brought full circle with the re'
2926:329A  68 74 20 66 75 6C
2926:32A0  6C 20 63 69 72 63
2926:32A6  6C 65 20 77 69 74
           ICON2.lst       ICON2.OVL		Sourcer	v8.01  20-Jul-2026 12:24 am   Page 87

2926:32AC  68 20 74 68 65 20
2926:32B2  72 65
2926:32B4  74 75 72 6E 20 6F			db	'turn of'
2926:32BA  66

				;ßßßß External Entry into Subroutine ßßßßßßßßßßßßßßßßßßßßßßßßßßßßßßßßßßßßßß
				;
				;         Called from:   2926:3290

2926:32BB			sub_49:
2926:32BB  B8 FFFF				mov	ax,0FFFFh
2926:32BE  50					push	ax
2926:32BF  B8 FFFF				mov	ax,0FFFFh
2926:32C2  50					push	ax
2926:32C3  E8 2088				call	sub_122			; (534E)
2926:32C6  E8 1880				call	sub_105			; (4B49)
2926:32C9  1E					push	ds
2926:32CA  B8 82FD				mov	ax,82FDh
2926:32CD  50					push	ax
2926:32CE  E8 0A2C				call	sub_91			; (3CFD)
2926:32D1  0E E8 0028				callf	sub_50			; (32FD)
2926:32D5  27 6F 66 20 74 68			db	27h, 'of the Ring to its rightful'
2926:32DB  65 20 52 69 6E 67
2926:32E1  20 74 6F 20 69 74
2926:32E7  73 20 72 69 67 68
2926:32ED  74 66 75 6C
2926:32F1  20 6F 77 6E 65 72			db	' owners, the'
2926:32F7  73 2C 20 74 68 65

				;ßßßß External Entry into Subroutine ßßßßßßßßßßßßßßßßßßßßßßßßßßßßßßßßßßßßßß
				;
				;         Called from:   2926:32D1

2926:32FD			sub_50:
2926:32FD  B8 FFFF				mov	ax,0FFFFh
2926:3300  50					push	ax
2926:3301  B8 FFFF				mov	ax,0FFFFh
2926:3304  50					push	ax
2926:3305  E8 2046				call	sub_122			; (534E)
2926:3308  E8 183E				call	sub_105			; (4B49)
2926:330B  1E					push	ds
2926:330C  B8 82FD				mov	ax,82FDh
2926:330F  50					push	ax
2926:3310  E8 09EA				call	sub_91			; (3CFD)
2926:3313  0E E8 0027				callf	sub_51			; (333E)
2926:3317  26 52 68 69 6E 65			db	'&Rhinemaidens.  You, in the role'
2926:331D  6D 61 69 64 65 6E
2926:3323  73 2E 20 20 59 6F
2926:3329  75 2C 20 69 6E 20
2926:332F  74 68 65 20 72 6F
2926:3335  6C 65
2926:3337  20 6F 66 20 74 68			db	' of the'
2926:333D  65

				;ßßßß External Entry into Subroutine ßßßßßßßßßßßßßßßßßßßßßßßßßßßßßßßßßßßßßß
				;
				;         Called from:   2926:3313
           ICON2.lst       ICON2.OVL		Sourcer	v8.01  20-Jul-2026 12:24 am   Page 88


2926:333E			sub_51:
2926:333E  B8 FFFF				mov	ax,0FFFFh
2926:3341  50					push	ax
2926:3342  B8 FFFF				mov	ax,0FFFFh
2926:3345  50					push	ax
2926:3346  E8 2005				call	sub_122			; (534E)
2926:3349  E8 17FD				call	sub_105			; (4B49)
2926:334C  1E					push	ds
2926:334D  B8 82FD				mov	ax,82FDh
2926:3350  50					push	ax
2926:3351  E8 09A9				call	sub_91			; (3CFD)
2926:3354  0E E8 0029				callf	sub_52			; (3381)
2926:3358  28 6C 65 67 65 6E			db	'(legendary Siegfried the Victori'
2926:335E  64 61 72 79 20 53
2926:3364  69 65 67 66 72 69
2926:336A  65 64 20 74 68 65
2926:3370  20 56 69 63 74 6F
2926:3376  72 69
2926:3378  6F 75 73 2C 20 68			db	'ous, have'
2926:337E  61 76 65

				;ßßßß External Entry into Subroutine ßßßßßßßßßßßßßßßßßßßßßßßßßßßßßßßßßßßßßß
				;
				;         Called from:   2926:3354

2926:3381			sub_52:
2926:3381  B8 FFFF				mov	ax,0FFFFh
2926:3384  50					push	ax
2926:3385  B8 FFFF				mov	ax,0FFFFh
2926:3388  50					push	ax
2926:3389  E8 1FC2				call	sub_122			; (534E)
2926:338C  1E					push	ds
2926:338D  B8 82FD				mov	ax,82FDh
2926:3390  50					push	ax
2926:3391  E8 0969				call	sub_91			; (3CFD)
2926:3394  0E E8 0029				callf	sub_53			; (33C1)
2926:3398  28 62 65 65 6E 20			db	'(been tested and have proved to '
2926:339E  74 65 73 74 65 64
2926:33A4  20 61 6E 64 20 68
2926:33AA  61 76 65 20 70 72
2926:33B0  6F 76 65 64 20 74
2926:33B6  6F 20
2926:33B8  62 65 20 61 20 74			db	'be a true'
2926:33BE  72 75 65

				;ßßßß External Entry into Subroutine ßßßßßßßßßßßßßßßßßßßßßßßßßßßßßßßßßßßßßß
				;
				;         Called from:   2926:3394

2926:33C1			sub_53:
2926:33C1  B8 FFFF				mov	ax,0FFFFh
2926:33C4  50					push	ax
2926:33C5  B8 FFFF				mov	ax,0FFFFh
2926:33C8  50					push	ax
2926:33C9  E8 1F82				call	sub_122			; (534E)
2926:33CC  1E					push	ds
           ICON2.lst       ICON2.OVL		Sourcer	v8.01  20-Jul-2026 12:24 am   Page 89

2926:33CD  B8 82FD				mov	ax,82FDh
2926:33D0  50					push	ax
2926:33D1  E8 0929				call	sub_91			; (3CFD)
2926:33D4  0E E8 0027				callf	sub_54			; (33FF)
2926:33D8  26 69 6E 73 74 72			db	'&instrument of Odin, the god of '
2926:33DE  75 6D 65 6E 74 20
2926:33E4  6F 66 20 4F 64 69
2926:33EA  6E 2C 20 74 68 65
2926:33F0  20 67 6F 64 20 6F
2926:33F6  66 20
2926:33F8  6A 75 73 74 69 63			db	'justice'
2926:33FE  65

				;ßßßß External Entry into Subroutine ßßßßßßßßßßßßßßßßßßßßßßßßßßßßßßßßßßßßßß
				;
				;         Called from:   2926:33D4

2926:33FF			sub_54:
2926:33FF  B8 FFFF				mov	ax,0FFFFh
2926:3402  50					push	ax
2926:3403  B8 FFFF				mov	ax,0FFFFh
2926:3406  50					push	ax
2926:3407  E8 1F44				call	sub_122			; (534E)
2926:340A  E8 173C				call	sub_105			; (4B49)
2926:340D  1E					push	ds
2926:340E  B8 82FD				mov	ax,82FDh
2926:3411  50					push	ax
2926:3412  E8 08E8				call	sub_91			; (3CFD)
2926:3415  0E E8 0026				callf	sub_55			; (343F)
2926:3419  25 61 6E 64 20 6C			db	'%and law.  No single trait led t'
2926:341F  61 77 2E 20 20 4E
2926:3425  6F 20 73 69 6E 67
2926:342B  6C 65 20 74 72 61
2926:3431  69 74 20 6C 65 64
2926:3437  20 74
2926:3439  6F 20 79 6F 75 72			db	'o your'

				;ßßßß External Entry into Subroutine ßßßßßßßßßßßßßßßßßßßßßßßßßßßßßßßßßßßßßß
				;
				;         Called from:   2926:3415

2926:343F			sub_55:
2926:343F  B8 FFFF				mov	ax,0FFFFh
2926:3442  50					push	ax
2926:3443  B8 FFFF				mov	ax,0FFFFh
2926:3446  50					push	ax
2926:3447  E8 1F04				call	sub_122			; (534E)
2926:344A  E8 16FC				call	sub_105			; (4B49)
2926:344D  1E					push	ds
2926:344E  B8 82FD				mov	ax,82FDh
2926:3451  50					push	ax
2926:3452  E8 08A8				call	sub_91			; (3CFD)
2926:3455  0E E8 0029				callf	sub_56			; (3482)
2926:3459  28 74 72 69 75 6D			db	'(triumph.  You had to go through'
2926:345F  70 68 2E 20 20 59
2926:3465  6F 75 20 68 61 64
2926:346B  20 74 6F 20 67 6F
           ICON2.lst       ICON2.OVL		Sourcer	v8.01  20-Jul-2026 12:24 am   Page 90

2926:3471  20 74 68 72 6F 75
2926:3477  67 68
2926:3479  20 74 68 65 20 66			db	' the full'
2926:347F  75 6C 6C

				;ßßßß External Entry into Subroutine ßßßßßßßßßßßßßßßßßßßßßßßßßßßßßßßßßßßßßß
				;
				;         Called from:   2926:3455

2926:3482			sub_56:
2926:3482  B8 FFFF				mov	ax,0FFFFh
2926:3485  50					push	ax
2926:3486  B8 FFFF				mov	ax,0FFFFh
2926:3489  50					push	ax
2926:348A  E8 1EC1				call	sub_122			; (534E)
2926:348D  1E					push	ds
2926:348E  B8 82FD				mov	ax,82FDh
2926:3491  50					push	ax
2926:3492  E8 0868				call	sub_91			; (3CFD)
2926:3495  0E E8 0028				callf	sub_57			; (34C1)
2926:3499  27 63 69 72 63 6C			db	27h, 'circle of existence.  You h'
2926:349F  65 20 6F 66 20 65
2926:34A5  78 69 73 74 65 6E
2926:34AB  63 65 2E 20 20 59
2926:34B1  6F 75 20 68
2926:34B5  61 64 20 74 6F 20			db	'ad to become'
2926:34BB  62 65 63 6F 6D 65

				;ßßßß External Entry into Subroutine ßßßßßßßßßßßßßßßßßßßßßßßßßßßßßßßßßßßßßß
				;
				;         Called from:   2926:3495

2926:34C1			sub_57:
2926:34C1  B8 FFFF				mov	ax,0FFFFh
2926:34C4  50					push	ax
2926:34C5  B8 FFFF				mov	ax,0FFFFh
2926:34C8  50					push	ax
2926:34C9  E8 1E82				call	sub_122			; (534E)
2926:34CC  E8 167A				call	sub_105			; (4B49)
2926:34CF  1E					push	ds
2926:34D0  B8 82FD				mov	ax,82FDh
2926:34D3  50					push	ax
2926:34D4  E8 0826				call	sub_91			; (3CFD)
2926:34D7  0E E8 0024				callf	sub_58			; (34FF)
2926:34DB  23 61 20 20 6D 69			db	'#a  microcosm  of tragic  defeat'
2926:34E1  63 72 6F 63 6F 73
2926:34E7  6D 20 20 6F 66 20
2926:34ED  74 72 61 67 69 63
2926:34F3  20 20 64 65 66 65
2926:34F9  61 74
2926:34FB  20 61 6E 64				db	' and'

				;ßßßß External Entry into Subroutine ßßßßßßßßßßßßßßßßßßßßßßßßßßßßßßßßßßßßßß
				;
				;         Called from:   2926:34D7

2926:34FF			sub_58:
           ICON2.lst       ICON2.OVL		Sourcer	v8.01  20-Jul-2026 12:24 am   Page 91

2926:34FF  B8 FFFF				mov	ax,0FFFFh
2926:3502  50					push	ax
2926:3503  B8 FFFF				mov	ax,0FFFFh
2926:3506  50					push	ax
2926:3507  E8 1E44				call	sub_122			; (534E)
2926:350A  E8 163C				call	sub_105			; (4B49)
2926:350D  1E					push	ds
2926:350E  B8 82FD				mov	ax,82FDh
2926:3511  50					push	ax
2926:3512  E8 07E8				call	sub_91			; (3CFD)
2926:3515  0E E8 0027				callf	sub_59			; (3540)
2926:3519  26 74 72 69 75 6D			db	'&triumph, caution and  bravery, '
2926:351F  70 68 2C 20 63 61
2926:3525  75 74 69 6F 6E 20
2926:352B  61 6E 64 20 20 62
2926:3531  72 61 76 65 72 79
2926:3537  2C 20
2926:3539  70 61 73 73 69 6F			db	'passion'
2926:353F  6E

				;ßßßß External Entry into Subroutine ßßßßßßßßßßßßßßßßßßßßßßßßßßßßßßßßßßßßßß
				;
				;         Called from:   2926:3515

2926:3540			sub_59:
2926:3540  B8 FFFF				mov	ax,0FFFFh
2926:3543  50					push	ax
2926:3544  B8 FFFF				mov	ax,0FFFFh
2926:3547  50					push	ax
2926:3548  E8 1E03				call	sub_122			; (534E)
2926:354B  E8 15FB				call	sub_105			; (4B49)
2926:354E  1E					push	ds
2926:354F  B8 82FD				mov	ax,82FDh
2926:3552  50					push	ax
2926:3553  E8 07A7				call	sub_91			; (3CFD)
2926:3556  0E E8 0025				callf	sub_60			; (357F)
2926:355A  24					db	'$'
2926:355B  61 6E 64 20 20 74			db	'and  temperance.   And  finally,'
2926:3561  65 6D 70 65 72 61
2926:3567  6E 63 65 2E 20 20
2926:356D  20 41 6E 64 20 20
2926:3573  66 69 6E 61 6C 6C
2926:3579  79 2C
2926:357B  20 79 6F 75				db	' you'

				;ßßßß External Entry into Subroutine ßßßßßßßßßßßßßßßßßßßßßßßßßßßßßßßßßßßßßß
				;
				;         Called from:   2926:3556

2926:357F			sub_60:
2926:357F  B8 FFFF				mov	ax,0FFFFh
2926:3582  50					push	ax
2926:3583  B8 FFFF				mov	ax,0FFFFh
2926:3586  50					push	ax
2926:3587  E8 1DC4				call	sub_122			; (534E)
2926:358A  E8 15BC				call	sub_105			; (4B49)
2926:358D  1E					push	ds
           ICON2.lst       ICON2.OVL		Sourcer	v8.01  20-Jul-2026 12:24 am   Page 92

2926:358E  B8 82FD				mov	ax,82FDh
2926:3591  50					push	ax
2926:3592  E8 0768				call	sub_91			; (3CFD)
2926:3595  0E E8 0029				callf	sub_61			; (35C2)
2926:3599  28 6F 76 65 72 63			db	'(overcame a selfish concern with'
2926:359F  61 6D 65 20 61 20
2926:35A5  73 65 6C 66 69 73
2926:35AB  68 20 63 6F 6E 63
2926:35B1  65 72 6E 20 77 69
2926:35B7  74 68
2926:35B9  20 79 6F 75 72 20			db	' your own'
2926:35BF  6F 77 6E

				;ßßßß External Entry into Subroutine ßßßßßßßßßßßßßßßßßßßßßßßßßßßßßßßßßßßßßß
				;
				;         Called from:   2926:3595

2926:35C2			sub_61:
2926:35C2  B8 FFFF				mov	ax,0FFFFh
2926:35C5  50					push	ax
2926:35C6  B8 FFFF				mov	ax,0FFFFh
2926:35C9  50					push	ax
2926:35CA  E8 1D81				call	sub_122			; (534E)
2926:35CD  1E					push	ds
2926:35CE  B8 82FD				mov	ax,82FDh
2926:35D1  50					push	ax
2926:35D2  E8 0728				call	sub_91			; (3CFD)
2926:35D5  0E E8 0029				callf	sub_62			; (3602)
2926:35D9  28 61 64 76 61 6E			db	'(advancement and sacrificed your'
2926:35DF  63 65 6D 65 6E 74
2926:35E5  20 61 6E 64 20 73
2926:35EB  61 63 72 69 66 69
2926:35F1  63 65 64 20 79 6F
2926:35F7  75 72
2926:35F9  20 70 6F 77 65 72			db	' power to'
2926:35FF  20 74 6F

				;ßßßß External Entry into Subroutine ßßßßßßßßßßßßßßßßßßßßßßßßßßßßßßßßßßßßßß
				;
				;         Called from:   2926:35D5

2926:3602			sub_62:
2926:3602  B8 FFFF				mov	ax,0FFFFh
2926:3605  50					push	ax
2926:3606  B8 FFFF				mov	ax,0FFFFh
2926:3609  50					push	ax
2926:360A  E8 1D41				call	sub_122			; (534E)
2926:360D  1E					push	ds
2926:360E  B8 82FD				mov	ax,82FDh
2926:3611  50					push	ax
2926:3612  E8 06E8				call	sub_91			; (3CFD)
2926:3615  0E E8 0028				callf	sub_63			; (3641)
2926:3619  27 72 65 73 74 6F			db	27h, 'restore the natural balance'
2926:361F  72 65 20 74 68 65
2926:3625  20 6E 61 74 75 72
2926:362B  61 6C 20 62 61 6C
2926:3631  61 6E 63 65
           ICON2.lst       ICON2.OVL		Sourcer	v8.01  20-Jul-2026 12:24 am   Page 93

2926:3635  20 74 68 61 74 20			db	' that exists'
2926:363B  65 78 69 73 74 73

				;ßßßß External Entry into Subroutine ßßßßßßßßßßßßßßßßßßßßßßßßßßßßßßßßßßßßßß
				;
				;         Called from:   2926:3615

2926:3641			sub_63:
2926:3641  B8 FFFF				mov	ax,0FFFFh
2926:3644  50					push	ax
2926:3645  B8 FFFF				mov	ax,0FFFFh
2926:3648  50					push	ax
2926:3649  E8 1D02				call	sub_122			; (534E)
2926:364C  E8 14FA				call	sub_105			; (4B49)
2926:364F  1E					push	ds
2926:3650  B8 82FD				mov	ax,82FDh
2926:3653  50					push	ax
2926:3654  E8 06A6				call	sub_91			; (3CFD)
2926:3657  0E E8 0014				callf	sub_64			; (366F)
2926:365B  13 62 65				adc	sp,[bp+si+65h]
2926:365E  74 77				jz	loc_203			; Jump if zero
2926:3660  65 65 6E 20 61 6C			db	'een all things.'
2926:3666  6C 20 74 68 69 6E
2926:366C  67 73 2E

				;ßßßß External Entry into Subroutine ßßßßßßßßßßßßßßßßßßßßßßßßßßßßßßßßßßßßßß
				;
				;         Called from:   2926:3657

2926:366F			sub_64:
2926:366F  B8 FFFF				mov	ax,0FFFFh
2926:3672  50					push	ax
2926:3673  B8 FFFF				mov	ax,0FFFFh
2926:3676  50					push	ax
2926:3677  E8 1CD4				call	sub_122			; (534E)
2926:367A  E8 14CC				call	sub_105			; (4B49)
2926:367D  8B E5				mov	sp,bp
2926:367F  5D					pop	bp
2926:3680  C3					retn
2926:3681			loc_202:					;  xref 2926:3236
2926:3681  55					push	bp
2926:3682  8B EC				mov	bp,sp
2926:3684  55					push	bp
2926:3685  81 EC 002D				sub	sp,2Dh
2926:3689  B8 B800				mov	ax,0B800h
2926:368C  50					push	ax
2926:368D  B8 0000				mov	ax,0
2926:3690  50					push	ax
2926:3691  B8 00A0				mov	ax,0A0h
2926:3694  50					push	ax
2926:3695  B8 1F20				mov	ax,1F20h
2926:3698  50					push	ax
2926:3699  E8 D8F3				call	sub_29			; (0F8F)
2926:369C  B8 0001				mov	ax,1
2926:369F  50					push	ax
2926:36A0  B8 000F				mov	ax,0Fh
2926:36A3  50					push	ax
           ICON2.lst       ICON2.OVL		Sourcer	v8.01  20-Jul-2026 12:24 am   Page 94

2926:36A4  E8 DBF1				call	sub_34			; (1298)
2926:36A7  B8 0000				mov	ax,0
2926:36AA  50					push	ax
2926:36AB  B8 0000				mov	ax,0
2926:36AE  50					push	ax
2926:36AF  E8 E09A				call	sub_39			; (174C)
2926:36B2  E8 FB84				call	sub_47			; (3239)
2926:36B5  8B E5				mov	sp,bp
2926:36B7  5D					pop	bp
2926:36B8  C2 0002				retn	2

				;ßßßß External Entry into Subroutine ßßßßßßßßßßßßßßßßßßßßßßßßßßßßßßßßßßßßßß
				;
				;         Called from:   2926:0000

2926:36BB			sub_65:
2926:36BB  8C C8				mov	ax,cs
2926:36BD  2E: 03 06 0003			add	ax,word ptr cs:[3]	; (2926:0003=0C80h)
2926:36C2  2E: 03 06 0005			add	ax,word ptr cs:[5]	; (2926:0005=8B0h)
2926:36C7  2E: 03 06 0007			add	ax,word ptr cs:[7]	; (2926:0007=90h)
2926:36CC  2E: 03 06 0009			add	ax,word ptr cs:[9]	; (2926:0009=0)
2926:36D1  3B 06 0002				cmp	ax,ds:data_22e		; (2916:0002=0)
2926:36D5  76 21				jbe	loc_204			; Jump if below or =
2926:36D7			loc_203:					;  xref 2926:365E
2926:36D7  1E					push	ds
2926:36D8  E8 0010		;*		call	sub_66			;*(36EB)
2926:36D8  E8 10 00				db	0E8h, 10h, 00h
2926:36DB  4F					dec	di
2926:36DC  55					push	bp
2926:36DD  54					push	sp
2926:36DE  20 4F 46				and	[bx+46h],cl
2926:36E1  20 4D 45				and	[di+45h],cl
2926:36E4  4D					dec	bp
2926:36E5  4F					dec	di
2926:36E6  52					push	dx
2926:36E7  59					pop	cx
2926:36E8  0A 0D				or	cl,[di]
2926:36EA  24 8C				and	al,8Ch
2926:36EC  C8 8E D8 5A B4 09			db	0C8h, 8Eh,0D8h, 5Ah,0B4h, 09h
2926:36F2  CD 21 33 C0 50 CB			db	0CDh, 21h, 33h,0C0h, 50h,0CBh
2926:36F8			loc_204:					;  xref 2926:36D5
2926:36F8  8C C8				mov	ax,cs
2926:36FA  2E: 03 06 0003			add	ax,word ptr cs:[3]	; (2926:0003=0C80h)
2926:36FF  8E C0				mov	es,ax
2926:3701 úBF 0000				mov	di,data_218e		; (35A6:0000=0)
2926:3704  8B F7				mov	si,di
2926:3706  FC					cld				; Clear direction
2926:3707  B9 0100				mov	cx,100h
2926:370A  F3/ A4				rep	movsb			; Rep when cx >0 Mov [si] to es:[di]
2926:370C  26: 8C 1E 0040			mov	es:data_226e,ds		; (35A6:0040=2916h)
2926:3711  8E D8				mov	ds,ax
2926:3713  8C 1E 0009				mov	ds:data_220e,ds		; (35A6:0009=35A6h)
2926:3717  2E: 03 06 0005			add	ax,word ptr cs:[5]	; (2926:0005=8B0h)
2926:371C  A3 000F				mov	ds:data_223e,ax		; (35A6:000F=0)
2926:371F  2E: 03 06 0009			add	ax,word ptr cs:[9]	; (2926:0009=0)
2926:3724  A3 0015				mov	ds:data_225e,ax		; (35A6:0015=0)
2926:3727  B9 0004				mov	cx,4
           ICON2.lst       ICON2.OVL		Sourcer	v8.01  20-Jul-2026 12:24 am   Page 95

2926:372A  2E: 8B 1E 0007			mov	bx,word ptr cs:[7]	; (2926:0007=90h)
2926:372F  D3 E3				shl	bx,cl			; Shift w/zeros fill
2926:3731  89 1E 0012				mov	ds:data_224e,bx		; (35A6:0012=0)
2926:3735  9C					pushf				; Push flags
2926:3736  5A					pop	dx
2926:3737  FA					cli				; Disable interrupts
2926:3738  8E D0				mov	ss,ax
2926:373A  8B E3				mov	sp,bx
2926:373C  FB					sti				; Enable interrupts
2926:373D  52					push	dx
2926:373E  9D					popf				; Pop flags
2926:373F  2E: A1 0005				mov	ax,word ptr cs:[5]	; (2926:0005=8B0h)
2926:3743  B1 04				mov	cl,4
2926:3745  D3 E0				shl	ax,cl			; Shift w/zeros fill
2926:3747  A3 0006				mov	ds:data_219e,ax		; (35A6:0006=0)
2926:374A  2E: A1 0009				mov	ax,word ptr cs:[9]	; (2926:0009=0)
2926:374E  8B D8				mov	bx,ax
2926:3750  B1 04				mov	cl,4
2926:3752  D3 E0				shl	ax,cl			; Shift w/zeros fill
2926:3754  A3 000C				mov	ds:data_221e,ax		; (35A6:000C=0)
2926:3757  8B C3				mov	ax,bx
2926:3759  B1 0C				mov	cl,0Ch
2926:375B  D3 E8				shr	ax,cl			; Shift w/zeros fill
2926:375D  A2 000E				mov	ds:data_222e,al		; (35A6:000E=0)
2926:3760  8C C8				mov	ax,cs
2926:3762  05 0008				add	ax,8
2926:3765  50					push	ax
2926:3766  33 C0				xor	ax,ax			; Zero register
2926:3768  50					push	ax
2926:3769  CB					retf				; Return far
				sub_47		endp


				;ßßßßßßßßßßßßßßßßßßßßßßßßßßßßßßßßßßßßßßßßßßßßßßßßßßßßßßßßßßßßßßßßßßßßßßßßßß
				;                              SUBROUTINE
				;
				;         Called from:   2926:3832
				;ÜÜÜÜÜÜÜÜÜÜÜÜÜÜÜÜÜÜÜÜÜÜÜÜÜÜÜÜÜÜÜÜÜÜÜÜÜÜÜÜÜÜÜÜÜÜÜÜÜÜÜÜÜÜÜÜÜÜÜÜÜÜÜÜÜÜÜÜÜÜÜÜÜÜ

2926:376A			sub_67		proc	near
2926:376A  8C C8				mov	ax,cs
2926:376C  8E C0				mov	es,ax
2926:376E úBF 000C				mov	di,offset data_49	; (2926:000C=0)
2926:3771  26: 8B 05				mov	ax,es:[di]
2926:3774  26: 8B 5D 02				mov	bx,es:[di+2]
2926:3778  3B C3				cmp	ax,bx
2926:377A  74 10				je	loc_ret_206		; Jump if equal
2926:377C  8B FB				mov	di,bx
2926:377E  B9 0010				mov	cx,10h

2926:3781			locloop_205:					;  xref 2926:378A
2926:3781  26: 8B 35				mov	si,es:[di]
2926:3784  26: C6 04 00				mov	byte ptr es:[si],0
2926:3788  47					inc	di
2926:3789  47					inc	di
2926:378A  E2 F5				loop	locloop_205		; Loop if cx > 0

           ICON2.lst       ICON2.OVL		Sourcer	v8.01  20-Jul-2026 12:24 am   Page 96


2926:378C			loc_ret_206:					;  xref 2926:377A
2926:378C  C3					retn
				sub_67		endp

2926:378D  E9 00 00				db	0E9h, 00h, 00h

				;ßßßßßßßßßßßßßßßßßßßßßßßßßßßßßßßßßßßßßßßßßßßßßßßßßßßßßßßßßßßßßßßßßßßßßßßßßß
				;                              SUBROUTINE
				;
				;         Called from:   2926:08B6, 0906, 0B2A, 0DDF, 0DF9, 0E22
				;ÜÜÜÜÜÜÜÜÜÜÜÜÜÜÜÜÜÜÜÜÜÜÜÜÜÜÜÜÜÜÜÜÜÜÜÜÜÜÜÜÜÜÜÜÜÜÜÜÜÜÜÜÜÜÜÜÜÜÜÜÜÜÜÜÜÜÜÜÜÜÜÜÜÜ

2926:3790			sub_68		proc	near
2926:3790  E9 0000				jmp	loc_207			; (3793)
2926:3793			loc_207:					;  xref 2926:3790
2926:3793  55					push	bp
2926:3794  8B EC				mov	bp,sp
2926:3796  55					push	bp
2926:3797  81 EC 000C				sub	sp,0Ch
2926:379B  C7 06 83B3 0000			mov	word ptr ds:data_206e,0	; (2926:83B3=0)
2926:37A1  C4 7E 08				les	di,dword ptr [bp+8]	; Load seg:offset ptr
2926:37A4  06					push	es
2926:37A5  57					push	di
2926:37A6  58					pop	ax
2926:37A7  A3 83AF				mov	ds:data_204e,ax		; (2926:83AF=0)
2926:37AA  58					pop	ax
2926:37AB  A3 83B1				mov	word ptr ds:data_204e+2,ax	; (2926:83B1=0)
2926:37AE  C4 7E 08				les	di,dword ptr [bp+8]	; Load seg:offset ptr
2926:37B1  83 C7 2A				add	di,2Ah
2926:37B4  26: 8B 05				mov	ax,es:[di]
2926:37B7  50					push	ax
2926:37B8  C4 7E 08				les	di,dword ptr [bp+8]	; Load seg:offset ptr
2926:37BB  83 C7 28				add	di,28h
2926:37BE  26: 8B 05				mov	ax,es:[di]
2926:37C1  5B					pop	bx
2926:37C2  3B D8				cmp	bx,ax
2926:37C4  74 03				je	loc_208			; Jump if equal
2926:37C6  E9 000E				jmp	loc_209			; (37D7)
2926:37C9			loc_208:					;  xref 2926:37C4
2926:37C9  E8 053D				call	sub_95			; (3D09)
2926:37CC  C4 7E 08				les	di,dword ptr [bp+8]	; Load seg:offset ptr
2926:37CF  83 C7 2A				add	di,2Ah
2926:37D2  26: C7 05 0000			mov	word ptr es:[di],0
2926:37D7			loc_209:					;  xref 2926:37C6
2926:37D7  C4 7E 08				les	di,dword ptr [bp+8]	; Load seg:offset ptr
2926:37DA  83 C7 38				add	di,38h
2926:37DD  06					push	es
2926:37DE  57					push	di
2926:37DF  C4 7E 08				les	di,dword ptr [bp+8]	; Load seg:offset ptr
2926:37E2  83 C7 2A				add	di,2Ah
2926:37E5  26: 8B 05				mov	ax,es:[di]
2926:37E8  5B					pop	bx
2926:37E9  03 C3				add	ax,bx
2926:37EB  97					xchg	di,ax
2926:37EC  8A 46 04				mov	al,[bp+4]
2926:37EF  07					pop	es
           ICON2.lst       ICON2.OVL		Sourcer	v8.01  20-Jul-2026 12:24 am   Page 97

2926:37F0  26: 88 05				mov	es:[di],al
2926:37F3  C4 7E 08				les	di,dword ptr [bp+8]	; Load seg:offset ptr
2926:37F6  83 C7 2A				add	di,2Ah
2926:37F9  06					push	es
2926:37FA  57					push	di
2926:37FB  C4 7E 08				les	di,dword ptr [bp+8]	; Load seg:offset ptr
2926:37FE  83 C7 2A				add	di,2Ah
2926:3801  26: 8B 05				mov	ax,es:[di]
2926:3804  40					inc	ax
2926:3805  5F					pop	di
2926:3806  07					pop	es
2926:3807  26: 89 05				mov	es:[di],ax
2926:380A  E8 150C				call	sub_109			; (4D19)
2926:380D  3D 0000				cmp	ax,0
2926:3810  B8 0000				mov	ax,0
2926:3813  74 01				jz	loc_210			; Jump if zero
2926:3815  40					inc	ax
2926:3816			loc_210:					;  xref 2926:3813
2926:3816  88 46 F4				mov	[bp-0Ch],al
2926:3819  8A 46 F4				mov	al,[bp-0Ch]
2926:381C  32 E4				xor	ah,ah			; Zero register
2926:381E  8B E5				mov	sp,bp
2926:3820  5D					pop	bp
2926:3821  C2 0008				retn	8
				sub_68		endp

2926:3824  E9 00 00				db	0E9h, 00h, 00h

				;ßßßßßßßßßßßßßßßßßßßßßßßßßßßßßßßßßßßßßßßßßßßßßßßßßßßßßßßßßßßßßßßßßßßßßßßßßß
				;                              SUBROUTINE
				;
				;         Called from:   2926:0E37
				;ÜÜÜÜÜÜÜÜÜÜÜÜÜÜÜÜÜÜÜÜÜÜÜÜÜÜÜÜÜÜÜÜÜÜÜÜÜÜÜÜÜÜÜÜÜÜÜÜÜÜÜÜÜÜÜÜÜÜÜÜÜÜÜÜÜÜÜÜÜÜÜÜÜÜ

2926:3827			sub_69		proc	near
2926:3827  E9 0000				jmp	loc_211			; (382A)
2926:382A			loc_211:					;  xref 2926:3827
2926:382A  55					push	bp
2926:382B  8B EC				mov	bp,sp
2926:382D  55					push	bp
2926:382E  81 EC 0002				sub	sp,2
2926:3832  E8 FF35				call	sub_67			; (376A)
2926:3835  1E					push	ds
2926:3836  B8 8B57				mov	ax,8B57h
2926:3839  A3 8383				mov	ds:data_182e,ax		; (2926:8383=0)
2926:383C  58					pop	ax
2926:383D  A3 8385				mov	word ptr ds:data_182e+2,ax	; (2926:8385=0)
2926:3840  E8 219D				call	sub_150			; (59E0)
2926:3843  A3 838D				mov	word ptr ds:data_186e+2,ax	; (2926:838D=0)
2926:3846  E8 2197				call	sub_150			; (59E0)
2926:3849  A3 8391				mov	word ptr ds:data_188e+2,ax	; (2926:8391=0)
2926:384C  C7 06 838B 000F			mov	word ptr ds:data_186e,0Fh	; (2926:838B=0)
2926:3852  C7 06 838F 000C			mov	word ptr ds:data_188e,0Ch	; (2926:838F=0)
2926:3858  B8 0000				mov	ax,0
2926:385B  50					push	ax
2926:385C  B8 0001				mov	ax,1
2926:385F  A3 8397				mov	ds:data_192e,ax		; (2926:8397=0)
           ICON2.lst       ICON2.OVL		Sourcer	v8.01  20-Jul-2026 12:24 am   Page 98

2926:3862  58					pop	ax
2926:3863  A3 8399				mov	ds:data_193e,ax		; (2926:8399=0)
2926:3866  B8 0000				mov	ax,0
2926:3869  50					push	ax
2926:386A  B8 0000				mov	ax,0
2926:386D  A3 839B				mov	ds:data_194e,ax		; (2926:839B=0)
2926:3870  58					pop	ax
2926:3871  A3 839D				mov	ds:data_195e,ax		; (2926:839D=0)
2926:3874  C4 3E 838B				les	di,dword ptr ds:data_186e	; (2926:838B=0) Load seg:offset ptr
2926:3878  06					push	es
2926:3879  57					push	di
2926:387A  1E					push	ds
2926:387B  B8 83AD				mov	ax,83ADh
2926:387E ú50					push	ax
2926:387F  B8 0002				mov	ax,2
2926:3882  50					push	ax
2926:3883  E8 1D98				call	sub_133			; (561E)
2926:3886  C7 06 83AB 0000			mov	word ptr ds:data_202e,0	; (2926:83AB=0)
2926:388C  A1 83AD				mov	ax,ds:data_203e		; (2926:83AD=0)
2926:388F  50					push	ax
2926:3890  A1 83AB				mov	ax,ds:data_202e		; (2926:83AB=0)
2926:3893  A3 8393				mov	ds:data_190e,ax		; (2926:8393=0)
2926:3896  58					pop	ax
2926:3897  A3 8395				mov	word ptr ds:data_190e+2,ax	; (2926:8395=0)
2926:389A  C4 3E 8393				les	di,dword ptr ds:data_190e	; (2926:8393=0) Load seg:offset ptr
2926:389E  83 C7 04				add	di,4
2926:38A1  06					push	es
2926:38A2  57					push	di
2926:38A3  1E					push	ds
2926:38A4  B8 8393				mov	ax,8393h
2926:38A7  50					push	ax
2926:38A8  E8 211F				call	sub_148			; (59CA)
2926:38AB  C4 3E 8393				les	di,dword ptr ds:data_190e	; (2926:8393=0) Load seg:offset ptr
2926:38AF  06					push	es
2926:38B0  57					push	di
2926:38B1  1E					push	ds
2926:38B2  B8 839F				mov	ax,839Fh
2926:38B5  50					push	ax
2926:38B6  E8 2111				call	sub_148			; (59CA)
2926:38B9  C4 3E 8393				les	di,dword ptr ds:data_190e	; (2926:8393=0) Load seg:offset ptr
2926:38BD  83 C7 08				add	di,8
2926:38C0  06					push	es
2926:38C1  57					push	di
2926:38C2  B8 0000				mov	ax,0
2926:38C5  50					push	ax
2926:38C6  B8 0000				mov	ax,0
2926:38C9  50					push	ax
2926:38CA  E8 20FD				call	sub_148			; (59CA)
2926:38CD  C4 3E 838F				les	di,dword ptr ds:data_188e	; (2926:838F=0) Load seg:offset ptr
2926:38D1  06					push	es
2926:38D2  57					push	di
2926:38D3  C4 3E 8393				les	di,dword ptr ds:data_190e	; (2926:8393=0) Load seg:offset ptr
2926:38D7  83 C7 08				add	di,8
2926:38DA  06					push	es
2926:38DB ú57					push	di
2926:38DC  B8 0003				mov	ax,3
2926:38DF  50					push	ax
           ICON2.lst       ICON2.OVL		Sourcer	v8.01  20-Jul-2026 12:24 am   Page 99

2926:38E0  E8 1D3B				call	sub_133			; (561E)
2926:38E3  B8 0000				mov	ax,0
2926:38E6  50					push	ax
2926:38E7  B8 0001				mov	ax,1
2926:38EA  A3 839F				mov	ds:data_196e,ax		; (2926:839F=0)
2926:38ED  58					pop	ax
2926:38EE  A3 83A1				mov	ds:data_197e,ax		; (2926:83A1=0)
2926:38F1  B8 0000				mov	ax,0
2926:38F4  50					push	ax
2926:38F5  B8 0000				mov	ax,0
2926:38F8  A3 83A7				mov	ds:data_200e,ax		; (2926:83A7=0)
2926:38FB  58					pop	ax
2926:38FC  A3 83A9				mov	ds:data_201e,ax		; (2926:83A9=0)
2926:38FF  A1 83AD				mov	ax,ds:data_203e		; (2926:83AD=0)
2926:3902  50					push	ax
2926:3903  A1 83AB				mov	ax,ds:data_202e		; (2926:83AB=0)
2926:3906  A3 83A3				mov	ds:data_198e,ax		; (2926:83A3=0)
2926:3909  58					pop	ax
2926:390A  A3 83A5				mov	ds:data_199e,ax		; (2926:83A5=0)
2926:390D  1E					push	ds
2926:390E  B8 8393				mov	ax,8393h
2926:3911  A3 82F9				mov	ds:data_180e,ax		; (2926:82F9=0)
2926:3914  58					pop	ax
2926:3915  A3 82FB				mov	ds:data_181e,ax		; (2926:82FB=0)
2926:3918  1E					push	ds
2926:3919  B8 837F				mov	ax,837Fh
2926:391C  50					push	ax
2926:391D  0E E8 0003		;*		callf	sub_70			;*(3924)
2926:391D  0E E8 03 00				db	 0Eh,0E8h, 03h, 00h
2926:3921  02 30				add	dh,[bx+si]
2926:3923  30 B8 0002				xor	byte ptr ds:[2][bx+si],bh	; (2926:0002=36h)
2926:3927  50					push	ax
2926:3928  E8 0068				call	sub_73			; (3993)
2926:392B  0E					push	cs
2926:392C  B8 12A5				mov	ax,12A5h
2926:392F  93					xchg	bx,ax
2926:3930  B8 38AF				mov	ax,38AFh
2926:3933  03 C3				add	ax,bx
2926:3935  A3 8383				mov	ds:data_182e,ax		; (2926:8383=0)
2926:3938  58					pop	ax
2926:3939  A3 8385				mov	word ptr ds:data_182e+2,ax	; (2926:8385=0)
2926:393C  0E					push	cs
2926:393D  B8 1B61				mov	ax,1B61h
2926:3940  93					xchg	bx,ax
2926:3941  B8 38C0				mov	ax,38C0h
2926:3944  03 C3				add	ax,bx
2926:3946  A3 8387				mov	ds:data_184e,ax		; (2926:8387=0)
2926:3949  58					pop	ax
2926:394A  A3 8389				mov	word ptr ds:data_184e+2,ax	; (2926:8389=0)
2926:394D  1E					push	ds
2926:394E  B8 833E				mov	ax,833Eh
2926:3951  50					push	ax
2926:3952  B8 0001				mov	ax,1
2926:3955  50					push	ax
2926:3956  0E E8 0005		;*		callf	sub_71			;*(395F)
2926:3956  0E E8 05 00				db	 0Eh,0E8h, 05h, 00h
2926:395A  04 43				add	al,43h			; 'C'
           ICON2.lst       ICON2.OVL		Sourcer	v8.01  20-Jul-2026 12:24 am   Page 100

2926:395C  4F					dec	di
2926:395D  4E					dec	si
2926:395E  3A E8				cmp	ch,al
2926:3960  98					cbw				; Convrt byte to word
2926:3961  1E					push	ds
2926:3962  1E					push	ds
2926:3963  B8 833E				mov	ax,833Eh
2926:3966 ú50					push	ax
2926:3967  B8 FFFF				mov	ax,0FFFFh
2926:396A  50					push	ax
2926:396B  E8 005E				call	sub_74			; (39CC)
2926:396E  1E					push	ds
2926:396F  B8 82FD				mov	ax,82FDh
2926:3972  50					push	ax
2926:3973  B8 0001				mov	ax,1
2926:3976  50					push	ax
2926:3977  0E E8 0005		;*		callf	sub_72			;*(3980)
2926:3977  0E E8 05 00				db	 0Eh,0E8h, 05h, 00h
2926:397B  04 43				add	al,43h			; 'C'
2926:397D  4F					dec	di
2926:397E  4E					dec	si
2926:397F  3A E8				cmp	ch,al
2926:3981  77 1E				ja	loc_212			; Jump if above
2926:3983  1E					push	ds
2926:3984  B8 82FD				mov	ax,82FDh
2926:3987 ú50					push	ax
2926:3988  B8 FFFF				mov	ax,0FFFFh
2926:398B  50					push	ax
2926:398C  E8 1403				call	sub_111			; (4D92)
2926:398F  8B E5				mov	sp,bp
2926:3991  5D					pop	bp
2926:3992  C3					retn

				;ßßßß External Entry into Subroutine ßßßßßßßßßßßßßßßßßßßßßßßßßßßßßßßßßßßßßß
				;
				;         Called from:   2926:01BE, 022D, 0497, 05A3, 05CB, 077D, 08D2
				;                             3928, 4DC6, 4F96, 4FA7, 4FFE, 5075, 5567
				;                             574B, 5823

2926:3993			sub_73:
2926:3993  FC					cld				; Clear direction
2926:3994  55					push	bp
2926:3995  8B EC				mov	bp,sp
2926:3997  83 C5 04				add	bp,4
2926:399A  1E					push	ds
2926:399B  8B 4E 00				mov	cx,[bp]
2926:399E  C4 7E 06				les	di,dword ptr [bp+6]	; Load seg:offset ptr
2926:39A1			loc_212:					;  xref 2926:3981
2926:39A1  C5 76 02				lds	si,dword ptr [bp+2]	; Load seg:offset ptr
2926:39A4  8C D8				mov	ax,ds
2926:39A6  3D FFFF				cmp	ax,0FFFFh
2926:39A9  74 15				je	loc_215			; Jump if equal
2926:39AB  8A 04				mov	al,[si]
2926:39AD  32 E4				xor	ah,ah			; Zero register
2926:39AF  3B C1				cmp	ax,cx
2926:39B1  7E 02				jle	loc_213			; Jump if < or =
2926:39B3  8B C1				mov	ax,cx
           ICON2.lst       ICON2.OVL		Sourcer	v8.01  20-Jul-2026 12:24 am   Page 101

2926:39B5			loc_213:					;  xref 2926:39B1
2926:39B5  AA					stosb				; Store al to es:[di]
2926:39B6  46					inc	si
2926:39B7  8B C8				mov	cx,ax
2926:39B9  F3/ A4				rep	movsb			; Rep when cx >0 Mov [si] to es:[di]
2926:39BB			loc_214:					;  xref 2926:39C6
2926:39BB ú1F					pop	ds
2926:39BC  5D					pop	bp
2926:39BD  C2 000A				retn	0Ah
2926:39C0			loc_215:					;  xref 2926:39A9
2926:39C0  B0 01				mov	al,1
2926:39C2  AA					stosb				; Store al to es:[di]
2926:39C3  8B C6				mov	ax,si
2926:39C5  AA					stosb				; Store al to es:[di]
2926:39C6  E9 FFF2				jmp	loc_214			; (39BB)
						nop	                                        ;*jump fixup
				sub_69		endp

2926:39C9  E9 0000				jmp	loc_216			; (39CC)

				;ßßßßßßßßßßßßßßßßßßßßßßßßßßßßßßßßßßßßßßßßßßßßßßßßßßßßßßßßßßßßßßßßßßßßßßßßßß
				;                              SUBROUTINE
				;
				;         Called from:   2926:396B
				;ÜÜÜÜÜÜÜÜÜÜÜÜÜÜÜÜÜÜÜÜÜÜÜÜÜÜÜÜÜÜÜÜÜÜÜÜÜÜÜÜÜÜÜÜÜÜÜÜÜÜÜÜÜÜÜÜÜÜÜÜÜÜÜÜÜÜÜÜÜÜÜÜÜÜ

2926:39CC			sub_74		proc	near
2926:39CC			loc_216:					;  xref 2926:39C9
2926:39CC  E9 0000				jmp	loc_217			; (39CF)
2926:39CF			loc_217:					;  xref 2926:39CC
2926:39CF  55					push	bp
2926:39D0  8B EC				mov	bp,sp
2926:39D2  55					push	bp
2926:39D3  81 EC 003D				sub	sp,3Dh
2926:39D7  16					push	ss
2926:39D8  8D 46 C3				lea	ax,[bp-3Dh]		; Load effective addr
2926:39DB  50					push	ax
2926:39DC  C4 7E 06				les	di,dword ptr [bp+6]	; Load seg:offset ptr
2926:39DF  06					push	es
2926:39E0 ú57					push	di			; PARAMETER_2
2926:39E1  B8 0039				mov	ax,39h
2926:39E4  50					push	ax			; PARAMETER_1
2926:39E5  E8 1C1E				call	sub_132			; (5606)
2926:39E8  82 7E E9 01				cmp	byte ptr [bp-17h],1
2926:39EC  74 03				je	loc_218			; Jump if equal
2926:39EE  E9 00B4				jmp	loc_220			; (3AA5)
2926:39F1			loc_218:					;  xref 2926:39EC
2926:39F1  C4 7E 06				les	di,dword ptr [bp+6]	; Load seg:offset ptr
2926:39F4  06					push	es
2926:39F5 ú57					push	di
2926:39F6  FF 76 04				push	word ptr [bp+4]
2926:39F9  16					push	ss
2926:39FA  8D 46 FC				lea	ax,[bp-4]		; Load effective addr
2926:39FD  50					push	ax
2926:39FE  E8 01AA				call	sub_78			; (3BAB)
2926:3A01  16					push	ss
2926:3A02  8D 46 C3				lea	ax,[bp-3Dh]		; Load effective addr
           ICON2.lst       ICON2.OVL		Sourcer	v8.01  20-Jul-2026 12:24 am   Page 102

2926:3A05  50					push	ax
2926:3A06  C4 7E 06				les	di,dword ptr [bp+6]	; Load seg:offset ptr
2926:3A09  06					push	es
2926:3A0A ú57					push	di			; PARAMETER_2
2926:3A0B  B8 0039				mov	ax,39h
2926:3A0E  50					push	ax			; PARAMETER_1
2926:3A0F  E8 1BF4				call	sub_132			; (5606)
2926:3A12  81 7E FC 00FF			cmp	word ptr [bp-4],0FFh
2926:3A17  74 03				je	loc_219			; Jump if equal
2926:3A19  E9 0089				jmp	loc_220			; (3AA5)
2926:3A1C			loc_219:					;  xref 2926:3A17
2926:3A1C  1E					push	ds
2926:3A1D  B8 82FD				mov	ax,82FDh
2926:3A20  50					push	ax
2926:3A21  E8 02D9				call	sub_91			; (3CFD)
2926:3A24  E8 1122				call	sub_105			; (4B49)
2926:3A27  1E					push	ds
2926:3A28  B8 82FD				mov	ax,82FDh
2926:3A2B  50					push	ax
2926:3A2C  E8 02CE				call	sub_91			; (3CFD)
2926:3A2F  0E E8 000E				callf	sub_75			; (3A41)
2926:3A33  0D 6143				or	ax,6143h
2926:3A36  6E 27 74 20 63 6C			db	'n', 27h, 't close: '
2926:3A3C  6F 73 65 3A 20

				;ßßßß External Entry into Subroutine ßßßßßßßßßßßßßßßßßßßßßßßßßßßßßßßßßßßßßß
				;
				;         Called from:   2926:3A2F

2926:3A41			sub_75:
2926:3A41  B8 FFFF				mov	ax,0FFFFh
2926:3A44  50					push	ax
2926:3A45  B8 FFFF				mov	ax,0FFFFh
2926:3A48  50					push	ax
2926:3A49  E8 1902				call	sub_122			; (534E)
2926:3A4C  16					push	ss
2926:3A4D  8D 46 C3				lea	ax,[bp-3Dh]		; Load effective addr
2926:3A50 ú50					push	ax
2926:3A51  B8 FFFF				mov	ax,0FFFFh
2926:3A54  50					push	ax
2926:3A55  B8 FFFF				mov	ax,0FFFFh
2926:3A58  50					push	ax
2926:3A59  E8 18F2				call	sub_122			; (534E)
2926:3A5C  0E E8 000A				callf	sub_76			; (3A6A)
2926:3A60  09 20				or	[bx+si],sp
2926:3A62  69 6E 20 52 45 53			db	'in RESET'
2926:3A68  45 54

				;ßßßß External Entry into Subroutine ßßßßßßßßßßßßßßßßßßßßßßßßßßßßßßßßßßßßßß
				;
				;         Called from:   2926:3A5C

2926:3A6A			sub_76:
2926:3A6A  B8 FFFF				mov	ax,0FFFFh
2926:3A6D  50					push	ax
2926:3A6E  B8 FFFF				mov	ax,0FFFFh
2926:3A71  50					push	ax
           ICON2.lst       ICON2.OVL		Sourcer	v8.01  20-Jul-2026 12:24 am   Page 103

2926:3A72  E8 18D9				call	sub_122			; (534E)
2926:3A75  E8 10D1				call	sub_105			; (4B49)
2926:3A78  1E					push	ds
2926:3A79  B8 82FD				mov	ax,82FDh
2926:3A7C  50					push	ax
2926:3A7D  E8 027D				call	sub_91			; (3CFD)
2926:3A80  0E E8 0010				callf	sub_77			; (3A94)
2926:3A84  0F			;*		pop	cs			; Dangerous-8088 only
2926:3A84  0F					db	0Fh
2926:3A85  50					push	ax
2926:3A86  72 6F		;*		jc	loc_224			;*Jump if carry Set
2926:3A86  72 6F				db	 72h, 6Fh
2926:3A88  67 72 61 6D 20 61			db	'gram aborted'
2926:3A8E  62 6F 72 74 65 64

				;ßßßß External Entry into Subroutine ßßßßßßßßßßßßßßßßßßßßßßßßßßßßßßßßßßßßßß
				;
				;         Called from:   2926:3A80

2926:3A94			sub_77:
2926:3A94  B8 FFFF				mov	ax,0FFFFh
2926:3A97  50					push	ax
2926:3A98  B8 FFFF				mov	ax,0FFFFh
2926:3A9B  50					push	ax
2926:3A9C  E8 18AF				call	sub_122			; (534E)
2926:3A9F  E8 10A7				call	sub_105			; (4B49)
2926:3AA2  E8 1D34				call	sub_142			; (57D9)
2926:3AA5			loc_220:					;  xref 2926:39EE, 3A19
2926:3AA5  C6 46 E9 00				mov	byte ptr [bp-17h],0
2926:3AA9  81 7E 04 FFFF			cmp	word ptr [bp+4],0FFFFh
2926:3AAE  74 03				je	loc_221			; Jump if equal
2926:3AB0  E9 000C				jmp	loc_222			; (3ABF)
2926:3AB3			loc_221:					;  xref 2926:3AAE
2926:3AB3  C7 46 04 0001			mov	word ptr [bp+4],1
2926:3AB8  C6 46 F7 01				mov	byte ptr [bp-9],1
2926:3ABC  E9 0004				jmp	loc_223			; (3AC3)
2926:3ABF			loc_222:					;  xref 2926:3AB0
2926:3ABF  C6 46 F7 00				mov	byte ptr [bp-9],0
2926:3AC3			loc_223:					;  xref 2926:3ABC
2926:3AC3  C6 46 F1 00				mov	byte ptr [bp-0Fh],0
2926:3AC7  C6 46 F2 00				mov	byte ptr [bp-0Eh],0
2926:3ACB  C4 7E 06				les	di,dword ptr [bp+6]	; Load seg:offset ptr
2926:3ACE  06					push	es
2926:3ACF  57					push	di
2926:3AD0  58					pop	ax
2926:3AD1  A3 83AF				mov	ds:data_204e,ax		; (2926:83AF=0)
2926:3AD4  58					pop	ax
2926:3AD5  A3 83B1				mov	word ptr ds:data_204e+2,ax	; (2926:83B1=0)
2926:3AD8  C6 46 E9 02				mov	byte ptr [bp-17h],2
2926:3ADC  8B 46 04				mov	ax,[bp+4]
2926:3ADF  89 46 EF				mov	[bp-11h],ax
2926:3AE2  8B 46 04				mov	ax,[bp+4]
2926:3AE5  89 46 EB				mov	[bp-15h],ax
2926:3AE8  C4 7E 06				les	di,dword ptr [bp+6]	; Load seg:offset ptr
2926:3AEB  83 C7 38				add	di,38h
2926:3AEE  06					push	es
2926:3AEF  57					push	di
           ICON2.lst       ICON2.OVL		Sourcer	v8.01  20-Jul-2026 12:24 am   Page 104

2926:3AF0  58					pop	ax
2926:3AF1  89 46 F3				mov	[bp-0Dh],ax
2926:3AF4  58					pop	ax
2926:3AF5  89 46 F5				mov	[bp-0Bh],ax
2926:3AF8  16					push	ss
2926:3AF9  8D 46 C3				lea	ax,[bp-3Dh]		; Load effective addr
2926:3AFC  50					push	ax
2926:3AFD  B8 0002				mov	ax,2
2926:3B00  50					push	ax
2926:3B01  E8 01ED				call	sub_87			; (3CF1)
2926:3B04  89 46 F9				mov	[bp-7],ax
2926:3B07  81 7E F9 FFFF			cmp	word ptr [bp-7],0FFFFh
2926:3B0C  75 03				jne	loc_225			; Jump if not equal
2926:3B0E  E9 0078				jmp	loc_232			; (3B89)
2926:3B11			loc_225:					;  xref 2926:3B0C
2926:3B11  C7 06 83B3 0000			mov	word ptr ds:data_206e,0	; (2926:83B3=0)
2926:3B17  C6 46 F1 00				mov	byte ptr [bp-0Fh],0
2926:3B1B  C6 46 F2 00				mov	byte ptr [bp-0Eh],0
2926:3B1F  8B 46 04				mov	ax,[bp+4]
2926:3B22  89 46 EB				mov	[bp-15h],ax
2926:3B25  C7 46 ED 0000			mov	word ptr [bp-13h],0
2926:3B2A  C4 7E 06				les	di,dword ptr [bp+6]	; Load seg:offset ptr
2926:3B2D  06					push	es
2926:3B2E  57					push	di
2926:3B2F  16					push	ss
2926:3B30  8D 46 C3				lea	ax,[bp-3Dh]		; Load effective addr
2926:3B33 ú50					push	ax			; PARAMETER_2
2926:3B34  B8 0039				mov	ax,39h
2926:3B37  50					push	ax			; PARAMETER_1
2926:3B38  E8 1ACB				call	sub_132			; (5606)
2926:3B3B  81 7E 04 0000			cmp	word ptr [bp+4],0
2926:3B40  75 03				jne	loc_226			; Jump if not equal
2926:3B42  E9 0041				jmp	loc_231			; (3B86)
2926:3B45			loc_226:					;  xref 2926:3B40
2926:3B45  82 7E E9 04				cmp	byte ptr [bp-17h],4
2926:3B49  74 03				je	loc_227			; Jump if equal
2926:3B4B  E9 0015				jmp	loc_228			; (3B63)
2926:3B4E			loc_227:					;  xref 2926:3B49
2926:3B4E  C4 7E 06				les	di,dword ptr [bp+6]	; Load seg:offset ptr
2926:3B51  83 C7 38				add	di,38h
2926:3B54  06					push	es
2926:3B55  57					push	di
2926:3B56  58					pop	ax
2926:3B57  05 0000				add	ax,0
2926:3B5A  97					xchg	di,ax
2926:3B5B  07					pop	es
2926:3B5C  26: C6 05 20				mov	byte ptr es:[di],20h	; ' '
2926:3B60  E9 003F				jmp	loc_233			; (3BA2)
2926:3B63			loc_228:					;  xref 2926:3B4B
2926:3B63  F6 46 F7 01				test	byte ptr [bp-9],1
2926:3B67  75 03				jnz	loc_229			; Jump if not zero
2926:3B69  E9 0017				jmp	loc_230			; (3B83)
2926:3B6C			loc_229:					;  xref 2926:3B67
2926:3B6C  C4 3E 83AF				les	di,dword ptr ds:data_204e	; (2926:83AF=0) Load seg:offset ptr
2926:3B70  06					push	es
2926:3B71 ú57					push	di
2926:3B72  C4 3E 83AF				les	di,dword ptr ds:data_204e	; (2926:83AF=0) Load seg:offset ptr
           ICON2.lst       ICON2.OVL		Sourcer	v8.01  20-Jul-2026 12:24 am   Page 105

2926:3B76  83 C7 28				add	di,28h
2926:3B79  26: 8B 05				mov	ax,es:[di]
2926:3B7C  50					push	ax
2926:3B7D  E8 1054				call	sub_107			; (4BD4)
2926:3B80  E9 0003				jmp	loc_231			; (3B86)
2926:3B83			loc_230:					;  xref 2926:3B69
2926:3B83  E8 0180				call	sub_94			; (3D06)
2926:3B86			loc_231:					;  xref 2926:3B42, 3B80
2926:3B86  E9 0019				jmp	loc_233			; (3BA2)
2926:3B89			loc_232:					;  xref 2926:3B0E
2926:3B89  C6 46 F1 01				mov	byte ptr [bp-0Fh],1
2926:3B8D  C6 46 FA 01				mov	byte ptr [bp-6],1
2926:3B91  C4 7E 06				les	di,dword ptr [bp+6]	; Load seg:offset ptr
2926:3B94  06					push	es
2926:3B95  57					push	di
2926:3B96  16					push	ss
2926:3B97  8D 46 C3				lea	ax,[bp-3Dh]		; Load effective addr
2926:3B9A ú50					push	ax			; PARAMETER_2
2926:3B9B  B8 0039				mov	ax,39h
2926:3B9E  50					push	ax			; PARAMETER_1
2926:3B9F  E8 1A64				call	sub_132			; (5606)
2926:3BA2			loc_233:					;  xref 2926:3B60, 3B86
2926:3BA2  8B E5				mov	sp,bp
2926:3BA4  5D					pop	bp
2926:3BA5  C2 0006				retn	6
				sub_74		endp

2926:3BA8  E9 00 00				db	0E9h, 00h, 00h

				;ßßßßßßßßßßßßßßßßßßßßßßßßßßßßßßßßßßßßßßßßßßßßßßßßßßßßßßßßßßßßßßßßßßßßßßßßßß
				;                              SUBROUTINE
				;
				;         Called from:   2926:084B, 0D10, 0E4D, 39FE
				;ÜÜÜÜÜÜÜÜÜÜÜÜÜÜÜÜÜÜÜÜÜÜÜÜÜÜÜÜÜÜÜÜÜÜÜÜÜÜÜÜÜÜÜÜÜÜÜÜÜÜÜÜÜÜÜÜÜÜÜÜÜÜÜÜÜÜÜÜÜÜÜÜÜÜ

2926:3BAB			sub_78		proc	near
2926:3BAB  E9 0003				jmp	loc_234			; (3BB1)
2926:3BAE  E9 00DE				jmp	loc_243			; (3C8F)
2926:3BB1			loc_234:					;  xref 2926:3BAB
2926:3BB1  55					push	bp
2926:3BB2  8B EC				mov	bp,sp
2926:3BB4  55					push	bp
2926:3BB5  81 EC 0002				sub	sp,2
2926:3BB9  C4 7E 0A				les	di,dword ptr [bp+0Ah]	; Load seg:offset ptr
2926:3BBC  06					push	es
2926:3BBD  57					push	di
2926:3BBE  58					pop	ax
2926:3BBF  A3 83AF				mov	ds:data_204e,ax		; (2926:83AF=0)
2926:3BC2  58					pop	ax
2926:3BC3  A3 83B1				mov	word ptr ds:data_204e+2,ax	; (2926:83B1=0)
2926:3BC6  C4 7E 0A				les	di,dword ptr [bp+0Ah]	; Load seg:offset ptr
2926:3BC9  83 C7 26				add	di,26h
2926:3BCC  26: 8A 05				mov	al,es:[di]
2926:3BCF  3C 00				cmp	al,0
2926:3BD1  75 03				jne	loc_235			; Jump if not equal
2926:3BD3  E9 00A1				jmp	loc_241			; (3C77)
2926:3BD6			loc_235:					;  xref 2926:3BD1
           ICON2.lst       ICON2.OVL		Sourcer	v8.01  20-Jul-2026 12:24 am   Page 106

2926:3BD6  C4 7E 0A				les	di,dword ptr [bp+0Ah]	; Load seg:offset ptr
2926:3BD9  83 C7 26				add	di,26h
2926:3BDC  26: 8A 05				mov	al,es:[di]
2926:3BDF  3C 01				cmp	al,1
2926:3BE1  74 03				je	loc_236			; Jump if equal
2926:3BE3  E9 003E				jmp	loc_239			; (3C24)
2926:3BE6			loc_236:					;  xref 2926:3BE1
2926:3BE6  C4 7E 0A				les	di,dword ptr [bp+0Ah]	; Load seg:offset ptr
2926:3BE9  83 C7 2A				add	di,2Ah
2926:3BEC  26: 8B 05				mov	ax,es:[di]
2926:3BEF  3D 0000				cmp	ax,0
2926:3BF2  75 03				jne	loc_237			; Jump if not equal
2926:3BF4  E9 0019				jmp	loc_238			; (3C10)
2926:3BF7			loc_237:					;  xref 2926:3BF2
2926:3BF7  C4 7E 0A				les	di,dword ptr [bp+0Ah]	; Load seg:offset ptr
2926:3BFA  83 C7 2C				add	di,2Ch
2926:3BFD  06					push	es
2926:3BFE  57					push	di
2926:3BFF  C4 7E 0A				les	di,dword ptr [bp+0Ah]	; Load seg:offset ptr
2926:3C02  83 C7 2A				add	di,2Ah
2926:3C05  26: 8B 05				mov	ax,es:[di]
2926:3C08  5F					pop	di
2926:3C09  07					pop	es
2926:3C0A  26: 89 05				mov	es:[di],ax
2926:3C0D  E8 00F9				call	sub_95			; (3D09)
2926:3C10			loc_238:					;  xref 2926:3BF4
2926:3C10  C4 7E 0A				les	di,dword ptr [bp+0Ah]	; Load seg:offset ptr
2926:3C13  83 C7 36				add	di,36h
2926:3C16  26: 8B 05				mov	ax,es:[di]
2926:3C19  50					push	ax
2926:3C1A  B8 0000				mov	ax,0
2926:3C1D  50					push	ax
2926:3C1E  E8 00D9				call	sub_90			; (3CFA)
2926:3C21  E9 0042				jmp	loc_240			; (3C66)
2926:3C24			loc_239:					;  xref 2926:3BE3
2926:3C24  C4 7E 0A				les	di,dword ptr [bp+0Ah]	; Load seg:offset ptr
2926:3C27  83 C7 36				add	di,36h
2926:3C2A  26: 8B 05				mov	ax,es:[di]
2926:3C2D  50					push	ax
2926:3C2E  C4 7E 0A				les	di,dword ptr [bp+0Ah]	; Load seg:offset ptr
2926:3C31  83 C7 26				add	di,26h
2926:3C34  26: 8A 05				mov	al,es:[di]
2926:3C37  32 E4				xor	ah,ah			; Zero register
2926:3C39  50					push	ax
2926:3C3A  B8 0002				mov	ax,2
2926:3C3D  50					push	ax
2926:3C3E  E8 1AC0				call	sub_140			; (5701)
2926:3C41  B8 0004				mov	ax,4
2926:3C44  50					push	ax
2926:3C45  E8 1AB9				call	sub_140			; (5701)
2926:3C48  E8 199A				call	sub_131			; (55E5)
2926:3C4B  B8 0005				mov	ax,5
2926:3C4E  50					push	ax
2926:3C4F  E8 1AAF				call	sub_140			; (5701)
2926:3C52  E8 1990				call	sub_131			; (55E5)
2926:3C55  B8 0006				mov	ax,6
2926:3C58  50					push	ax
           ICON2.lst       ICON2.OVL		Sourcer	v8.01  20-Jul-2026 12:24 am   Page 107

2926:3C59  E8 1AA5				call	sub_140			; (5701)
2926:3C5C  E8 1986				call	sub_131			; (55E5)
2926:3C5F  E8 144A				call	sub_118			; (50AC)
2926:3C62  50					push	ax
2926:3C63  E8 0094				call	sub_90			; (3CFA)
2926:3C66			loc_240:					;  xref 2926:3C21
2926:3C66  C7 06 83B3 0000			mov	word ptr ds:data_206e,0	; (2926:83B3=0)
2926:3C6C  C4 7E 04				les	di,dword ptr [bp+4]	; Load seg:offset ptr
2926:3C6F  26: C7 05 0000			mov	word ptr es:[di],0
2926:3C74  E9 0008				jmp	loc_242			; (3C7F)
2926:3C77			loc_241:					;  xref 2926:3BD3
2926:3C77  C4 7E 04				les	di,dword ptr [bp+4]	; Load seg:offset ptr
2926:3C7A  26: C7 05 0000			mov	word ptr es:[di],0
2926:3C7F			loc_242:					;  xref 2926:3C74
2926:3C7F  C4 7E 0A				les	di,dword ptr [bp+0Ah]	; Load seg:offset ptr
2926:3C82  83 C7 26				add	di,26h
2926:3C85  26: C6 05 00				mov	byte ptr es:[di],0
2926:3C89  8B E5				mov	sp,bp
2926:3C8B  5D					pop	bp
2926:3C8C  C2 000A				retn	0Ah
2926:3C8F			loc_243:					;  xref 2926:3BAE
2926:3C8F  55					push	bp
2926:3C90  8B EC				mov	bp,sp
2926:3C92  55					push	bp
2926:3C93  81 EC 0002				sub	sp,2
2926:3C97  C4 7E 0A				les	di,dword ptr [bp+0Ah]	; Load seg:offset ptr
2926:3C9A  83 C7 26				add	di,26h
2926:3C9D  26: 8A 05				mov	al,es:[di]
2926:3CA0  3C 03				cmp	al,3
2926:3CA2  7F 03				jg	loc_244			; Jump if >
2926:3CA4  E9 0003				jmp	loc_245			; (3CAA)
2926:3CA7			loc_244:					;  xref 2926:3CA2
2926:3CA7  E9 0023				jmp	loc_246			; (3CCD)
2926:3CAA			loc_245:					;  xref 2926:3CA4
2926:3CAA  C4 7E 0A				les	di,dword ptr [bp+0Ah]	; Load seg:offset ptr
2926:3CAD  06					push	es
2926:3CAE ú57					push	di
2926:3CAF  FF 76 08				push	word ptr [bp+8]
2926:3CB2  E8 1045				call	sub_108			; (4CFA)
2926:3CB5  C7 06 83B3 0000			mov	word ptr ds:data_206e,0	; (2926:83B3=0)
2926:3CBB  C4 7E 04				les	di,dword ptr [bp+4]	; Load seg:offset ptr
2926:3CBE  26: C7 05 0000			mov	word ptr es:[di],0
2926:3CC3  C4 7E 0A				les	di,dword ptr [bp+0Ah]	; Load seg:offset ptr
2926:3CC6  83 C7 26				add	di,26h
2926:3CC9  26: C6 05 00				mov	byte ptr es:[di],0
2926:3CCD			loc_246:					;  xref 2926:3CA7
2926:3CCD  8B E5				mov	sp,bp
2926:3CCF  5D					pop	bp
2926:3CD0  C2 000A				retn	0Ah
				sub_78		endp

2926:3CD3  E9 00 00				db	0E9h, 00h, 00h

				;ßßßßßßßßßßßßßßßßßßßßßßßßßßßßßßßßßßßßßßßßßßßßßßßßßßßßßßßßßßßßßßßßßßßßßßßßßß
				;                              SUBROUTINE
				;
				;         Called from:   2926:4300, 4426
           ICON2.lst       ICON2.OVL		Sourcer	v8.01  20-Jul-2026 12:24 am   Page 108

				;ÜÜÜÜÜÜÜÜÜÜÜÜÜÜÜÜÜÜÜÜÜÜÜÜÜÜÜÜÜÜÜÜÜÜÜÜÜÜÜÜÜÜÜÜÜÜÜÜÜÜÜÜÜÜÜÜÜÜÜÜÜÜÜÜÜÜÜÜÜÜÜÜÜÜ

2926:3CD6			sub_79		proc	near
2926:3CD6  E9 0036				jmp	loc_247			; (3D0F)

				;ßßßß External Entry into Subroutine ßßßßßßßßßßßßßßßßßßßßßßßßßßßßßßßßßßßßßß
				;
				;         Called from:   2926:436C, 43D3, 4492, 4515, 45CB, 46BE

2926:3CD9			sub_80:
2926:3CD9  E9 00D3				jmp	loc_255			; (3DAF)

				;ßßßß External Entry into Subroutine ßßßßßßßßßßßßßßßßßßßßßßßßßßßßßßßßßßßßßß
				;
				;         Called from:   2926:469C, 47A1

2926:3CDC			sub_81:
2926:3CDC  E9 00F4				jmp	loc_256			; (3DD3)

				;ßßßß External Entry into Subroutine ßßßßßßßßßßßßßßßßßßßßßßßßßßßßßßßßßßßßßß
				;
				;         Called from:   2926:471B

2926:3CDF			sub_82:
2926:3CDF  E9 0139				jmp	loc_257			; (3E1B)

				;ßßßß External Entry into Subroutine ßßßßßßßßßßßßßßßßßßßßßßßßßßßßßßßßßßßßßß
				;
				;         Called from:   2926:4377, 449D

2926:3CE2			sub_83:
2926:3CE2  E9 0196				jmp	loc_260			; (3E7B)

				;ßßßß External Entry into Subroutine ßßßßßßßßßßßßßßßßßßßßßßßßßßßßßßßßßßßßßß
				;
				;         Called from:   2926:4352, 4478

2926:3CE5			sub_84:
2926:3CE5  E9 0275				jmp	loc_267			; (3F5D)

				;ßßßß External Entry into Subroutine ßßßßßßßßßßßßßßßßßßßßßßßßßßßßßßßßßßßßßß
				;
				;         Called from:   2926:4121, 41B9, 4264

2926:3CE8			sub_85:
2926:3CE8  E9 0322				jmp	loc_278			; (400D)

				;ßßßß External Entry into Subroutine ßßßßßßßßßßßßßßßßßßßßßßßßßßßßßßßßßßßßßß
				;
				;         Called from:   2926:434A, 4470

2926:3CEB			sub_86:
2926:3CEB  E9 036F				jmp	loc_283			; (405D)
2926:3CEE  E9 05EB				jmp	loc_307			; (42DC)

				;ßßßß External Entry into Subroutine ßßßßßßßßßßßßßßßßßßßßßßßßßßßßßßßßßßßßßß
				;
           ICON2.lst       ICON2.OVL				Sourcer	v8.01  20-Jul-2026 12:24 am   Page 109

				;         Called from:   2926:3B01, 456E

2926:3CF1			sub_87:
2926:3CF1  E9 0604				jmp	loc_308			; (42F8)

				;ßßßß External Entry into Subroutine ßßßßßßßßßßßßßßßßßßßßßßßßßßßßßßßßßßßßßß
				;
				;         Called from:   2926:4F25

2926:3CF4			sub_88:
2926:3CF4  E9 0727				jmp	loc_319			; (441E)

				;ßßßß External Entry into Subroutine ßßßßßßßßßßßßßßßßßßßßßßßßßßßßßßßßßßßßßß
				;
				;         Called from:   2926:4D0A

2926:3CF7			sub_89:
2926:3CF7  E9 084A				jmp	loc_329			; (4544)

				;ßßßß External Entry into Subroutine ßßßßßßßßßßßßßßßßßßßßßßßßßßßßßßßßßßßßßß
				;
				;         Called from:   2926:3C1E, 3C63

2926:3CFA			sub_90:
2926:3CFA  E9 08DA				jmp	loc_336			; (45D7)

				;ßßßß External Entry into Subroutine ßßßßßßßßßßßßßßßßßßßßßßßßßßßßßßßßßßßßßß
				;
				;         Called from:   2926:01CC, 01F1, 03C8, 03D3, 03DE, 0454, 049F
				;                             055D, 05D8, 05EB, 061B, 0639, 0654, 0739
				;                             07CB, 07D6, 0853, 085E, 0D23, 0EC5, 0F39
				;                             324E, 328D, 32CE, 3310, 3351, 3391, 33D1
				;                             3412, 3452, 3492, 34D4, 3512, 3553, 3592
				;                             35D2, 3612, 3654, 3A21, 3A2C, 3A7D, 3D7B

2926:3CFD			sub_91:
2926:3CFD  E9 09C7				jmp	loc_344			; (46C7)

				;ßßßß External Entry into Subroutine ßßßßßßßßßßßßßßßßßßßßßßßßßßßßßßßßßßßßßß
				;
				;         Called from:   2926:499B

2926:3D00			sub_92:
2926:3D00  E9 09E0				jmp	loc_345			; (46E3)

				;ßßßß External Entry into Subroutine ßßßßßßßßßßßßßßßßßßßßßßßßßßßßßßßßßßßßßß
				;
				;         Called from:   2926:4B08

2926:3D03			sub_93:
2926:3D03  E9 0A68				jmp	loc_348			; (476E)

				;ßßßß External Entry into Subroutine ßßßßßßßßßßßßßßßßßßßßßßßßßßßßßßßßßßßßßß
				;
				;         Called from:   2926:3B83, 4C12, 4CBB

2926:3D06			sub_94:
           ICON2.lst       ICON2.OVL		Sourcer	v8.01  20-Jul-2026 12:24 am   Page 110

2926:3D06  E9 0ADF				jmp	loc_351			; (47E8)

				;ßßßß External Entry into Subroutine ßßßßßßßßßßßßßßßßßßßßßßßßßßßßßßßßßßßßßß
				;
				;         Called from:   2926:37C9, 3C0D, 54B9

2926:3D09			sub_95:
2926:3D09  E9 0CC5				jmp	loc_372			; (49D1)
2926:3D0C  E9 0E0E				jmp	loc_385			; (4B1D)
2926:3D0F			loc_247:					;  xref 2926:3CD6
2926:3D0F  55					push	bp
2926:3D10  8B EC				mov	bp,sp
2926:3D12  55					push	bp
2926:3D13  81 EC 000E				sub	sp,0Eh
2926:3D17  C7 46 F2 0000			mov	word ptr [bp-0Eh],0
2926:3D1C			loc_248:					;  xref 2926:3D6F
2926:3D1C ú81 7E F2 000A			cmp	word ptr [bp-0Eh],0Ah
2926:3D21  7E 03				jle	loc_249			; Jump if < or =
2926:3D23  E9 004B				jmp	loc_253			; (3D71)
2926:3D26			loc_249:					;  xref 2926:3D21
2926:3D26  1E					push	ds
2926:3D27  B8 83B5				mov	ax,83B5h
2926:3D2A  50					push	ax
2926:3D2B  8B 46 F2				mov	ax,[bp-0Eh]
2926:3D2E  BB 00A9				mov	bx,0A9h
2926:3D31  F7 E3				mul	bx			; dx:ax = reg * ax
2926:3D33  5B					pop	bx
2926:3D34  03 C3				add	ax,bx
2926:3D36  97					xchg	di,ax
2926:3D37  07					pop	es
2926:3D38  26: 8A 05				mov	al,es:[di]
2926:3D3B  32 E4				xor	ah,ah			; Zero register
2926:3D3D  F7 D0				not	ax
2926:3D3F  D0 D8				rcr	al,1			; Rotate thru carry
2926:3D41  72 03				jc	loc_250			; Jump if carry Set
2926:3D43  E9 0022				jmp	loc_251			; (3D68)
2926:3D46			loc_250:					;  xref 2926:3D41
2926:3D46  8B 46 F2				mov	ax,[bp-0Eh]
2926:3D49  89 46 F4				mov	[bp-0Ch],ax
2926:3D4C  1E					push	ds
2926:3D4D  B8 83B5				mov	ax,83B5h
2926:3D50  50					push	ax
2926:3D51  8B 46 F2				mov	ax,[bp-0Eh]
2926:3D54  BB 00A9				mov	bx,0A9h
2926:3D57  F7 E3				mul	bx			; dx:ax = reg * ax
2926:3D59  5B					pop	bx
2926:3D5A  03 C3				add	ax,bx
2926:3D5C  97					xchg	di,ax
2926:3D5D  07					pop	es
2926:3D5E  26: C6 05 01				mov	byte ptr es:[di],1
2926:3D62  E9 0043				jmp	loc_254			; (3DA8)
2926:3D65  E9 0007				jmp	loc_252			; (3D6F)
2926:3D68			loc_251:					;  xref 2926:3D43
2926:3D68  8B 46 F2				mov	ax,[bp-0Eh]
2926:3D6B  40					inc	ax
2926:3D6C  89 46 F2				mov	[bp-0Eh],ax
2926:3D6F			loc_252:					;  xref 2926:3D65
           ICON2.lst       ICON2.OVL		Sourcer	v8.01  20-Jul-2026 12:24 am   Page 111

2926:3D6F  EB AB				jmp	short loc_248		; (3D1C)
2926:3D71			loc_253:					;  xref 2926:3D23
2926:3D71  C7 46 F2 FFFF			mov	word ptr [bp-0Eh],0FFFFh
2926:3D76  1E					push	ds
2926:3D77  B8 82FD				mov	ax,82FDh
2926:3D7A  50					push	ax
2926:3D7B  E8 FF7F				call	sub_91			; (3CFD)
2926:3D7E  0E E8 0015				callf	sub_96			; (3D97)
2926:3D82  14 46				adc	al,46h			; 'F'
2926:3D84  43					inc	bx
2926:3D85  42					inc	dx
2926:3D86  20 54 61				and	[si+61h],dl
2926:3D89  62 6C 65 20 45 78			db	'ble Exhausted!'
2926:3D8F  68 61 75 73 74 65
2926:3D95  64 21

				;ßßßß External Entry into Subroutine ßßßßßßßßßßßßßßßßßßßßßßßßßßßßßßßßßßßßßß
				;
				;         Called from:   2926:3D7E

2926:3D97			sub_96:
2926:3D97  B8 FFFF				mov	ax,0FFFFh
2926:3D9A  50					push	ax
2926:3D9B  B8 FFFF				mov	ax,0FFFFh
2926:3D9E  50					push	ax
2926:3D9F  E8 15AC				call	sub_122			; (534E)
2926:3DA2  E8 0DA4				call	sub_105			; (4B49)
2926:3DA5  E8 1A31				call	sub_142			; (57D9)
2926:3DA8			loc_254:					;  xref 2926:3D62
2926:3DA8  8B 46 F4				mov	ax,[bp-0Ch]
2926:3DAB  8B E5				mov	sp,bp
2926:3DAD  5D					pop	bp
2926:3DAE  C3					retn
2926:3DAF			loc_255:					;  xref 2926:3CD9
2926:3DAF  55					push	bp
2926:3DB0  8B EC				mov	bp,sp
2926:3DB2  55					push	bp
2926:3DB3  81 EC 0002				sub	sp,2
2926:3DB7  1E					push	ds
2926:3DB8  B8 83B5				mov	ax,83B5h
2926:3DBB  50					push	ax
2926:3DBC  8B 46 04				mov	ax,[bp+4]
2926:3DBF  BB 00A9				mov	bx,0A9h
2926:3DC2  F7 E3				mul	bx			; dx:ax = reg * ax
2926:3DC4  5B					pop	bx
2926:3DC5  03 C3				add	ax,bx
2926:3DC7  97					xchg	di,ax
2926:3DC8  07					pop	es
2926:3DC9  26: C6 05 00				mov	byte ptr es:[di],0
2926:3DCD  8B E5				mov	sp,bp
2926:3DCF  5D					pop	bp
2926:3DD0  C2 0002				retn	2
2926:3DD3			loc_256:					;  xref 2926:3CDC
2926:3DD3  55					push	bp
2926:3DD4  8B EC				mov	bp,sp
2926:3DD6  55					push	bp
2926:3DD7  81 EC 0002				sub	sp,2
           ICON2.lst       ICON2.OVL		Sourcer	v8.01  20-Jul-2026 12:24 am   Page 112

2926:3DDB  B8 001A				mov	ax,1Ah
2926:3DDE  50					push	ax
2926:3DDF  1E					push	ds
2926:3DE0  B8 83B5				mov	ax,83B5h
2926:3DE3  50					push	ax
2926:3DE4  8B 46 04				mov	ax,[bp+4]
2926:3DE7  BB 00A9				mov	bx,0A9h
2926:3DEA  F7 E3				mul	bx			; dx:ax = reg * ax
2926:3DEC  5B					pop	bx
2926:3DED  03 C3				add	ax,bx
2926:3DEF  05 0028				add	ax,28h
2926:3DF2  50					push	ax
2926:3DF3  E8 1BED				call	sub_151			; (59E3)
2926:3DF6  A3 83B3				mov	ds:data_206e,ax		; (2926:83B3=0)
2926:3DF9  B8 0015				mov	ax,15h
2926:3DFC  50					push	ax
2926:3DFD  1E					push	ds
2926:3DFE  B8 83B5				mov	ax,83B5h
2926:3E01  50					push	ax
2926:3E02  8B 46 04				mov	ax,[bp+4]
2926:3E05  BB 00A9				mov	bx,0A9h
2926:3E08  F7 E3				mul	bx			; dx:ax = reg * ax
2926:3E0A  5B					pop	bx
2926:3E0B  03 C3				add	ax,bx
2926:3E0D  40					inc	ax
2926:3E0E  50					push	ax
2926:3E0F  E8 1BD1				call	sub_151			; (59E3)
2926:3E12  A3 83B3				mov	ds:data_206e,ax		; (2926:83B3=0)
2926:3E15  8B E5				mov	sp,bp
2926:3E17  5D					pop	bp
2926:3E18  C2 0002				retn	2
2926:3E1B			loc_257:					;  xref 2926:3CDF
2926:3E1B  55					push	bp
2926:3E1C  8B EC				mov	bp,sp
2926:3E1E  55					push	bp
2926:3E1F  81 EC 000C				sub	sp,0Ch
2926:3E23  C6 46 F4 01				mov	byte ptr [bp-0Ch],1
2926:3E27  B8 001A				mov	ax,1Ah
2926:3E2A  50					push	ax
2926:3E2B  1E					push	ds
2926:3E2C  B8 83B5				mov	ax,83B5h
2926:3E2F  50					push	ax
2926:3E30  8B 46 04				mov	ax,[bp+4]
2926:3E33  BB 00A9				mov	bx,0A9h
2926:3E36  F7 E3				mul	bx			; dx:ax = reg * ax
2926:3E38  5B					pop	bx
2926:3E39  03 C3				add	ax,bx
2926:3E3B  05 0028				add	ax,28h
2926:3E3E  50					push	ax
2926:3E3F  E8 1BA1				call	sub_151			; (59E3)
2926:3E42  A3 83B3				mov	ds:data_206e,ax		; (2926:83B3=0)
2926:3E45  B8 0014				mov	ax,14h
2926:3E48  50					push	ax
2926:3E49  1E					push	ds
2926:3E4A  B8 83B5				mov	ax,83B5h
2926:3E4D  50					push	ax
2926:3E4E  8B 46 04				mov	ax,[bp+4]
           ICON2.lst       ICON2.OVL		Sourcer	v8.01  20-Jul-2026 12:24 am   Page 113

2926:3E51  BB 00A9				mov	bx,0A9h
2926:3E54  F7 E3				mul	bx			; dx:ax = reg * ax
2926:3E56  5B					pop	bx
2926:3E57  03 C3				add	ax,bx
2926:3E59  40					inc	ax
2926:3E5A  50					push	ax
2926:3E5B  E8 1B85				call	sub_151			; (59E3)
2926:3E5E  A3 83B3				mov	ds:data_206e,ax		; (2926:83B3=0)
2926:3E61  81 3E 83B3 0000			cmp	word ptr ds:data_206e,0	; (2926:83B3=0)
2926:3E67  75 03				jne	loc_258			; Jump if not equal
2926:3E69  E9 0004				jmp	loc_259			; (3E70)
2926:3E6C			loc_258:					;  xref 2926:3E67
2926:3E6C  C6 46 F4 00				mov	byte ptr [bp-0Ch],0
2926:3E70			loc_259:					;  xref 2926:3E69
2926:3E70  8A 46 F4				mov	al,[bp-0Ch]
2926:3E73  32 E4				xor	ah,ah			; Zero register
2926:3E75  8B E5				mov	sp,bp
2926:3E77  5D					pop	bp
2926:3E78  C2 0002				retn	2
2926:3E7B			loc_260:					;  xref 2926:3CE2
2926:3E7B  55					push	bp
2926:3E7C  8B EC				mov	bp,sp
2926:3E7E  55					push	bp
2926:3E7F  81 EC 000C				sub	sp,0Ch
2926:3E83  C6 46 F4 00				mov	byte ptr [bp-0Ch],0
2926:3E87  C4 7E 04				les	di,dword ptr [bp+4]	; Load seg:offset ptr
2926:3E8A  06					push	es
2926:3E8B  57					push	di
2926:3E8C  0E E8 0005		;*		callf	sub_97			;*(3E95)
2926:3E8C  0E E8 05 00				db	 0Eh,0E8h, 05h, 00h
2926:3E90  04 43				add	al,43h			; 'C'
2926:3E92  4F					dec	di
2926:3E93  4E					dec	si
2926:3E94  3A E8				cmp	ch,al
2926:3E96  6D 12 D0 D8 72 03			db	 6Dh, 12h,0D0h,0D8h, 72h, 03h
2926:3E9C  E9 11 00 C4 7E 04			db	0E9h, 11h, 00h,0C4h, 7Eh, 04h
2926:3EA2  83 C7 26 26 C6 05			db	 83h,0C7h, 26h, 26h,0C6h, 05h
2926:3EA8  04 C6 46 F4 01 E9			db	 04h,0C6h, 46h,0F4h, 01h,0E9h
2926:3EAE  A2 00 C4 7E 04 06			db	0A2h, 00h,0C4h, 7Eh, 04h, 06h
2926:3EB4  57 0E E8 05 00 04			db	 57h, 0Eh,0E8h, 05h, 00h, 04h
2926:3EBA  4C 53 54 3A				db	 4Ch, 53h, 54h, 3Ah

				;ßßßß External Entry into Subroutine ßßßßßßßßßßßßßßßßßßßßßßßßßßßßßßßßßßßßßß

2926:3EBE			sub_98:
2926:3EBE  E8 1244				call	sub_121			; (5105)
2926:3EC1  D0 D8				rcr	al,1			; Rotate thru carry
2926:3EC3  72 03				jc	loc_261			; Jump if carry Set
2926:3EC5  E9 0011				jmp	loc_262			; (3ED9)
2926:3EC8			loc_261:					;  xref 2926:3EC3
2926:3EC8  C4 7E 04				les	di,dword ptr [bp+4]	; Load seg:offset ptr
2926:3ECB  83 C7 26				add	di,26h
2926:3ECE  26: C6 05 06				mov	byte ptr es:[di],6
2926:3ED2  C6 46 F4 01				mov	byte ptr [bp-0Ch],1
2926:3ED6  E9 0079				jmp	loc_266			; (3F52)
2926:3ED9			loc_262:					;  xref 2926:3EC5
2926:3ED9  C4 7E 04				les	di,dword ptr [bp+4]	; Load seg:offset ptr
           ICON2.lst       ICON2.OVL		Sourcer	v8.01  20-Jul-2026 12:24 am   Page 114

2926:3EDC  06					push	es
2926:3EDD  57					push	di
2926:3EDE  0E E8 0005		;*		callf	sub_99			;*(3EE7)
2926:3EDE  0E E8 05 00				db	 0Eh,0E8h, 05h, 00h
2926:3EE2  04 4B				add	al,4Bh			; 'K'
2926:3EE4  42					inc	dx
2926:3EE5  44					inc	sp
2926:3EE6  3A E8				cmp	ch,al
2926:3EE8  1B 12				sbb	dx,[bp+si]
2926:3EEA  50					push	ax
2926:3EEB  C4 7E 04				les	di,dword ptr [bp+4]	; Load seg:offset ptr
2926:3EEE  06					push	es
2926:3EEF  57					push	di
2926:3EF0  0E E8 0005		;*		callf	sub_100			;*(3EF9)
2926:3EF0  0E E8 05 00				db	 0Eh,0E8h, 05h, 00h
2926:3EF4  04 54				add	al,54h			; 'T'
2926:3EF6  52					push	dx
2926:3EF7  4D					dec	bp
2926:3EF8  3A E8				cmp	ch,al
2926:3EFA  09 12				or	[bp+si],dx
2926:3EFC  5B					pop	bx
2926:3EFD  0B C3				or	ax,bx
2926:3EFF  D0 D8				rcr	al,1			; Rotate thru carry
2926:3F01  72 03				jc	loc_263			; Jump if carry Set
2926:3F03  E9 0011				jmp	loc_264			; (3F17)
2926:3F06			loc_263:					;  xref 2926:3F01
2926:3F06  C4 7E 04				les	di,dword ptr [bp+4]	; Load seg:offset ptr
2926:3F09  83 C7 26				add	di,26h
2926:3F0C  26: C6 05 05				mov	byte ptr es:[di],5
2926:3F10  C6 46 F4 01				mov	byte ptr [bp-0Ch],1
2926:3F14  E9 003B				jmp	loc_266			; (3F52)
2926:3F17			loc_264:					;  xref 2926:3F03
2926:3F17  C4 7E 04				les	di,dword ptr [bp+4]	; Load seg:offset ptr
2926:3F1A  06					push	es
2926:3F1B  57					push	di
2926:3F1C  0E E8 0005		;*		callf	sub_101			;*(3F25)
2926:3F1C  0E E8 05 00				db	 0Eh,0E8h, 05h, 00h
2926:3F20  04 52				add	al,52h			; 'R'
2926:3F22  44					inc	sp
2926:3F23  52					push	dx
2926:3F24  3A E8				cmp	ch,al
2926:3F26  DD 11				fst	qword ptr [bx+di]	; Store st to memory
2926:3F28  50					push	ax
2926:3F29  C4 7E 04				les	di,dword ptr [bp+4]	; Load seg:offset ptr
2926:3F2C  06					push	es
2926:3F2D  57					push	di
2926:3F2E  0E E8 0005		;*		callf	sub_102			;*(3F37)
2926:3F2E  0E E8 05 00				db	 0Eh,0E8h, 05h, 00h
2926:3F32  04 50				add	al,50h			; 'P'
2926:3F34  55					push	bp
2926:3F35  4E					dec	si
2926:3F36  3A E8				cmp	ch,al
2926:3F38  CB					retf
							                        ;* No entry point to code
2926:3F39  11 5B 0B				adc	[bp+di+0Bh],bx
2926:3F3C  C3					retn
							                        ;* No entry point to code
           ICON2.lst       ICON2.OVL		Sourcer	v8.01  20-Jul-2026 12:24 am   Page 115

2926:3F3D  D0 D8				rcr	al,1			; Rotate thru carry
2926:3F3F  72 03				jc	loc_265			; Jump if carry Set
2926:3F41  E9 000E				jmp	loc_266			; (3F52)
2926:3F44			loc_265:					;  xref 2926:3F3F
2926:3F44  C4 7E 04				les	di,dword ptr [bp+4]	; Load seg:offset ptr
2926:3F47  83 C7 26				add	di,26h
2926:3F4A  26: C6 05 07				mov	byte ptr es:[di],7
2926:3F4E  C6 46 F4 01				mov	byte ptr [bp-0Ch],1
2926:3F52			loc_266:					;  xref 2926:3ED6, 3F14, 3F41
2926:3F52  8A 46 F4				mov	al,[bp-0Ch]
2926:3F55  32 E4				xor	ah,ah			; Zero register
2926:3F57  8B E5				mov	sp,bp
2926:3F59  5D					pop	bp
2926:3F5A  C2 0004				retn	4
2926:3F5D			loc_267:					;  xref 2926:3CE5
2926:3F5D  55					push	bp
2926:3F5E  8B EC				mov	bp,sp
2926:3F60  55					push	bp
2926:3F61  81 EC 0030				sub	sp,30h
2926:3F65  C6 46 F4 00				mov	byte ptr [bp-0Ch],0
2926:3F69  16					push	ss
2926:3F6A  8D 46 D2				lea	ax,[bp-2Eh]		; Load effective addr
2926:3F6D  50					push	ax
2926:3F6E  B8 0020				mov	ax,20h
2926:3F71  50					push	ax
2926:3F72  B8 007E				mov	ax,7Eh
2926:3F75 ú50					push	ax
2926:3F76  E8 16FE				call	sub_135			; (5677)
2926:3F79  E8 174F				call	sub_138			; (56CB)
2926:3F7C  C4 7E 04				les	di,dword ptr [bp+4]	; Load seg:offset ptr
2926:3F7F  26: 8A 05				mov	al,es:[di]
2926:3F82  32 E4				xor	ah,ah			; Zero register
2926:3F84  3D 000E				cmp	ax,0Eh
2926:3F87  B8 0000				mov	ax,0
2926:3F8A  7E 01				jle	loc_268			; Jump if < or =
2926:3F8C  40					inc	ax
2926:3F8D			loc_268:					;  xref 2926:3F8A
2926:3F8D  50					push	ax
2926:3F8E  C4 7E 04				les	di,dword ptr [bp+4]	; Load seg:offset ptr
2926:3F91  26: 8A 05				mov	al,es:[di]
2926:3F94  32 E4				xor	ah,ah			; Zero register
2926:3F96  3D 0001				cmp	ax,1
2926:3F99  B8 0000				mov	ax,0
2926:3F9C  7D 01				jge	loc_269			; Jump if > or =
2926:3F9E  40					inc	ax
2926:3F9F			loc_269:					;  xref 2926:3F9C
2926:3F9F  5B					pop	bx
2926:3FA0  0B C3				or	ax,bx
2926:3FA2  D0 D8				rcr	al,1			; Rotate thru carry
2926:3FA4  72 03				jc	loc_270			; Jump if carry Set
2926:3FA6  E9 0003				jmp	loc_271			; (3FAC)
2926:3FA9			loc_270:					;  xref 2926:3FA4
2926:3FA9  E9 0056				jmp	loc_277			; (4002)
2926:3FAC			loc_271:					;  xref 2926:3FA6
2926:3FAC  B8 0001				mov	ax,1
2926:3FAF  50					push	ax
2926:3FB0  C4 7E 04				les	di,dword ptr [bp+4]	; Load seg:offset ptr
           ICON2.lst       ICON2.OVL		Sourcer	v8.01  20-Jul-2026 12:24 am   Page 116

2926:3FB3  26: 8A 05				mov	al,es:[di]
2926:3FB6  32 E4				xor	ah,ah			; Zero register
2926:3FB8  5B					pop	bx
2926:3FB9  93					xchg	bx,ax
2926:3FBA  89 46 F2				mov	[bp-0Eh],ax
2926:3FBD  93					xchg	bx,ax
2926:3FBE  FF 4E F2				dec	word ptr [bp-0Eh]
2926:3FC1  2B C3				sub	ax,bx
2926:3FC3  40					inc	ax
2926:3FC4  89 46 D0				mov	[bp-30h],ax
2926:3FC7			loc_272:					;  xref 2926:3FFC
2926:3FC7 úFF 46 F2				inc	word ptr [bp-0Eh]
2926:3FCA  FF 4E D0				dec	word ptr [bp-30h]
2926:3FCD  7D 03				jge	loc_273			; Jump if > or =
2926:3FCF  E9 002C				jmp	loc_276			; (3FFE)
2926:3FD2			loc_273:					;  xref 2926:3FCD
2926:3FD2  C4 7E 04				les	di,dword ptr [bp+4]	; Load seg:offset ptr
2926:3FD5  06					push	es
2926:3FD6  57					push	di
2926:3FD7  8B 46 F2				mov	ax,[bp-0Eh]
2926:3FDA  5B					pop	bx
2926:3FDB  03 C3				add	ax,bx
2926:3FDD  97					xchg	di,ax
2926:3FDE  07					pop	es
2926:3FDF  26: 8A 05				mov	al,es:[di]
2926:3FE2  32 E4				xor	ah,ah			; Zero register
2926:3FE4  50					push	ax
2926:3FE5  16					push	ss
2926:3FE6  8D 46 D2				lea	ax,[bp-2Eh]		; Load effective addr
2926:3FE9  50					push	ax
2926:3FEA  E8 16FC				call	sub_139			; (56E9)
2926:3FED  E8 10BC				call	sub_118			; (50AC)
2926:3FF0  F7 D0				not	ax
2926:3FF2  D0 D8				rcr	al,1			; Rotate thru carry
2926:3FF4  72 03				jc	loc_274			; Jump if carry Set
2926:3FF6  E9 0003				jmp	loc_275			; (3FFC)
2926:3FF9			loc_274:					;  xref 2926:3FF4
2926:3FF9  E9 0006				jmp	loc_277			; (4002)
2926:3FFC			loc_275:					;  xref 2926:3FF6
2926:3FFC  EB C9				jmp	short loc_272		; (3FC7)
2926:3FFE			loc_276:					;  xref 2926:3FCF
2926:3FFE  C6 46 F4 01				mov	byte ptr [bp-0Ch],1
2926:4002			loc_277:					;  xref 2926:3FA9, 3FF9
2926:4002  8A 46 F4				mov	al,[bp-0Ch]
2926:4005  32 E4				xor	ah,ah			; Zero register
2926:4007  8B E5				mov	sp,bp
2926:4009  5D					pop	bp
2926:400A  C2 0004				retn	4
				sub_79		endp

2926:400D			loc_278:					;  xref 2926:3CE8
2926:400D  55					push	bp
2926:400E  8B EC				mov	bp,sp
2926:4010  55					push	bp
2926:4011  81 EC 000C				sub	sp,0Ch
2926:4015  8A 46 04				mov	al,[bp+4]
2926:4018  32 E4				xor	ah,ah			; Zero register
           ICON2.lst       ICON2.OVL		Sourcer	v8.01  20-Jul-2026 12:24 am   Page 117

2926:401A  81 F8 0061				cmp	ax,61h
						nop	                        ;*ASM fixup - short reg form
2926:401E  B8 0000				mov	ax,0
2926:4021  7C 01				jl	loc_279			; Jump if <
2926:4023  40					inc	ax
2926:4024			loc_279:					;  xref 2926:4021
2926:4024  50					push	ax
2926:4025  8A 46 04				mov	al,[bp+4]
2926:4028  32 E4				xor	ah,ah			; Zero register
2926:402A  81 F8 007A				cmp	ax,7Ah
						nop	                        ;*ASM fixup - short reg form
2926:402E  B8 0000				mov	ax,0
2926:4031  7F 01				jg	loc_280			; Jump if >
2926:4033  40					inc	ax
2926:4034			loc_280:					;  xref 2926:4031
2926:4034  5B					pop	bx
2926:4035  23 C3				and	ax,bx
2926:4037  D0 D8				rcr	al,1			; Rotate thru carry
2926:4039  72 03				jc	loc_281			; Jump if carry Set
2926:403B  E9 000E				jmp	loc_282			; (404C)
2926:403E			loc_281:					;  xref 2926:4039
2926:403E  8A 46 04				mov	al,[bp+4]
2926:4041  32 E4				xor	ah,ah			; Zero register
2926:4043  93					xchg	bx,ax
2926:4044  B8 00DF				mov	ax,0DFh
2926:4047  23 C3				and	ax,bx
2926:4049  88 46 04				mov	[bp+4],al
2926:404C			loc_282:					;  xref 2926:403B
2926:404C  8A 46 04				mov	al,[bp+4]
2926:404F  88 46 F4				mov	[bp-0Ch],al
2926:4052  8A 46 F4				mov	al,[bp-0Ch]
2926:4055  32 E4				xor	ah,ah			; Zero register
2926:4057  8B E5				mov	sp,bp
2926:4059  5D					pop	bp
2926:405A  C2 0002				retn	2
2926:405D			loc_283:					;  xref 2926:3CEB
2926:405D  55					push	bp
2926:405E  8B EC				mov	bp,sp
2926:4060  55					push	bp
2926:4061  81 EC 0014				sub	sp,14h
2926:4065			loc_284:					;  xref 2926:40AA
2926:4065 úC4 7E 04				les	di,dword ptr [bp+4]	; Load seg:offset ptr
2926:4068  26: 8A 05				mov	al,es:[di]
2926:406B  32 E4				xor	ah,ah			; Zero register
2926:406D  3D 0000				cmp	ax,0
2926:4070  B8 0000				mov	ax,0
2926:4073  74 01				jz	loc_285			; Jump if zero
2926:4075  40					inc	ax
2926:4076			loc_285:					;  xref 2926:4073
2926:4076  50					push	ax
2926:4077  C4 7E 04				les	di,dword ptr [bp+4]	; Load seg:offset ptr
2926:407A  06					push	es
2926:407B  57					push	di
2926:407C  58					pop	ax
2926:407D  05 0001				add	ax,1
2926:4080  97					xchg	di,ax
2926:4081  07					pop	es
           ICON2.lst       ICON2.OVL		Sourcer	v8.01  20-Jul-2026 12:24 am   Page 118

2926:4082  26: 8A 05				mov	al,es:[di]
2926:4085  32 E4				xor	ah,ah			; Zero register
2926:4087  3D 0020				cmp	ax,20h
2926:408A  B8 0000				mov	ax,0
2926:408D  75 01				jnz	loc_286			; Jump if not zero
2926:408F  40					inc	ax
2926:4090			loc_286:					;  xref 2926:408D
2926:4090  5B					pop	bx
2926:4091  23 C3				and	ax,bx
2926:4093  D0 D8				rcr	al,1			; Rotate thru carry
2926:4095  72 03				jc	loc_287			; Jump if carry Set
2926:4097  E9 0012				jmp	loc_288			; (40AC)
2926:409A			loc_287:					;  xref 2926:4095
2926:409A  C4 7E 04				les	di,dword ptr [bp+4]	; Load seg:offset ptr
2926:409D  06					push	es
2926:409E ú57					push	di
2926:409F  B8 0001				mov	ax,1
2926:40A2  50					push	ax
2926:40A3  B8 0001				mov	ax,1
2926:40A6  50					push	ax
2926:40A7  E8 0ABF				call	sub_106			; (4B69)
2926:40AA  EB B9				jmp	short loc_284		; (4065)
2926:40AC			loc_288:					;  xref 2926:4097
2926:40AC  C4 7E 04				les	di,dword ptr [bp+4]	; Load seg:offset ptr
2926:40AF  26: 8A 05				mov	al,es:[di]
2926:40B2  32 E4				xor	ah,ah			; Zero register
2926:40B4  3D 0000				cmp	ax,0
2926:40B7  75 03				jne	loc_289			; Jump if not equal
2926:40B9  E9 021A				jmp	loc_306			; (42D6)
2926:40BC			loc_289:					;  xref 2926:40B7
2926:40BC  C6 46 FD 40				mov	byte ptr [bp-3],40h	; '@'
2926:40C0  16					push	ss
2926:40C1  8D 46 F5				lea	ax,[bp-0Bh]		; Load effective addr
2926:40C4  50					push	ax
2926:40C5  0E E8 0009				callf	sub_103			; (40D2)
2926:40C9  08 20				or	[bx+si],ah
2926:40CB  20 20 20 20 20 20			db	 20h, 20h, 20h, 20h, 20h, 20h
2926:40D1  20					db	 20h

				;ßßßßßßßßßßßßßßßßßßßßßßßßßßßßßßßßßßßßßßßßßßßßßßßßßßßßßßßßßßßßßßßßßßßßßßßßßß
				;                              SUBROUTINE
				;
				;         Called from:   2926:40C5
				;ÜÜÜÜÜÜÜÜÜÜÜÜÜÜÜÜÜÜÜÜÜÜÜÜÜÜÜÜÜÜÜÜÜÜÜÜÜÜÜÜÜÜÜÜÜÜÜÜÜÜÜÜÜÜÜÜÜÜÜÜÜÜÜÜÜÜÜÜÜÜÜÜÜÜ

2926:40D2			sub_103		proc	near
2926:40D2  58					pop	ax
2926:40D3  40					inc	ax
2926:40D4 ú50					push	ax			; PARAMETER_2
2926:40D5  B8 0008				mov	ax,8
2926:40D8  50					push	ax			; PARAMETER_1
2926:40D9  E8 152A				call	sub_132			; (5606)
2926:40DC  16					push	ss
2926:40DD  8D 46 F2				lea	ax,[bp-0Eh]		; Load effective addr
2926:40E0  50					push	ax
2926:40E1  0E E8 0004				callf	sub_104			; (40E9)
2926:40E5  03 20				add	sp,[bx+si]
           ICON2.lst       ICON2.OVL		Sourcer	v8.01  20-Jul-2026 12:24 am   Page 119

2926:40E7  20 20				and	[bx+si],ah

				;ßßßß External Entry into Subroutine ßßßßßßßßßßßßßßßßßßßßßßßßßßßßßßßßßßßßßß
				;
				;         Called from:   2926:40E1

2926:40E9			sub_104:
2926:40E9  58					pop	ax
2926:40EA  40					inc	ax
2926:40EB ú50					push	ax			; PARAMETER_2
2926:40EC  B8 0003				mov	ax,3
2926:40EF  50					push	ax			; PARAMETER_1
2926:40F0  E8 1513				call	sub_132			; (5606)
2926:40F3  C4 7E 04				les	di,dword ptr [bp+4]	; Load seg:offset ptr
2926:40F6  06					push	es
2926:40F7  57					push	di
2926:40F8  58					pop	ax
2926:40F9  05 0002				add	ax,2
2926:40FC  97					xchg	di,ax
2926:40FD  07					pop	es
2926:40FE  26: 8A 05				mov	al,es:[di]
2926:4101  32 E4				xor	ah,ah			; Zero register
2926:4103  3D 003A				cmp	ax,3Ah
2926:4106  74 03				je	loc_290			; Jump if equal
2926:4108  E9 001F				jmp	loc_291			; (412A)
2926:410B			loc_290:					;  xref 2926:4106
2926:410B  C7 46 EC 0003			mov	word ptr [bp-14h],3
2926:4110  C4 7E 04				les	di,dword ptr [bp+4]	; Load seg:offset ptr
2926:4113  06					push	es
2926:4114  57					push	di
2926:4115  58					pop	ax
2926:4116  05 0001				add	ax,1
2926:4119  97					xchg	di,ax
2926:411A  07					pop	es
2926:411B  26: 8A 05				mov	al,es:[di]
2926:411E  32 E4				xor	ah,ah			; Zero register
2926:4120  50					push	ax
2926:4121  E8 FBC4				call	sub_85			; (3CE8)
2926:4124  88 46 FD				mov	[bp-3],al
2926:4127  E9 0005				jmp	loc_292			; (412F)
2926:412A			loc_291:					;  xref 2926:4108
2926:412A  C7 46 EC 0001			mov	word ptr [bp-14h],1
2926:412F			loc_292:					;  xref 2926:4127
2926:412F  8B 46 EC				mov	ax,[bp-14h]
2926:4132  05 0008				add	ax,8
2926:4135  89 46 F0				mov	[bp-10h],ax
2926:4138  C7 46 EE 0001			mov	word ptr [bp-12h],1
2926:413D			loc_293:					;  xref 2926:41CF
2926:413D úC4 7E 04				les	di,dword ptr [bp+4]	; Load seg:offset ptr
2926:4140  06					push	es
2926:4141  57					push	di
2926:4142  8B 46 EC				mov	ax,[bp-14h]
2926:4145  5B					pop	bx
2926:4146  03 C3				add	ax,bx
2926:4148  97					xchg	di,ax
2926:4149  07					pop	es
2926:414A  26: 8A 05				mov	al,es:[di]
           ICON2.lst       ICON2.OVL		Sourcer	v8.01  20-Jul-2026 12:24 am   Page 120

2926:414D  32 E4				xor	ah,ah			; Zero register
2926:414F  50					push	ax
2926:4150  B8 002E				mov	ax,2Eh
2926:4153  50					push	ax
2926:4154  E8 15AA				call	sub_140			; (5701)
2926:4157  B8 003A				mov	ax,3Ah
2926:415A  50					push	ax
2926:415B  E8 15A3				call	sub_140			; (5701)
2926:415E  E8 1484				call	sub_131			; (55E5)
2926:4161  E8 0F48				call	sub_118			; (50AC)
2926:4164  F7 D0				not	ax
2926:4166  50					push	ax
2926:4167  8B 46 EC				mov	ax,[bp-14h]
2926:416A  93					xchg	bx,ax
2926:416B  8B 46 F0				mov	ax,[bp-10h]
2926:416E  3B D8				cmp	bx,ax
2926:4170  B8 0000				mov	ax,0
2926:4173  7D 01				jge	loc_294			; Jump if > or =
2926:4175  40					inc	ax
2926:4176			loc_294:					;  xref 2926:4173
2926:4176  5B					pop	bx
2926:4177  23 C3				and	ax,bx
2926:4179  50					push	ax
2926:417A  8B 46 EC				mov	ax,[bp-14h]
2926:417D  50					push	ax
2926:417E  C4 7E 04				les	di,dword ptr [bp+4]	; Load seg:offset ptr
2926:4181  26: 8A 05				mov	al,es:[di]
2926:4184  32 E4				xor	ah,ah			; Zero register
2926:4186  5B					pop	bx
2926:4187  3B D8				cmp	bx,ax
2926:4189  B8 0000				mov	ax,0
2926:418C  7F 01				jg	loc_295			; Jump if >
2926:418E  40					inc	ax
2926:418F			loc_295:					;  xref 2926:418C
2926:418F  5B					pop	bx
2926:4190  23 C3				and	ax,bx
2926:4192  D0 D8				rcr	al,1			; Rotate thru carry
2926:4194  72 03				jc	loc_296			; Jump if carry Set
2926:4196  E9 0039				jmp	loc_297			; (41D2)
2926:4199			loc_296:					;  xref 2926:4194
2926:4199  16					push	ss
2926:419A  8D 46 F5				lea	ax,[bp-0Bh]		; Load effective addr
2926:419D  50					push	ax
2926:419E  8B 46 EE				mov	ax,[bp-12h]
2926:41A1  48					dec	ax
2926:41A2  5B					pop	bx
2926:41A3  03 C3				add	ax,bx
2926:41A5  50					push	ax
2926:41A6  C4 7E 04				les	di,dword ptr [bp+4]	; Load seg:offset ptr
2926:41A9  06					push	es
2926:41AA  57					push	di
2926:41AB  8B 46 EC				mov	ax,[bp-14h]
2926:41AE  5B					pop	bx
2926:41AF  03 C3				add	ax,bx
2926:41B1  97					xchg	di,ax
2926:41B2  07					pop	es
2926:41B3  26: 8A 05				mov	al,es:[di]
           ICON2.lst       ICON2.OVL		Sourcer	v8.01  20-Jul-2026 12:24 am   Page 121

2926:41B6  32 E4				xor	ah,ah			; Zero register
2926:41B8  50					push	ax
2926:41B9  E8 FB2C				call	sub_85			; (3CE8)
2926:41BC  5F					pop	di
2926:41BD  07					pop	es
2926:41BE  26: 88 05				mov	es:[di],al
2926:41C1  8B 46 EE				mov	ax,[bp-12h]
2926:41C4  40					inc	ax
2926:41C5  89 46 EE				mov	[bp-12h],ax
2926:41C8  8B 46 EC				mov	ax,[bp-14h]
2926:41CB  40					inc	ax
2926:41CC  89 46 EC				mov	[bp-14h],ax
2926:41CF  E9 FF6B				jmp	loc_293			; (413D)
2926:41D2			loc_297:					;  xref 2926:4196
2926:41D2  C4 7E 04				les	di,dword ptr [bp+4]	; Load seg:offset ptr
2926:41D5  06					push	es
2926:41D6  57					push	di
2926:41D7  8B 46 EC				mov	ax,[bp-14h]
2926:41DA  5B					pop	bx
2926:41DB  03 C3				add	ax,bx
2926:41DD  97					xchg	di,ax
2926:41DE  07					pop	es
2926:41DF  26: 8A 05				mov	al,es:[di]
2926:41E2  32 E4				xor	ah,ah			; Zero register
2926:41E4  3D 002E				cmp	ax,2Eh
2926:41E7  B8 0000				mov	ax,0
2926:41EA  75 01				jnz	loc_298			; Jump if not zero
2926:41EC  40					inc	ax
2926:41ED			loc_298:					;  xref 2926:41EA
2926:41ED  50					push	ax
2926:41EE  8B 46 EC				mov	ax,[bp-14h]
2926:41F1  50					push	ax
2926:41F2  C4 7E 04				les	di,dword ptr [bp+4]	; Load seg:offset ptr
2926:41F5  26: 8A 05				mov	al,es:[di]
2926:41F8  32 E4				xor	ah,ah			; Zero register
2926:41FA  5B					pop	bx
2926:41FB  3B D8				cmp	bx,ax
2926:41FD  B8 0000				mov	ax,0
2926:4200  7F 01				jg	loc_299			; Jump if >
2926:4202  40					inc	ax
2926:4203			loc_299:					;  xref 2926:4200
2926:4203  5B					pop	bx
2926:4204  23 C3				and	ax,bx
2926:4206  D0 D8				rcr	al,1			; Rotate thru carry
2926:4208  72 03				jc	loc_300			; Jump if carry Set
2926:420A  E9 006F				jmp	loc_305			; (427C)
2926:420D			loc_300:					;  xref 2926:4208
2926:420D  8B 46 EC				mov	ax,[bp-14h]
2926:4210  40					inc	ax
2926:4211  89 46 EC				mov	[bp-14h],ax
2926:4214  C7 46 EE 0001			mov	word ptr [bp-12h],1
2926:4219			loc_301:					;  xref 2926:427A
2926:4219 ú81 7E EE 0004			cmp	word ptr [bp-12h],4
2926:421E  B8 0000				mov	ax,0
2926:4221  7D 01				jge	loc_302			; Jump if > or =
2926:4223  40					inc	ax
2926:4224			loc_302:					;  xref 2926:4221
           ICON2.lst       ICON2.OVL		Sourcer	v8.01  20-Jul-2026 12:24 am   Page 122

2926:4224  50					push	ax
2926:4225  8B 46 EC				mov	ax,[bp-14h]
2926:4228  50					push	ax
2926:4229  C4 7E 04				les	di,dword ptr [bp+4]	; Load seg:offset ptr
2926:422C  26: 8A 05				mov	al,es:[di]
2926:422F  32 E4				xor	ah,ah			; Zero register
2926:4231  5B					pop	bx
2926:4232  3B D8				cmp	bx,ax
2926:4234  B8 0000				mov	ax,0
2926:4237  7F 01				jg	loc_303			; Jump if >
2926:4239  40					inc	ax
2926:423A			loc_303:					;  xref 2926:4237
2926:423A  5B					pop	bx
2926:423B  23 C3				and	ax,bx
2926:423D  D0 D8				rcr	al,1			; Rotate thru carry
2926:423F  72 03				jc	loc_304			; Jump if carry Set
2926:4241  E9 0038				jmp	loc_305			; (427C)
2926:4244			loc_304:					;  xref 2926:423F
2926:4244  16					push	ss
2926:4245  8D 46 F2				lea	ax,[bp-0Eh]		; Load effective addr
2926:4248  50					push	ax
2926:4249  8B 46 EE				mov	ax,[bp-12h]
2926:424C  48					dec	ax
2926:424D  5B					pop	bx
2926:424E  03 C3				add	ax,bx
2926:4250  50					push	ax
2926:4251  C4 7E 04				les	di,dword ptr [bp+4]	; Load seg:offset ptr
2926:4254  06					push	es
2926:4255  57					push	di
2926:4256  8B 46 EC				mov	ax,[bp-14h]
2926:4259  5B					pop	bx
2926:425A  03 C3				add	ax,bx
2926:425C  97					xchg	di,ax
2926:425D  07					pop	es
2926:425E  26: 8A 05				mov	al,es:[di]
2926:4261  32 E4				xor	ah,ah			; Zero register
2926:4263  50					push	ax
2926:4264  E8 FA81				call	sub_85			; (3CE8)
2926:4267  5F					pop	di
2926:4268  07					pop	es
2926:4269  26: 88 05				mov	es:[di],al
2926:426C  8B 46 EE				mov	ax,[bp-12h]
2926:426F  40					inc	ax
2926:4270  89 46 EE				mov	[bp-12h],ax
2926:4273  8B 46 EC				mov	ax,[bp-14h]
2926:4276  40					inc	ax
2926:4277  89 46 EC				mov	[bp-14h],ax
2926:427A  EB 9D				jmp	short loc_301		; (4219)
2926:427C			loc_305:					;  xref 2926:420A, 4241
2926:427C  C4 7E 08				les	di,dword ptr [bp+8]	; Load seg:offset ptr
2926:427F  06					push	es
2926:4280  57					push	di
2926:4281  B8 0025				mov	ax,25h
2926:4284  2D 0012				sub	ax,12h
2926:4287  50					push	ax
2926:4288  B8 0000				mov	ax,0
2926:428B  50					push	ax
           ICON2.lst       ICON2.OVL		Sourcer	v8.01  20-Jul-2026 12:24 am   Page 123

2926:428C  E8 1551				call	sub_143			; (57E0)
2926:428F  C4 7E 08				les	di,dword ptr [bp+8]	; Load seg:offset ptr
2926:4292  06					push	es
2926:4293  57					push	di
2926:4294  58					pop	ax
2926:4295  05 0000				add	ax,0
2926:4298  50					push	ax
2926:4299  8A 46 FD				mov	al,[bp-3]
2926:429C  32 E4				xor	ah,ah			; Zero register
2926:429E  93					xchg	bx,ax
2926:429F  B8 0040				mov	ax,40h
2926:42A2  2B D8				sub	bx,ax
2926:42A4  93					xchg	bx,ax
2926:42A5  5F					pop	di
2926:42A6  07					pop	es
2926:42A7  26: 88 05				mov	es:[di],al
2926:42AA  16					push	ss
2926:42AB  8D 46 F5				lea	ax,[bp-0Bh]		; Load effective addr
2926:42AE  50					push	ax
2926:42AF  C4 7E 08				les	di,dword ptr [bp+8]	; Load seg:offset ptr
2926:42B2  06					push	es
2926:42B3  57					push	di
2926:42B4  58					pop	ax
2926:42B5  05 0001				add	ax,1
2926:42B8 ú50					push	ax
2926:42B9  B8 0008				mov	ax,8
2926:42BC  50					push	ax
2926:42BD  E8 135E				call	sub_133			; (561E)
2926:42C0  16					push	ss
2926:42C1  8D 46 F2				lea	ax,[bp-0Eh]		; Load effective addr
2926:42C4  50					push	ax
2926:42C5  C4 7E 08				les	di,dword ptr [bp+8]	; Load seg:offset ptr
2926:42C8  06					push	es
2926:42C9  57					push	di
2926:42CA  58					pop	ax
2926:42CB  05 0009				add	ax,9
2926:42CE ú50					push	ax
2926:42CF  B8 0003				mov	ax,3
2926:42D2  50					push	ax
2926:42D3  E8 1348				call	sub_133			; (561E)
2926:42D6			loc_306:					;  xref 2926:40B9
2926:42D6  8B E5				mov	sp,bp
2926:42D8  5D					pop	bp
2926:42D9  C2 0008				retn	8
				sub_103		endp

2926:42DC			loc_307:					;  xref 2926:3CEE
2926:42DC  55					push	bp
2926:42DD  8B EC				mov	bp,sp
2926:42DF  55					push	bp
2926:42E0  81 EC 0002				sub	sp,2
2926:42E4  1E					push	ds
2926:42E5  B8 83B5				mov	ax,83B5h
2926:42E8  50					push	ax
2926:42E9  B8 069A				mov	ax,69Ah
2926:42EC  50					push	ax
2926:42ED  B8 0000				mov	ax,0
           ICON2.lst       ICON2.OVL		Sourcer	v8.01  20-Jul-2026 12:24 am   Page 124

2926:42F0  50					push	ax
2926:42F1  E8 14EC				call	sub_143			; (57E0)
2926:42F4  8B E5				mov	sp,bp
2926:42F6  5D					pop	bp
2926:42F7  C3					retn
2926:42F8			loc_308:					;  xref 2926:3CF1
2926:42F8  55					push	bp
2926:42F9  8B EC				mov	bp,sp
2926:42FB ú55					push	bp
2926:42FC  81 EC 000E				sub	sp,0Eh
2926:4300  E8 F9D3				call	sub_79			; (3CD6)
2926:4303  89 46 F2				mov	[bp-0Eh],ax
2926:4306  8B 46 F2				mov	ax,[bp-0Eh]
2926:4309  89 46 F4				mov	[bp-0Ch],ax
2926:430C  81 7E F2 FFFF			cmp	word ptr [bp-0Eh],0FFFFh
2926:4311  75 03				jne	loc_309			; Jump if not equal
2926:4313  E9 00F9				jmp	loc_317			; (440F)
2926:4316			loc_309:					;  xref 2926:4311
2926:4316  1E					push	ds
2926:4317  B8 83B5				mov	ax,83B5h
2926:431A  50					push	ax
2926:431B  8B 46 F2				mov	ax,[bp-0Eh]
2926:431E  BB 00A9				mov	bx,0A9h
2926:4321  F7 E3				mul	bx			; dx:ax = reg * ax
2926:4323  5B					pop	bx
2926:4324  03 C3				add	ax,bx
2926:4326  40					inc	ax
2926:4327  50					push	ax
2926:4328  B8 0024				mov	ax,24h
2926:432B  50					push	ax
2926:432C  B8 0000				mov	ax,0
2926:432F  50					push	ax
2926:4330  E8 14AD				call	sub_143			; (57E0)
2926:4333  1E					push	ds
2926:4334  B8 83B5				mov	ax,83B5h
2926:4337  50					push	ax
2926:4338  8B 46 F2				mov	ax,[bp-0Eh]
2926:433B  BB 00A9				mov	bx,0A9h
2926:433E  F7 E3				mul	bx			; dx:ax = reg * ax
2926:4340  5B					pop	bx
2926:4341  03 C3				add	ax,bx
2926:4343  40					inc	ax
2926:4344  50					push	ax
2926:4345  C4 7E 06				les	di,dword ptr [bp+6]	; Load seg:offset ptr
2926:4348  06					push	es
2926:4349  57					push	di
2926:434A  E8 F99E				call	sub_86			; (3CEB)
2926:434D  C4 7E 06				les	di,dword ptr [bp+6]	; Load seg:offset ptr
2926:4350  06					push	es
2926:4351  57					push	di
2926:4352  E8 F990				call	sub_84			; (3CE5)
2926:4355  F7 D0				not	ax
2926:4357  D0 D8				rcr	al,1			; Rotate thru carry
2926:4359  72 03				jc	loc_310			; Jump if carry Set
2926:435B  E9 0014				jmp	loc_311			; (4372)
2926:435E			loc_310:					;  xref 2926:4359
2926:435E  C7 46 F4 FFFF			mov	word ptr [bp-0Ch],0FFFFh
           ICON2.lst       ICON2.OVL		Sourcer	v8.01  20-Jul-2026 12:24 am   Page 125

2926:4363  C7 06 83B3 00FF			mov	word ptr ds:data_206e,0FFh	; (2926:83B3=0)
2926:4369  FF 76 F2				push	word ptr [bp-0Eh]
2926:436C  E8 F96A				call	sub_80			; (3CD9)
2926:436F  E9 00A3				jmp	loc_318			; (4415)
2926:4372			loc_311:					;  xref 2926:435B
2926:4372  C4 7E 06				les	di,dword ptr [bp+6]	; Load seg:offset ptr
2926:4375  06					push	es
2926:4376  57					push	di
2926:4377  E8 F968				call	sub_83			; (3CE2)
2926:437A  D0 D8				rcr	al,1			; Rotate thru carry
2926:437C  72 03				jc	loc_312			; Jump if carry Set
2926:437E  E9 0023				jmp	loc_313			; (43A4)
2926:4381			loc_312:					;  xref 2926:437C
2926:4381  C7 06 83B3 0000			mov	word ptr ds:data_206e,0	; (2926:83B3=0)
2926:4387  1E					push	ds
2926:4388  B8 83B5				mov	ax,83B5h
2926:438B  50					push	ax
2926:438C  8B 46 F2				mov	ax,[bp-0Eh]
2926:438F  BB 00A9				mov	bx,0A9h
2926:4392  F7 E3				mul	bx			; dx:ax = reg * ax
2926:4394  5B					pop	bx
2926:4395  03 C3				add	ax,bx
2926:4397  40					inc	ax
2926:4398  05 0000				add	ax,0
2926:439B  97					xchg	di,ax
2926:439C  07					pop	es
2926:439D  26: C6 05 FF				mov	byte ptr es:[di],0FFh
2926:43A1  E9 0071				jmp	loc_318			; (4415)
2926:43A4			loc_313:					;  xref 2926:437E
2926:43A4  B8 000F				mov	ax,0Fh
2926:43A7  50					push	ax
2926:43A8  1E					push	ds
2926:43A9  B8 83B5				mov	ax,83B5h
2926:43AC  50					push	ax
2926:43AD  8B 46 F2				mov	ax,[bp-0Eh]
2926:43B0  BB 00A9				mov	bx,0A9h
2926:43B3  F7 E3				mul	bx			; dx:ax = reg * ax
2926:43B5  5B					pop	bx
2926:43B6  03 C3				add	ax,bx
2926:43B8  40					inc	ax
2926:43B9  50					push	ax
2926:43BA  E8 1626				call	sub_151			; (59E3)
2926:43BD  A3 83B3				mov	ds:data_206e,ax		; (2926:83B3=0)
2926:43C0  81 3E 83B3 00FF			cmp	word ptr ds:data_206e,0FFh	; (2926:83B3=0)
2926:43C6  74 03				je	loc_314			; Jump if equal
2926:43C8  E9 000E				jmp	loc_315			; (43D9)
2926:43CB			loc_314:					;  xref 2926:43C6
2926:43CB  C7 46 F4 FFFF			mov	word ptr [bp-0Ch],0FFFFh
2926:43D0  FF 76 F2				push	word ptr [bp-0Eh]
2926:43D3  E8 F903				call	sub_80			; (3CD9)
2926:43D6  E9 0033				jmp	loc_316			; (440C)
2926:43D9			loc_315:					;  xref 2926:43C8
2926:43D9  1E					push	ds
2926:43DA  B8 83B5				mov	ax,83B5h
2926:43DD  50					push	ax
2926:43DE  8B 46 F2				mov	ax,[bp-0Eh]
2926:43E1  BB 00A9				mov	bx,0A9h
           ICON2.lst       ICON2.OVL		Sourcer	v8.01  20-Jul-2026 12:24 am   Page 126

2926:43E4  F7 E3				mul	bx			; dx:ax = reg * ax
2926:43E6  5B					pop	bx
2926:43E7  03 C3				add	ax,bx
2926:43E9  05 0026				add	ax,26h
2926:43EC  97					xchg	di,ax
2926:43ED  07					pop	es
2926:43EE  26: C7 05 0080			mov	word ptr es:[di],80h
2926:43F3  1E					push	ds
2926:43F4  B8 83B5				mov	ax,83B5h
2926:43F7  50					push	ax
2926:43F8  8B 46 F2				mov	ax,[bp-0Eh]
2926:43FB  BB 00A9				mov	bx,0A9h
2926:43FE  F7 E3				mul	bx			; dx:ax = reg * ax
2926:4400  5B					pop	bx
2926:4401  03 C3				add	ax,bx
2926:4403  05 00A8				add	ax,0A8h
2926:4406  97					xchg	di,ax
2926:4407  07					pop	es
2926:4408  26: C6 05 00				mov	byte ptr es:[di],0
2926:440C			loc_316:					;  xref 2926:43D6
2926:440C  E9 0006				jmp	loc_318			; (4415)
2926:440F			loc_317:					;  xref 2926:4313
2926:440F  C7 06 83B3 00FF			mov	word ptr ds:data_206e,0FFh	; (2926:83B3=0)
2926:4415			loc_318:					;  xref 2926:436F, 43A1, 440C
2926:4415  8B 46 F4				mov	ax,[bp-0Ch]
2926:4418  8B E5				mov	sp,bp
2926:441A  5D					pop	bp
2926:441B  C2 0006				retn	6
2926:441E			loc_319:					;  xref 2926:3CF4
2926:441E  55					push	bp
2926:441F  8B EC				mov	bp,sp
2926:4421 ú55					push	bp
2926:4422  81 EC 000E				sub	sp,0Eh
2926:4426  E8 F8AD				call	sub_79			; (3CD6)
2926:4429  89 46 F2				mov	[bp-0Eh],ax
2926:442C  8B 46 F2				mov	ax,[bp-0Eh]
2926:442F  89 46 F4				mov	[bp-0Ch],ax
2926:4432  81 7E F2 FFFF			cmp	word ptr [bp-0Eh],0FFFFh
2926:4437  75 03				jne	loc_320			; Jump if not equal
2926:4439  E9 00F9				jmp	loc_327			; (4535)
2926:443C			loc_320:					;  xref 2926:4437
2926:443C  1E					push	ds
2926:443D  B8 83B5				mov	ax,83B5h
2926:4440  50					push	ax
2926:4441  8B 46 F2				mov	ax,[bp-0Eh]
2926:4444  BB 00A9				mov	bx,0A9h
2926:4447  F7 E3				mul	bx			; dx:ax = reg * ax
2926:4449  5B					pop	bx
2926:444A  03 C3				add	ax,bx
2926:444C  40					inc	ax
2926:444D  50					push	ax
2926:444E  B8 0024				mov	ax,24h
2926:4451  50					push	ax
2926:4452  B8 0000				mov	ax,0
2926:4455  50					push	ax
2926:4456  E8 1387				call	sub_143			; (57E0)
2926:4459  1E					push	ds
           ICON2.lst       ICON2.OVL		Sourcer	v8.01  20-Jul-2026 12:24 am   Page 127

2926:445A  B8 83B5				mov	ax,83B5h
2926:445D  50					push	ax
2926:445E  8B 46 F2				mov	ax,[bp-0Eh]
2926:4461  BB 00A9				mov	bx,0A9h
2926:4464  F7 E3				mul	bx			; dx:ax = reg * ax
2926:4466  5B					pop	bx
2926:4467  03 C3				add	ax,bx
2926:4469  40					inc	ax
2926:446A  50					push	ax
2926:446B  C4 7E 06				les	di,dword ptr [bp+6]	; Load seg:offset ptr
2926:446E  06					push	es
2926:446F  57					push	di
2926:4470  E8 F878				call	sub_86			; (3CEB)
2926:4473  C4 7E 06				les	di,dword ptr [bp+6]	; Load seg:offset ptr
2926:4476  06					push	es
2926:4477  57					push	di
2926:4478  E8 F86A				call	sub_84			; (3CE5)
2926:447B  F7 D0				not	ax
2926:447D  D0 D8				rcr	al,1			; Rotate thru carry
2926:447F  72 03				jc	loc_321			; Jump if carry Set
2926:4481  E9 0014				jmp	loc_322			; (4498)
2926:4484			loc_321:					;  xref 2926:447F
2926:4484  C7 46 F4 FFFF			mov	word ptr [bp-0Ch],0FFFFh
2926:4489  C7 06 83B3 00FF			mov	word ptr ds:data_206e,0FFh	; (2926:83B3=0)
2926:448F  FF 76 F2				push	word ptr [bp-0Eh]
2926:4492  E8 F844				call	sub_80			; (3CD9)
2926:4495  E9 00A3				jmp	loc_328			; (453B)
2926:4498			loc_322:					;  xref 2926:4481
2926:4498  C4 7E 06				les	di,dword ptr [bp+6]	; Load seg:offset ptr
2926:449B  06					push	es
2926:449C  57					push	di
2926:449D  E8 F842				call	sub_83			; (3CE2)
2926:44A0  D0 D8				rcr	al,1			; Rotate thru carry
2926:44A2  72 03				jc	loc_323			; Jump if carry Set
2926:44A4  E9 0023				jmp	loc_324			; (44CA)
2926:44A7			loc_323:					;  xref 2926:44A2
2926:44A7  C7 06 83B3 0000			mov	word ptr ds:data_206e,0	; (2926:83B3=0)
2926:44AD  1E					push	ds
2926:44AE  B8 83B5				mov	ax,83B5h
2926:44B1  50					push	ax
2926:44B2  8B 46 F2				mov	ax,[bp-0Eh]
2926:44B5  BB 00A9				mov	bx,0A9h
2926:44B8  F7 E3				mul	bx			; dx:ax = reg * ax
2926:44BA  5B					pop	bx
2926:44BB  03 C3				add	ax,bx
2926:44BD  40					inc	ax
2926:44BE  05 0000				add	ax,0
2926:44C1  97					xchg	di,ax
2926:44C2  07					pop	es
2926:44C3  26: C6 05 FF				mov	byte ptr es:[di],0FFh
2926:44C7  E9 0071				jmp	loc_328			; (453B)
2926:44CA			loc_324:					;  xref 2926:44A4
2926:44CA  B8 0013				mov	ax,13h
2926:44CD  50					push	ax
2926:44CE  1E					push	ds
2926:44CF  B8 83B5				mov	ax,83B5h
2926:44D2  50					push	ax
           ICON2.lst       ICON2.OVL		Sourcer	v8.01  20-Jul-2026 12:24 am   Page 128

2926:44D3  8B 46 F2				mov	ax,[bp-0Eh]
2926:44D6  BB 00A9				mov	bx,0A9h
2926:44D9  F7 E3				mul	bx			; dx:ax = reg * ax
2926:44DB  5B					pop	bx
2926:44DC  03 C3				add	ax,bx
2926:44DE  40					inc	ax
2926:44DF  50					push	ax
2926:44E0  E8 1500				call	sub_151			; (59E3)
2926:44E3  A3 83B3				mov	ds:data_206e,ax		; (2926:83B3=0)
2926:44E6  B8 0016				mov	ax,16h
2926:44E9  50					push	ax
2926:44EA  1E					push	ds
2926:44EB  B8 83B5				mov	ax,83B5h
2926:44EE  50					push	ax
2926:44EF  8B 46 F2				mov	ax,[bp-0Eh]
2926:44F2  BB 00A9				mov	bx,0A9h
2926:44F5  F7 E3				mul	bx			; dx:ax = reg * ax
2926:44F7  5B					pop	bx
2926:44F8  03 C3				add	ax,bx
2926:44FA  40					inc	ax
2926:44FB  50					push	ax
2926:44FC  E8 14E4				call	sub_151			; (59E3)
2926:44FF  A3 83B3				mov	ds:data_206e,ax		; (2926:83B3=0)
2926:4502  81 3E 83B3 00FF			cmp	word ptr ds:data_206e,0FFh	; (2926:83B3=0)
2926:4508  74 03				je	loc_325			; Jump if equal
2926:450A  E9 000B				jmp	loc_326			; (4518)
2926:450D			loc_325:					;  xref 2926:4508
2926:450D  C7 46 F4 FFFF			mov	word ptr [bp-0Ch],0FFFFh
2926:4512  FF 76 F2				push	word ptr [bp-0Eh]
2926:4515  E8 F7C1				call	sub_80			; (3CD9)
2926:4518			loc_326:					;  xref 2926:450A
2926:4518  1E					push	ds
2926:4519  B8 83B5				mov	ax,83B5h
2926:451C  50					push	ax
2926:451D  8B 46 F2				mov	ax,[bp-0Eh]
2926:4520  BB 00A9				mov	bx,0A9h
2926:4523  F7 E3				mul	bx			; dx:ax = reg * ax
2926:4525  5B					pop	bx
2926:4526  03 C3				add	ax,bx
2926:4528  05 0026				add	ax,26h
2926:452B  97					xchg	di,ax
2926:452C  07					pop	es
2926:452D  26: C7 05 0000			mov	word ptr es:[di],0
2926:4532  E9 0006				jmp	loc_328			; (453B)
2926:4535			loc_327:					;  xref 2926:4439
2926:4535  C7 06 83B3 00FF			mov	word ptr ds:data_206e,0FFh	; (2926:83B3=0)
2926:453B			loc_328:					;  xref 2926:4495, 44C7, 4532
2926:453B  8B 46 F4				mov	ax,[bp-0Ch]
2926:453E  8B E5				mov	sp,bp
2926:4540  5D					pop	bp
2926:4541  C2 0006				retn	6
2926:4544			loc_329:					;  xref 2926:3CF7
2926:4544  55					push	bp
2926:4545  8B EC				mov	bp,sp
2926:4547  55					push	bp
2926:4548  81 EC 000C				sub	sp,0Ch
2926:454C  C4 7E 04				les	di,dword ptr [bp+4]	; Load seg:offset ptr
           ICON2.lst       ICON2.OVL		Sourcer	v8.01  20-Jul-2026 12:24 am   Page 129

2926:454F  83 C7 36				add	di,36h
2926:4552  26: 8B 05				mov	ax,es:[di]
2926:4555  3D 0000				cmp	ax,0
2926:4558  74 03				je	loc_330			; Jump if equal
2926:455A  E9 0019				jmp	loc_331			; (4576)
2926:455D			loc_330:					;  xref 2926:4558
2926:455D  C4 7E 04				les	di,dword ptr [bp+4]	; Load seg:offset ptr
2926:4560  83 C7 36				add	di,36h
2926:4563  06					push	es
2926:4564  57					push	di
2926:4565  C4 7E 04				les	di,dword ptr [bp+4]	; Load seg:offset ptr
2926:4568  06					push	es
2926:4569  57					push	di
2926:456A  B8 0002				mov	ax,2
2926:456D  50					push	ax
2926:456E  E8 F780				call	sub_87			; (3CF1)
2926:4571  5F					pop	di
2926:4572  07					pop	es
2926:4573  26: 89 05				mov	es:[di],ax
2926:4576			loc_331:					;  xref 2926:455A
2926:4576  C4 7E 04				les	di,dword ptr [bp+4]	; Load seg:offset ptr
2926:4579  83 C7 36				add	di,36h
2926:457C  26: 8B 05				mov	ax,es:[di]
2926:457F  3D FFFF				cmp	ax,0FFFFh
2926:4582  75 03				jne	loc_332			; Jump if not equal
2926:4584  E9 0047				jmp	loc_335			; (45CE)
2926:4587			loc_332:					;  xref 2926:4582
2926:4587  C4 7E 04				les	di,dword ptr [bp+4]	; Load seg:offset ptr
2926:458A  83 C7 26				add	di,26h
2926:458D  26: 8A 05				mov	al,es:[di]
2926:4590  32 E4				xor	ah,ah			; Zero register
2926:4592  3D 0003				cmp	ax,3
2926:4595  7E 03				jle	loc_333			; Jump if < or =
2926:4597  E9 0022				jmp	loc_334			; (45BC)
2926:459A			loc_333:					;  xref 2926:4595
2926:459A  B8 0013				mov	ax,13h
2926:459D  50					push	ax
2926:459E  1E					push	ds
2926:459F  B8 83B5				mov	ax,83B5h
2926:45A2  50					push	ax
2926:45A3  C4 7E 04				les	di,dword ptr [bp+4]	; Load seg:offset ptr
2926:45A6  83 C7 36				add	di,36h
2926:45A9  26: 8B 05				mov	ax,es:[di]
2926:45AC  BB 00A9				mov	bx,0A9h
2926:45AF  F7 E3				mul	bx			; dx:ax = reg * ax
2926:45B1  5B					pop	bx
2926:45B2  03 C3				add	ax,bx
2926:45B4  40					inc	ax
2926:45B5  50					push	ax
2926:45B6  E8 142A				call	sub_151			; (59E3)
2926:45B9  A3 83B3				mov	ds:data_206e,ax		; (2926:83B3=0)
2926:45BC			loc_334:					;  xref 2926:4597
2926:45BC  C7 46 F4 0000			mov	word ptr [bp-0Ch],0
2926:45C1  C4 7E 04				les	di,dword ptr [bp+4]	; Load seg:offset ptr
2926:45C4  83 C7 36				add	di,36h
2926:45C7  26: 8B 05				mov	ax,es:[di]
2926:45CA  50					push	ax
           ICON2.lst       ICON2.OVL		Sourcer	v8.01  20-Jul-2026 12:24 am   Page 130

2926:45CB  E8 F70B				call	sub_80			; (3CD9)
2926:45CE			loc_335:					;  xref 2926:4584
2926:45CE  8B 46 F4				mov	ax,[bp-0Ch]
2926:45D1  8B E5				mov	sp,bp
2926:45D3  5D					pop	bp
2926:45D4  C2 0004				retn	4
2926:45D7			loc_336:					;  xref 2926:3CFA
2926:45D7  55					push	bp
2926:45D8  8B EC				mov	bp,sp
2926:45DA  55					push	bp
2926:45DB  81 EC 0008				sub	sp,8
2926:45DF  8A 46 04				mov	al,[bp+4]
2926:45E2  32 E4				xor	ah,ah			; Zero register
2926:45E4  F7 D0				not	ax
2926:45E6  50					push	ax
2926:45E7  1E					push	ds
2926:45E8  B8 83B5				mov	ax,83B5h
2926:45EB  50					push	ax
2926:45EC  8B 46 06				mov	ax,[bp+6]
2926:45EF  BB 00A9				mov	bx,0A9h
2926:45F2  F7 E3				mul	bx			; dx:ax = reg * ax
2926:45F4  5B					pop	bx
2926:45F5  03 C3				add	ax,bx
2926:45F7  40					inc	ax
2926:45F8  05 0000				add	ax,0
2926:45FB  97					xchg	di,ax
2926:45FC  07					pop	es
2926:45FD  26: 8A 05				mov	al,es:[di]
2926:4600  32 E4				xor	ah,ah			; Zero register
2926:4602  3D 00FF				cmp	ax,0FFh
2926:4605  B8 0000				mov	ax,0
2926:4608  74 01				jz	loc_337			; Jump if zero
2926:460A  40					inc	ax
2926:460B			loc_337:					;  xref 2926:4608
2926:460B  5B					pop	bx
2926:460C  23 C3				and	ax,bx
2926:460E  D0 D8				rcr	al,1			; Rotate thru carry
2926:4610  72 03				jc	loc_338			; Jump if carry Set
2926:4612  E9 00A6				jmp	loc_343			; (46BB)
2926:4615			loc_338:					;  xref 2926:4610
2926:4615  1E					push	ds
2926:4616  B8 83B5				mov	ax,83B5h
2926:4619  50					push	ax
2926:461A  8B 46 06				mov	ax,[bp+6]
2926:461D  BB 00A9				mov	bx,0A9h
2926:4620  F7 E3				mul	bx			; dx:ax = reg * ax
2926:4622  5B					pop	bx
2926:4623  03 C3				add	ax,bx
2926:4625  05 0026				add	ax,26h
2926:4628  97					xchg	di,ax
2926:4629  07					pop	es
2926:462A  26: 8B 05				mov	ax,es:[di]
2926:462D  3D 0000				cmp	ax,0
2926:4630  75 03				jne	loc_339			; Jump if not equal
2926:4632  E9 006A				jmp	loc_342			; (469F)
2926:4635			loc_339:					;  xref 2926:4630
2926:4635  1E					push	ds
           ICON2.lst       ICON2.OVL		Sourcer	v8.01  20-Jul-2026 12:24 am   Page 131

2926:4636  B8 83B5				mov	ax,83B5h
2926:4639  50					push	ax
2926:463A  8B 46 06				mov	ax,[bp+6]
2926:463D  BB 00A9				mov	bx,0A9h
2926:4640  F7 E3				mul	bx			; dx:ax = reg * ax
2926:4642  5B					pop	bx
2926:4643  03 C3				add	ax,bx
2926:4645  05 0026				add	ax,26h
2926:4648  97					xchg	di,ax
2926:4649  07					pop	es
2926:464A  26: 8B 05				mov	ax,es:[di]
2926:464D  3D 0080				cmp	ax,80h
2926:4650  75 03				jne	loc_340			; Jump if not equal
2926:4652  E9 0044				jmp	loc_341			; (4699)
2926:4655			loc_340:					;  xref 2926:4650
2926:4655  1E					push	ds
2926:4656  B8 83B5				mov	ax,83B5h
2926:4659  50					push	ax
2926:465A  8B 46 06				mov	ax,[bp+6]
2926:465D  BB 00A9				mov	bx,0A9h
2926:4660  F7 E3				mul	bx			; dx:ax = reg * ax
2926:4662  5B					pop	bx
2926:4663  03 C3				add	ax,bx
2926:4665  89 46 F8				mov	[bp-8],ax
2926:4668  58					pop	ax
2926:4669  89 46 FA				mov	[bp-6],ax
2926:466C  C4 7E F8				les	di,dword ptr [bp-8]	; Load seg:offset ptr
2926:466F  83 C7 28				add	di,28h
2926:4672  06					push	es
2926:4673  57					push	di
2926:4674  C4 7E F8				les	di,dword ptr [bp-8]	; Load seg:offset ptr
2926:4677  83 C7 26				add	di,26h
2926:467A  26: 8B 05				mov	ax,es:[di]
2926:467D  5B					pop	bx
2926:467E  03 C3				add	ax,bx
2926:4680  50					push	ax
2926:4681  B8 0080				mov	ax,80h
2926:4684  50					push	ax
2926:4685  C4 7E F8				les	di,dword ptr [bp-8]	; Load seg:offset ptr
2926:4688  83 C7 26				add	di,26h
2926:468B  26: 8B 05				mov	ax,es:[di]
2926:468E  5B					pop	bx
2926:468F  2B D8				sub	bx,ax
2926:4691  53					push	bx
2926:4692  B8 001A				mov	ax,1Ah
2926:4695  50					push	ax
2926:4696  E8 1147				call	sub_143			; (57E0)
2926:4699			loc_341:					;  xref 2926:4652
2926:4699  FF 76 06				push	word ptr [bp+6]
2926:469C  E8 F63D				call	sub_81			; (3CDC)
2926:469F			loc_342:					;  xref 2926:4632
2926:469F  B8 0010				mov	ax,10h
2926:46A2  50					push	ax
2926:46A3  1E					push	ds
2926:46A4  B8 83B5				mov	ax,83B5h
2926:46A7  50					push	ax
2926:46A8  8B 46 06				mov	ax,[bp+6]
           ICON2.lst       ICON2.OVL		Sourcer	v8.01  20-Jul-2026 12:24 am   Page 132

2926:46AB  BB 00A9				mov	bx,0A9h
2926:46AE  F7 E3				mul	bx			; dx:ax = reg * ax
2926:46B0  5B					pop	bx
2926:46B1  03 C3				add	ax,bx
2926:46B3  40					inc	ax
2926:46B4  50					push	ax
2926:46B5  E8 132B				call	sub_151			; (59E3)
2926:46B8  A3 83B3				mov	ds:data_206e,ax		; (2926:83B3=0)
2926:46BB			loc_343:					;  xref 2926:4612
2926:46BB  FF 76 06				push	word ptr [bp+6]
2926:46BE  E8 F618				call	sub_80			; (3CD9)
2926:46C1  8B E5				mov	sp,bp
2926:46C3  5D					pop	bp
2926:46C4  C2 0004				retn	4
2926:46C7			loc_344:					;  xref 2926:3CFD
2926:46C7  55					push	bp
2926:46C8  8B EC				mov	bp,sp
2926:46CA  55					push	bp
2926:46CB  81 EC 0002				sub	sp,2
2926:46CF  8B 46 06				mov	ax,[bp+6]
2926:46D2  50					push	ax
2926:46D3  8B 46 04				mov	ax,[bp+4]
2926:46D6  A3 83AF				mov	ds:data_204e,ax		; (2926:83AF=0)
2926:46D9  58					pop	ax
2926:46DA  A3 83B1				mov	word ptr ds:data_204e+2,ax	; (2926:83B1=0)
2926:46DD  8B E5				mov	sp,bp
2926:46DF  5D					pop	bp
2926:46E0  C2 0004				retn	4
2926:46E3			loc_345:					;  xref 2926:3D00
2926:46E3  55					push	bp
2926:46E4  8B EC				mov	bp,sp
2926:46E6  55					push	bp
2926:46E7  81 EC 0010				sub	sp,10h
2926:46EB  1E					push	ds
2926:46EC  B8 83B5				mov	ax,83B5h
2926:46EF  50					push	ax
2926:46F0  8B 46 08				mov	ax,[bp+8]
2926:46F3  BB 00A9				mov	bx,0A9h
2926:46F6  F7 E3				mul	bx			; dx:ax = reg * ax
2926:46F8  5B					pop	bx
2926:46F9  03 C3				add	ax,bx
2926:46FB  89 46 F0				mov	[bp-10h],ax
2926:46FE  58					pop	ax
2926:46FF  89 46 F2				mov	[bp-0Eh],ax
2926:4702  C4 7E F0				les	di,dword ptr [bp-10h]	; Load seg:offset ptr
2926:4705  83 C7 26				add	di,26h
2926:4708  26: 8B 05				mov	ax,es:[di]
2926:470B  3D 0080				cmp	ax,80h
2926:470E  7D 03				jge	loc_346			; Jump if > or =
2926:4710  E9 001D				jmp	loc_347			; (4730)
2926:4713			loc_346:					;  xref 2926:470E
2926:4713  C4 7E 04				les	di,dword ptr [bp+4]	; Load seg:offset ptr
2926:4716  06					push	es
2926:4717  57					push	di
2926:4718  FF 76 08				push	word ptr [bp+8]
2926:471B  E8 F5C1				call	sub_82			; (3CDF)
2926:471E  F7 D0				not	ax
           ICON2.lst       ICON2.OVL		Sourcer	v8.01  20-Jul-2026 12:24 am   Page 133

2926:4720  5F					pop	di
2926:4721  07					pop	es
2926:4722  26: 88 05				mov	es:[di],al
2926:4725  C4 7E F0				les	di,dword ptr [bp-10h]	; Load seg:offset ptr
2926:4728  83 C7 26				add	di,26h
2926:472B  26: C7 05 0000			mov	word ptr es:[di],0
2926:4730			loc_347:					;  xref 2926:4710
2926:4730  C4 7E F0				les	di,dword ptr [bp-10h]	; Load seg:offset ptr
2926:4733  83 C7 28				add	di,28h
2926:4736  06					push	es
2926:4737  57					push	di
2926:4738  C4 7E F0				les	di,dword ptr [bp-10h]	; Load seg:offset ptr
2926:473B  83 C7 26				add	di,26h
2926:473E  26: 8B 05				mov	ax,es:[di]
2926:4741  5B					pop	bx
2926:4742  03 C3				add	ax,bx
2926:4744  97					xchg	di,ax
2926:4745  07					pop	es
2926:4746  26: 8A 05				mov	al,es:[di]
2926:4749  88 46 F4				mov	[bp-0Ch],al
2926:474C  C4 7E F0				les	di,dword ptr [bp-10h]	; Load seg:offset ptr
2926:474F  83 C7 26				add	di,26h
2926:4752  06					push	es
2926:4753  57					push	di
2926:4754  C4 7E F0				les	di,dword ptr [bp-10h]	; Load seg:offset ptr
2926:4757  83 C7 26				add	di,26h
2926:475A  26: 8B 05				mov	ax,es:[di]
2926:475D  40					inc	ax
2926:475E  5F					pop	di
2926:475F  07					pop	es
2926:4760  26: 89 05				mov	es:[di],ax
2926:4763  8A 46 F4				mov	al,[bp-0Ch]
2926:4766  32 E4				xor	ah,ah			; Zero register
2926:4768  8B E5				mov	sp,bp
2926:476A  5D					pop	bp
2926:476B  C2 0006				retn	6
2926:476E			loc_348:					;  xref 2926:3D03
2926:476E  55					push	bp
2926:476F  8B EC				mov	bp,sp
2926:4771  55					push	bp
2926:4772  81 EC 0006				sub	sp,6
2926:4776  1E					push	ds
2926:4777  B8 83B5				mov	ax,83B5h
2926:477A  50					push	ax
2926:477B  8B 46 04				mov	ax,[bp+4]
2926:477E  BB 00A9				mov	bx,0A9h
2926:4781  F7 E3				mul	bx			; dx:ax = reg * ax
2926:4783  5B					pop	bx
2926:4784  03 C3				add	ax,bx
2926:4786  89 46 FA				mov	[bp-6],ax
2926:4789  58					pop	ax
2926:478A  89 46 FC				mov	[bp-4],ax
2926:478D  C4 7E FA				les	di,dword ptr [bp-6]	; Load seg:offset ptr
2926:4790  83 C7 26				add	di,26h
2926:4793  26: 8B 05				mov	ax,es:[di]
2926:4796  3D 0080				cmp	ax,80h
2926:4799  7D 03				jge	loc_349			; Jump if > or =
           ICON2.lst       ICON2.OVL		Sourcer	v8.01  20-Jul-2026 12:24 am   Page 134

2926:479B  E9 0011				jmp	loc_350			; (47AF)
2926:479E			loc_349:					;  xref 2926:4799
2926:479E  FF 76 04				push	word ptr [bp+4]
2926:47A1  E8 F538				call	sub_81			; (3CDC)
2926:47A4  C4 7E FA				les	di,dword ptr [bp-6]	; Load seg:offset ptr
2926:47A7  83 C7 26				add	di,26h
2926:47AA  26: C7 05 0000			mov	word ptr es:[di],0
2926:47AF			loc_350:					;  xref 2926:479B
2926:47AF  C4 7E FA				les	di,dword ptr [bp-6]	; Load seg:offset ptr
2926:47B2  83 C7 28				add	di,28h
2926:47B5  06					push	es
2926:47B6  57					push	di
2926:47B7  C4 7E FA				les	di,dword ptr [bp-6]	; Load seg:offset ptr
2926:47BA  83 C7 26				add	di,26h
2926:47BD  26: 8B 05				mov	ax,es:[di]
2926:47C0  5B					pop	bx
2926:47C1  03 C3				add	ax,bx
2926:47C3  97					xchg	di,ax
2926:47C4  8A 46 06				mov	al,[bp+6]
2926:47C7  07					pop	es
2926:47C8  26: 88 05				mov	es:[di],al
2926:47CB  C4 7E FA				les	di,dword ptr [bp-6]	; Load seg:offset ptr
2926:47CE  83 C7 26				add	di,26h
2926:47D1  06					push	es
2926:47D2  57					push	di
2926:47D3  C4 7E FA				les	di,dword ptr [bp-6]	; Load seg:offset ptr
2926:47D6  83 C7 26				add	di,26h
2926:47D9  26: 8B 05				mov	ax,es:[di]
2926:47DC  40					inc	ax
2926:47DD  5F					pop	di
2926:47DE  07					pop	es
2926:47DF  26: 89 05				mov	es:[di],ax
2926:47E2  8B E5				mov	sp,bp
2926:47E4  5D					pop	bp
2926:47E5  C2 0004				retn	4
2926:47E8			loc_351:					;  xref 2926:3D06
2926:47E8  55					push	bp
2926:47E9  8B EC				mov	bp,sp
2926:47EB  55					push	bp
2926:47EC  81 EC 000C				sub	sp,0Ch
2926:47F0  C7 06 83B3 0000			mov	word ptr ds:data_206e,0	; (2926:83B3=0)
2926:47F6  C4 3E 83AF				les	di,dword ptr ds:data_204e	; (2926:83AF=0) Load seg:offset ptr
2926:47FA  83 C7 26				add	di,26h
2926:47FD  26: 8A 05				mov	al,es:[di]
2926:4800  32 E4				xor	ah,ah			; Zero register
2926:4802  3D 0004				cmp	ax,4
2926:4805  74 03				je	loc_352			; Jump if equal
2926:4807  E9 0094				jmp	loc_360			; (489E)
2926:480A			loc_352:					;  xref 2926:4805
2926:480A  B8 0001				mov	ax,1
2926:480D  50					push	ax
2926:480E  16					push	ss
2926:480F  8D 46 FC				lea	ax,[bp-4]		; Load effective addr
2926:4812  50					push	ax
2926:4813  E8 11CD				call	sub_151			; (59E3)
2926:4816  88 46 F9				mov	[bp-7],al
2926:4819  8A 46 F9				mov	al,[bp-7]
           ICON2.lst       ICON2.OVL		Sourcer	v8.01  20-Jul-2026 12:24 am   Page 135

2926:481C  32 E4				xor	ah,ah			; Zero register
2926:481E  81 F8 0008				cmp	ax,8
						nop	                        ;*ASM fixup - short reg form
2926:4822  B8 0000				mov	ax,0
2926:4825  75 01				jnz	loc_353			; Jump if not zero
2926:4827  40					inc	ax
2926:4828			loc_353:					;  xref 2926:4825
2926:4828  D0 D8				rcr	al,1			; Rotate thru carry
2926:482A  72 03				jc	loc_354			; Jump if carry Set
2926:482C  E9 0019				jmp	loc_355			; (4848)
2926:482F			loc_354:					;  xref 2926:482A
2926:482F  B8 0002				mov	ax,2
2926:4832  50					push	ax
2926:4833  B8 0020				mov	ax,20h
2926:4836  50					push	ax
2926:4837  E8 11CA				call	sub_152			; (5A04)
2926:483A  B8 0002				mov	ax,2
2926:483D  50					push	ax
2926:483E  B8 0008				mov	ax,8
2926:4841  50					push	ax
2926:4842  E8 11BF				call	sub_152			; (5A04)
2926:4845  E9 0021				jmp	loc_358			; (4869)
2926:4848			loc_355:					;  xref 2926:482C
2926:4848  8A 46 F9				mov	al,[bp-7]
2926:484B  32 E4				xor	ah,ah			; Zero register
2926:484D  81 F8 000D				cmp	ax,0Dh
						nop	                        ;*ASM fixup - short reg form
2926:4851  B8 0000				mov	ax,0
2926:4854  75 01				jnz	loc_356			; Jump if not zero
2926:4856  40					inc	ax
2926:4857			loc_356:					;  xref 2926:4854
2926:4857  D0 D8				rcr	al,1			; Rotate thru carry
2926:4859  72 03				jc	loc_357			; Jump if carry Set
2926:485B  E9 000B				jmp	loc_358			; (4869)
2926:485E			loc_357:					;  xref 2926:4859
2926:485E  B8 0002				mov	ax,2
2926:4861  50					push	ax
2926:4862  B8 000A				mov	ax,0Ah
2926:4865  50					push	ax
2926:4866  E8 119B				call	sub_152			; (5A04)
2926:4869			loc_358:					;  xref 2926:4845, 485B
2926:4869  C4 3E 83AF				les	di,dword ptr ds:data_204e	; (2926:83AF=0) Load seg:offset ptr
2926:486D  83 C7 38				add	di,38h
2926:4870  06					push	es
2926:4871  57					push	di
2926:4872  58					pop	ax
2926:4873  05 0000				add	ax,0
2926:4876  97					xchg	di,ax
2926:4877  8A 46 F9				mov	al,[bp-7]
2926:487A  07					pop	es
2926:487B  26: 88 05				mov	es:[di],al
2926:487E  C4 3E 83AF				les	di,dword ptr ds:data_204e	; (2926:83AF=0) Load seg:offset ptr
2926:4882  83 C7 2E				add	di,2Eh
2926:4885  06					push	es
2926:4886  57					push	di
2926:4887  8A 46 F9				mov	al,[bp-7]
2926:488A  32 E4				xor	ah,ah			; Zero register
           ICON2.lst       ICON2.OVL		Sourcer	v8.01  20-Jul-2026 12:24 am   Page 136

2926:488C  81 F8 001A				cmp	ax,1Ah
						nop	                        ;*ASM fixup - short reg form
2926:4890  B8 0000				mov	ax,0
2926:4893  75 01				jnz	loc_359			; Jump if not zero
2926:4895  40					inc	ax
2926:4896			loc_359:					;  xref 2926:4893
2926:4896  5F					pop	di
2926:4897  07					pop	es
2926:4898  26: 88 05				mov	es:[di],al
2926:489B  E9 012F				jmp	loc_371			; (49CD)
2926:489E			loc_360:					;  xref 2926:4807
2926:489E  C4 3E 83AF				les	di,dword ptr ds:data_204e	; (2926:83AF=0) Load seg:offset ptr
2926:48A2  83 C7 26				add	di,26h
2926:48A5  26: 8A 05				mov	al,es:[di]
2926:48A8  32 E4				xor	ah,ah			; Zero register
2926:48AA  3D 0005				cmp	ax,5
2926:48AD  74 03				je	loc_361			; Jump if equal
2926:48AF  E9 0040				jmp	loc_364			; (48F2)
2926:48B2			loc_361:					;  xref 2926:48AD, 48D7
2926:48B2 úB8 0006				mov	ax,6
2926:48B5  50					push	ax
2926:48B6  B8 FFFF				mov	ax,0FFFFh
2926:48B9  50					push	ax
2926:48BA  B8 FFFF				mov	ax,0FFFFh
2926:48BD  50					push	ax
2926:48BE  E8 1122				call	sub_151			; (59E3)
2926:48C1  88 46 F9				mov	[bp-7],al
2926:48C4  8A 46 F9				mov	al,[bp-7]
2926:48C7  32 E4				xor	ah,ah			; Zero register
2926:48C9  81 F8 0000				cmp	ax,0
						nop	                        ;*ASM fixup - short reg form
2926:48CD  B8 0000				mov	ax,0
2926:48D0  74 01				jz	loc_362			; Jump if zero
2926:48D2  40					inc	ax
2926:48D3			loc_362:					;  xref 2926:48D0
2926:48D3  D0 D8				rcr	al,1			; Rotate thru carry
2926:48D5  72 03				jc	loc_363			; Jump if carry Set
2926:48D7  E9 FFD8				jmp	loc_361			; (48B2)
						nop	                                        ;*jump fixup
2926:48DA			loc_363:					;  xref 2926:48D5
2926:48DA  C4 3E 83AF				les	di,dword ptr ds:data_204e	; (2926:83AF=0) Load seg:offset ptr
2926:48DE  83 C7 38				add	di,38h
2926:48E1  06					push	es
2926:48E2  57					push	di
2926:48E3  58					pop	ax
2926:48E4  05 0000				add	ax,0
2926:48E7  97					xchg	di,ax
2926:48E8  8A 46 F9				mov	al,[bp-7]
2926:48EB  07					pop	es
2926:48EC  26: 88 05				mov	es:[di],al
2926:48EF  E9 00DB				jmp	loc_371			; (49CD)
2926:48F2			loc_364:					;  xref 2926:48AF
2926:48F2  C4 3E 83AF				les	di,dword ptr ds:data_204e	; (2926:83AF=0) Load seg:offset ptr
2926:48F6  83 C7 26				add	di,26h
2926:48F9  26: 8A 05				mov	al,es:[di]
2926:48FC  32 E4				xor	ah,ah			; Zero register
2926:48FE  3D 0007				cmp	ax,7
           ICON2.lst       ICON2.OVL		Sourcer	v8.01  20-Jul-2026 12:24 am   Page 137

2926:4901  74 03				je	loc_365			; Jump if equal
2926:4903  E9 0027				jmp	loc_366			; (492D)
2926:4906			loc_365:					;  xref 2926:4901
2926:4906  B8 0003				mov	ax,3
2926:4909  50					push	ax
2926:490A  16					push	ss
2926:490B  8D 46 FC				lea	ax,[bp-4]		; Load effective addr
2926:490E  50					push	ax
2926:490F  E8 10D1				call	sub_151			; (59E3)
2926:4912  88 46 F9				mov	[bp-7],al
2926:4915  C4 3E 83AF				les	di,dword ptr ds:data_204e	; (2926:83AF=0) Load seg:offset ptr
2926:4919  83 C7 38				add	di,38h
2926:491C  06					push	es
2926:491D  57					push	di
2926:491E  58					pop	ax
2926:491F  05 0000				add	ax,0
2926:4922  97					xchg	di,ax
2926:4923  8A 46 F9				mov	al,[bp-7]
2926:4926  07					pop	es
2926:4927  26: 88 05				mov	es:[di],al
2926:492A  E9 00A0				jmp	loc_371			; (49CD)
2926:492D			loc_366:					;  xref 2926:4903
2926:492D  C4 3E 83AF				les	di,dword ptr ds:data_204e	; (2926:83AF=0) Load seg:offset ptr
2926:4931  83 C7 36				add	di,36h
2926:4934  26: 8B 05				mov	ax,es:[di]
2926:4937  89 46 FC				mov	[bp-4],ax
2926:493A  C4 3E 83AF				les	di,dword ptr ds:data_204e	; (2926:83AF=0) Load seg:offset ptr
2926:493E  83 C7 2E				add	di,2Eh
2926:4941  26: 8A 05				mov	al,es:[di]
2926:4944  88 46 F8				mov	[bp-8],al
2926:4947  C7 46 FA 0001			mov	word ptr [bp-6],1
2926:494C			loc_367:					;  xref 2926:49AA
2926:494C ú8B 46 FA				mov	ax,[bp-6]
2926:494F  50					push	ax
2926:4950  C4 3E 83AF				les	di,dword ptr ds:data_204e	; (2926:83AF=0) Load seg:offset ptr
2926:4954  83 C7 28				add	di,28h
2926:4957  26: 8B 05				mov	ax,es:[di]
2926:495A  5B					pop	bx
2926:495B  3B D8				cmp	bx,ax
2926:495D  B8 0000				mov	ax,0
2926:4960  7F 01				jg	loc_368			; Jump if >
2926:4962  40					inc	ax
2926:4963			loc_368:					;  xref 2926:4960
2926:4963  50					push	ax
2926:4964  8A 46 F8				mov	al,[bp-8]
2926:4967  32 E4				xor	ah,ah			; Zero register
2926:4969  F7 D0				not	ax
2926:496B  5B					pop	bx
2926:496C  23 C3				and	ax,bx
2926:496E  D0 D8				rcr	al,1			; Rotate thru carry
2926:4970  72 03				jc	loc_369			; Jump if carry Set
2926:4972  E9 0037				jmp	loc_370			; (49AC)
2926:4975			loc_369:					;  xref 2926:4970
2926:4975  C4 3E 83AF				les	di,dword ptr ds:data_204e	; (2926:83AF=0) Load seg:offset ptr
2926:4979  06					push	es
2926:497A  57					push	di
2926:497B  58					pop	ax
           ICON2.lst       ICON2.OVL		Sourcer	v8.01  20-Jul-2026 12:24 am   Page 138

2926:497C  89 46 F4				mov	[bp-0Ch],ax
2926:497F  58					pop	ax
2926:4980  89 46 F6				mov	[bp-0Ah],ax
2926:4983  C4 7E F4				les	di,dword ptr [bp-0Ch]	; Load seg:offset ptr
2926:4986  83 C7 38				add	di,38h
2926:4989  06					push	es
2926:498A  57					push	di
2926:498B  8B 46 FA				mov	ax,[bp-6]
2926:498E  48					dec	ax
2926:498F  5B					pop	bx
2926:4990  03 C3				add	ax,bx
2926:4992  50					push	ax
2926:4993  FF 76 FC				push	word ptr [bp-4]
2926:4996  16					push	ss
2926:4997  8D 46 F8				lea	ax,[bp-8]		; Load effective addr
2926:499A  50					push	ax
2926:499B  E8 F362				call	sub_92			; (3D00)
2926:499E  5F					pop	di
2926:499F  07					pop	es
2926:49A0  26: 88 05				mov	es:[di],al
2926:49A3  8B 46 FA				mov	ax,[bp-6]
2926:49A6  40					inc	ax
2926:49A7  89 46 FA				mov	[bp-6],ax
2926:49AA  EB A0				jmp	short loc_367		; (494C)
2926:49AC			loc_370:					;  xref 2926:4972
2926:49AC  C4 3E 83AF				les	di,dword ptr ds:data_204e	; (2926:83AF=0) Load seg:offset ptr
2926:49B0  83 C7 2E				add	di,2Eh
2926:49B3  90					nop
2926:49B4  90					nop
2926:49B5  8A 46 F8				mov	al,[bp-8]
2926:49B8  26: 88 05				mov	es:[di],al
2926:49BB  C4 3E 83AF				les	di,dword ptr ds:data_204e	; (2926:83AF=0) Load seg:offset ptr
2926:49BF  83 C7 2C				add	di,2Ch
2926:49C2  06					push	es
2926:49C3  57					push	di
2926:49C4  8B 46 FA				mov	ax,[bp-6]
2926:49C7  48					dec	ax
2926:49C8  5F					pop	di
2926:49C9  07					pop	es
2926:49CA  26: 89 05				mov	es:[di],ax
2926:49CD			loc_371:					;  xref 2926:489B, 48EF, 492A
2926:49CD  8B E5				mov	sp,bp
2926:49CF  5D					pop	bp
2926:49D0  C3					retn
2926:49D1			loc_372:					;  xref 2926:3D09
2926:49D1  55					push	bp
2926:49D2  8B EC				mov	bp,sp
2926:49D4  55					push	bp
2926:49D5  81 EC 000D				sub	sp,0Dh
2926:49D9  C7 06 83B3 0000			mov	word ptr ds:data_206e,0	; (2926:83B3=0)
2926:49DF  C4 3E 83AF				les	di,dword ptr ds:data_204e	; (2926:83AF=0) Load seg:offset ptr
2926:49E3  83 C7 26				add	di,26h
2926:49E6  26: 8A 05				mov	al,es:[di]
2926:49E9  32 E4				xor	ah,ah			; Zero register
2926:49EB  3D 0004				cmp	ax,4
2926:49EE  74 03				je	loc_373			; Jump if equal
2926:49F0  E9 001F				jmp	loc_374			; (4A12)
           ICON2.lst       ICON2.OVL		Sourcer	v8.01  20-Jul-2026 12:24 am   Page 139

2926:49F3			loc_373:					;  xref 2926:49EE
2926:49F3  B8 0002				mov	ax,2
2926:49F6  50					push	ax
2926:49F7  C4 3E 83AF				les	di,dword ptr ds:data_204e	; (2926:83AF=0) Load seg:offset ptr
2926:49FB  83 C7 38				add	di,38h
2926:49FE  06					push	es
2926:49FF  57					push	di
2926:4A00  58					pop	ax
2926:4A01  05 0000				add	ax,0
2926:4A04  97					xchg	di,ax
2926:4A05  07					pop	es
2926:4A06  26: 8A 05				mov	al,es:[di]
2926:4A09  32 E4				xor	ah,ah			; Zero register
2926:4A0B  50					push	ax
2926:4A0C  E8 0FF5				call	sub_152			; (5A04)
2926:4A0F  E9 0107				jmp	loc_384			; (4B19)
2926:4A12			loc_374:					;  xref 2926:49F0
2926:4A12  C4 3E 83AF				les	di,dword ptr ds:data_204e	; (2926:83AF=0) Load seg:offset ptr
2926:4A16  83 C7 26				add	di,26h
2926:4A19  26: 8A 05				mov	al,es:[di]
2926:4A1C  32 E4				xor	ah,ah			; Zero register
2926:4A1E  3D 0005				cmp	ax,5
2926:4A21  74 03				je	loc_375			; Jump if equal
2926:4A23  E9 001F				jmp	loc_376			; (4A45)
2926:4A26			loc_375:					;  xref 2926:4A21
2926:4A26  B8 0006				mov	ax,6
2926:4A29  50					push	ax
2926:4A2A  C4 3E 83AF				les	di,dword ptr ds:data_204e	; (2926:83AF=0) Load seg:offset ptr
2926:4A2E  83 C7 38				add	di,38h
2926:4A31  06					push	es
2926:4A32  57					push	di
2926:4A33  58					pop	ax
2926:4A34  05 0000				add	ax,0
2926:4A37  97					xchg	di,ax
2926:4A38  07					pop	es
2926:4A39  26: 8A 05				mov	al,es:[di]
2926:4A3C  32 E4				xor	ah,ah			; Zero register
2926:4A3E  50					push	ax
2926:4A3F  E8 0FC2				call	sub_152			; (5A04)
2926:4A42  E9 00D4				jmp	loc_384			; (4B19)
2926:4A45			loc_376:					;  xref 2926:4A23
2926:4A45  C4 3E 83AF				les	di,dword ptr ds:data_204e	; (2926:83AF=0) Load seg:offset ptr
2926:4A49  83 C7 26				add	di,26h
2926:4A4C  26: 8A 05				mov	al,es:[di]
2926:4A4F  32 E4				xor	ah,ah			; Zero register
2926:4A51  3D 0006				cmp	ax,6
2926:4A54  74 03				je	loc_377			; Jump if equal
2926:4A56  E9 001F				jmp	loc_378			; (4A78)
2926:4A59			loc_377:					;  xref 2926:4A54
2926:4A59  B8 0005				mov	ax,5
2926:4A5C  50					push	ax
2926:4A5D  C4 3E 83AF				les	di,dword ptr ds:data_204e	; (2926:83AF=0) Load seg:offset ptr
2926:4A61  83 C7 38				add	di,38h
2926:4A64  06					push	es
2926:4A65  57					push	di
2926:4A66  58					pop	ax
2926:4A67  05 0000				add	ax,0
           ICON2.lst       ICON2.OVL		Sourcer	v8.01  20-Jul-2026 12:24 am   Page 140

2926:4A6A  97					xchg	di,ax
2926:4A6B  07					pop	es
2926:4A6C  26: 8A 05				mov	al,es:[di]
2926:4A6F  32 E4				xor	ah,ah			; Zero register
2926:4A71  50					push	ax
2926:4A72  E8 0F8F				call	sub_152			; (5A04)
2926:4A75  E9 00A1				jmp	loc_384			; (4B19)
2926:4A78			loc_378:					;  xref 2926:4A56
2926:4A78  C4 3E 83AF				les	di,dword ptr ds:data_204e	; (2926:83AF=0) Load seg:offset ptr
2926:4A7C  83 C7 26				add	di,26h
2926:4A7F  26: 8A 05				mov	al,es:[di]
2926:4A82  32 E4				xor	ah,ah			; Zero register
2926:4A84  3D 0007				cmp	ax,7
2926:4A87  74 03				je	loc_379			; Jump if equal
2926:4A89  E9 001F				jmp	loc_380			; (4AAB)
2926:4A8C			loc_379:					;  xref 2926:4A87
2926:4A8C  B8 0004				mov	ax,4
2926:4A8F  50					push	ax
2926:4A90  C4 3E 83AF				les	di,dword ptr ds:data_204e	; (2926:83AF=0) Load seg:offset ptr
2926:4A94  83 C7 38				add	di,38h
2926:4A97  06					push	es
2926:4A98  57					push	di
2926:4A99  58					pop	ax
2926:4A9A  05 0000				add	ax,0
2926:4A9D  97					xchg	di,ax
2926:4A9E  07					pop	es
2926:4A9F  26: 8A 05				mov	al,es:[di]
2926:4AA2  32 E4				xor	ah,ah			; Zero register
2926:4AA4  50					push	ax
2926:4AA5  E8 0F5C				call	sub_152			; (5A04)
2926:4AA8  E9 006E				jmp	loc_384			; (4B19)
2926:4AAB			loc_380:					;  xref 2926:4A89
2926:4AAB  C4 3E 83AF				les	di,dword ptr ds:data_204e	; (2926:83AF=0) Load seg:offset ptr
2926:4AAF  83 C7 36				add	di,36h
2926:4AB2  26: 8B 05				mov	ax,es:[di]
2926:4AB5  89 46 FC				mov	[bp-4],ax
2926:4AB8  B8 0001				mov	ax,1
2926:4ABB  50					push	ax
2926:4ABC  C4 3E 83AF				les	di,dword ptr ds:data_204e	; (2926:83AF=0) Load seg:offset ptr
2926:4AC0  83 C7 28				add	di,28h
2926:4AC3  26: 8B 05				mov	ax,es:[di]
2926:4AC6  5B					pop	bx
2926:4AC7  93					xchg	bx,ax
2926:4AC8  89 46 FA				mov	[bp-6],ax
2926:4ACB  93					xchg	bx,ax
2926:4ACC  FF 4E FA				dec	word ptr [bp-6]
2926:4ACF  2B C3				sub	ax,bx
2926:4AD1  40					inc	ax
2926:4AD2  89 46 F7				mov	[bp-9],ax
2926:4AD5			loc_381:					;  xref 2926:4B0B
2926:4AD5 úFF 46 FA				inc	word ptr [bp-6]
2926:4AD8  FF 4E F7				dec	word ptr [bp-9]
2926:4ADB  7D 03				jge	loc_382			; Jump if > or =
2926:4ADD  E9 002D				jmp	loc_383			; (4B0D)
2926:4AE0			loc_382:					;  xref 2926:4ADB
2926:4AE0  C4 3E 83AF				les	di,dword ptr ds:data_204e	; (2926:83AF=0) Load seg:offset ptr
2926:4AE4  06					push	es
           ICON2.lst       ICON2.OVL		Sourcer	v8.01  20-Jul-2026 12:24 am   Page 141

2926:4AE5  57					push	di
2926:4AE6  58					pop	ax
2926:4AE7  89 46 F3				mov	[bp-0Dh],ax
2926:4AEA  58					pop	ax
2926:4AEB  89 46 F5				mov	[bp-0Bh],ax
2926:4AEE  C4 7E F3				les	di,dword ptr [bp-0Dh]	; Load seg:offset ptr
2926:4AF1  83 C7 38				add	di,38h
2926:4AF4  06					push	es
2926:4AF5  57					push	di
2926:4AF6  8B 46 FA				mov	ax,[bp-6]
2926:4AF9  48					dec	ax
2926:4AFA  5B					pop	bx
2926:4AFB  03 C3				add	ax,bx
2926:4AFD  97					xchg	di,ax
2926:4AFE  07					pop	es
2926:4AFF  26: 8A 05				mov	al,es:[di]
2926:4B02  32 E4				xor	ah,ah			; Zero register
2926:4B04  50					push	ax
2926:4B05  FF 76 FC				push	word ptr [bp-4]
2926:4B08  E8 F1F8				call	sub_93			; (3D03)
2926:4B0B  EB C8				jmp	short loc_381		; (4AD5)
2926:4B0D			loc_383:					;  xref 2926:4ADD
2926:4B0D  C4 3E 83AF				les	di,dword ptr ds:data_204e	; (2926:83AF=0) Load seg:offset ptr
2926:4B11  83 C7 2A				add	di,2Ah
2926:4B14  26: C7 05 0000			mov	word ptr es:[di],0
2926:4B19			loc_384:					;  xref 2926:4A0F, 4A42, 4A75, 4AA8
2926:4B19  8B E5				mov	sp,bp
2926:4B1B  5D					pop	bp
2926:4B1C  C3					retn
2926:4B1D			loc_385:					;  xref 2926:3D0C
2926:4B1D  55					push	bp
2926:4B1E  8B EC				mov	bp,sp
2926:4B20  55					push	bp
2926:4B21  81 EC 0002				sub	sp,2
2926:4B25  1E					push	ds
2926:4B26  B8 83B5				mov	ax,83B5h
2926:4B29  50					push	ax
2926:4B2A  C4 7E 06				les	di,dword ptr [bp+6]	; Load seg:offset ptr
2926:4B2D  83 C7 36				add	di,36h
2926:4B30  26: 8B 05				mov	ax,es:[di]
2926:4B33  BB 00A9				mov	bx,0A9h
2926:4B36  F7 E3				mul	bx			; dx:ax = reg * ax
2926:4B38  5B					pop	bx
2926:4B39  03 C3				add	ax,bx
2926:4B3B  40					inc	ax
2926:4B3C  50					push	ax
2926:4B3D  E8 020A				call	sub_110			; (4D4A)
2926:4B40  8B E5				mov	sp,bp
2926:4B42  5D					pop	bp
2926:4B43  C2 0006				retn	6
2926:4B46  E9 00 00				db	0E9h, 00h, 00h

				;ßßßßßßßßßßßßßßßßßßßßßßßßßßßßßßßßßßßßßßßßßßßßßßßßßßßßßßßßßßßßßßßßßßßßßßßßßß
				;                              SUBROUTINE
				;
				;         Called from:   2926:01E4, 01FF, 03CB, 03D6, 0462, 07CE, 07D9
				;                             0856, 089D, 0D62, 0F05, 3285, 32C6, 3308
           ICON2.lst       ICON2.OVL				Sourcer	v8.01  20-Jul-2026 12:24 am   Page 142

				;                             3349, 340A, 344A, 34CC, 350A, 354B, 358A
				;                             364C, 367A, 3A24, 3A75, 3A9F, 3DA2
				;ÜÜÜÜÜÜÜÜÜÜÜÜÜÜÜÜÜÜÜÜÜÜÜÜÜÜÜÜÜÜÜÜÜÜÜÜÜÜÜÜÜÜÜÜÜÜÜÜÜÜÜÜÜÜÜÜÜÜÜÜÜÜÜÜÜÜÜÜÜÜÜÜÜÜ

2926:4B49			sub_105		proc	near
2926:4B49  E9 0000				jmp	loc_386			; (4B4C)
2926:4B4C			loc_386:					;  xref 2926:4B49
2926:4B4C  55					push	bp
2926:4B4D  8B EC				mov	bp,sp
2926:4B4F  55					push	bp
2926:4B50  81 EC 0002				sub	sp,2
2926:4B54  B8 000D				mov	ax,0Dh
2926:4B57 ú50					push	ax
2926:4B58  E8 08E0				call	sub_125			; (543B)
2926:4B5B  B8 000A				mov	ax,0Ah
2926:4B5E ú50					push	ax
2926:4B5F  E8 08D9				call	sub_125			; (543B)
2926:4B62  8B E5				mov	sp,bp
2926:4B64  5D					pop	bp
2926:4B65  C3					retn
				sub_105		endp

2926:4B66  E9 00 00				db	0E9h, 00h, 00h

				;ßßßßßßßßßßßßßßßßßßßßßßßßßßßßßßßßßßßßßßßßßßßßßßßßßßßßßßßßßßßßßßßßßßßßßßßßßß
				;                              SUBROUTINE
				;
				;         Called from:   2926:40A7
				;ÜÜÜÜÜÜÜÜÜÜÜÜÜÜÜÜÜÜÜÜÜÜÜÜÜÜÜÜÜÜÜÜÜÜÜÜÜÜÜÜÜÜÜÜÜÜÜÜÜÜÜÜÜÜÜÜÜÜÜÜÜÜÜÜÜÜÜÜÜÜÜÜÜÜ

2926:4B69			sub_106		proc	near
2926:4B69  E9 0000				jmp	loc_387			; (4B6C)
2926:4B6C			loc_387:					;  xref 2926:4B69
2926:4B6C  55					push	bp
2926:4B6D  8B EC				mov	bp,sp
2926:4B6F  55					push	bp
2926:4B70  81 EC 0002				sub	sp,2
2926:4B74  C4 7E 08				les	di,dword ptr [bp+8]	; Load seg:offset ptr
2926:4B77  06					push	es
2926:4B78  57					push	di
2926:4B79  8B 46 06				mov	ax,[bp+6]
2926:4B7C  93					xchg	bx,ax
2926:4B7D  8B 46 04				mov	ax,[bp+4]
2926:4B80  03 C3				add	ax,bx
2926:4B82  5B					pop	bx
2926:4B83  03 C3				add	ax,bx
2926:4B85  50					push	ax
2926:4B86  C4 7E 08				les	di,dword ptr [bp+8]	; Load seg:offset ptr
2926:4B89  06					push	es
2926:4B8A  57					push	di
2926:4B8B  8B 46 06				mov	ax,[bp+6]
2926:4B8E  5B					pop	bx
2926:4B8F  03 C3				add	ax,bx
2926:4B91 ú50					push	ax
2926:4B92  C4 7E 08				les	di,dword ptr [bp+8]	; Load seg:offset ptr
2926:4B95  26: 8A 05				mov	al,es:[di]
2926:4B98  32 E4				xor	ah,ah			; Zero register
           ICON2.lst       ICON2.OVL		Sourcer	v8.01  20-Jul-2026 12:24 am   Page 143

2926:4B9A  50					push	ax
2926:4B9B  8B 46 06				mov	ax,[bp+6]
2926:4B9E  93					xchg	bx,ax
2926:4B9F  8B 46 04				mov	ax,[bp+4]
2926:4BA2  03 C3				add	ax,bx
2926:4BA4  48					dec	ax
2926:4BA5  5B					pop	bx
2926:4BA6  2B D8				sub	bx,ax
2926:4BA8  53					push	bx
2926:4BA9  E8 0A72				call	sub_133			; (561E)
2926:4BAC  C4 7E 08				les	di,dword ptr [bp+8]	; Load seg:offset ptr
2926:4BAF  06					push	es
2926:4BB0  57					push	di
2926:4BB1  58					pop	ax
2926:4BB2  05 0000				add	ax,0
2926:4BB5  50					push	ax
2926:4BB6  C4 7E 08				les	di,dword ptr [bp+8]	; Load seg:offset ptr
2926:4BB9  26: 8A 05				mov	al,es:[di]
2926:4BBC  32 E4				xor	ah,ah			; Zero register
2926:4BBE  50					push	ax
2926:4BBF  8B 46 04				mov	ax,[bp+4]
2926:4BC2  5B					pop	bx
2926:4BC3  2B D8				sub	bx,ax
2926:4BC5  93					xchg	bx,ax
2926:4BC6  5F					pop	di
2926:4BC7  07					pop	es
2926:4BC8  26: 88 05				mov	es:[di],al
2926:4BCB  8B E5				mov	sp,bp
2926:4BCD  5D					pop	bp
2926:4BCE  C2 0008				retn	8
				sub_106		endp

2926:4BD1  E9 00 00				db	0E9h, 00h, 00h

				;ßßßßßßßßßßßßßßßßßßßßßßßßßßßßßßßßßßßßßßßßßßßßßßßßßßßßßßßßßßßßßßßßßßßßßßßßßß
				;                              SUBROUTINE
				;
				;         Called from:   2926:3B7D
				;ÜÜÜÜÜÜÜÜÜÜÜÜÜÜÜÜÜÜÜÜÜÜÜÜÜÜÜÜÜÜÜÜÜÜÜÜÜÜÜÜÜÜÜÜÜÜÜÜÜÜÜÜÜÜÜÜÜÜÜÜÜÜÜÜÜÜÜÜÜÜÜÜÜÜ

2926:4BD4			sub_107		proc	near
2926:4BD4  E9 0000				jmp	loc_388			; (4BD7)
2926:4BD7			loc_388:					;  xref 2926:4BD4
2926:4BD7  55					push	bp
2926:4BD8  8B EC				mov	bp,sp
2926:4BDA  55					push	bp
2926:4BDB  81 EC 0003				sub	sp,3
2926:4BDF  C4 7E 06				les	di,dword ptr [bp+6]	; Load seg:offset ptr
2926:4BE2  83 C7 2F				add	di,2Fh
2926:4BE5  26: C6 05 00				mov	byte ptr es:[di],0
2926:4BE9  C4 7E 06				les	di,dword ptr [bp+6]	; Load seg:offset ptr
2926:4BEC  06					push	es
2926:4BED  57					push	di
2926:4BEE  58					pop	ax
2926:4BEF  A3 83AF				mov	ds:data_204e,ax		; (2926:83AF=0)
2926:4BF2  58					pop	ax
2926:4BF3  A3 83B1				mov	word ptr ds:data_204e+2,ax	; (2926:83B1=0)
           ICON2.lst       ICON2.OVL		Sourcer	v8.01  20-Jul-2026 12:24 am   Page 144

2926:4BF6  C4 7E 06				les	di,dword ptr [bp+6]	; Load seg:offset ptr
2926:4BF9  83 C7 2E				add	di,2Eh
2926:4BFC  26: F6 05 01				test	byte ptr es:[di],1
2926:4C00  75 03				jnz	loc_389			; Jump if not zero
2926:4C02  E9 000D				jmp	loc_390			; (4C12)
2926:4C05			loc_389:					;  xref 2926:4C00
2926:4C05  C4 7E 06				les	di,dword ptr [bp+6]	; Load seg:offset ptr
2926:4C08  83 C7 2F				add	di,2Fh
2926:4C0B  26: C6 05 01				mov	byte ptr es:[di],1
2926:4C0F  E9 00DF				jmp	loc_400			; (4CF1)
2926:4C12			loc_390:					;  xref 2926:4C02
2926:4C12  E8 F0F1				call	sub_94			; (3D06)
2926:4C15  C4 7E 06				les	di,dword ptr [bp+6]	; Load seg:offset ptr
2926:4C18  83 C7 34				add	di,34h
2926:4C1B  26: F6 05 01				test	byte ptr es:[di],1
2926:4C1F  75 03				jnz	loc_391			; Jump if not zero
2926:4C21  E9 00CD				jmp	loc_400			; (4CF1)
2926:4C24			loc_391:					;  xref 2926:4C1F
2926:4C24  C4 7E 06				les	di,dword ptr [bp+6]	; Load seg:offset ptr
2926:4C27  83 C7 2E				add	di,2Eh
2926:4C2A  06					push	es
2926:4C2B  57					push	di
2926:4C2C  C4 7E 06				les	di,dword ptr [bp+6]	; Load seg:offset ptr
2926:4C2F  83 C7 38				add	di,38h
2926:4C32  06					push	es
2926:4C33  57					push	di
2926:4C34  58					pop	ax
2926:4C35  05 0000				add	ax,0
2926:4C38  97					xchg	di,ax
2926:4C39  07					pop	es
2926:4C3A  26: 8A 05				mov	al,es:[di]
2926:4C3D  3C 1A				cmp	al,1Ah
2926:4C3F  B8 0000				mov	ax,0
2926:4C42  75 01				jnz	loc_392			; Jump if not zero
2926:4C44  40					inc	ax
2926:4C45			loc_392:					;  xref 2926:4C42
2926:4C45  50					push	ax
2926:4C46  C4 7E 06				les	di,dword ptr [bp+6]	; Load seg:offset ptr
2926:4C49  83 C7 2E				add	di,2Eh
2926:4C4C  26: 8A 05				mov	al,es:[di]
2926:4C4F  32 E4				xor	ah,ah			; Zero register
2926:4C51  5B					pop	bx
2926:4C52  0B C3				or	ax,bx
2926:4C54  5F					pop	di
2926:4C55  07					pop	es
2926:4C56  26: 88 05				mov	es:[di],al
2926:4C59  C4 7E 06				les	di,dword ptr [bp+6]	; Load seg:offset ptr
2926:4C5C  83 C7 38				add	di,38h
2926:4C5F  06					push	es
2926:4C60  57					push	di
2926:4C61  58					pop	ax
2926:4C62  05 0000				add	ax,0
2926:4C65  97					xchg	di,ax
2926:4C66  07					pop	es
2926:4C67  26: 8A 05				mov	al,es:[di]
2926:4C6A  3C 0D				cmp	al,0Dh
2926:4C6C  B8 0000				mov	ax,0
           ICON2.lst       ICON2.OVL		Sourcer	v8.01  20-Jul-2026 12:24 am   Page 145

2926:4C6F  75 01				jnz	loc_393			; Jump if not zero
2926:4C71  40					inc	ax
2926:4C72			loc_393:					;  xref 2926:4C6F
2926:4C72  88 46 FD				mov	[bp-3],al
2926:4C75  8A 46 FD				mov	al,[bp-3]
2926:4C78  32 E4				xor	ah,ah			; Zero register
2926:4C7A  50					push	ax
2926:4C7B  C4 7E 06				les	di,dword ptr [bp+6]	; Load seg:offset ptr
2926:4C7E  83 C7 2E				add	di,2Eh
2926:4C81  26: 8A 05				mov	al,es:[di]
2926:4C84  32 E4				xor	ah,ah			; Zero register
2926:4C86  5B					pop	bx
2926:4C87  0B C3				or	ax,bx
2926:4C89  D0 D8				rcr	al,1			; Rotate thru carry
2926:4C8B  72 03				jc	loc_394			; Jump if carry Set
2926:4C8D  E9 000A				jmp	loc_395			; (4C9A)
2926:4C90			loc_394:					;  xref 2926:4C8B
2926:4C90  C4 7E 06				les	di,dword ptr [bp+6]	; Load seg:offset ptr
2926:4C93  83 C7 2F				add	di,2Fh
2926:4C96  26: C6 05 01				mov	byte ptr es:[di],1
2926:4C9A			loc_395:					;  xref 2926:4C8D
2926:4C9A  8A 46 FD				mov	al,[bp-3]
2926:4C9D  32 E4				xor	ah,ah			; Zero register
2926:4C9F  50					push	ax
2926:4CA0  C4 7E 06				les	di,dword ptr [bp+6]	; Load seg:offset ptr
2926:4CA3  83 C7 26				add	di,26h
2926:4CA6  26: 8A 05				mov	al,es:[di]
2926:4CA9  3C 02				cmp	al,2
2926:4CAB  B8 0000				mov	ax,0
2926:4CAE  75 01				jnz	loc_396			; Jump if not zero
2926:4CB0  40					inc	ax
2926:4CB1			loc_396:					;  xref 2926:4CAE
2926:4CB1  5B					pop	bx
2926:4CB2  23 C3				and	ax,bx
2926:4CB4  D0 D8				rcr	al,1			; Rotate thru carry
2926:4CB6  72 03				jc	loc_397			; Jump if carry Set
2926:4CB8  E9 0003				jmp	loc_398			; (4CBE)
2926:4CBB			loc_397:					;  xref 2926:4CB6
2926:4CBB  E8 F048				call	sub_94			; (3D06)
2926:4CBE			loc_398:					;  xref 2926:4CB8
2926:4CBE  C4 7E 06				les	di,dword ptr [bp+6]	; Load seg:offset ptr
2926:4CC1  83 C7 2E				add	di,2Eh
2926:4CC4  26: 8A 05				mov	al,es:[di]
2926:4CC7  32 E4				xor	ah,ah			; Zero register
2926:4CC9  50					push	ax
2926:4CCA  C4 7E 06				les	di,dword ptr [bp+6]	; Load seg:offset ptr
2926:4CCD  83 C7 2F				add	di,2Fh
2926:4CD0  26: 8A 05				mov	al,es:[di]
2926:4CD3  32 E4				xor	ah,ah			; Zero register
2926:4CD5  5B					pop	bx
2926:4CD6  0B C3				or	ax,bx
2926:4CD8  D0 D8				rcr	al,1			; Rotate thru carry
2926:4CDA  72 03				jc	loc_399			; Jump if carry Set
2926:4CDC  E9 0012				jmp	loc_400			; (4CF1)
2926:4CDF			loc_399:					;  xref 2926:4CDA
2926:4CDF  C4 7E 06				les	di,dword ptr [bp+6]	; Load seg:offset ptr
2926:4CE2  83 C7 38				add	di,38h
           ICON2.lst       ICON2.OVL		Sourcer	v8.01  20-Jul-2026 12:24 am   Page 146

2926:4CE5  06					push	es
2926:4CE6  57					push	di
2926:4CE7  58					pop	ax
2926:4CE8  05 0000				add	ax,0
2926:4CEB  97					xchg	di,ax
2926:4CEC  07					pop	es
2926:4CED  26: C6 05 20				mov	byte ptr es:[di],20h	; ' '
2926:4CF1			loc_400:					;  xref 2926:4C0F, 4C21, 4CDC
2926:4CF1  8B E5				mov	sp,bp
2926:4CF3  5D					pop	bp
2926:4CF4  C2 0006				retn	6
				sub_107		endp

2926:4CF7  E9 00 00				db	0E9h, 00h, 00h

				;ßßßßßßßßßßßßßßßßßßßßßßßßßßßßßßßßßßßßßßßßßßßßßßßßßßßßßßßßßßßßßßßßßßßßßßßßßß
				;                              SUBROUTINE
				;
				;         Called from:   2926:3CB2
				;ÜÜÜÜÜÜÜÜÜÜÜÜÜÜÜÜÜÜÜÜÜÜÜÜÜÜÜÜÜÜÜÜÜÜÜÜÜÜÜÜÜÜÜÜÜÜÜÜÜÜÜÜÜÜÜÜÜÜÜÜÜÜÜÜÜÜÜÜÜÜÜÜÜÜ

2926:4CFA			sub_108		proc	near
2926:4CFA  E9 0000				jmp	loc_401			; (4CFD)
2926:4CFD			loc_401:					;  xref 2926:4CFA
2926:4CFD  55					push	bp
2926:4CFE  8B EC				mov	bp,sp
2926:4D00  55					push	bp
2926:4D01  81 EC 0002				sub	sp,2
2926:4D05  C4 7E 06				les	di,dword ptr [bp+6]	; Load seg:offset ptr
2926:4D08  06					push	es
2926:4D09  57					push	di
2926:4D0A  E8 EFEA				call	sub_89			; (3CF7)
2926:4D0D  A3 83B3				mov	ds:data_206e,ax		; (2926:83B3=0)
2926:4D10  8B E5				mov	sp,bp
2926:4D12  5D					pop	bp
2926:4D13  C2 0006				retn	6
				sub_108		endp

2926:4D16  E9 00 00				db	0E9h, 00h, 00h

				;ßßßßßßßßßßßßßßßßßßßßßßßßßßßßßßßßßßßßßßßßßßßßßßßßßßßßßßßßßßßßßßßßßßßßßßßßßß
				;                              SUBROUTINE
				;
				;         Called from:   2926:0780, 0832, 0D13, 380A
				;ÜÜÜÜÜÜÜÜÜÜÜÜÜÜÜÜÜÜÜÜÜÜÜÜÜÜÜÜÜÜÜÜÜÜÜÜÜÜÜÜÜÜÜÜÜÜÜÜÜÜÜÜÜÜÜÜÜÜÜÜÜÜÜÜÜÜÜÜÜÜÜÜÜÜ

2926:4D19			sub_109		proc	near
2926:4D19  E9 0000				jmp	loc_402			; (4D1C)
2926:4D1C			loc_402:					;  xref 2926:4D19
2926:4D1C  55					push	bp
2926:4D1D  8B EC				mov	bp,sp
2926:4D1F  55					push	bp
2926:4D20  81 EC 000C				sub	sp,0Ch
2926:4D24  A1 83B3				mov	ax,ds:data_206e		; (2926:83B3=0)
2926:4D27  89 46 F4				mov	[bp-0Ch],ax
2926:4D2A  8B 46 F4				mov	ax,[bp-0Ch]
2926:4D2D  8B E5				mov	sp,bp
           ICON2.lst       ICON2.OVL		Sourcer	v8.01  20-Jul-2026 12:24 am   Page 147

2926:4D2F  5D					pop	bp
2926:4D30  C3					retn
				sub_109		endp

							                        ;* No entry point to code
2926:4D31  8C DB				mov	bx,ds
2926:4D33  5A					pop	dx
2926:4D34  1F					pop	ds
2926:4D35  B4 1A				mov	ah,1Ah
2926:4D37  06					push	es
2926:4D38  CD 21				int	21h			; DOS Services  ah=function 1Ah
										;  set DTA(disk xfer area) ds:dx
2926:4D3A  07					pop	es
2926:4D3B  8E DB				mov	ds,bx
2926:4D3D  59					pop	cx
2926:4D3E úBA 005C				mov	dx,offset data_55	; (2926:005C=0)
2926:4D41  55					push	bp
2926:4D42  B4 27				mov	ah,27h			; '''
2926:4D44  06					push	es
2926:4D45  CD 21				int	21h			; DOS Services  ah=function 27h
										;  random block read, FCB @ds:dx
										;   cx=#records to read, Returns
										;   al=0 ok, cx=actual rec read
2926:4D47  07					pop	es
2926:4D48  5D					pop	bp
2926:4D49  CB					retf				; Return far

				;ßßßßßßßßßßßßßßßßßßßßßßßßßßßßßßßßßßßßßßßßßßßßßßßßßßßßßßßßßßßßßßßßßßßßßßßßßß
				;                              SUBROUTINE
				;
				;         Called from:   2926:4B3D
				;ÜÜÜÜÜÜÜÜÜÜÜÜÜÜÜÜÜÜÜÜÜÜÜÜÜÜÜÜÜÜÜÜÜÜÜÜÜÜÜÜÜÜÜÜÜÜÜÜÜÜÜÜÜÜÜÜÜÜÜÜÜÜÜÜÜÜÜÜÜÜÜÜÜÜ

2926:4D4A			sub_110		proc	near
2926:4D4A  5B					pop	bx
2926:4D4B  8C D8				mov	ax,ds
2926:4D4D  5E					pop	si
2926:4D4E  1F					pop	ds
2926:4D4F  8E C0				mov	es,ax
2926:4D51 úBF 005C				mov	di,offset data_55	; (2926:005C=0)
2926:4D54  B9 0025				mov	cx,25h
2926:4D57  FC					cld				; Clear direction
2926:4D58  F3/ A4				rep	movsb			; Rep when cx >0 Mov [si] to es:[di]
2926:4D5A  B3 05				mov	bl,5
2926:4D5C  26: 88 1E 007D			mov	es:data_57,bl		; (2926:007D=0)
2926:4D61  8E C0				mov	es,ax
2926:4D63 úBF 0082				mov	di,offset data_59	; (2926:0082=90h)
2926:4D66  8C C9				mov	cx,cs
2926:4D68  8E D9				mov	ds,cx
2926:4D6A úBE 4CB1				mov	si,4CB1h		; (2926:4CB1=5Bh)
2926:4D6D  B9 0019				mov	cx,19h
2926:4D70  F3/ A4				rep	movsb			; Rep when cx >0 Mov [si] to es:[di]
2926:4D72  8E D8				mov	ds,ax
2926:4D74  A1 006C				mov	ax,data_56		; (2926:006C=0)
2926:4D77  B1 07				mov	cl,7
2926:4D79  D3 E8				shr	ax,cl			; Shift w/zeros fill
2926:4D7B  48					dec	ax
           ICON2.lst       ICON2.OVL		Sourcer	v8.01  20-Jul-2026 12:24 am   Page 148

2926:4D7C  48					dec	ax
2926:4D7D  48					dec	ax
2926:4D7E  48					dec	ax
2926:4D7F  48					dec	ax
2926:4D80  0E					push	cs
2926:4D81  33 DB				xor	bx,bx			; Zero register
2926:4D83  53					push	bx
2926:4D84  50					push	ax
2926:4D85  0E					push	cs
2926:4D86  53					push	bx
2926:4D87  06					push	es
2926:4D88  B8 0082				mov	ax,82h
2926:4D8B  50					push	ax
2926:4D8C  8B EC				mov	bp,sp
2926:4D8E  CB					retf				; Return far
				sub_110		endp

2926:4D8F  E9 00 00				db	0E9h, 00h, 00h

				;ßßßßßßßßßßßßßßßßßßßßßßßßßßßßßßßßßßßßßßßßßßßßßßßßßßßßßßßßßßßßßßßßßßßßßßßßßß
				;                              SUBROUTINE
				;
				;         Called from:   2926:082F, 398C
				;ÜÜÜÜÜÜÜÜÜÜÜÜÜÜÜÜÜÜÜÜÜÜÜÜÜÜÜÜÜÜÜÜÜÜÜÜÜÜÜÜÜÜÜÜÜÜÜÜÜÜÜÜÜÜÜÜÜÜÜÜÜÜÜÜÜÜÜÜÜÜÜÜÜÜ

2926:4D92			sub_111		proc	near
2926:4D92  E9 0000				jmp	loc_403			; (4D95)
2926:4D95			loc_403:					;  xref 2926:4D92
2926:4D95  55					push	bp
2926:4D96  8B EC				mov	bp,sp
2926:4D98  55					push	bp
2926:4D99  81 EC 0053				sub	sp,53h
2926:4D9D  C4 7E 06				les	di,dword ptr [bp+6]	; Load seg:offset ptr
2926:4DA0  26: 8A 05				mov	al,es:[di]
2926:4DA3  3C 00				cmp	al,0
2926:4DA5  74 03				je	loc_404			; Jump if equal
2926:4DA7  E9 009E				jmp	loc_407			; (4E48)
2926:4DAA			loc_404:					;  xref 2926:4DA5
2926:4DAA  16					push	ss
2926:4DAB  8D 46 AD				lea	ax,[bp-53h]		; Load effective addr
2926:4DAE  50					push	ax
2926:4DAF  0E E8 000F				callf	sub_112			; (4DC2)
2926:4DB3  0E					push	cs
2926:4DB4  40					inc	ax
2926:4DB5  3A 50 41				cmp	dl,[bx+si+41h]
2926:4DB8  53					push	bx
2926:4DB9  54					push	sp
2926:4DBA  4D					dec	bp
2926:4DBB  50					push	ax
2926:4DBC  30 30				xor	[bx+si],dh
2926:4DBE  2E 24 24 24				db	 2Eh, 24h, 24h, 24h

				;ßßßß External Entry into Subroutine ßßßßßßßßßßßßßßßßßßßßßßßßßßßßßßßßßßßßßß
				;
				;         Called from:   2926:4DAF

2926:4DC2			sub_112:
           ICON2.lst       ICON2.OVL		Sourcer	v8.01  20-Jul-2026 12:24 am   Page 149

2926:4DC2  B8 0050				mov	ax,50h
2926:4DC5  50					push	ax
2926:4DC6  E8 EBCA				call	sub_73			; (3993)
2926:4DC9  1E					push	ds
2926:4DCA  B8 837F				mov	ax,837Fh
2926:4DCD  05 0001				add	ax,1
2926:4DD0  50					push	ax
2926:4DD1  16					push	ss
2926:4DD2  8D 46 AD				lea	ax,[bp-53h]		; Load effective addr
2926:4DD5  05 0009				add	ax,9
2926:4DD8 ú50					push	ax
2926:4DD9  B8 0002				mov	ax,2
2926:4DDC  50					push	ax
2926:4DDD  E8 083E				call	sub_133			; (561E)
2926:4DE0  1E					push	ds
2926:4DE1  B8 837F				mov	ax,837Fh
2926:4DE4  05 0002				add	ax,2
2926:4DE7  50					push	ax
2926:4DE8  1E					push	ds
2926:4DE9  B8 837F				mov	ax,837Fh
2926:4DEC  05 0002				add	ax,2
2926:4DEF  97					xchg	di,ax
2926:4DF0  07					pop	es
2926:4DF1  26: 8A 05				mov	al,es:[di]
2926:4DF4  32 E4				xor	ah,ah			; Zero register
2926:4DF6  40					inc	ax
2926:4DF7  5F					pop	di
2926:4DF8  07					pop	es
2926:4DF9  26: 88 05				mov	es:[di],al
2926:4DFC  1E					push	ds
2926:4DFD  B8 837F				mov	ax,837Fh
2926:4E00  05 0002				add	ax,2
2926:4E03  97					xchg	di,ax
2926:4E04  07					pop	es
2926:4E05  26: 8A 05				mov	al,es:[di]
2926:4E08  3C 39				cmp	al,39h			; '9'
2926:4E0A  7F 03				jg	loc_405			; Jump if >
2926:4E0C  E9 0029				jmp	loc_406			; (4E38)
2926:4E0F			loc_405:					;  xref 2926:4E0A
2926:4E0F  1E					push	ds
2926:4E10  B8 837F				mov	ax,837Fh
2926:4E13  05 0002				add	ax,2
2926:4E16  97					xchg	di,ax
2926:4E17  07					pop	es
2926:4E18  26: C6 05 30				mov	byte ptr es:[di],30h	; '0'
2926:4E1C  1E					push	ds
2926:4E1D  B8 837F				mov	ax,837Fh
2926:4E20  05 0001				add	ax,1
2926:4E23  50					push	ax
2926:4E24  1E					push	ds
2926:4E25  B8 837F				mov	ax,837Fh
2926:4E28  05 0001				add	ax,1
2926:4E2B  97					xchg	di,ax
2926:4E2C  07					pop	es
2926:4E2D  26: 8A 05				mov	al,es:[di]
2926:4E30  32 E4				xor	ah,ah			; Zero register
2926:4E32  40					inc	ax
           ICON2.lst       ICON2.OVL		Sourcer	v8.01  20-Jul-2026 12:24 am   Page 150

2926:4E33  5F					pop	di
2926:4E34  07					pop	es
2926:4E35  26: 88 05				mov	es:[di],al
2926:4E38			loc_406:					;  xref 2926:4E0C
2926:4E38  C4 7E 06				les	di,dword ptr [bp+6]	; Load seg:offset ptr
2926:4E3B  06					push	es
2926:4E3C  57					push	di
2926:4E3D  FF 76 04				push	word ptr [bp+4]
2926:4E40  16					push	ss
2926:4E41  8D 46 AD				lea	ax,[bp-53h]		; Load effective addr
2926:4E44  50					push	ax
2926:4E45  E8 09B2				call	sub_144			; (57FA)
2926:4E48			loc_407:					;  xref 2926:4DA7
2926:4E48  81 7E 04 FFFF			cmp	word ptr [bp+4],0FFFFh
2926:4E4D  74 03				je	loc_408			; Jump if equal
2926:4E4F  E9 0012				jmp	loc_409			; (4E64)
2926:4E52			loc_408:					;  xref 2926:4E4D
2926:4E52  C4 7E 06				les	di,dword ptr [bp+6]	; Load seg:offset ptr
2926:4E55  83 C7 34				add	di,34h
2926:4E58  26: C6 05 01				mov	byte ptr es:[di],1
2926:4E5C  C7 46 04 0001			mov	word ptr [bp+4],1
2926:4E61  E9 000A				jmp	loc_410			; (4E6E)
2926:4E64			loc_409:					;  xref 2926:4E4F
2926:4E64  C4 7E 06				les	di,dword ptr [bp+6]	; Load seg:offset ptr
2926:4E67  83 C7 34				add	di,34h
2926:4E6A  26: C6 05 00				mov	byte ptr es:[di],0
2926:4E6E			loc_410:					;  xref 2926:4E61
2926:4E6E  C4 7E 06				les	di,dword ptr [bp+6]	; Load seg:offset ptr
2926:4E71  83 C7 2E				add	di,2Eh
2926:4E74  26: C6 05 01				mov	byte ptr es:[di],1
2926:4E78  C4 7E 06				les	di,dword ptr [bp+6]	; Load seg:offset ptr
2926:4E7B  83 C7 2F				add	di,2Fh
2926:4E7E  26: C6 05 01				mov	byte ptr es:[di],1
2926:4E82  C4 7E 06				les	di,dword ptr [bp+6]	; Load seg:offset ptr
2926:4E85  83 C7 26				add	di,26h
2926:4E88  26: C6 05 01				mov	byte ptr es:[di],1
2926:4E8C  C4 7E 06				les	di,dword ptr [bp+6]	; Load seg:offset ptr
2926:4E8F  06					push	es
2926:4E90  57					push	di
2926:4E91  58					pop	ax
2926:4E92  A3 83AF				mov	ds:data_204e,ax		; (2926:83AF=0)
2926:4E95  58					pop	ax
2926:4E96  A3 83B1				mov	word ptr ds:data_204e+2,ax	; (2926:83B1=0)
2926:4E99  C4 7E 06				les	di,dword ptr [bp+6]	; Load seg:offset ptr
2926:4E9C  83 C7 2A				add	di,2Ah
2926:4E9F  26: C7 05 0000			mov	word ptr es:[di],0
2926:4EA4  C4 7E 06				les	di,dword ptr [bp+6]	; Load seg:offset ptr
2926:4EA7  83 C7 2C				add	di,2Ch
2926:4EAA  90					nop
2926:4EAB  90					nop
2926:4EAC  8B 46 04				mov	ax,[bp+4]
2926:4EAF  26: 89 05				mov	es:[di],ax
2926:4EB2  C4 7E 06				les	di,dword ptr [bp+6]	; Load seg:offset ptr
2926:4EB5  83 C7 30				add	di,30h
2926:4EB8  06					push	es
2926:4EB9  57					push	di
2926:4EBA  C4 7E 06				les	di,dword ptr [bp+6]	; Load seg:offset ptr
           ICON2.lst       ICON2.OVL		Sourcer	v8.01  20-Jul-2026 12:24 am   Page 151

2926:4EBD  83 C7 38				add	di,38h
2926:4EC0  06					push	es
2926:4EC1  57					push	di
2926:4EC2  E8 0B05				call	sub_148			; (59CA)
2926:4EC5  C4 7E 06				les	di,dword ptr [bp+6]	; Load seg:offset ptr
2926:4EC8  83 C7 28				add	di,28h
2926:4ECB  90					nop
2926:4ECC  90					nop
2926:4ECD  8B 46 04				mov	ax,[bp+4]
2926:4ED0  26: 89 05				mov	es:[di],ax
2926:4ED3  C4 7E 06				les	di,dword ptr [bp+6]	; Load seg:offset ptr
2926:4ED6  06					push	es
2926:4ED7  57					push	di
2926:4ED8  58					pop	ax
2926:4ED9  05 0001				add	ax,1
2926:4EDC  97					xchg	di,ax
2926:4EDD  07					pop	es
2926:4EDE  26: 8A 05				mov	al,es:[di]
2926:4EE1  3C 3A				cmp	al,3Ah			; ':'
2926:4EE3  B8 0000				mov	ax,0
2926:4EE6  75 01				jnz	loc_411			; Jump if not zero
2926:4EE8  40					inc	ax
2926:4EE9			loc_411:					;  xref 2926:4EE6
2926:4EE9  50					push	ax
2926:4EEA  C4 7E 06				les	di,dword ptr [bp+6]	; Load seg:offset ptr
2926:4EED  06					push	es
2926:4EEE  57					push	di
2926:4EEF  58					pop	ax
2926:4EF0  05 0002				add	ax,2
2926:4EF3  97					xchg	di,ax
2926:4EF4  07					pop	es
2926:4EF5  26: 8A 05				mov	al,es:[di]
2926:4EF8  3C 43				cmp	al,43h			; 'C'
2926:4EFA  B8 0000				mov	ax,0
2926:4EFD  75 01				jnz	loc_412			; Jump if not zero
2926:4EFF  40					inc	ax
2926:4F00			loc_412:					;  xref 2926:4EFD
2926:4F00  5B					pop	bx
2926:4F01  23 C3				and	ax,bx
2926:4F03  D0 D8				rcr	al,1			; Rotate thru carry
2926:4F05  72 03				jc	loc_413			; Jump if carry Set
2926:4F07  E9 000A				jmp	loc_414			; (4F14)
2926:4F0A			loc_413:					;  xref 2926:4F05
2926:4F0A  C4 7E 06				les	di,dword ptr [bp+6]	; Load seg:offset ptr
2926:4F0D  83 C7 26				add	di,26h
2926:4F10  26: C6 05 04				mov	byte ptr es:[di],4
2926:4F14			loc_414:					;  xref 2926:4F07
2926:4F14  C4 7E 06				les	di,dword ptr [bp+6]	; Load seg:offset ptr
2926:4F17  83 C7 36				add	di,36h
2926:4F1A  06					push	es
2926:4F1B  57					push	di
2926:4F1C  C4 7E 06				les	di,dword ptr [bp+6]	; Load seg:offset ptr
2926:4F1F  06					push	es
2926:4F20  57					push	di
2926:4F21  B8 01B6				mov	ax,1B6h
2926:4F24  50					push	ax
2926:4F25  E8 EDCC				call	sub_88			; (3CF4)
           ICON2.lst       ICON2.OVL		Sourcer	v8.01  20-Jul-2026 12:24 am   Page 152

2926:4F28  5F					pop	di
2926:4F29  07					pop	es
2926:4F2A  26: 89 05				mov	es:[di],ax
2926:4F2D  C4 7E 06				les	di,dword ptr [bp+6]	; Load seg:offset ptr
2926:4F30  83 C7 36				add	di,36h
2926:4F33  26: 8B 05				mov	ax,es:[di]
2926:4F36  3D FFFF				cmp	ax,0FFFFh
2926:4F39  75 03				jne	loc_415			; Jump if not equal
2926:4F3B  E9 0009				jmp	loc_416			; (4F47)
2926:4F3E			loc_415:					;  xref 2926:4F39
2926:4F3E  C7 06 83B3 0000			mov	word ptr ds:data_206e,0	; (2926:83B3=0)
2926:4F44  E9 0006				jmp	loc_417			; (4F4D)
2926:4F47			loc_416:					;  xref 2926:4F3B
2926:4F47  C7 06 83B3 00FF			mov	word ptr ds:data_206e,0FFh	; (2926:83B3=0)
2926:4F4D			loc_417:					;  xref 2926:4F44
2926:4F4D  8B E5				mov	sp,bp
2926:4F4F  5D					pop	bp
2926:4F50  C2 0006				retn	6
				sub_111		endp

2926:4F53  E9 00 00				db	0E9h, 00h, 00h

				;ßßßßßßßßßßßßßßßßßßßßßßßßßßßßßßßßßßßßßßßßßßßßßßßßßßßßßßßßßßßßßßßßßßßßßßßßßß
				;                              SUBROUTINE
				;
				;         Called from:   2926:5091
				;ÜÜÜÜÜÜÜÜÜÜÜÜÜÜÜÜÜÜÜÜÜÜÜÜÜÜÜÜÜÜÜÜÜÜÜÜÜÜÜÜÜÜÜÜÜÜÜÜÜÜÜÜÜÜÜÜÜÜÜÜÜÜÜÜÜÜÜÜÜÜÜÜÜÜ

2926:4F56			sub_113		proc	near
2926:4F56  E9 0003				jmp	loc_418			; (4F5C)

				;ßßßß External Entry into Subroutine ßßßßßßßßßßßßßßßßßßßßßßßßßßßßßßßßßßßßßß
				;
				;         Called from:   2926:0EF3

2926:4F59			sub_114:
2926:4F59  E9 0122				jmp	loc_427			; (507E)
2926:4F5C			loc_418:					;  xref 2926:4F56
2926:4F5C  55					push	bp
2926:4F5D  8B EC				mov	bp,sp
2926:4F5F  55					push	bp
2926:4F60  81 EC 0014				sub	sp,14h
2926:4F64  16					push	ss
2926:4F65  8D 46 EE				lea	ax,[bp-12h]		; Load effective addr
2926:4F68  50					push	ax
2926:4F69  0E E8 0011				callf	sub_115			; (4F7E)
2926:4F6D  10 30				adc	[bx+si],dh
2926:4F6F  31 32				xor	[bp+si],si
2926:4F71  33 34				xor	si,[si]
2926:4F73  35 3736				xor	ax,3736h
2926:4F76  38 39				cmp	[bx+di],bh
2926:4F78  41					inc	cx
2926:4F79  42					inc	dx
2926:4F7A  43					inc	bx
2926:4F7B  44					inc	sp
2926:4F7C  45					inc	bp
2926:4F7D  46					inc	si
           ICON2.lst       ICON2.OVL		Sourcer	v8.01  20-Jul-2026 12:24 am   Page 153


				;ßßßß External Entry into Subroutine ßßßßßßßßßßßßßßßßßßßßßßßßßßßßßßßßßßßßßß
				;
				;         Called from:   2926:4F69

2926:4F7E			sub_115:
2926:4F7E  58					pop	ax
2926:4F7F  40					inc	ax
2926:4F80 ú50					push	ax			; PARAMETER_2
2926:4F81  B8 0010				mov	ax,10h
2926:4F84  50					push	ax			; PARAMETER_1
2926:4F85  E8 067E				call	sub_132			; (5606)
2926:4F88  C4 7E 04				les	di,dword ptr [bp+4]	; Load seg:offset ptr
2926:4F8B  06					push	es
2926:4F8C  57					push	di
2926:4F8D  0E E8 0001		;*		callf	sub_116			;*(4F92)
2926:4F8D  0E E8 01 00				db	 0Eh,0E8h, 01h, 00h
2926:4F91  00 B8 0051				add	byte ptr data_53+1[bx+si],bh	; (2926:0051=0)
2926:4F95  50					push	ax
2926:4F96  E8 E9FA				call	sub_73			; (3993)
2926:4F99  16					push	ss
2926:4F9A  8D 46 EC				lea	ax,[bp-14h]		; Load effective addr
2926:4F9D  50					push	ax
2926:4F9E  0E E8 0001		;*		callf	sub_117			;*(4FA3)
2926:4F9E  0E E8 01 00				db	 0Eh,0E8h, 01h, 00h
2926:4FA2  00 B8 0001				add	byte ptr ds:[1][bx+si],bh	; (2926:0001=0B8h)
2926:4FA6  50					push	ax
2926:4FA7  E8 E9E9				call	sub_73			; (3993)
2926:4FAA  81 7E 08 000A			cmp	word ptr [bp+8],0Ah
2926:4FAF  B8 0000				mov	ax,0
2926:4FB2  75 01				jnz	loc_419			; Jump if not zero
2926:4FB4  40					inc	ax
2926:4FB5			loc_419:					;  xref 2926:4FB2
2926:4FB5  50					push	ax
2926:4FB6  81 7E 08 0002			cmp	word ptr [bp+8],2
2926:4FBB  B8 0000				mov	ax,0
2926:4FBE  7D 01				jge	loc_420			; Jump if > or =
2926:4FC0  40					inc	ax
2926:4FC1			loc_420:					;  xref 2926:4FBE
2926:4FC1  5B					pop	bx
2926:4FC2  0B C3				or	ax,bx
2926:4FC4  50					push	ax
2926:4FC5  81 7E 08 0010			cmp	word ptr [bp+8],10h
2926:4FCA  B8 0000				mov	ax,0
2926:4FCD  7E 01				jle	loc_421			; Jump if < or =
2926:4FCF  40					inc	ax
2926:4FD0			loc_421:					;  xref 2926:4FCD
2926:4FD0  5B					pop	bx
2926:4FD1  0B C3				or	ax,bx
2926:4FD3  D0 D8				rcr	al,1			; Rotate thru carry
2926:4FD5  72 03				jc	loc_422			; Jump if carry Set
2926:4FD7  E9 002F				jmp	loc_425			; (5009)
2926:4FDA			loc_422:					;  xref 2926:4FD5
2926:4FDA  C7 46 08 000A			mov	word ptr [bp+8],0Ah
2926:4FDF  81 7E 0A 0000			cmp	word ptr [bp+0Ah],0
2926:4FE4  7C 03				jl	loc_423			; Jump if <
2926:4FE6  E9 0020				jmp	loc_425			; (5009)
           ICON2.lst       ICON2.OVL		Sourcer	v8.01  20-Jul-2026 12:24 am   Page 154

2926:4FE9			loc_423:					;  xref 2926:4FE4
2926:4FE9  16					push	ss
2926:4FEA  8D 46 EC				lea	ax,[bp-14h]		; Load effective addr
2926:4FED  50					push	ax
2926:4FEE  B8 002D				mov	ax,2Dh
2926:4FF1  50					push	ax
2926:4FF2  B8 FFFF				mov	ax,0FFFFh
2926:4FF5  50					push	ax
2926:4FF6  58					pop	ax
2926:4FF7  5B					pop	bx
2926:4FF8  50					push	ax
2926:4FF9  53					push	bx
2926:4FFA  B8 0001				mov	ax,1
2926:4FFD  50					push	ax
2926:4FFE  E8 E992				call	sub_73			; (3993)
2926:5001  8B 46 0A				mov	ax,[bp+0Ah]
2926:5004  F7 D8				neg	ax
2926:5006  89 46 0A				mov	[bp+0Ah],ax
2926:5009			loc_425:					;  xref 2926:4FD7, 4FE6, 5051
2926:5009 ú16					push	ss
2926:500A  8D 46 EE				lea	ax,[bp-12h]		; Load effective addr
2926:500D  50					push	ax
2926:500E  8B 46 0A				mov	ax,[bp+0Ah]
2926:5011  93					xchg	bx,ax
2926:5012  8B 46 08				mov	ax,[bp+8]
2926:5015  93					xchg	bx,ax
2926:5016  33 D2				xor	dx,dx			; Zero register
2926:5018  F7 F3				div	bx			; ax,dx rem=dx:ax/reg
2926:501A  8B C2				mov	ax,dx
2926:501C  5B					pop	bx
2926:501D  03 C3				add	ax,bx
2926:501F  97					xchg	di,ax
2926:5020  07					pop	es
2926:5021  26: 8A 05				mov	al,es:[di]
2926:5024  32 E4				xor	ah,ah			; Zero register
2926:5026  50					push	ax
2926:5027  B8 FFFF				mov	ax,0FFFFh
2926:502A  50					push	ax
2926:502B  58					pop	ax
2926:502C  5B					pop	bx
2926:502D ú50					push	ax
2926:502E  53					push	bx
2926:502F  C4 7E 04				les	di,dword ptr [bp+4]	; Load seg:offset ptr
2926:5032  06					push	es
2926:5033  57					push	di
2926:5034  B8 0001				mov	ax,1
2926:5037  50					push	ax
2926:5038  E8 06F4				call	sub_141			; (572F)
2926:503B  8B 46 0A				mov	ax,[bp+0Ah]
2926:503E  93					xchg	bx,ax
2926:503F  8B 46 08				mov	ax,[bp+8]
2926:5042  93					xchg	bx,ax
2926:5043  33 D2				xor	dx,dx			; Zero register
2926:5045  F7 F3				div	bx			; ax,dx rem=dx:ax/reg
2926:5047  89 46 0A				mov	[bp+0Ah],ax
2926:504A  81 7E 0A 0000			cmp	word ptr [bp+0Ah],0
2926:504F  74 03				je	loc_426			; Jump if equal
           ICON2.lst       ICON2.OVL		Sourcer	v8.01  20-Jul-2026 12:24 am   Page 155

2926:5051  E9 FFB5				jmp	loc_425			; (5009)
						nop	                                        ;*jump fixup
2926:5054			loc_426:					;  xref 2926:504F
2926:5054  C4 7E 04				les	di,dword ptr [bp+4]	; Load seg:offset ptr
2926:5057  06					push	es
2926:5058  57					push	di
2926:5059  E8 046C				call	sub_128			; (54C8)
2926:505C  16					push	ss
2926:505D  8D 46 EC				lea	ax,[bp-14h]		; Load effective addr
2926:5060  50					push	ax
2926:5061  E8 046A				call	sub_130			; (54CE)
2926:5064  C4 7E 04				les	di,dword ptr [bp+4]	; Load seg:offset ptr
2926:5067  06					push	es
2926:5068  57					push	di
2926:5069  E8 0462				call	sub_130			; (54CE)
2926:506C  E8 0456				call	sub_127			; (54C5)
2926:506F  53					push	bx
2926:5070  50					push	ax
2926:5071  B8 0051				mov	ax,51h
2926:5074  50					push	ax
2926:5075  E8 E91B				call	sub_73			; (3993)
2926:5078  8B E5				mov	sp,bp
2926:507A  5D					pop	bp
2926:507B  C2 0008				retn	8
2926:507E			loc_427:					;  xref 2926:4F59
2926:507E  55					push	bp
2926:507F  8B EC				mov	bp,sp
2926:5081  55					push	bp
2926:5082  81 EC 0053				sub	sp,53h
2926:5086 úFF 76 08				push	word ptr [bp+8]
2926:5089  FF 76 04				push	word ptr [bp+4]
2926:508C  16					push	ss
2926:508D  8D 46 AD				lea	ax,[bp-53h]		; Load effective addr
2926:5090  50					push	ax
2926:5091  E8 FEC2				call	sub_113			; (4F56)
2926:5094  16					push	ss
2926:5095  8D 46 AD				lea	ax,[bp-53h]		; Load effective addr
2926:5098 ú50					push	ax
2926:5099  FF 76 06				push	word ptr [bp+6]
2926:509C  B8 FFFF				mov	ax,0FFFFh
2926:509F  50					push	ax
2926:50A0  E8 02AB				call	sub_122			; (534E)
2926:50A3  8B E5				mov	sp,bp
2926:50A5  5D					pop	bp
2926:50A6  C2 0006				retn	6
				sub_113		endp

2926:50A9  E9 00 00				db	0E9h, 00h, 00h

				;ßßßßßßßßßßßßßßßßßßßßßßßßßßßßßßßßßßßßßßßßßßßßßßßßßßßßßßßßßßßßßßßßßßßßßßßßßß
				;                              SUBROUTINE
				;
				;         Called from:   2926:3C5F, 3FED, 4161
				;ÜÜÜÜÜÜÜÜÜÜÜÜÜÜÜÜÜÜÜÜÜÜÜÜÜÜÜÜÜÜÜÜÜÜÜÜÜÜÜÜÜÜÜÜÜÜÜÜÜÜÜÜÜÜÜÜÜÜÜÜÜÜÜÜÜÜÜÜÜÜÜÜÜÜ

2926:50AC			sub_118		proc	near
2926:50AC  E9 0000				jmp	loc_428			; (50AF)
           ICON2.lst       ICON2.OVL		Sourcer	v8.01  20-Jul-2026 12:24 am   Page 156

2926:50AF			loc_428:					;  xref 2926:50AC
2926:50AF  55					push	bp
2926:50B0  8B EC				mov	bp,sp
2926:50B2  55					push	bp
2926:50B3  81 EC 002C				sub	sp,2Ch
2926:50B7  16					push	ss
2926:50B8  8D 46 D4				lea	ax,[bp-2Ch]		; Load effective addr
2926:50BB  50					push	ax
2926:50BC  16					push	ss
2926:50BD  8D 46 04				lea	ax,[bp+4]		; Load effective addr
2926:50C0  50					push	ax
2926:50C1  E8 0625				call	sub_139			; (56E9)
2926:50C4  E8 0604				call	sub_138			; (56CB)
2926:50C7  16					push	ss
2926:50C8  8D 46 D4				lea	ax,[bp-2Ch]		; Load effective addr
2926:50CB  50					push	ax
2926:50CC  FF 76 24				push	word ptr [bp+24h]
2926:50CF  B8 0004				mov	ax,4
2926:50D2  50					push	ax
2926:50D3  E8 05E7				call	sub_136			; (56BD)
2926:50D6  D1 E0				shl	ax,1			; Shift w/zeros fill
2926:50D8  5B					pop	bx
2926:50D9  03 C3				add	ax,bx
2926:50DB  97					xchg	di,ax
2926:50DC  07					pop	es
2926:50DD  26: 8B 05				mov	ax,es:[di]
2926:50E0  50					push	ax
2926:50E1  8B 46 24				mov	ax,[bp+24h]
2926:50E4  93					xchg	bx,ax
2926:50E5  B8 000F				mov	ax,0Fh
2926:50E8  23 C3				and	ax,bx
2926:50EA  50					push	ax
2926:50EB  E8 05CF				call	sub_136			; (56BD)
2926:50EE  88 46 F4				mov	[bp-0Ch],al
2926:50F1  8A 46 F4				mov	al,[bp-0Ch]
2926:50F4  32 E4				xor	ah,ah			; Zero register
2926:50F6  8B E5				mov	sp,bp
2926:50F8  5D					pop	bp
2926:50F9  C2 0022				retn	22h
				sub_118		endp

2926:50FC  E9 00 00				db	0E9h, 00h, 00h

				;ßßßßßßßßßßßßßßßßßßßßßßßßßßßßßßßßßßßßßßßßßßßßßßßßßßßßßßßßßßßßßßßßßßßßßßßßßß
				;                              SUBROUTINE
				;
				;         Called from:   2926:516D
				;ÜÜÜÜÜÜÜÜÜÜÜÜÜÜÜÜÜÜÜÜÜÜÜÜÜÜÜÜÜÜÜÜÜÜÜÜÜÜÜÜÜÜÜÜÜÜÜÜÜÜÜÜÜÜÜÜÜÜÜÜÜÜÜÜÜÜÜÜÜÜÜÜÜÜ

2926:50FF			sub_119		proc	near
2926:50FF  E9 0015				jmp	loc_429			; (5117)

				;ßßßß External Entry into Subroutine ßßßßßßßßßßßßßßßßßßßßßßßßßßßßßßßßßßßßßß
				;
				;         Called from:   2926:5231, 525D, 5289, 52B5, 52E1, 531F

2926:5102			sub_120:
           ICON2.lst       ICON2.OVL		Sourcer	v8.01  20-Jul-2026 12:24 am   Page 157

2926:5102  E9 0040				jmp	loc_433			; (5145)

				;ßßßß External Entry into Subroutine ßßßßßßßßßßßßßßßßßßßßßßßßßßßßßßßßßßßßßß
				;
				;         Called from:   2926:026A, 3EBE

2926:5105			sub_121:
2926:5105  E9 0117				jmp	loc_447			; (521F)
2926:5108  E9 0140				jmp	loc_449			; (524B)
2926:510B  E9 0169				jmp	loc_451			; (5277)
2926:510E  E9 0192				jmp	loc_453			; (52A3)
2926:5111  E9 01BB				jmp	loc_455			; (52CF)
2926:5114  E9 01F6				jmp	loc_458			; (530D)
2926:5117			loc_429:					;  xref 2926:50FF
2926:5117  55					push	bp
2926:5118  8B EC				mov	bp,sp
2926:511A  55					push	bp
2926:511B  81 EC 000C				sub	sp,0Ch
2926:511F  8B 46 06				mov	ax,[bp+6]
2926:5122  93					xchg	bx,ax
2926:5123  8B 46 04				mov	ax,[bp+4]
2926:5126  3B D8				cmp	bx,ax
2926:5128  7C 03				jl	loc_430			; Jump if <
2926:512A  E9 0009				jmp	loc_431			; (5136)
2926:512D			loc_430:					;  xref 2926:5128
2926:512D  8B 46 06				mov	ax,[bp+6]
2926:5130  89 46 F4				mov	[bp-0Ch],ax
2926:5133  E9 0006				jmp	loc_432			; (513C)
2926:5136			loc_431:					;  xref 2926:512A
2926:5136  8B 46 04				mov	ax,[bp+4]
2926:5139  89 46 F4				mov	[bp-0Ch],ax
2926:513C			loc_432:					;  xref 2926:5133
2926:513C  8B 46 F4				mov	ax,[bp-0Ch]
2926:513F  8B E5				mov	sp,bp
2926:5141  5D					pop	bp
2926:5142  C2 0004				retn	4
2926:5145			loc_433:					;  xref 2926:5102
2926:5145  55					push	bp
2926:5146  8B EC				mov	bp,sp
2926:5148  55					push	bp
2926:5149  81 EC 0018				sub	sp,18h
2926:514D  C4 7E 08				les	di,dword ptr [bp+8]	; Load seg:offset ptr
2926:5150  26: 8A 05				mov	al,es:[di]
2926:5153  32 E4				xor	ah,ah			; Zero register
2926:5155  89 46 EC				mov	[bp-14h],ax
2926:5158  C4 7E 04				les	di,dword ptr [bp+4]	; Load seg:offset ptr
2926:515B  26: 8A 05				mov	al,es:[di]
2926:515E  32 E4				xor	ah,ah			; Zero register
2926:5160  89 46 EE				mov	[bp-12h],ax
2926:5163  B8 0001				mov	ax,1
2926:5166 ú50					push	ax
2926:5167  FF 76 EC				push	word ptr [bp-14h]
2926:516A  FF 76 EE				push	word ptr [bp-12h]
2926:516D  E8 FF8F				call	sub_119			; (50FF)
2926:5170  5B					pop	bx
2926:5171  93					xchg	bx,ax
2926:5172  89 46 F2				mov	[bp-0Eh],ax
           ICON2.lst       ICON2.OVL		Sourcer	v8.01  20-Jul-2026 12:24 am   Page 158

2926:5175  93					xchg	bx,ax
2926:5176  FF 4E F2				dec	word ptr [bp-0Eh]
2926:5179  2B C3				sub	ax,bx
2926:517B  40					inc	ax
2926:517C  89 46 E8				mov	[bp-18h],ax
2926:517F			loc_434:					;  xref 2926:51E4
2926:517F úFF 46 F2				inc	word ptr [bp-0Eh]
2926:5182  FF 4E E8				dec	word ptr [bp-18h]
2926:5185  7D 03				jge	loc_435			; Jump if > or =
2926:5187  E9 005C				jmp	loc_441			; (51E6)
2926:518A			loc_435:					;  xref 2926:5185
2926:518A  C4 7E 08				les	di,dword ptr [bp+8]	; Load seg:offset ptr
2926:518D  06					push	es
2926:518E  57					push	di
2926:518F  8B 46 F2				mov	ax,[bp-0Eh]
2926:5192  5B					pop	bx
2926:5193  03 C3				add	ax,bx
2926:5195  97					xchg	di,ax
2926:5196  07					pop	es
2926:5197  26: 8A 05				mov	al,es:[di]
2926:519A  88 46 EA				mov	[bp-16h],al
2926:519D  C4 7E 04				les	di,dword ptr [bp+4]	; Load seg:offset ptr
2926:51A0  06					push	es
2926:51A1  57					push	di
2926:51A2  8B 46 F2				mov	ax,[bp-0Eh]
2926:51A5  5B					pop	bx
2926:51A6  03 C3				add	ax,bx
2926:51A8  97					xchg	di,ax
2926:51A9  07					pop	es
2926:51AA  26: 8A 05				mov	al,es:[di]
2926:51AD  88 46 EB				mov	[bp-15h],al
2926:51B0  8A 46 EA				mov	al,[bp-16h]
2926:51B3  32 E4				xor	ah,ah			; Zero register
2926:51B5  50					push	ax
2926:51B6  8A 46 EB				mov	al,[bp-15h]
2926:51B9  32 E4				xor	ah,ah			; Zero register
2926:51BB  5B					pop	bx
2926:51BC  3B D8				cmp	bx,ax
2926:51BE  75 03				jne	loc_436			; Jump if not equal
2926:51C0  E9 0021				jmp	loc_440			; (51E4)
2926:51C3			loc_436:					;  xref 2926:51BE
2926:51C3  8A 46 EA				mov	al,[bp-16h]
2926:51C6  32 E4				xor	ah,ah			; Zero register
2926:51C8  50					push	ax
2926:51C9  8A 46 EB				mov	al,[bp-15h]
2926:51CC  32 E4				xor	ah,ah			; Zero register
2926:51CE  5B					pop	bx
2926:51CF  3B D8				cmp	bx,ax
2926:51D1  7F 03				jg	loc_437			; Jump if >
2926:51D3  E9 0007				jmp	loc_438			; (51DD)
2926:51D6			loc_437:					;  xref 2926:51D1
2926:51D6  C6 46 F4 02				mov	byte ptr [bp-0Ch],2
2926:51DA  E9 0004				jmp	loc_439			; (51E1)
2926:51DD			loc_438:					;  xref 2926:51D3
2926:51DD  C6 46 F4 03				mov	byte ptr [bp-0Ch],3
2926:51E1			loc_439:					;  xref 2926:51DA
2926:51E1  E9 0030				jmp	loc_446			; (5214)
           ICON2.lst       ICON2.OVL		Sourcer	v8.01  20-Jul-2026 12:24 am   Page 159

2926:51E4			loc_440:					;  xref 2926:51C0
2926:51E4  EB 99				jmp	short loc_434		; (517F)
2926:51E6			loc_441:					;  xref 2926:5187
2926:51E6  8B 46 EC				mov	ax,[bp-14h]
2926:51E9  93					xchg	bx,ax
2926:51EA  8B 46 EE				mov	ax,[bp-12h]
2926:51ED  3B D8				cmp	bx,ax
2926:51EF  74 03				je	loc_442			; Jump if equal
2926:51F1  E9 0007				jmp	loc_443			; (51FB)
2926:51F4			loc_442:					;  xref 2926:51EF
2926:51F4  C6 46 F4 00				mov	byte ptr [bp-0Ch],0
2926:51F8  E9 0019				jmp	loc_446			; (5214)
2926:51FB			loc_443:					;  xref 2926:51F1
2926:51FB  8B 46 EC				mov	ax,[bp-14h]
2926:51FE  93					xchg	bx,ax
2926:51FF  8B 46 EE				mov	ax,[bp-12h]
2926:5202  3B D8				cmp	bx,ax
2926:5204  7F 03				jg	loc_444			; Jump if >
2926:5206  E9 0007				jmp	loc_445			; (5210)
2926:5209			loc_444:					;  xref 2926:5204
2926:5209  C6 46 F4 02				mov	byte ptr [bp-0Ch],2
2926:520D  E9 0004				jmp	loc_446			; (5214)
2926:5210			loc_445:					;  xref 2926:5206
2926:5210  C6 46 F4 03				mov	byte ptr [bp-0Ch],3
2926:5214			loc_446:					;  xref 2926:51E1, 51F8, 520D
2926:5214  8A 46 F4				mov	al,[bp-0Ch]
2926:5217  32 E4				xor	ah,ah			; Zero register
2926:5219  8B E5				mov	sp,bp
2926:521B  5D					pop	bp
2926:521C  C2 0008				retn	8
2926:521F			loc_447:					;  xref 2926:5105
2926:521F  55					push	bp
2926:5220  8B EC				mov	bp,sp
2926:5222  55					push	bp
2926:5223  81 EC 000C				sub	sp,0Ch
2926:5227  C4 7E 08				les	di,dword ptr [bp+8]	; Load seg:offset ptr
2926:522A  06					push	es
2926:522B  57					push	di
2926:522C  C4 7E 04				les	di,dword ptr [bp+4]	; Load seg:offset ptr
2926:522F  06					push	es
2926:5230  57					push	di
2926:5231  E8 FECE				call	sub_120			; (5102)
2926:5234  3D 0000				cmp	ax,0
2926:5237  B8 0000				mov	ax,0
2926:523A  75 01				jnz	loc_448			; Jump if not zero
2926:523C  40					inc	ax
2926:523D			loc_448:					;  xref 2926:523A
2926:523D  88 46 F4				mov	[bp-0Ch],al
2926:5240  8A 46 F4				mov	al,[bp-0Ch]
2926:5243  32 E4				xor	ah,ah			; Zero register
2926:5245  8B E5				mov	sp,bp
2926:5247  5D					pop	bp
2926:5248  C2 0008				retn	8
2926:524B			loc_449:					;  xref 2926:5108
2926:524B  55					push	bp
2926:524C  8B EC				mov	bp,sp
2926:524E  55					push	bp
           ICON2.lst       ICON2.OVL		Sourcer	v8.01  20-Jul-2026 12:24 am   Page 160

2926:524F  81 EC 000C				sub	sp,0Ch
2926:5253  C4 7E 08				les	di,dword ptr [bp+8]	; Load seg:offset ptr
2926:5256  06					push	es
2926:5257  57					push	di
2926:5258  C4 7E 04				les	di,dword ptr [bp+4]	; Load seg:offset ptr
2926:525B  06					push	es
2926:525C  57					push	di
2926:525D  E8 FEA2				call	sub_120			; (5102)
2926:5260  3D 0000				cmp	ax,0
2926:5263  B8 0000				mov	ax,0
2926:5266  74 01				jz	loc_450			; Jump if zero
2926:5268  40					inc	ax
2926:5269			loc_450:					;  xref 2926:5266
2926:5269  88 46 F4				mov	[bp-0Ch],al
2926:526C  8A 46 F4				mov	al,[bp-0Ch]
2926:526F  32 E4				xor	ah,ah			; Zero register
2926:5271  8B E5				mov	sp,bp
2926:5273  5D					pop	bp
2926:5274  C2 0008				retn	8
2926:5277			loc_451:					;  xref 2926:510B
2926:5277  55					push	bp
2926:5278  8B EC				mov	bp,sp
2926:527A  55					push	bp
2926:527B  81 EC 000C				sub	sp,0Ch
2926:527F  C4 7E 08				les	di,dword ptr [bp+8]	; Load seg:offset ptr
2926:5282  06					push	es
2926:5283  57					push	di
2926:5284  C4 7E 04				les	di,dword ptr [bp+4]	; Load seg:offset ptr
2926:5287  06					push	es
2926:5288  57					push	di
2926:5289  E8 FE76				call	sub_120			; (5102)
2926:528C  3D 0002				cmp	ax,2
2926:528F  B8 0000				mov	ax,0
2926:5292  75 01				jnz	loc_452			; Jump if not zero
2926:5294  40					inc	ax
2926:5295			loc_452:					;  xref 2926:5292
2926:5295  88 46 F4				mov	[bp-0Ch],al
2926:5298  8A 46 F4				mov	al,[bp-0Ch]
2926:529B  32 E4				xor	ah,ah			; Zero register
2926:529D  8B E5				mov	sp,bp
2926:529F  5D					pop	bp
2926:52A0  C2 0008				retn	8
2926:52A3			loc_453:					;  xref 2926:510E
2926:52A3  55					push	bp
2926:52A4  8B EC				mov	bp,sp
2926:52A6  55					push	bp
2926:52A7  81 EC 000C				sub	sp,0Ch
2926:52AB  C4 7E 08				les	di,dword ptr [bp+8]	; Load seg:offset ptr
2926:52AE  06					push	es
2926:52AF  57					push	di
2926:52B0  C4 7E 04				les	di,dword ptr [bp+4]	; Load seg:offset ptr
2926:52B3  06					push	es
2926:52B4  57					push	di
2926:52B5  E8 FE4A				call	sub_120			; (5102)
2926:52B8  3D 0003				cmp	ax,3
2926:52BB  B8 0000				mov	ax,0
2926:52BE  75 01				jnz	loc_454			; Jump if not zero
           ICON2.lst       ICON2.OVL		Sourcer	v8.01  20-Jul-2026 12:24 am   Page 161

2926:52C0  40					inc	ax
2926:52C1			loc_454:					;  xref 2926:52BE
2926:52C1  88 46 F4				mov	[bp-0Ch],al
2926:52C4  8A 46 F4				mov	al,[bp-0Ch]
2926:52C7  32 E4				xor	ah,ah			; Zero register
2926:52C9  8B E5				mov	sp,bp
2926:52CB  5D					pop	bp
2926:52CC  C2 0008				retn	8
2926:52CF			loc_455:					;  xref 2926:5111
2926:52CF  55					push	bp
2926:52D0  8B EC				mov	bp,sp
2926:52D2  55					push	bp
2926:52D3  81 EC 000D				sub	sp,0Dh
2926:52D7  C4 7E 08				les	di,dword ptr [bp+8]	; Load seg:offset ptr
2926:52DA  06					push	es
2926:52DB  57					push	di
2926:52DC  C4 7E 04				les	di,dword ptr [bp+4]	; Load seg:offset ptr
2926:52DF  06					push	es
2926:52E0  57					push	di
2926:52E1  E8 FE1E				call	sub_120			; (5102)
2926:52E4  88 46 F3				mov	[bp-0Dh],al
2926:52E7  82 7E F3 00				cmp	byte ptr [bp-0Dh],0
2926:52EB  B8 0000				mov	ax,0
2926:52EE  75 01				jnz	loc_456			; Jump if not zero
2926:52F0  40					inc	ax
2926:52F1			loc_456:					;  xref 2926:52EE
2926:52F1  50					push	ax
2926:52F2  82 7E F3 02				cmp	byte ptr [bp-0Dh],2
2926:52F6  B8 0000				mov	ax,0
2926:52F9  75 01				jnz	loc_457			; Jump if not zero
2926:52FB  40					inc	ax
2926:52FC			loc_457:					;  xref 2926:52F9
2926:52FC  5B					pop	bx
2926:52FD  0B C3				or	ax,bx
2926:52FF  88 46 F4				mov	[bp-0Ch],al
2926:5302  8A 46 F4				mov	al,[bp-0Ch]
2926:5305  32 E4				xor	ah,ah			; Zero register
2926:5307  8B E5				mov	sp,bp
2926:5309  5D					pop	bp
2926:530A  C2 0008				retn	8
2926:530D			loc_458:					;  xref 2926:5114
2926:530D  55					push	bp
2926:530E  8B EC				mov	bp,sp
2926:5310  55					push	bp
2926:5311  81 EC 000D				sub	sp,0Dh
2926:5315  C4 7E 08				les	di,dword ptr [bp+8]	; Load seg:offset ptr
2926:5318  06					push	es
2926:5319  57					push	di
2926:531A  C4 7E 04				les	di,dword ptr [bp+4]	; Load seg:offset ptr
2926:531D  06					push	es
2926:531E  57					push	di
2926:531F  E8 FDE0				call	sub_120			; (5102)
2926:5322  88 46 F3				mov	[bp-0Dh],al
2926:5325  82 7E F3 00				cmp	byte ptr [bp-0Dh],0
2926:5329  B8 0000				mov	ax,0
2926:532C  75 01				jnz	loc_459			; Jump if not zero
2926:532E  40					inc	ax
           ICON2.lst       ICON2.OVL		Sourcer	v8.01  20-Jul-2026 12:24 am   Page 162

2926:532F			loc_459:					;  xref 2926:532C
2926:532F  50					push	ax
2926:5330  82 7E F3 03				cmp	byte ptr [bp-0Dh],3
2926:5334  B8 0000				mov	ax,0
2926:5337  75 01				jnz	loc_460			; Jump if not zero
2926:5339  40					inc	ax
2926:533A			loc_460:					;  xref 2926:5337
2926:533A  5B					pop	bx
2926:533B  0B C3				or	ax,bx
2926:533D  88 46 F4				mov	[bp-0Ch],al
2926:5340  8A 46 F4				mov	al,[bp-0Ch]
2926:5343  32 E4				xor	ah,ah			; Zero register
2926:5345  8B E5				mov	sp,bp
2926:5347  5D					pop	bp
2926:5348  C2 0008				retn	8
				sub_119		endp

2926:534B  E9 00 00				db	0E9h, 00h, 00h

				;ßßßßßßßßßßßßßßßßßßßßßßßßßßßßßßßßßßßßßßßßßßßßßßßßßßßßßßßßßßßßßßßßßßßßßßßßßß
				;                              SUBROUTINE
				;
				;         Called from:   2926:01E1, 01FC, 0414, 04D0, 05E3, 05FD, 062E
				;                             064C, 0667, 089A, 0D5F, 0EE4, 0F68, 3282
				;                             32C3, 3305, 3346, 3389, 33C9, 3407, 3447
				;                             348A, 34C9, 3507, 3548, 3587, 35CA, 360A
				;                             3649, 3677, 3A49, 3A59, 3A72, 3A9C, 3D9F
				;                             50A0
				;ÜÜÜÜÜÜÜÜÜÜÜÜÜÜÜÜÜÜÜÜÜÜÜÜÜÜÜÜÜÜÜÜÜÜÜÜÜÜÜÜÜÜÜÜÜÜÜÜÜÜÜÜÜÜÜÜÜÜÜÜÜÜÜÜÜÜÜÜÜÜÜÜÜÜ

2926:534E			sub_122		proc	near
2926:534E  E9 0000				jmp	loc_461			; (5351)
2926:5351			loc_461:					;  xref 2926:534E
2926:5351  55					push	bp
2926:5352  8B EC				mov	bp,sp
2926:5354  55					push	bp
2926:5355  81 EC 0004				sub	sp,4
2926:5359  C4 7E 08				les	di,dword ptr [bp+8]	; Load seg:offset ptr
2926:535C  06					push	es
2926:535D  57					push	di
2926:535E  58					pop	ax
2926:535F  05 0001				add	ax,1
2926:5362  50					push	ax
2926:5363  C4 7E 08				les	di,dword ptr [bp+8]	; Load seg:offset ptr
2926:5366  26: 8A 05				mov	al,es:[di]
2926:5369  32 E4				xor	ah,ah			; Zero register
2926:536B  50					push	ax
2926:536C  FF 76 06				push	word ptr [bp+6]
2926:536F  FF 76 04				push	word ptr [bp+4]
2926:5372  E8 000C				call	sub_124			; (5381)
2926:5375  8B E5				mov	sp,bp
2926:5377  5D					pop	bp
2926:5378  C2 0008				retn	8
				sub_122		endp

2926:537B  E9 00 00				db	0E9h, 00h, 00h

           ICON2.lst       ICON2.OVL		Sourcer	v8.01  20-Jul-2026 12:24 am   Page 163

				;ßßßßßßßßßßßßßßßßßßßßßßßßßßßßßßßßßßßßßßßßßßßßßßßßßßßßßßßßßßßßßßßßßßßßßßßßßß
				;                              SUBROUTINE
				;
				;         Called from:   2926:045F, 0568, 0577, 0744, 0F02
				;ÜÜÜÜÜÜÜÜÜÜÜÜÜÜÜÜÜÜÜÜÜÜÜÜÜÜÜÜÜÜÜÜÜÜÜÜÜÜÜÜÜÜÜÜÜÜÜÜÜÜÜÜÜÜÜÜÜÜÜÜÜÜÜÜÜÜÜÜÜÜÜÜÜÜ

2926:537E			sub_123		proc	near
2926:537E  E9 0003				jmp	loc_462			; (5384)

				;ßßßß External Entry into Subroutine ßßßßßßßßßßßßßßßßßßßßßßßßßßßßßßßßßßßßßß
				;
				;         Called from:   2926:5372

2926:5381			sub_124:
2926:5381  E9 003B				jmp	loc_466			; (53BF)
2926:5384			loc_462:					;  xref 2926:537E
2926:5384  55					push	bp
2926:5385  8B EC				mov	bp,sp
2926:5387  55					push	bp
2926:5388  81 EC 0002				sub	sp,2
2926:538C  81 7E 06 FFFF			cmp	word ptr [bp+6],0FFFFh
2926:5391  75 03				jne	loc_463			; Jump if not equal
2926:5393  E9 001A				jmp	loc_465			; (53B0)
2926:5396			loc_463:					;  xref 2926:5391, 53AE
2926:5396 ú81 7E 06 0001			cmp	word ptr [bp+6],1
2926:539B  7F 03				jg	loc_464			; Jump if >
2926:539D  E9 0010				jmp	loc_465			; (53B0)
2926:53A0			loc_464:					;  xref 2926:539B
2926:53A0  B8 0020				mov	ax,20h
2926:53A3 ú50					push	ax
2926:53A4  E8 0094				call	sub_125			; (543B)
2926:53A7  8B 46 06				mov	ax,[bp+6]
2926:53AA  48					dec	ax
2926:53AB  89 46 06				mov	[bp+6],ax
2926:53AE  EB E6				jmp	short loc_463		; (5396)
2926:53B0			loc_465:					;  xref 2926:5393, 539D
2926:53B0  8A 46 08				mov	al,[bp+8]
2926:53B3  32 E4				xor	ah,ah			; Zero register
2926:53B5 ú50					push	ax
2926:53B6  E8 0082				call	sub_125			; (543B)
2926:53B9  8B E5				mov	sp,bp
2926:53BB  5D					pop	bp
2926:53BC  C2 0006				retn	6
2926:53BF			loc_466:					;  xref 2926:5381
2926:53BF  55					push	bp
2926:53C0  8B EC				mov	bp,sp
2926:53C2  55					push	bp
2926:53C3  81 EC 0008				sub	sp,8
2926:53C7  B8 0001				mov	ax,1
2926:53CA  50					push	ax
2926:53CB  8B 46 06				mov	ax,[bp+6]
2926:53CE  93					xchg	bx,ax
2926:53CF  8B 46 08				mov	ax,[bp+8]
2926:53D2  2B D8				sub	bx,ax
2926:53D4  93					xchg	bx,ax
2926:53D5  5B					pop	bx
2926:53D6  93					xchg	bx,ax
           ICON2.lst       ICON2.OVL		Sourcer	v8.01  20-Jul-2026 12:24 am   Page 164

2926:53D7  89 46 FC				mov	[bp-4],ax
2926:53DA  93					xchg	bx,ax
2926:53DB  FF 4E FC				dec	word ptr [bp-4]
2926:53DE  2B C3				sub	ax,bx
2926:53E0  40					inc	ax
2926:53E1  89 46 FA				mov	[bp-6],ax
2926:53E4			loc_467:					;  xref 2926:53F6
2926:53E4 úFF 46 FC				inc	word ptr [bp-4]
2926:53E7  FF 4E FA				dec	word ptr [bp-6]
2926:53EA  7D 03				jge	loc_468			; Jump if > or =
2926:53EC  E9 0009				jmp	loc_469			; (53F8)
2926:53EF			loc_468:					;  xref 2926:53EA
2926:53EF  B8 0020				mov	ax,20h
2926:53F2 ú50					push	ax
2926:53F3  E8 0045				call	sub_125			; (543B)
2926:53F6  EB EC				jmp	short loc_467		; (53E4)
2926:53F8			loc_469:					;  xref 2926:53EC
2926:53F8  B8 0001				mov	ax,1
2926:53FB  50					push	ax
2926:53FC  8B 46 08				mov	ax,[bp+8]
2926:53FF  5B					pop	bx
2926:5400  93					xchg	bx,ax
2926:5401  89 46 FC				mov	[bp-4],ax
2926:5404  93					xchg	bx,ax
2926:5405  FF 4E FC				dec	word ptr [bp-4]
2926:5408  2B C3				sub	ax,bx
2926:540A  40					inc	ax
2926:540B  89 46 F8				mov	[bp-8],ax
2926:540E			loc_470:					;  xref 2926:5430
2926:540E úFF 46 FC				inc	word ptr [bp-4]
2926:5411  FF 4E F8				dec	word ptr [bp-8]
2926:5414  7D 03				jge	loc_471			; Jump if > or =
2926:5416  E9 0019				jmp	loc_472			; (5432)
2926:5419			loc_471:					;  xref 2926:5414
2926:5419  C4 7E 0A				les	di,dword ptr [bp+0Ah]	; Load seg:offset ptr
2926:541C  06					push	es
2926:541D  57					push	di
2926:541E  8B 46 FC				mov	ax,[bp-4]
2926:5421  48					dec	ax
2926:5422  5B					pop	bx
2926:5423  03 C3				add	ax,bx
2926:5425  97					xchg	di,ax
2926:5426  07					pop	es
2926:5427  26: 8A 05				mov	al,es:[di]
2926:542A  32 E4				xor	ah,ah			; Zero register
2926:542C ú50					push	ax
2926:542D  E8 000B				call	sub_125			; (543B)
2926:5430  EB DC				jmp	short loc_470		; (540E)
2926:5432			loc_472:					;  xref 2926:5416
2926:5432  8B E5				mov	sp,bp
2926:5434  5D					pop	bp
2926:5435  C2 000A				retn	0Ah
				sub_123		endp

2926:5438  E9 00 00				db	0E9h, 00h, 00h

				;ßßßßßßßßßßßßßßßßßßßßßßßßßßßßßßßßßßßßßßßßßßßßßßßßßßßßßßßßßßßßßßßßßßßßßßßßßß
           ICON2.lst       ICON2.OVL		Sourcer	v8.01  20-Jul-2026 12:24 am   Page 165

				;                              SUBROUTINE
				;
				;         Called from:   2926:4B58, 4B5F, 53A4, 53B6, 53F3, 542D
				;ÜÜÜÜÜÜÜÜÜÜÜÜÜÜÜÜÜÜÜÜÜÜÜÜÜÜÜÜÜÜÜÜÜÜÜÜÜÜÜÜÜÜÜÜÜÜÜÜÜÜÜÜÜÜÜÜÜÜÜÜÜÜÜÜÜÜÜÜÜÜÜÜÜÜ

2926:543B			sub_125		proc	near
2926:543B  E9 0000				jmp	loc_473			; (543E)
2926:543E			loc_473:					;  xref 2926:543B
2926:543E  55					push	bp
2926:543F  8B EC				mov	bp,sp
2926:5441  55					push	bp
2926:5442  81 EC 0002				sub	sp,2
2926:5446  A1 8389				mov	ax,word ptr ds:data_37e+2	; (2916:8389=0)
2926:5449  50					push	ax
2926:544A  A1 8387				mov	ax,ds:data_37e		; (2916:8387=0)
2926:544D  50					push	ax
2926:544E  0E					push	cs
2926:544F  B8 004F				mov	ax,4Fh
2926:5452  93					xchg	bx,ax
2926:5453  B8 53D2				mov	ax,53D2h
2926:5456  03 C3				add	ax,bx
2926:5458  50					push	ax
2926:5459  E8 03E6				call	sub_145			; (5842)
2926:545C  D0 D8				rcr	al,1			; Rotate thru carry
2926:545E  72 03				jc	loc_474			; Jump if carry Set
2926:5460  E9 000C				jmp	loc_475			; (546F)
2926:5463			loc_474:					;  xref 2926:545E
2926:5463  8A 46 04				mov	al,[bp+4]
2926:5466  32 E4				xor	ah,ah			; Zero register
2926:5468  50					push	ax
2926:5469  E8 0570				call	sub_149			; (59DC)
2926:546C  E9 0029				jmp	loc_476			; (5498)
2926:546F			loc_475:					;  xref 2926:5460
2926:546F  C4 3E 83AF				les	di,dword ptr ds:data_39e	; (2916:83AF=0) Load seg:offset ptr
2926:5473  83 C7 38				add	di,38h
2926:5476  06					push	es
2926:5477  57					push	di
2926:5478  58					pop	ax
2926:5479  05 0000				add	ax,0
2926:547C  97					xchg	di,ax
2926:547D  8A 46 04				mov	al,[bp+4]
2926:5480  07					pop	es
2926:5481  26: 88 05				mov	es:[di],al
2926:5484  C4 3E 83AF				les	di,dword ptr ds:data_39e	; (2916:83AF=0) Load seg:offset ptr
2926:5488  06					push	es
2926:5489 ú57					push	di
2926:548A  C4 3E 83AF				les	di,dword ptr ds:data_39e	; (2916:83AF=0) Load seg:offset ptr
2926:548E  83 C7 28				add	di,28h
2926:5491  26: 8B 05				mov	ax,es:[di]
2926:5494  50					push	ax
2926:5495  E8 0009				call	sub_126			; (54A1)
2926:5498			loc_476:					;  xref 2926:546C
2926:5498  8B E5				mov	sp,bp
2926:549A  5D					pop	bp
2926:549B  C2 0002				retn	2
				sub_125		endp

           ICON2.lst       ICON2.OVL		Sourcer	v8.01  20-Jul-2026 12:24 am   Page 166

2926:549E  E9 00 00				db	0E9h, 00h, 00h

				;ßßßßßßßßßßßßßßßßßßßßßßßßßßßßßßßßßßßßßßßßßßßßßßßßßßßßßßßßßßßßßßßßßßßßßßßßßß
				;                              SUBROUTINE
				;
				;         Called from:   2926:5495
				;ÜÜÜÜÜÜÜÜÜÜÜÜÜÜÜÜÜÜÜÜÜÜÜÜÜÜÜÜÜÜÜÜÜÜÜÜÜÜÜÜÜÜÜÜÜÜÜÜÜÜÜÜÜÜÜÜÜÜÜÜÜÜÜÜÜÜÜÜÜÜÜÜÜÜ

2926:54A1			sub_126		proc	near
2926:54A1  E9 0000				jmp	loc_477			; (54A4)
2926:54A4			loc_477:					;  xref 2926:54A1
2926:54A4  55					push	bp
2926:54A5  8B EC				mov	bp,sp
2926:54A7  55					push	bp
2926:54A8  81 EC 0002				sub	sp,2
2926:54AC  C4 7E 06				les	di,dword ptr [bp+6]	; Load seg:offset ptr
2926:54AF  06					push	es
2926:54B0  57					push	di
2926:54B1  58					pop	ax
2926:54B2  A3 83AF				mov	ds:data_39e,ax		; (2916:83AF=0)
2926:54B5  58					pop	ax
2926:54B6  A3 83B1				mov	word ptr ds:data_39e+2,ax	; (2916:83B1=0)
2926:54B9  E8 E84D				call	sub_95			; (3D09)
2926:54BC  8B E5				mov	sp,bp
2926:54BE  5D					pop	bp
2926:54BF  C2 0006				retn	6
				sub_126		endp

2926:54C2  E9 00 00				db	0E9h, 00h, 00h

				;ßßßßßßßßßßßßßßßßßßßßßßßßßßßßßßßßßßßßßßßßßßßßßßßßßßßßßßßßßßßßßßßßßßßßßßßßßß
				;                              SUBROUTINE
				;
				;         Called from:   2926:00FA, 048E, 059A, 07B0, 506C
				;ÜÜÜÜÜÜÜÜÜÜÜÜÜÜÜÜÜÜÜÜÜÜÜÜÜÜÜÜÜÜÜÜÜÜÜÜÜÜÜÜÜÜÜÜÜÜÜÜÜÜÜÜÜÜÜÜÜÜÜÜÜÜÜÜÜÜÜÜÜÜÜÜÜÜ

2926:54C5			sub_127		proc	near
2926:54C5  E9 0009				jmp	loc_478			; (54D1)

				;ßßßß External Entry into Subroutine ßßßßßßßßßßßßßßßßßßßßßßßßßßßßßßßßßßßßßß
				;
				;         Called from:   2926:00D4, 046A, 057F, 078B, 5059

2926:54C8			sub_128:
2926:54C8  E9 0024				jmp	loc_479			; (54EF)

				;ßßßß External Entry into Subroutine ßßßßßßßßßßßßßßßßßßßßßßßßßßßßßßßßßßßßßß
				;
				;         Called from:   2926:00F7, 047F, 0588, 058F

2926:54CB			sub_129:
2926:54CB  E9 003B				jmp	loc_480			; (5509)

				;ßßßß External Entry into Subroutine ßßßßßßßßßßßßßßßßßßßßßßßßßßßßßßßßßßßßßß
				;
				;         Called from:   2926:00ED, 0476, 048B, 0597, 07A5, 07AD, 5061
				;                             5069
           ICON2.lst       ICON2.OVL		Sourcer	v8.01  20-Jul-2026 12:24 am   Page 167


2926:54CE			sub_130:
2926:54CE  E9 007C				jmp	loc_483			; (554D)
2926:54D1			loc_478:					;  xref 2926:54C5
2926:54D1  55					push	bp
2926:54D2  8B EC				mov	bp,sp
2926:54D4  55					push	bp
2926:54D5  81 EC 000C				sub	sp,0Ch
2926:54D9  1E					push	ds
2926:54DA  B8 8A4F				mov	ax,8A4Fh
2926:54DD  89 46 F4				mov	[bp-0Ch],ax
2926:54E0  58					pop	ax
2926:54E1  89 46 F6				mov	[bp-0Ah],ax
2926:54E4  8B 46 F6				mov	ax,[bp-0Ah]
2926:54E7  93					xchg	bx,ax
2926:54E8  8B 46 F4				mov	ax,[bp-0Ch]
2926:54EB  8B E5				mov	sp,bp
2926:54ED  5D					pop	bp
2926:54EE  C3					retn
2926:54EF			loc_479:					;  xref 2926:54C8
2926:54EF  55					push	bp
2926:54F0  8B EC				mov	bp,sp
2926:54F2  55					push	bp
2926:54F3  81 EC 0002				sub	sp,2
2926:54F7  C7 06 8B4F 0001			mov	word ptr ds:data_207e,1	; (2926:8B4F=0)
2926:54FD  90					nop
2926:54FE  B8 8A4F				mov	ax,8A4Fh
2926:5501  97					xchg	di,ax
2926:5502  C6 05 00				mov	byte ptr [di],0
2926:5505  8B E5				mov	sp,bp
2926:5507  5D					pop	bp
2926:5508  C3					retn
2926:5509			loc_480:					;  xref 2926:54CB
2926:5509  55					push	bp
2926:550A  8B EC				mov	bp,sp
2926:550C  55					push	bp
2926:550D  81 EC 0002				sub	sp,2
2926:5511  81 3E 8B4F 0100			cmp	word ptr ds:data_207e,100h	; (2926:8B4F=0)
2926:5517  7C 03				jl	loc_481			; Jump if <
2926:5519  E9 002B				jmp	loc_482			; (5547)
2926:551C			loc_481:					;  xref 2926:5517
2926:551C  90					nop
2926:551D  B8 8A4F				mov	ax,8A4Fh
2926:5520  03 06 8B4F				add	ax,ds:data_207e		; (2926:8B4F=0)
2926:5524  97					xchg	di,ax
2926:5525  8A 46 04				mov	al,[bp+4]
2926:5528  88 05				mov	[di],al
2926:552A  1E					push	ds
2926:552B  B8 8A4F				mov	ax,8A4Fh
2926:552E  50					push	ax
2926:552F  1E					push	ds
2926:5530  B8 8A4F				mov	ax,8A4Fh
2926:5533  97					xchg	di,ax
2926:5534  07					pop	es
2926:5535  26: 8A 05				mov	al,es:[di]
2926:5538  32 E4				xor	ah,ah			; Zero register
2926:553A  40					inc	ax
           ICON2.lst       ICON2.OVL		Sourcer	v8.01  20-Jul-2026 12:24 am   Page 168

2926:553B  5F					pop	di
2926:553C  07					pop	es
2926:553D  26: 88 05				mov	es:[di],al
2926:5540  A1 8B4F				mov	ax,ds:data_207e		; (2926:8B4F=0)
2926:5543  40					inc	ax
2926:5544  A3 8B4F				mov	ds:data_207e,ax		; (2926:8B4F=0)
2926:5547			loc_482:					;  xref 2926:5519
2926:5547  8B E5				mov	sp,bp
2926:5549  5D					pop	bp
2926:554A  C2 0002				retn	2
2926:554D			loc_483:					;  xref 2926:54CE
2926:554D  55					push	bp
2926:554E  8B EC				mov	bp,sp
2926:5550  55					push	bp
2926:5551  81 EC 0104				sub	sp,104h
2926:5555  16					push	ss
2926:5556  8D 86 FEFE				lea	ax,cs:[0FEFEh][bp]	; Load effective addr
2926:555A  50					push	ax
2926:555B  8B 46 06				mov	ax,[bp+6]
2926:555E  50					push	ax
2926:555F  8B 46 04				mov	ax,[bp+4]
2926:5562  50					push	ax
2926:5563  B8 00FF				mov	ax,0FFh
2926:5566  50					push	ax
2926:5567  E8 E429				call	sub_73			; (3993)
2926:556A  16					push	ss
2926:556B  8D 86 FEFE				lea	ax,cs:[0FEFEh][bp]	; Load effective addr
2926:556F  97					xchg	di,ax
2926:5570  07					pop	es
2926:5571  26: 8A 05				mov	al,es:[di]
2926:5574  32 E4				xor	ah,ah			; Zero register
2926:5576  89 86 FEFC				mov	[bp-104h],ax
2926:557A  8B 86 FEFC				mov	ax,[bp-104h]
2926:557E  03 06 8B4F				add	ax,ds:data_207e		; (2926:8B4F=0)
2926:5582  3D 0100				cmp	ax,100h
2926:5585  7F 03				jg	loc_484			; Jump if >
2926:5587  E9 0010				jmp	loc_485			; (559A)
2926:558A			loc_484:					;  xref 2926:5585
2926:558A  B8 0100				mov	ax,100h
2926:558D  50					push	ax
2926:558E  8B 86 FEFC				mov	ax,[bp-104h]
2926:5592  5B					pop	bx
2926:5593  2B D8				sub	bx,ax
2926:5595  93					xchg	bx,ax
2926:5596  89 86 FEFC				mov	[bp-104h],ax
2926:559A			loc_485:					;  xref 2926:5587
2926:559A  16					push	ss
2926:559B  8D 86 FEFE				lea	ax,cs:[0FEFEh][bp]	; Load effective addr
2926:559F  05 0001				add	ax,1
2926:55A2  50					push	ax
2926:55A3  1E					push	ds
2926:55A4  B8 8A4F				mov	ax,8A4Fh
2926:55A7  03 06 8B4F				add	ax,ds:data_207e		; (2926:8B4F=0)
2926:55AB ú50					push	ax
2926:55AC  8B 86 FEFC				mov	ax,[bp-104h]
2926:55B0  50					push	ax
2926:55B1  E8 006A				call	sub_133			; (561E)
           ICON2.lst       ICON2.OVL		Sourcer	v8.01  20-Jul-2026 12:24 am   Page 169

2926:55B4  1E					push	ds
2926:55B5  B8 8A4F				mov	ax,8A4Fh
2926:55B8  50					push	ax
2926:55B9  1E					push	ds
2926:55BA  B8 8A4F				mov	ax,8A4Fh
2926:55BD  97					xchg	di,ax
2926:55BE  07					pop	es
2926:55BF  26: 8A 05				mov	al,es:[di]
2926:55C2  32 E4				xor	ah,ah			; Zero register
2926:55C4  50					push	ax
2926:55C5  8B 86 FEFC				mov	ax,[bp-104h]
2926:55C9  5B					pop	bx
2926:55CA  03 C3				add	ax,bx
2926:55CC  5F					pop	di
2926:55CD  07					pop	es
2926:55CE  26: 88 05				mov	es:[di],al
2926:55D1  A1 8B4F				mov	ax,ds:data_207e		; (2926:8B4F=0)
2926:55D4  50					push	ax
2926:55D5  8B 86 FEFC				mov	ax,[bp-104h]
2926:55D9  5B					pop	bx
2926:55DA  03 C3				add	ax,bx
2926:55DC  A3 8B4F				mov	ds:data_207e,ax		; (2926:8B4F=0)
2926:55DF  8B E5				mov	sp,bp
2926:55E1  5D					pop	bp
2926:55E2  C2 0004				retn	4
				sub_127		endp


				;ßßßßßßßßßßßßßßßßßßßßßßßßßßßßßßßßßßßßßßßßßßßßßßßßßßßßßßßßßßßßßßßßßßßßßßßßßß
				;                              SUBROUTINE
				;
				;         Called from:   2926:3C48, 3C52, 3C5C, 415E
				;ÜÜÜÜÜÜÜÜÜÜÜÜÜÜÜÜÜÜÜÜÜÜÜÜÜÜÜÜÜÜÜÜÜÜÜÜÜÜÜÜÜÜÜÜÜÜÜÜÜÜÜÜÜÜÜÜÜÜÜÜÜÜÜÜÜÜÜÜÜÜÜÜÜÜ

2926:55E5			sub_131		proc	near
2926:55E5  B9 0010				mov	cx,10h
2926:55E8  8B FC				mov	di,sp
2926:55EA  83 C7 02				add	di,2
2926:55ED  8B DC				mov	bx,sp
2926:55EF  83 C3 22				add	bx,22h

2926:55F2			locloop_486:					;  xref 2926:55FE
2926:55F2  36: 8B 05				mov	ax,ss:[di]
2926:55F5  36: 09 07				or	ss:[bx],ax
2926:55F8  83 C7 02				add	di,2
2926:55FB  83 C3 02				add	bx,2
2926:55FE  E2 F2				loop	locloop_486		; Loop if cx > 0

2926:5600  58					pop	ax
2926:5601  83 C4 20				add	sp,20h
2926:5604  50					push	ax
2926:5605  C3					retn
				sub_131		endp


				;ßßßßßßßßßßßßßßßßßßßßßßßßßßßßßßßßßßßßßßßßßßßßßßßßßßßßßßßßßßßßßßßßßßßßßßßßßß
				;                              SUBROUTINE
           ICON2.lst       ICON2.OVL				Sourcer	v8.01  20-Jul-2026 12:24 am   Page 170

				;
				;         Called from:   2926:39E5, 3A0F, 3B38, 3B9F, 40D9, 40F0, 4F85
				;ÜÜÜÜÜÜÜÜÜÜÜÜÜÜÜÜÜÜÜÜÜÜÜÜÜÜÜÜÜÜÜÜÜÜÜÜÜÜÜÜÜÜÜÜÜÜÜÜÜÜÜÜÜÜÜÜÜÜÜÜÜÜÜÜÜÜÜÜÜÜÜÜÜÜ

2926:5606			sub_132		proc	near

				PARAMETER_1	=	4			; bp+4
				PARAMETER_2	=	6			; bp+6

2926:5606  55					push	bp
2926:5607  8B EC				mov	bp,sp
2926:5609  83 C5 04				add	bp,4
2926:560C  8B 4E 00				mov	cx,[bp]
2926:560F  1E					push	ds
2926:5610  C4 7E 06				les	di,dword ptr [bp+PARAMETER_2]	; Load seg:offset ptr
2926:5613  C5 76 02				lds	si,dword ptr [bp+2]	; Load seg:offset ptr
2926:5616  FC					cld				; Clear direction
2926:5617  F3/ A4				rep	movsb			; Rep when cx >0 Mov [si] to es:[di]
2926:5619  1F					pop	ds
2926:561A  5D					pop	bp
2926:561B  C2 000A				retn	0Ah
				sub_132		endp


				;ßßßßßßßßßßßßßßßßßßßßßßßßßßßßßßßßßßßßßßßßßßßßßßßßßßßßßßßßßßßßßßßßßßßßßßßßßß
				;                              SUBROUTINE
				;
				;         Called from:   2926:3883, 38E0, 42BD, 42D3, 4BA9, 4DDD, 55B1
				;                             57AA
				;ÜÜÜÜÜÜÜÜÜÜÜÜÜÜÜÜÜÜÜÜÜÜÜÜÜÜÜÜÜÜÜÜÜÜÜÜÜÜÜÜÜÜÜÜÜÜÜÜÜÜÜÜÜÜÜÜÜÜÜÜÜÜÜÜÜÜÜÜÜÜÜÜÜÜ

2926:561E			sub_133		proc	near
2926:561E  E9 0000				jmp	loc_487			; (5621)
2926:5621			loc_487:					;  xref 2926:561E
2926:5621  55					push	bp
2926:5622  8B EC				mov	bp,sp
2926:5624  83 C5 04				add	bp,4
2926:5627  8B 4E 00				mov	cx,[bp]
2926:562A  1E					push	ds
2926:562B  C4 7E 02				les	di,dword ptr [bp+2]	; Load seg:offset ptr
2926:562E  C5 76 06				lds	si,dword ptr [bp+6]	; Load seg:offset ptr
2926:5631  FC					cld				; Clear direction
2926:5632  F3/ A4				rep	movsb			; Rep when cx >0 Mov [si] to es:[di]
2926:5634  1F					pop	ds
2926:5635  5D					pop	bp
2926:5636  C2 000A				retn	0Ah
				sub_133		endp

							                        ;* No entry point to code
2926:5639  55					push	bp
2926:563A  8B EC				mov	bp,sp
2926:563C  83 C5 04				add	bp,4
2926:563F  8B 4E 00				mov	cx,[bp]
2926:5642  1E					push	ds
2926:5643  C4 7E 06				les	di,dword ptr [bp+6]	; Load seg:offset ptr
2926:5646  03 F9				add	di,cx
2926:5648  4F					dec	di
           ICON2.lst       ICON2.OVL		Sourcer	v8.01  20-Jul-2026 12:24 am   Page 171

2926:5649  C5 76 02				lds	si,dword ptr [bp+2]	; Load seg:offset ptr
2926:564C  03 F1				add	si,cx
2926:564E  4E					dec	si
2926:564F  FD					std				; Set direction flag
2926:5650  F3/ A4				rep	movsb			; Rep when cx >0 Mov [si] to es:[di]
2926:5652  1F					pop	ds
2926:5653  5D					pop	bp
2926:5654  FC					cld				; Clear direction
2926:5655  C2 000A				retn	0Ah

				;ßßßßßßßßßßßßßßßßßßßßßßßßßßßßßßßßßßßßßßßßßßßßßßßßßßßßßßßßßßßßßßßßßßßßßßßßßß
				;                              SUBROUTINE
				;
				;         Called from:   2926:5787
				;ÜÜÜÜÜÜÜÜÜÜÜÜÜÜÜÜÜÜÜÜÜÜÜÜÜÜÜÜÜÜÜÜÜÜÜÜÜÜÜÜÜÜÜÜÜÜÜÜÜÜÜÜÜÜÜÜÜÜÜÜÜÜÜÜÜÜÜÜÜÜÜÜÜÜ

2926:5658			sub_134		proc	near

				PARAMETER_1	=	4			; bp+4
				PARAMETER_2	=	6			; bp+6

2926:5658  55					push	bp
2926:5659  8B EC				mov	bp,sp
2926:565B  83 C5 04				add	bp,4
2926:565E  8B 4E 00				mov	cx,[bp]
2926:5661  1E					push	ds
2926:5662  C4 7E 02				les	di,dword ptr [bp+2]	; Load seg:offset ptr
2926:5665  03 F9				add	di,cx
2926:5667  4F					dec	di
2926:5668  C5 76 06				lds	si,dword ptr [bp+PARAMETER_2]	; Load seg:offset ptr
2926:566B  03 F1				add	si,cx
2926:566D  4E					dec	si
2926:566E  FD					std				; Set direction flag
2926:566F  F3/ A4				rep	movsb			; Rep when cx >0 Mov [si] to es:[di]
2926:5671  1F					pop	ds
2926:5672  5D					pop	bp
2926:5673  FC					cld				; Clear direction
2926:5674  C2 000A				retn	0Ah
				sub_134		endp


				;ßßßßßßßßßßßßßßßßßßßßßßßßßßßßßßßßßßßßßßßßßßßßßßßßßßßßßßßßßßßßßßßßßßßßßßßßßß
				;                              SUBROUTINE
				;
				;         Called from:   2926:3F76
				;ÜÜÜÜÜÜÜÜÜÜÜÜÜÜÜÜÜÜÜÜÜÜÜÜÜÜÜÜÜÜÜÜÜÜÜÜÜÜÜÜÜÜÜÜÜÜÜÜÜÜÜÜÜÜÜÜÜÜÜÜÜÜÜÜÜÜÜÜÜÜÜÜÜÜ

2926:5677			sub_135		proc	near
2926:5677  5A					pop	dx
2926:5678  5B					pop	bx
2926:5679  58					pop	ax
2926:567A  83 EC 20				sub	sp,20h
2926:567D  8B FC				mov	di,sp
2926:567F  50					push	ax
2926:5680  53					push	bx
2926:5681  52					push	dx
2926:5682  55					push	bp
           ICON2.lst       ICON2.OVL		Sourcer	v8.01  20-Jul-2026 12:24 am   Page 172

2926:5683  8B EC				mov	bp,sp
2926:5685  45					inc	bp
2926:5686  45					inc	bp
2926:5687  8C D1				mov	cx,ss
2926:5689  8E C1				mov	es,cx
2926:568B  B9 0010				mov	cx,10h
2926:568E  33 C0				xor	ax,ax			; Zero register
2926:5690  FC					cld				; Clear direction
2926:5691  F3/ AB				rep	stosw			; Rep when cx >0 Store ax to es:[di]
2926:5693			loc_488:					;  xref 2926:56B6
2926:5693 ú8B 46 04				mov	ax,[bp+4]
2926:5696  3B 46 02				cmp	ax,[bp+2]
2926:5699  7F 1E				jg	loc_489			; Jump if >
2926:569B  8B C8				mov	cx,ax
2926:569D  8B D8				mov	bx,ax
2926:569F  B8 0001				mov	ax,1
2926:56A2  81 E1 000F				and	cx,0Fh
2926:56A6  D3 E0				shl	ax,cl			; Shift w/zeros fill
2926:56A8  B1 04				mov	cl,4
2926:56AA  D3 EB				shr	bx,cl			; Shift w/zeros fill
2926:56AC  D1 E3				shl	bx,1			; Shift w/zeros fill
2926:56AE  8B FB				mov	di,bx
2926:56B0  09 43 06				or	[bp+di+6],ax
2926:56B3  FF 46 04				inc	word ptr [bp+4]
2926:56B6  E9 FFDA				jmp	loc_488			; (5693)
						nop	                                        ;*jump fixup
2926:56B9			loc_489:					;  xref 2926:5699
2926:56B9  5D					pop	bp
2926:56BA  C2 0004				retn	4
				sub_135		endp


				;ßßßßßßßßßßßßßßßßßßßßßßßßßßßßßßßßßßßßßßßßßßßßßßßßßßßßßßßßßßßßßßßßßßßßßßßßßß
				;                              SUBROUTINE
				;
				;         Called from:   2926:0DF5, 50D3, 50EB
				;ÜÜÜÜÜÜÜÜÜÜÜÜÜÜÜÜÜÜÜÜÜÜÜÜÜÜÜÜÜÜÜÜÜÜÜÜÜÜÜÜÜÜÜÜÜÜÜÜÜÜÜÜÜÜÜÜÜÜÜÜÜÜÜÜÜÜÜÜÜÜÜÜÜÜ

2926:56BD			sub_136		proc	near
2926:56BD  5B					pop	bx
2926:56BE  59					pop	cx
2926:56BF  58					pop	ax
2926:56C0  D3 E8				shr	ax,cl			; Shift w/zeros fill
2926:56C2  53					push	bx
2926:56C3  C3					retn
				sub_136		endp


				;ßßßßßßßßßßßßßßßßßßßßßßßßßßßßßßßßßßßßßßßßßßßßßßßßßßßßßßßßßßßßßßßßßßßßßßßßßß
				;                              SUBROUTINE
				;
				;         Called from:   2926:0128
				;ÜÜÜÜÜÜÜÜÜÜÜÜÜÜÜÜÜÜÜÜÜÜÜÜÜÜÜÜÜÜÜÜÜÜÜÜÜÜÜÜÜÜÜÜÜÜÜÜÜÜÜÜÜÜÜÜÜÜÜÜÜÜÜÜÜÜÜÜÜÜÜÜÜÜ

2926:56C4			sub_137		proc	near
2926:56C4  5B					pop	bx
2926:56C5  59					pop	cx
           ICON2.lst       ICON2.OVL		Sourcer	v8.01  20-Jul-2026 12:24 am   Page 173

2926:56C6  58					pop	ax
2926:56C7  D3 E0				shl	ax,cl			; Shift w/zeros fill
2926:56C9  53					push	bx
2926:56CA  C3					retn
				sub_137		endp


				;ßßßßßßßßßßßßßßßßßßßßßßßßßßßßßßßßßßßßßßßßßßßßßßßßßßßßßßßßßßßßßßßßßßßßßßßßßß
				;                              SUBROUTINE
				;
				;         Called from:   2926:3F79, 50C4
				;ÜÜÜÜÜÜÜÜÜÜÜÜÜÜÜÜÜÜÜÜÜÜÜÜÜÜÜÜÜÜÜÜÜÜÜÜÜÜÜÜÜÜÜÜÜÜÜÜÜÜÜÜÜÜÜÜÜÜÜÜÜÜÜÜÜÜÜÜÜÜÜÜÜÜ

2926:56CB			sub_138		proc	near
2926:56CB  5B					pop	bx
2926:56CC  8B F4				mov	si,sp
2926:56CE  1E					push	ds
2926:56CF  8C D0				mov	ax,ss
2926:56D1  8E D8				mov	ds,ax
2926:56D3  55					push	bp
2926:56D4  8B EC				mov	bp,sp
2926:56D6  83 C5 04				add	bp,4
2926:56D9  C4 7E 20				les	di,dword ptr [bp+20h]	; Load seg:offset ptr
2926:56DC  B9 0020				mov	cx,20h
2926:56DF  FC					cld				; Clear direction
2926:56E0  F3/ A4				rep	movsb			; Rep when cx >0 Mov [si] to es:[di]
2926:56E2  5D					pop	bp
2926:56E3  1F					pop	ds
2926:56E4  83 C4 24				add	sp,24h
2926:56E7  53					push	bx
2926:56E8  C3					retn
				sub_138		endp


				;ßßßßßßßßßßßßßßßßßßßßßßßßßßßßßßßßßßßßßßßßßßßßßßßßßßßßßßßßßßßßßßßßßßßßßßßßßß
				;                              SUBROUTINE
				;
				;         Called from:   2926:3FEA, 50C1
				;ÜÜÜÜÜÜÜÜÜÜÜÜÜÜÜÜÜÜÜÜÜÜÜÜÜÜÜÜÜÜÜÜÜÜÜÜÜÜÜÜÜÜÜÜÜÜÜÜÜÜÜÜÜÜÜÜÜÜÜÜÜÜÜÜÜÜÜÜÜÜÜÜÜÜ

2926:56E9			sub_139		proc	near
2926:56E9  5B					pop	bx
2926:56EA  5E					pop	si
2926:56EB  8C D8				mov	ax,ds
2926:56ED  1F					pop	ds
2926:56EE  83 EC 20				sub	sp,20h
2926:56F1  8C D1				mov	cx,ss
2926:56F3  8E C1				mov	es,cx
2926:56F5  8B FC				mov	di,sp
2926:56F7  B9 0020				mov	cx,20h
2926:56FA  FC					cld				; Clear direction
2926:56FB  F3/ A4				rep	movsb			; Rep when cx >0 Mov [si] to es:[di]
2926:56FD  8E D8				mov	ds,ax
2926:56FF  53					push	bx
2926:5700  C3					retn
				sub_139		endp

           ICON2.lst       ICON2.OVL		Sourcer	v8.01  20-Jul-2026 12:24 am   Page 174


				;ßßßßßßßßßßßßßßßßßßßßßßßßßßßßßßßßßßßßßßßßßßßßßßßßßßßßßßßßßßßßßßßßßßßßßßßßßß
				;                              SUBROUTINE
				;
				;         Called from:   2926:3C3E, 3C45, 3C4F, 3C59, 4154, 415B
				;ÜÜÜÜÜÜÜÜÜÜÜÜÜÜÜÜÜÜÜÜÜÜÜÜÜÜÜÜÜÜÜÜÜÜÜÜÜÜÜÜÜÜÜÜÜÜÜÜÜÜÜÜÜÜÜÜÜÜÜÜÜÜÜÜÜÜÜÜÜÜÜÜÜÜ

2926:5701			sub_140		proc	near
2926:5701  5A					pop	dx
2926:5702  5B					pop	bx
2926:5703  83 EC 20				sub	sp,20h
2926:5706  8B FC				mov	di,sp
2926:5708  8C D1				mov	cx,ss
2926:570A  8E C1				mov	es,cx
2926:570C  33 C0				xor	ax,ax			; Zero register
2926:570E  B9 0010				mov	cx,10h
2926:5711  FC					cld				; Clear direction
2926:5712  F3/ AB				rep	stosw			; Rep when cx >0 Store ax to es:[di]
2926:5714  8B FC				mov	di,sp
2926:5716  8B CB				mov	cx,bx
2926:5718  81 E1 000F				and	cx,0Fh
2926:571C  B8 0001				mov	ax,1
2926:571F  D3 E0				shl	ax,cl			; Shift w/zeros fill
2926:5721  B1 04				mov	cl,4
2926:5723  D3 EB				shr	bx,cl			; Shift w/zeros fill
2926:5725  D1 E3				shl	bx,1			; Shift w/zeros fill
2926:5727  36: 89 01				mov	ss:[bx+di],ax
2926:572A  52					push	dx
2926:572B  C3					retn
				sub_140		endp

2926:572C  E9 00 00				db	0E9h, 00h, 00h

				;ßßßßßßßßßßßßßßßßßßßßßßßßßßßßßßßßßßßßßßßßßßßßßßßßßßßßßßßßßßßßßßßßßßßßßßßßßß
				;                              SUBROUTINE
				;
				;         Called from:   2926:5038
				;ÜÜÜÜÜÜÜÜÜÜÜÜÜÜÜÜÜÜÜÜÜÜÜÜÜÜÜÜÜÜÜÜÜÜÜÜÜÜÜÜÜÜÜÜÜÜÜÜÜÜÜÜÜÜÜÜÜÜÜÜÜÜÜÜÜÜÜÜÜÜÜÜÜÜ

2926:572F			sub_141		proc	near
2926:572F  E9 0000				jmp	loc_490			; (5732)
2926:5732			loc_490:					;  xref 2926:572F
2926:5732  55					push	bp
2926:5733  8B EC				mov	bp,sp
2926:5735  55					push	bp
2926:5736  81 EC 0053				sub	sp,53h
2926:573A  16					push	ss
2926:573B  8D 46 AD				lea	ax,[bp-53h]		; Load effective addr
2926:573E  50					push	ax
2926:573F  8B 46 0C				mov	ax,[bp+0Ch]
2926:5742  50					push	ax
2926:5743  8B 46 0A				mov	ax,[bp+0Ah]
2926:5746  50					push	ax
2926:5747  B8 0051				mov	ax,51h
2926:574A  50					push	ax
2926:574B  E8 E245				call	sub_73			; (3993)
2926:574E  C4 7E 06				les	di,dword ptr [bp+6]	; Load seg:offset ptr
           ICON2.lst       ICON2.OVL		Sourcer	v8.01  20-Jul-2026 12:24 am   Page 175

2926:5751  06					push	es
2926:5752  57					push	di
2926:5753  8B 46 04				mov	ax,[bp+4]
2926:5756  5B					pop	bx
2926:5757  03 C3				add	ax,bx
2926:5759  50					push	ax
2926:575A  C4 7E 06				les	di,dword ptr [bp+6]	; Load seg:offset ptr
2926:575D  06					push	es
2926:575E  57					push	di
2926:575F  8B 46 04				mov	ax,[bp+4]
2926:5762  50					push	ax
2926:5763  16					push	ss
2926:5764  8D 46 AD				lea	ax,[bp-53h]		; Load effective addr
2926:5767  97					xchg	di,ax
2926:5768  07					pop	es
2926:5769  26: 8A 05				mov	al,es:[di]
2926:576C  32 E4				xor	ah,ah			; Zero register
2926:576E  5B					pop	bx
2926:576F  03 C3				add	ax,bx
2926:5771  5B					pop	bx
2926:5772  03 C3				add	ax,bx
2926:5774 ú50					push	ax			; PARAMETER_2
2926:5775  C4 7E 06				les	di,dword ptr [bp+6]	; Load seg:offset ptr
2926:5778  26: 8A 05				mov	al,es:[di]
2926:577B  32 E4				xor	ah,ah			; Zero register
2926:577D  50					push	ax			; PARAMETER_1
2926:577E  8B 46 04				mov	ax,[bp+4]
2926:5781  5B					pop	bx
2926:5782  2B D8				sub	bx,ax
2926:5784  93					xchg	bx,ax
2926:5785  40					inc	ax
2926:5786  50					push	ax
2926:5787  E8 FECE				call	sub_134			; (5658)
2926:578A  16					push	ss
2926:578B  8D 46 AD				lea	ax,[bp-53h]		; Load effective addr
2926:578E  05 0001				add	ax,1
2926:5791  50					push	ax
2926:5792  C4 7E 06				les	di,dword ptr [bp+6]	; Load seg:offset ptr
2926:5795  06					push	es
2926:5796  57					push	di
2926:5797  8B 46 04				mov	ax,[bp+4]
2926:579A  5B					pop	bx
2926:579B  03 C3				add	ax,bx
2926:579D ú50					push	ax
2926:579E  16					push	ss
2926:579F  8D 46 AD				lea	ax,[bp-53h]		; Load effective addr
2926:57A2  97					xchg	di,ax
2926:57A3  07					pop	es
2926:57A4  26: 8A 05				mov	al,es:[di]
2926:57A7  32 E4				xor	ah,ah			; Zero register
2926:57A9  50					push	ax
2926:57AA  E8 FE71				call	sub_133			; (561E)
2926:57AD  C4 7E 06				les	di,dword ptr [bp+6]	; Load seg:offset ptr
2926:57B0  06					push	es
2926:57B1  57					push	di
2926:57B2  58					pop	ax
2926:57B3  05 0000				add	ax,0
           ICON2.lst       ICON2.OVL		Sourcer	v8.01  20-Jul-2026 12:24 am   Page 176

2926:57B6  50					push	ax
2926:57B7  C4 7E 06				les	di,dword ptr [bp+6]	; Load seg:offset ptr
2926:57BA  26: 8A 05				mov	al,es:[di]
2926:57BD  32 E4				xor	ah,ah			; Zero register
2926:57BF  50					push	ax
2926:57C0  16					push	ss
2926:57C1  8D 46 AD				lea	ax,[bp-53h]		; Load effective addr
2926:57C4  97					xchg	di,ax
2926:57C5  07					pop	es
2926:57C6  26: 8A 05				mov	al,es:[di]
2926:57C9  32 E4				xor	ah,ah			; Zero register
2926:57CB  5B					pop	bx
2926:57CC  03 C3				add	ax,bx
2926:57CE  5F					pop	di
2926:57CF  07					pop	es
2926:57D0  26: 88 05				mov	es:[di],al
2926:57D3  8B E5				mov	sp,bp
2926:57D5  5D					pop	bp
2926:57D6  C2 000A				retn	0Ah
				sub_141		endp


				;ßßßßßßßßßßßßßßßßßßßßßßßßßßßßßßßßßßßßßßßßßßßßßßßßßßßßßßßßßßßßßßßßßßßßßßßßßß
				;                              SUBROUTINE
				;
				;         Called from:   2926:020B, 06C0, 0F7A, 3AA2, 3DA5
				;ÜÜÜÜÜÜÜÜÜÜÜÜÜÜÜÜÜÜÜÜÜÜÜÜÜÜÜÜÜÜÜÜÜÜÜÜÜÜÜÜÜÜÜÜÜÜÜÜÜÜÜÜÜÜÜÜÜÜÜÜÜÜÜÜÜÜÜÜÜÜÜÜÜÜ

2926:57D9			sub_142		proc	near
2926:57D9  33 C0				xor	ax,ax			; Zero register
2926:57DB  8B F0				mov	si,ax
2926:57DD  E9 0246				jmp	loc_506			; (5A26)

				;ßßßß External Entry into Subroutine ßßßßßßßßßßßßßßßßßßßßßßßßßßßßßßßßßßßßßß
				;
				;         Called from:   2926:428C, 42F1, 4330, 4456, 4696, 5812

2926:57E0			sub_143:
2926:57E0  5B					pop	bx
2926:57E1  58					pop	ax
2926:57E2  59					pop	cx
2926:57E3  5F					pop	di
2926:57E4  07					pop	es
2926:57E5  51					push	cx
2926:57E6  D1 E9				shr	cx,1			; Shift w/zeros fill
2926:57E8  8A E0				mov	ah,al
2926:57EA  FC					cld				; Clear direction
2926:57EB  F3/ AB				rep	stosw			; Rep when cx >0 Store ax to es:[di]
2926:57ED  59					pop	cx
2926:57EE  81 E1 0001				and	cx,1
2926:57F2  74 01				jz	loc_491			; Jump if zero
2926:57F4  AA					stosb				; Store al to es:[di]
2926:57F5			loc_491:					;  xref 2926:57F2
2926:57F5  53					push	bx
2926:57F6  C3					retn
2926:57F7  E9 00 00				db	0E9h, 00h, 00h

           ICON2.lst       ICON2.OVL		Sourcer	v8.01  20-Jul-2026 12:24 am   Page 177

				;ßßßß External Entry into Subroutine ßßßßßßßßßßßßßßßßßßßßßßßßßßßßßßßßßßßßßß
				;
				;         Called from:   2926:0823, 4E45

2926:57FA			sub_144:
2926:57FA  E9 0000				jmp	loc_492			; (57FD)
2926:57FD			loc_492:					;  xref 2926:57FA
2926:57FD  55					push	bp
2926:57FE  8B EC				mov	bp,sp
2926:5800  55					push	bp
2926:5801  81 EC 0002				sub	sp,2
2926:5805  C4 7E 0A				les	di,dword ptr [bp+0Ah]	; Load seg:offset ptr
2926:5808  06					push	es
2926:5809  57					push	di
2926:580A  B8 0039				mov	ax,39h
2926:580D  50					push	ax
2926:580E  B8 0000				mov	ax,0
2926:5811  50					push	ax
2926:5812  E8 FFCB				call	sub_143			; (57E0)
2926:5815  C4 7E 0A				les	di,dword ptr [bp+0Ah]	; Load seg:offset ptr
2926:5818  06					push	es
2926:5819  57					push	di
2926:581A  C4 7E 04				les	di,dword ptr [bp+4]	; Load seg:offset ptr
2926:581D  06					push	es
2926:581E  57					push	di
2926:581F  B8 0025				mov	ax,25h
2926:5822  50					push	ax
2926:5823  E8 E16D				call	sub_73			; (3993)
2926:5826  8B E5				mov	sp,bp
2926:5828  5D					pop	bp
2926:5829  C2 000A				retn	0Ah
							                        ;* No entry point to code
2926:582C  5F					pop	di
2926:582D  5A					pop	dx
2926:582E  59					pop	cx
2926:582F  5B					pop	bx
2926:5830  58					pop	ax
2926:5831  3B C1				cmp	ax,cx
2926:5833  75 09				jne	loc_494			; Jump if not equal
2926:5835  3B DA				cmp	bx,dx
2926:5837  75 05				jne	loc_494			; Jump if not equal
2926:5839			loc_493:					;  xref 2926:5849, 584F, 585F, 5869
										;            5875, 587B, 5885, 5889
2926:5839 úB8 0001				mov	ax,1
2926:583C  FF E7				jmp	di			;*Register jump
2926:583E			loc_494:					;  xref 2926:5833, 5837, 584D, 5859
										;            585D, 586B, 5879, 588B
2926:583E ú33 C0				xor	ax,ax			; Zero register
2926:5840  FF E7				jmp	di			;*Register jump

				;ßßßß External Entry into Subroutine ßßßßßßßßßßßßßßßßßßßßßßßßßßßßßßßßßßßßßß
				;
				;         Called from:   2926:5459

2926:5842			sub_145:
2926:5842  5F					pop	di
2926:5843  5A					pop	dx
           ICON2.lst       ICON2.OVL		Sourcer	v8.01  20-Jul-2026 12:24 am   Page 178

2926:5844  59					pop	cx
2926:5845  5B					pop	bx
2926:5846  58					pop	ax
2926:5847  3B C1				cmp	ax,cx
2926:5849  75 EE				jne	loc_493			; Jump if not equal
2926:584B  3B DA				cmp	bx,dx
2926:584D  74 EF				je	loc_494			; Jump if equal
2926:584F  EB E8				jmp	short loc_493		; (5839)
							                        ;* No entry point to code
2926:5851  5E					pop	si
2926:5852  E8 0038				call	sub_147			; (588D)
2926:5855  8B FE				mov	di,si
2926:5857  0B DB				or	bx,bx			; Zero ?
2926:5859  78 E3				js	loc_494			; Jump if sign=1
2926:585B  0B C3				or	ax,bx
2926:585D  74 DF				jz	loc_494			; Jump if zero
2926:585F  EB D8				jmp	short loc_493		; (5839)
							                        ;* No entry point to code
2926:5861  5E					pop	si
2926:5862  E8 0028				call	sub_147			; (588D)
2926:5865  8B FE				mov	di,si
2926:5867  0B DB				or	bx,bx			; Zero ?
2926:5869  78 CE				js	loc_493			; Jump if sign=1
2926:586B  EB D1				jmp	short loc_494		; (583E)

				;ßßßß External Entry into Subroutine ßßßßßßßßßßßßßßßßßßßßßßßßßßßßßßßßßßßßßß
				;
				;         Called from:   2926:591F

2926:586D			sub_146:
2926:586D  5E					pop	si
2926:586E  E8 001C				call	sub_147			; (588D)
2926:5871  8B FE				mov	di,si
2926:5873  0B C3				or	ax,bx
2926:5875  74 C2				jz	loc_493			; Jump if zero
2926:5877  0B DB				or	bx,bx			; Zero ?
2926:5879  78 C3				js	loc_494			; Jump if sign=1
2926:587B  EB BC				jmp	short loc_493		; (5839)
							                        ;* No entry point to code
2926:587D  5E					pop	si
2926:587E  E8 000C				call	sub_147			; (588D)
2926:5881  8B FE				mov	di,si
2926:5883  0B C3				or	ax,bx
2926:5885  74 B2				jz	loc_493			; Jump if zero
2926:5887  0B DB				or	bx,bx			; Zero ?
2926:5889  78 AE				js	loc_493			; Jump if sign=1
2926:588B  EB B1				jmp	short loc_494		; (583E)

				;ßßßß External Entry into Subroutine ßßßßßßßßßßßßßßßßßßßßßßßßßßßßßßßßßßßßßß
				;
				;         Called from:   2926:5852, 5862, 586E, 587E, 5934

2926:588D			sub_147:
2926:588D  5F					pop	di
2926:588E  59					pop	cx
2926:588F  5A					pop	dx
2926:5890  58					pop	ax
           ICON2.lst       ICON2.OVL		Sourcer	v8.01  20-Jul-2026 12:24 am   Page 179

2926:5891  5B					pop	bx
2926:5892  2B C1				sub	ax,cx
2926:5894  1B DA				sbb	bx,dx
2926:5896  FF E7				jmp	di			;*
							                        ;* No entry point to code
2926:5898  55					push	bp
2926:5899  8B EC				mov	bp,sp
2926:589B  83 EC 0E				sub	sp,0Eh
2926:589E  C7 46 F2 0001			mov	word ptr [bp-0Eh],1
2926:58A3  EB 0B				jmp	short loc_495		; (58B0)
							                        ;* No entry point to code
2926:58A5  55					push	bp
2926:58A6  8B EC				mov	bp,sp
2926:58A8  83 EC 0E				sub	sp,0Eh
2926:58AB  C7 46 F2 0000			mov	word ptr [bp-0Eh],0
2926:58B0			loc_495:					;  xref 2926:58A3
2926:58B0  8B 46 0A				mov	ax,[bp+0Ah]
2926:58B3  33 46 06				xor	ax,[bp+6]
2926:58B6  89 46 FE				mov	[bp-2],ax
2926:58B9  F7 46 0A 8000			test	word ptr [bp+0Ah],8000h
2926:58BE  74 0E				jz	loc_496			; Jump if zero
2926:58C0  F7 56 08				not	word ptr [bp+8]
2926:58C3  F7 56 0A				not	word ptr [bp+0Ah]
2926:58C6  83 46 08 01				add	word ptr [bp+8],1
2926:58CA  83 56 0A 00				adc	word ptr [bp+0Ah],0
2926:58CE			loc_496:					;  xref 2926:58BE
2926:58CE  F7 46 06 8000			test	word ptr [bp+6],8000h
2926:58D3  74 0E				jz	loc_497			; Jump if zero
2926:58D5  F7 56 06				not	word ptr [bp+6]
2926:58D8  F7 56 04				not	word ptr [bp+4]
2926:58DB  83 46 04 01				add	word ptr [bp+4],1
2926:58DF  83 56 06 00				adc	word ptr [bp+6],0
2926:58E3			loc_497:					;  xref 2926:58D3
2926:58E3  B9 0020				mov	cx,20h
2926:58E6  8B 46 04				mov	ax,[bp+4]
2926:58E9  0B 46 06				or	ax,[bp+6]
2926:58EC  75 03				jnz	loc_498			; Jump if not zero
2926:58EE  E9 0091				jmp	loc_ret_504		; (5982)
2926:58F1			loc_498:					;  xref 2926:58EC
2926:58F1  C7 46 FA 0000			mov	word ptr [bp-6],0
2926:58F6  C7 46 F8 0000			mov	word ptr [bp-8],0
2926:58FB  C7 46 F6 0000			mov	word ptr [bp-0Ah],0
2926:5900  C7 46 F4 0000			mov	word ptr [bp-0Ch],0

2926:5905			locloop_499:					;  xref 2926:5945, 5950
2926:5905  F8					clc				; Clear carry flag
2926:5906  D1 56 08				rcl	word ptr [bp+8],1	; Rotate thru carry
2926:5909  D1 56 0A				rcl	word ptr [bp+0Ah],1	; Rotate thru carry
2926:590C  D1 56 F4				rcl	word ptr [bp-0Ch],1	; Rotate thru carry
2926:590F  D1 56 F6				rcl	word ptr [bp-0Ah],1	; Rotate thru carry
2926:5912  51					push	cx
2926:5913  FF 76 F6				push	word ptr [bp-0Ah]
2926:5916  FF 76 F4				push	word ptr [bp-0Ch]
2926:5919  FF 76 06				push	word ptr [bp+6]
2926:591C  FF 76 04				push	word ptr [bp+4]
2926:591F  E8 FF4B				call	sub_146			; (586D)
2926:5922  59					pop	cx
           ICON2.lst       ICON2.OVL		Sourcer	v8.01  20-Jul-2026 12:24 am   Page 180

2926:5923  D0 D8				rcr	al,1			; Rotate thru carry
2926:5925  73 22				jnc	loc_500			; Jump if carry=0
2926:5927  51					push	cx
2926:5928  FF 76 F6				push	word ptr [bp-0Ah]
2926:592B  FF 76 F4				push	word ptr [bp-0Ch]
2926:592E  FF 76 06				push	word ptr [bp+6]
2926:5931  FF 76 04				push	word ptr [bp+4]
2926:5934  E8 FF56				call	sub_147			; (588D)
2926:5937  59					pop	cx
2926:5938  89 46 F4				mov	[bp-0Ch],ax
2926:593B  89 5E F6				mov	[bp-0Ah],bx
2926:593E  F9					stc				; Set carry flag
2926:593F  D1 56 F8				rcl	word ptr [bp-8],1	; Rotate thru carry
2926:5942  D1 56 FA				rcl	word ptr [bp-6],1	; Rotate thru carry
2926:5945  E2 BE				loop	locloop_499		; Loop if cx > 0

2926:5947  EB 09				jmp	short loc_501		; (5952)
2926:5949			loc_500:					;  xref 2926:5925
2926:5949  F8					clc				; Clear carry flag
2926:594A  D1 56 F8				rcl	word ptr [bp-8],1	; Rotate thru carry
2926:594D  D1 56 FA				rcl	word ptr [bp-6],1	; Rotate thru carry
2926:5950  E2 B3				loop	locloop_499		; Loop if cx > 0

2926:5952			loc_501:					;  xref 2926:5947
2926:5952  F7 46 F2 0001			test	word ptr [bp-0Eh],1
2926:5957  75 1D				jnz	loc_503			; Jump if not zero
2926:5959  8B 46 F8				mov	ax,[bp-8]
2926:595C  8B 5E FA				mov	bx,[bp-6]
2926:595F  F7 46 FE 8000			test	word ptr [bp-2],8000h
2926:5964  74 0A				jz	loc_502			; Jump if zero
2926:5966  F7 D0				not	ax
2926:5968  F7 D3				not	bx
2926:596A  05 0001				add	ax,1
2926:596D  83 D3 00				adc	bx,0
2926:5970			loc_502:					;  xref 2926:5964
2926:5970  8B E5				mov	sp,bp
2926:5972  5D					pop	bp
2926:5973  C2 0008				retn	8
2926:5976			loc_503:					;  xref 2926:5957
2926:5976  8B 46 F4				mov	ax,[bp-0Ch]
2926:5979  8B 5E F6				mov	bx,[bp-0Ah]
2926:597C  8B E5				mov	sp,bp
2926:597E  5D					pop	bp
2926:597F  C2 0008				retn	8

2926:5982			loc_ret_504:					;  xref 2926:58EE
2926:5982  C2 0008				retn	8
							                        ;* No entry point to code
2926:5985  5F					pop	di
2926:5986  58					pop	ax
2926:5987  5B					pop	bx
2926:5988  F7 D0				not	ax
2926:598A  F7 D3				not	bx
2926:598C  05 0001				add	ax,1
2926:598F  83 D3 00				adc	bx,0
2926:5992  53					push	bx
2926:5993  50					push	ax
           ICON2.lst       ICON2.OVL		Sourcer	v8.01  20-Jul-2026 12:24 am   Page 181

2926:5994  FF E7				jmp	di			;*
							                        ;* No entry point to code
2926:5996  5A					pop	dx
2926:5997  5F					pop	di
2926:5998  07					pop	es
2926:5999  26: 8A 05				mov	al,es:[di]
2926:599C  32 E4				xor	ah,ah			; Zero register
2926:599E  50					push	ax
2926:599F  FF E2				jmp	dx			;*
							                        ;* No entry point to code
2926:59A1  5A					pop	dx
2926:59A2  5F					pop	di
2926:59A3  07					pop	es
2926:59A4  26: 8B 05				mov	ax,es:[di]
2926:59A7  50					push	ax
2926:59A8  FF E2				jmp	dx			;*
							                        ;* No entry point to code
2926:59AA  5A					pop	dx
2926:59AB  5F					pop	di
2926:59AC  07					pop	es
2926:59AD  26: 8B 45 02				mov	ax,es:[di+2]
2926:59B1  50					push	ax
2926:59B2  26: 8B 05				mov	ax,es:[di]
2926:59B5  50					push	ax
2926:59B6  FF E2				jmp	dx			;*
							                        ;* No entry point to code
2926:59B8  5A					pop	dx
2926:59B9  58					pop	ax
2926:59BA  5F					pop	di
2926:59BB  07					pop	es
2926:59BC  26: 88 05				mov	es:[di],al
2926:59BF  FF E2				jmp	dx			;*
							                        ;* No entry point to code
2926:59C1  5A					pop	dx
2926:59C2  58					pop	ax
2926:59C3  5F					pop	di
2926:59C4  07					pop	es
2926:59C5  26: 89 05				mov	es:[di],ax
2926:59C8  FF E2				jmp	dx			;*Register jump

				;ßßßß External Entry into Subroutine ßßßßßßßßßßßßßßßßßßßßßßßßßßßßßßßßßßßßßß
				;
				;         Called from:   2926:38A8, 38B6, 38CA, 4EC2

2926:59CA			sub_148:
2926:59CA  5A					pop	dx
2926:59CB  58					pop	ax
2926:59CC  5B					pop	bx
2926:59CD  5F					pop	di
2926:59CE  07					pop	es
2926:59CF  26: 89 05				mov	es:[di],ax
2926:59D2  26: 89 5D 02				mov	es:[di+2],bx
2926:59D6  FF E2				jmp	dx			;*Register jump
2926:59D8  FF 2E 83 83				db	0FFh, 2Eh, 83h, 83h

				;ßßßß External Entry into Subroutine ßßßßßßßßßßßßßßßßßßßßßßßßßßßßßßßßßßßßßß
				;
           ICON2.lst       ICON2.OVL				Sourcer	v8.01  20-Jul-2026 12:24 am   Page 182

				;         Called from:   2926:5469

2926:59DC			sub_149:
2926:59DC  FF 2E 8387				jmp	dword ptr ds:data_37e	; (2916:8387=0)

				;ßßßß External Entry into Subroutine ßßßßßßßßßßßßßßßßßßßßßßßßßßßßßßßßßßßßßß
				;
				;         Called from:   2926:3840, 3846

2926:59E0			sub_150:
2926:59E0  8C D8				mov	ax,ds
2926:59E2  C3					retn

				;ßßßß External Entry into Subroutine ßßßßßßßßßßßßßßßßßßßßßßßßßßßßßßßßßßßßßß
				;
				;         Called from:   2926:3DF3, 3E0F, 3E3F, 3E5B, 43BA, 44E0, 44FC
				;                             45B6, 46B5, 4813, 48BE, 490F

2926:59E3			sub_151:
2926:59E3  5B					pop	bx
2926:59E4  5A					pop	dx
2926:59E5  07					pop	es
2926:59E6  58					pop	ax
2926:59E7  53					push	bx
2926:59E8  3C 1A				cmp	al,1Ah
2926:59EA  75 0A				jne	loc_505			; Jump if not equal
2926:59EC  8C 06 8B51				mov	ds:data_208e,es		; (2926:8B51=0)
2926:59F0  C7 06 8B55 00FF			mov	word ptr ds:data_210e,0FFh	; (2926:8B55=0)
2926:59F6			loc_505:					;  xref 2926:59EA
2926:59F6  55					push	bp
2926:59F7  2A E4				sub	ah,ah
2926:59F9  8B F0				mov	si,ax
2926:59FB  8A E0				mov	ah,al
2926:59FD  E8 0026				call	sub_154			; (5A26)
2926:5A00  5D					pop	bp
2926:5A01  32 E4				xor	ah,ah			; Zero register
2926:5A03  C3					retn

				;ßßßß External Entry into Subroutine ßßßßßßßßßßßßßßßßßßßßßßßßßßßßßßßßßßßßßß
				;
				;         Called from:   2926:4837, 4842, 4866, 4A0C, 4A3F, 4A72, 4AA5

2926:5A04			sub_152:
2926:5A04  5B					pop	bx
2926:5A05  5A					pop	dx
2926:5A06  58					pop	ax
2926:5A07  53					push	bx
2926:5A08  55					push	bp
2926:5A09  2A E4				sub	ah,ah
2926:5A0B  8B F0				mov	si,ax
2926:5A0D  8A E0				mov	ah,al
2926:5A0F  E8 0014				call	sub_154			; (5A26)
2926:5A12  5D					pop	bp
2926:5A13  C3					retn

				;ßßßß External Entry into Subroutine ßßßßßßßßßßßßßßßßßßßßßßßßßßßßßßßßßßßßßß
				;
           ICON2.lst       ICON2.OVL				Sourcer	v8.01  20-Jul-2026 12:24 am   Page 183

				;         Called from:   2926:02D5, 0335, 03A3

2926:5A14			sub_153:
2926:5A14  5B					pop	bx
2926:5A15  8C D9				mov	cx,ds
2926:5A17  5A					pop	dx
2926:5A18  1F					pop	ds
2926:5A19  58					pop	ax
2926:5A1A  8A E0				mov	ah,al
2926:5A1C  E8 0089				call	sub_155			; (5AA8)
2926:5A1F  32 E4				xor	ah,ah			; Zero register
2926:5A21  50					push	ax
2926:5A22  8E D9				mov	ds,cx
2926:5A24  FF E3				jmp	bx			;*Register jump

				;ßßßß External Entry into Subroutine ßßßßßßßßßßßßßßßßßßßßßßßßßßßßßßßßßßßßßß
				;
				;         Called from:   2926:59FD, 5A0F

2926:5A26			sub_154:
2926:5A26			loc_506:					;  xref 2926:57DD
2926:5A26  8B DE				mov	bx,si
2926:5A28  03 F3				add	si,bx
2926:5A2A úBB 59B0				mov	bx,59B0h		; (2926:59B0=2)
2926:5A2D  2E: FF 20				jmp	word ptr cs:[bx+si]	;*
				sub_142		endp

2926:5A30  4D 5A				db	 4Dh, 5Ah
2926:5A32  5A57			data_144	dw	5A57h			;  xref 2926:0A38
2926:5A34  5A5C			data_145	dw	5A5Ch			;  xref 2926:0A3F
2926:5A36  61					db	61h
2926:5A37  5A 66 5A 6B 5A 70	data_146	db	'ZfZkZpZ/Z/Z'		;  xref 2926:5AB1
2926:5A3D  5A 2F 5A 2F 5A
2926:5A42  93 5A 98 5A 9D 5A			db	 93h, 5Ah, 98h, 5Ah, 9Dh, 5Ah
2926:5A48  A9 5A AC 5A B1 5A			db	0A9h, 5Ah,0ACh, 5Ah,0B1h, 5Ah
2926:5A4E  B9 5A BE 5A C3 5A			db	0B9h, 5Ah,0BEh, 5Ah,0C3h, 5Ah
2926:5A54  C8 5A CD 5A D2 5A			db	0C8h, 5Ah,0CDh, 5Ah,0D2h, 5Ah
2926:5A5A  DE 5A E3 5A E8 5A			db	0DEh, 5Ah,0E3h, 5Ah,0E8h, 5Ah
2926:5A60  2F 5A ED 5A F2			db	 2Fh, 5Ah,0EDh, 5Ah,0F2h
2926:5A65  5A 0A 5B 2F 5A 2F			db	'Z', 0Ah, '[/Z/Z/Z/Z/Z'
2926:5A6B  5A 2F 5A 2F 5A 2F
2926:5A71  5A
2926:5A72  0F 5B 14 5B 19 5B			db	 0Fh, 5Bh, 14h, 5Bh, 19h, 5Bh
2926:5A78  1E					db	 1Eh
2926:5A79  5B 23 5B 2F 5A 2F	data_147	db	'[#[/Z/Z([/Z/Z/Z/Z/Z/Z/Z/Z/Z-[0['
2926:5A7F  5A 28 5B 2F 5A 2F
2926:5A85  5A 2F 5A 2F 5A 2F
2926:5A8B  5A 2F 5A 2F 5A 2F
2926:5A91  5A 2F 5A 2D 5B 30
2926:5A97  5B
2926:5A98  48 5B 51 5B 54 5B			db	'H[Q[T[W[Z[][`[c['
2926:5A9E  57 5B 5A 5B 5D 5B
2926:5AA4  60 5B 63 5B

				;ßßßßßßßßßßßßßßßßßßßßßßßßßßßßßßßßßßßßßßßßßßßßßßßßßßßßßßßßßßßßßßßßßßßßßßßßßß
				;                              SUBROUTINE
				;
           ICON2.lst       ICON2.OVL				Sourcer	v8.01  20-Jul-2026 12:24 am   Page 184

				;         Called from:   2926:5A1C, 5B09, 5B0F, 5B1F, 5B34, 5B54, 5B85
				;                             5BC3
				;ÜÜÜÜÜÜÜÜÜÜÜÜÜÜÜÜÜÜÜÜÜÜÜÜÜÜÜÜÜÜÜÜÜÜÜÜÜÜÜÜÜÜÜÜÜÜÜÜÜÜÜÜÜÜÜÜÜÜÜÜÜÜÜÜÜÜÜÜÜÜÜÜÜÜ

2926:5AA8			sub_155		proc	near
2926:5AA8			loc_507:					;  xref 2926:5AB4, 5B15, 5B1A, 5B2E
										;            5B3B, 5B40, 5B45, 5B4A
										;            5B4F, 5B60, 5B65, 5B6A
										;            5B6F, 5B8C, 5B91, 5B96
										;            5B9B, 5BA0, 5BA5, 5BAA
2926:5AA8 ú1E					push	ds
2926:5AA9  06					push	es
2926:5AAA  1F					pop	ds
2926:5AAB  CD 21				int	21h			; DOS Services  ah=function 28h
										;  random block write FCB @ds:dx
										;   cx=#records to write,Returns
										;   al=0 ok,cx=actual write recs
2926:5AAD  1F					pop	ds
2926:5AAE  C3					retn
				sub_155		endp

2926:5AAF			loc_508:					;  xref 2926:5BAD
2926:5AAF úB4 09				mov	ah,9
2926:5AB1 úBA 5A37				mov	dx,offset data_146	; (2926:5A37='ZfZkZpZ/Z/Z')
2926:5AB4  E9 FFF1				jmp	loc_507			; (5AA8)
						nop	                                        ;*jump fixup
2926:5AB7  55 6E 64 65 66 69			db	'Undefined Function!', 0Dh, 0Ah, '$'
2926:5ABD  6E 65 64 20 46 75
2926:5AC3  6E 63 74 69 6F 6E
2926:5AC9  21 0D 0A 24
2926:5ACD  C7 06 3E 00 00 00			db	0C7h, 06h, 3Eh, 00h, 00h, 00h
2926:5AD3  FF 2E 3E 00 B4 01			db	0FFh, 2Eh, 3Eh, 00h,0B4h, 01h
2926:5AD9  E9 CC FF B4 02 E9			db	0E9h,0CCh,0FFh,0B4h, 02h,0E9h
2926:5ADF  C7 FF B4 03 E9 C2			db	0C7h,0FFh,0B4h, 03h,0E9h,0C2h
2926:5AE5  FF B4 04 E9 BD FF			db	0FFh,0B4h, 04h,0E9h,0BDh,0FFh
2926:5AEB  B4 05 E9 B8 FF B4			db	0B4h, 05h,0E9h,0B8h,0FFh,0B4h
2926:5AF1  06 80 FA FE 75 0D			db	 06h, 80h,0FAh,0FEh, 75h, 0Dh
2926:5AF7  FE C2 E8 AC FF 74			db	0FEh,0C2h,0E8h,0ACh,0FFh, 74h
2926:5AFD  03 B0 FF C3 32 C0			db	 03h,0B0h,0FFh,0C3h, 32h,0C0h
2926:5B03  C3 80 FA FF 75 06			db	0C3h, 80h,0FAh,0FFh, 75h, 06h
2926:5B09			loc_509:					;  xref 2926:5B0C
2926:5B09  E8 FF9C				call	sub_155			; (5AA8)
2926:5B0C  74 FB				jz	loc_509			; Jump if zero
2926:5B0E  C3					retn
2926:5B0F			loc_510:
2926:5B0F  E8 FF96				call	sub_155			; (5AA8)
2926:5B12  C3					retn
							                        ;* No entry point to code
2926:5B13  B4 09				mov	ah,9
2926:5B15  E9 FF90				jmp	loc_507			; (5AA8)
						nop	                                        ;*jump fixup
							                        ;* No entry point to code
2926:5B18  B4 0A				mov	ah,0Ah
2926:5B1A  E9 FF8B				jmp	loc_507			; (5AA8)
						nop	                                        ;*jump fixup
							                        ;* No entry point to code
2926:5B1D  B4 0B				mov	ah,0Bh
           ICON2.lst       ICON2.OVL		Sourcer	v8.01  20-Jul-2026 12:24 am   Page 185

2926:5B1F  E8 FF86				call	sub_155			; (5AA8)
2926:5B22  3C 00				cmp	al,0
2926:5B24  74 02				je	loc_ret_511		; Jump if equal
2926:5B26  B0 FF				mov	al,0FFh

2926:5B28			loc_ret_511:					;  xref 2926:5B24
2926:5B28  C3					retn
							                        ;* No entry point to code
2926:5B29  B0 22				mov	al,22h			; '"'
2926:5B2B  C3					retn
							                        ;* No entry point to code
2926:5B2C  B4 0D				mov	ah,0Dh
2926:5B2E  E9 FF77				jmp	loc_507			; (5AA8)
							                        ;* No entry point to code
2926:5B31  50					push	ax
2926:5B32  B4 0E				mov	ah,0Eh
2926:5B34  E8 FF71				call	sub_155			; (5AA8)
2926:5B37  58					pop	ax
2926:5B38  C3					retn
							                        ;* No entry point to code
2926:5B39  B4 0F				mov	ah,0Fh
2926:5B3B  E9 FF6A				jmp	loc_507			; (5AA8)
							                        ;* No entry point to code
2926:5B3E  B4 10				mov	ah,10h
2926:5B40  E9 FF65				jmp	loc_507			; (5AA8)
							                        ;* No entry point to code
2926:5B43  B4 11				mov	ah,11h
2926:5B45  E9 FF60				jmp	loc_507			; (5AA8)
							                        ;* No entry point to code
2926:5B48  B4 12				mov	ah,12h
2926:5B4A  E9 FF5B				jmp	loc_507			; (5AA8)
							                        ;* No entry point to code
2926:5B4D  B4 13				mov	ah,13h
2926:5B4F  E9 FF56				jmp	loc_507			; (5AA8)
							                        ;* No entry point to code
2926:5B52  B4 14				mov	ah,14h
2926:5B54  E8 FF51				call	sub_155			; (5AA8)
2926:5B57  3C 03				cmp	al,3
2926:5B59  75 02				jne	loc_ret_512		; Jump if not equal
2926:5B5B  B0 00				mov	al,0

2926:5B5D			loc_ret_512:					;  xref 2926:5B59
2926:5B5D  C3					retn
							                        ;* No entry point to code
2926:5B5E  B4 15				mov	ah,15h
2926:5B60  E9 FF45				jmp	loc_507			; (5AA8)
							                        ;* No entry point to code
2926:5B63  B4 16				mov	ah,16h
2926:5B65  E9 FF40				jmp	loc_507			; (5AA8)
							                        ;* No entry point to code
2926:5B68  B4 17				mov	ah,17h
2926:5B6A  E9 FF3B				jmp	loc_507			; (5AA8)
							                        ;* No entry point to code
2926:5B6D  B4 19				mov	ah,19h
2926:5B6F  E9 FF36				jmp	loc_507			; (5AA8)
							                        ;* No entry point to code
2926:5B72  1E					push	ds
           ICON2.lst       ICON2.OVL		Sourcer	v8.01  20-Jul-2026 12:24 am   Page 186

2926:5B73  89 16 8B53				mov	ds:data_209e,dx		; (2926:8B53=0)
2926:5B77  81 3E 8B55 00FF			cmp	word ptr ds:data_210e,0FFh	; (2926:8B55=0)
2926:5B7D  75 04				jne	loc_513			; Jump if not equal
2926:5B7F  8E 1E 8B51				mov	ds,ds:data_208e		; (2926:8B51=0)
2926:5B83			loc_513:					;  xref 2926:5B7D
2926:5B83  B4 1A				mov	ah,1Ah
2926:5B85  E8 FF20				call	sub_155			; (5AA8)
2926:5B88  1F					pop	ds
2926:5B89  C3					retn
							                        ;* No entry point to code
2926:5B8A  B4 1B				mov	ah,1Bh
2926:5B8C  E9 FF19				jmp	loc_507			; (5AA8)
							                        ;* No entry point to code
2926:5B8F  B4 21				mov	ah,21h			; '!'
2926:5B91  E9 FF14				jmp	loc_507			; (5AA8)
							                        ;* No entry point to code
2926:5B94  B4 22				mov	ah,22h			; '"'
2926:5B96  E9 FF0F				jmp	loc_507			; (5AA8)
							                        ;* No entry point to code
2926:5B99  B4 23				mov	ah,23h			; '#'
2926:5B9B  E9 FF0A				jmp	loc_507			; (5AA8)
							                        ;* No entry point to code
2926:5B9E  B4 24				mov	ah,24h			; '$'
2926:5BA0  E9 FF05				jmp	loc_507			; (5AA8)
							                        ;* No entry point to code
2926:5BA3  B4 25				mov	ah,25h			; '%'
2926:5BA5  E9 FF00				jmp	loc_507			; (5AA8)
							                        ;* No entry point to code
2926:5BA8  B4 28				mov	ah,28h			; '('
2926:5BAA  E9 FEFB				jmp	loc_507			; (5AA8)
2926:5BAD  E9 FEFF				jmp	loc_508			; (5AAF)
							                        ;* No entry point to code
2926:5BB0  1E					push	ds
2926:5BB1  52					push	dx
2926:5BB2  C7 06 8B55 00FF			mov	word ptr ds:data_210e,0FFh	; (2926:8B55=0)
2926:5BB8  89 16 8B51				mov	ds:data_208e,dx		; (2926:8B51=0)
2926:5BBC  8B 16 8B53				mov	dx,ds:data_209e		; (2926:8B53=0)
2926:5BC0  1F					pop	ds
2926:5BC1  B4 1A				mov	ah,1Ah
2926:5BC3  E8 FEE2				call	sub_155			; (5AA8)
2926:5BC6  1F					pop	ds
2926:5BC7  C3					retn
2926:5BC8  8B 1E 53 8B 8E 06			db	 8Bh, 1Eh, 53h, 8Bh, 8Eh, 06h
2926:5BCE  51 8B C3 E9 DB FE			db	 51h, 8Bh,0C3h,0E9h,0DBh,0FEh
2926:5BD4  E9 D8 FE E9 D5 FE			db	0E9h,0D8h,0FEh,0E9h,0D5h,0FEh
2926:5BDA  E9 D2 FE E9 CF FE			db	0E9h,0D2h,0FEh,0E9h,0CFh,0FEh
2926:5BE0  E9 CC FE E9 C9 FE			db	0E9h,0CCh,0FEh,0E9h,0C9h,0FEh
2926:5BE6  001A[00]				db	26 dup (0)

				seg_a		ends



						end	start
           ICON2.lst       ICON2.OVL		Sourcer	v8.01  20-Jul-2026 12:24 am   Page 187


				±±±±±±±±±±±±±±±±±±±± CROSS REFERENCE - KEY ENTRY POINTS ±±±±±±±±±±±±±±±±±±±

				    seg:off    type	   label
				   ---- ----   ----   --------------------------------
				   2926:0000   far    start

				 ±±±±±±±±±±±±±±±±±± Interrupt Usage Synopsis ±±±±±±±±±±±±±±±±±±

				        Interrupt 10h : Video display	ah=functn xxh
				        Interrupt 10h :  ah=00h	 set display mode in al
				        Interrupt 10h :  ah=02h	 set cursor location in dx
				        Interrupt 10h :  ah=03h	 get cursor loc in dx, mode cx
				        Interrupt 10h :  ah=05h	 set display page al
				        Interrupt 10h :  ah=09h	 set char al & attrib bl @curs
				        Interrupt 10h :  ah=0Bh	 set color from bx (CGA modes)
				        Interrupt 10h :  ah=0Fh	 get state, al=mode, bh=page
				        Interrupt 10h :  ax=1102h  load	8x8 font, bl=block
				        Interrupt 10h :  ax=1130h  get font type bh info into
				        Interrupt 13h : Disk  dl=drive #  ah=func xxh
				        Interrupt 13h :  ah=04h	 verify	sectors with mem es:bx
				        Interrupt 21h : DOS Services  ah=function xxh
				        Interrupt 21h :  ah=06h	 special char i/o, dl=subfunc
				        Interrupt 21h :  ah=09h	 display char string at ds:dx
				        Interrupt 21h :  ah=0Ch	 clear keybd buffer & input al
				        Interrupt 21h :  ah=1Ah	 set DTA(disk xfer area) ds:dx
				        Interrupt 21h :  ah=27h	 random	block read, FCB @ds:dx
				        Interrupt 21h :  ah=28h	 random	block write FCB @ds:dx
				            2 Ocurrences of non-standard interrupts used (search for ??).

				 ±±±±±±±±±±±±±±±±±± I/O Port Usage Synopsis  ±±±±±±±±±±±±±±±±±±

				        Port 20h   : 8259-1 int	command
				        Port 20h   :  al = 20h,	end of interrupt
				        Port 61h   : 8255 port B, read
				        Port 61h   : 8255 B - spkr, etc
				        Port 201h  : start game	1-shots
				        Port 3C0h  : EGA attributes
				        Port 3C0h  :  al = 10h,	mode control
				        Port 3D4h  : CGA/EGA reg index
				        Port 3D4h  :  al = 9, max raster address
				        Port 3D5h  : CGA/EGA indxd data
				        Port 3DAh  : CGA/EGA vid status
				        Port 3DAh  : VGA feature contrl

