            ICON0.lst       ICON0.OVL				Sourcer	v8.01  20-Jul-2026 12:17 am   Page 1


				PAGE  59,132

				;ŰŰŰŰŰŰŰŰŰŰŰŰŰŰŰŰŰŰŰŰŰŰŰŰŰŰŰŰŰŰŰŰŰŰŰŰŰŰŰŰŰŰŰŰŰŰŰŰŰŰŰŰŰŰŰŰŰŰŰŰŰŰŰŰŰŰŰŰŰŰŰŰŰŰ
				;ŰŰ					                                 ŰŰ
				;ŰŰ				ICON0	                                 ŰŰ
				;ŰŰ					                                 ŰŰ
				;ŰŰ      Created:   20-Jul-26		                                 ŰŰ
				;ŰŰ      Code type: overlay		                                 ŰŰ
				;ŰŰ      Passes:    5          Analysis	Options on: QRS                  ŰŰ
				;ŰŰ      Warning:   The stack segment is in the code segment.   For      ŰŰ
				;ŰŰ                 program reassembly,	when linking the file, the       ŰŰ
				;ŰŰ                 option  /STACK:0X0080  must be used.                 ŰŰ
				;ŰŰ					                                 ŰŰ
				;ŰŰŰŰŰŰŰŰŰŰŰŰŰŰŰŰŰŰŰŰŰŰŰŰŰŰŰŰŰŰŰŰŰŰŰŰŰŰŰŰŰŰŰŰŰŰŰŰŰŰŰŰŰŰŰŰŰŰŰŰŰŰŰŰŰŰŰŰŰŰŰŰŰŰ

				target		EQU   'M5'                      ; Target assembler: MASM-5.1

				include  srmacros.inc


				; The following equates show data references outside the range of the program.

     = 0014			data_1e		equ	14h			; (0000:0014=54h)
     = 0024			data_2e		equ	24h			; (0000:0024=87h)
     = 006C			data_3e		equ	6Ch			; (0000:006C=60h)
     = 0070			data_4e		equ	70h			; (0000:0070=60h)
     = 0074			data_5e		equ	74h			; (0000:0074=0A4h)
     = 008C			data_6e		equ	8Ch			; (0000:008C=91h)
     = 0180			data_7e		equ	180h			; (0000:0180=0)
     = 0184			data_8e		equ	184h			; (0000:0184=0)
     = 0188			data_9e		equ	188h			; (0000:0188=0)
     = 0065			data_10e	equ	65h			; (0040:0065=29h)
     = 0120			data_11e	equ	120h			;*(26B4:0120=0FFh)
     = 298C			data_12e	equ	298Ch			;*(26B4:298C=66h)
     = 29E6			data_13e	equ	29E6h			;*(26B4:29E6=16h)
     = 2DA8			data_14e	equ	2DA8h			;*(26B4:2DA8=64h)
     = 5A36			data_15e	equ	5A36h			;*(26B4:5A36=20h)
     = 5E20			data_16e	equ	5E20h			;*(26B4:5E20=38h)
     = 0002			data_17e	equ	2			; (2916:0002=0)
     = 0122			data_18e	equ	122h			;*(2916:0122=0)
     = 0124			data_19e	equ	124h			;*(2916:0124=0)
     = 0126			data_20e	equ	126h			;*(2916:0126=0)
     = 0128			data_21e	equ	128h			;*(2916:0128=0)
     = 012A			data_22e	equ	12Ah			;*(2916:012A=0)
     = 206C			data_23e	equ	206Ch			;*(2916:206C=0CD05h)
     = 2074			data_24e	equ	2074h			;*(2916:2074=0CDFFh)
     = 2078			data_25e	equ	2078h			;*(2916:2078=0DB33h)
     = 2904			data_26e	equ	2904h			;*(2916:2904=0B320h)
     = 298C			data_27e	equ	298Ch			;*(2916:298C=0)
     = 298E			data_28e	equ	298Eh			;*(2916:298E=0B00h)
     = 2A4A			data_29e	equ	2A4Ah			;*(2916:2A4A=7441h)
     = 2BE8			data_30e	equ	2BE8h			;*(2916:2BE8=4A3Ch)
     = 2BEA			data_31e	equ	2BEAh			;*(2916:2BEA=0F074h)
     = 2BEE			data_32e	equ	2BEEh			;*(2916:2BEE=0EC74h)
     = 2BF0			data_33e	equ	2BF0h			;*(2916:2BF0=513Ch)
     = 2C18			data_34e	equ	2C18h			;*(2916:2C18=0C322h)
           ICON0.lst       ICON0.OVL		Sourcer	v8.01  20-Jul-2026 12:17 am   Page 2

     = 2DA6			data_35e	equ	2DA6h			;*(2916:2DA6=4854h)
     = 2DA8			data_36e	equ	2DA8h			;*(2916:2DA8=45h)
     = 31BC			data_37e	equ	31BCh			;*(2916:31BC=22h)
     = 31BE			data_38e	equ	31BEh			;*(2916:31BE=2E21h)
     = 5A26			data_39e	equ	5A26h			;*(2916:5A26=0E900h)
     = 5A2C			data_40e	equ	5A2Ch			;*(2916:5A2C=83B3h)
     = 5DDC			data_41e	equ	5DDCh			;*(2916:5DDC=0C303h)
     = 5DEC			data_42e	equ	5DECh			;*(2916:5DEC=5706h)
     = 5DF0			data_43e	equ	5DF0h			;*(2916:5DF0=83FAh)
     = 5DF6			data_44e	equ	5DF6h			;*(2916:5DF6=4005h)
     = 5E20			data_45e	equ	5E20h			;*(2916:5E20=74h)
     = 5E24			data_46e	equ	5E24h			;*(2916:5E24=0B800h)
     = 5E32			data_47e	equ	5E32h			;*(2916:5E32=0F946h)
     = 5E34			data_48e	equ	5E34h			;*(2916:5E34=468Ah)
     = 810A			data_49e	equ	810Ah			;*(2916:810A=0)
     = 8226			data_50e	equ	8226h			;*(2916:8226=0)
     = 8232			data_51e	equ	8232h			;*(2916:8232=0)
     = 8234			data_52e	equ	8234h			;*(2916:8234=0)
     = 824A			data_53e	equ	824Ah			;*(2916:824A=0)
     = 824C			data_54e	equ	824Ch			;*(2916:824C=0)
     = 8257			data_55e	equ	8257h			;*(2916:8257=0)
     = 8260			data_56e	equ	8260h			;*(2916:8260=0)
     = 8261			data_57e	equ	8261h			;*(2916:8261=0)
     = 8262			data_58e	equ	8262h			;*(2916:8262=0)
     = 8264			data_59e	equ	8264h			;*(2916:8264=0)
     = 8269			data_60e	equ	8269h			;*(2916:8269=0)
     = 826B			data_61e	equ	826Bh			;*(2916:826B=0)
     = 8272			data_62e	equ	8272h			;*(2916:8272=0)
     = 8387			data_63e	equ	8387h			;*(2916:8387=0)
     = 83AF			data_65e	equ	83AFh			;*(2916:83AF=0)
     = 83B3			data_67e	equ	83B3h			;*(2916:83B3=0)
     = 8BA1			data_68e	equ	8BA1h			;*(2916:8BA1=0)
     = 810A			data_296e	equ	810Ah			;*(2926:810A=0)
     = 8222			data_297e	equ	8222h			;*(2926:8222=0)
     = 8224			data_298e	equ	8224h			;*(2926:8224=0)
     = 8226			data_299e	equ	8226h			;*(2926:8226=0)
     = 822A			data_300e	equ	822Ah			;*(2926:822A=0)
     = 822E			data_301e	equ	822Eh			;*(2926:822E=0)
     = 8232			data_302e	equ	8232h			;*(2926:8232=0)
     = 8234			data_303e	equ	8234h			;*(2926:8234=0)
     = 824A			data_304e	equ	824Ah			;*(2926:824A=0)
     = 824C			data_305e	equ	824Ch			;*(2926:824C=0)
     = 8256			data_306e	equ	8256h			;*(2926:8256=0)
     = 8257			data_307e	equ	8257h			;*(2926:8257=0)
     = 8260			data_308e	equ	8260h			;*(2926:8260=0)
     = 8261			data_309e	equ	8261h			;*(2926:8261=0)
     = 8262			data_310e	equ	8262h			;*(2926:8262=0)
     = 8264			data_311e	equ	8264h			;*(2926:8264=0)
     = 8268			data_312e	equ	8268h			;*(2926:8268=0)
     = 8269			data_313e	equ	8269h			;*(2926:8269=0)
     = 826B			data_314e	equ	826Bh			;*(2926:826B=0)
     = 826D			data_315e	equ	826Dh			;*(2926:826D=0)
     = 8272			data_316e	equ	8272h			;*(2926:8272=0)
     = 82F9			data_317e	equ	82F9h			;*(2926:82F9=0)
     = 82FB			data_318e	equ	82FBh			;*(2926:82FB=0)
     = 836C			data_319e	equ	836Ch			;*(2926:836C=0)
     = 8383			data_320e	equ	8383h			;*(2926:8383=0)
           ICON0.lst       ICON0.OVL		Sourcer	v8.01  20-Jul-2026 12:17 am   Page 3

     = 8387			data_322e	equ	8387h			;*(2926:8387=0)
     = 838B			data_324e	equ	838Bh			;*(2926:838B=0)
     = 838F			data_326e	equ	838Fh			;*(2926:838F=0)
     = 8393			data_328e	equ	8393h			;*(2926:8393=0)
     = 8397			data_330e	equ	8397h			;*(2926:8397=0)
     = 8399			data_331e	equ	8399h			;*(2926:8399=0)
     = 839B			data_332e	equ	839Bh			;*(2926:839B=0)
     = 839D			data_333e	equ	839Dh			;*(2926:839D=0)
     = 839F			data_334e	equ	839Fh			;*(2926:839F=0)
     = 83A1			data_335e	equ	83A1h			;*(2926:83A1=0)
     = 83A3			data_336e	equ	83A3h			;*(2926:83A3=0)
     = 83A5			data_337e	equ	83A5h			;*(2926:83A5=0)
     = 83A7			data_338e	equ	83A7h			;*(2926:83A7=0)
     = 83A9			data_339e	equ	83A9h			;*(2926:83A9=0)
     = 83AB			data_340e	equ	83ABh			;*(2926:83AB=0)
     = 83AD			data_341e	equ	83ADh			;*(2926:83AD=0)
     = 83AF			data_342e	equ	83AFh			;*(2926:83AF=0)
     = 83B3			data_344e	equ	83B3h			;*(2926:83B3=0)
     = 8A4F			data_345e	equ	8A4Fh			;*(2926:8A4F=0)
     = 8BA3			data_346e	equ	8BA3h			;*(2926:8BA3=0)
     = 8BA5			data_347e	equ	8BA5h			;*(2926:8BA5=0)
     = 8BA7			data_348e	equ	8BA7h			;*(2926:8BA7=0)
     = BBFE			data_349e	equ	0BBFEh			;*(2926:BBFE=0)
     = 0000			data_350e	equ	0			;*(35A6:0000=0)
     = 0006			data_351e	equ	6			;*(35A6:0006=0)
     = 0009			data_352e	equ	9			;*(35A6:0009=35A6h)
     = 000C			data_353e	equ	0Ch			;*(35A6:000C=0)
     = 000E			data_354e	equ	0Eh			;*(35A6:000E=0)
     = 000F			data_355e	equ	0Fh			;*(35A6:000F=0)
     = 0012			data_356e	equ	12h			;*(35A6:0012=0)
     = 0015			data_357e	equ	15h			;*(35A6:0015=0)
     = 0040			data_358e	equ	40h			;*(35A6:0040=2916h)

				seg_a		segment	byte public
						assume	cs:seg_a, ds:seg_a


						org	0

				ICON0		proc	far

2926:0000			start:
2926:0000  E8 4C6A				call	sub_209			; (4C6D)
2926:0003  80 0C B0				or	byte ptr [si],0B0h
2926:0006  08 90 0000				or	ds:data_350e[bx+si],dl	; (35A6:0000=0)
						nop	                        ;*ASM fixup - sign extn byte
2926:000A  00					db	0
2926:000B  00					db	0
2926:000C  00			data_75		db	0			;  xref 2926:4D20
2926:000D  00					db	0
2926:000E  00			data_76		db	0			;  xref 2926:2206
2926:000F  002F[00]				db	47 dup (0)
2926:003E  0000 0000		data_77		dw	0, 0			;  xref 2926:7793, 7799
2926:0042  000E[00]				db	14 dup (0)
2926:0050  00			data_78		db	0			; Data table (indexed access)
										;  xref 2926:6885
2926:0051  00			data_79		db	0			; Data table (indexed access)
           ICON0.lst       ICON0.OVL		Sourcer	v8.01  20-Jul-2026 12:17 am   Page 4

										;  xref 2926:04CF, 6A25
2926:0052  000A[00]				db	10 dup (0)
2926:005C  00			data_80		db	0			;  xref 2926:63A2, 63B5
2926:005D  000F[00]				db	15 dup (0)
2926:006C  0000			data_81		dw	0			;  xref 2926:63D8
2926:006E  000F[00]				db	15 dup (0)
2926:007D  00			data_82		db	0			;  xref 2926:63C0
2926:007E  00 00				db	0, 0
2926:0080  90 90				db	 90h, 90h
2926:0082  90			data_84		db	90h			;  xref 2926:63C7
2926:0083  000D[90]				db	13 dup (90h)
2926:0090  E9 81 1D E9 45 00			db	0E9h, 81h, 1Dh,0E9h, 45h, 00h

				ICON0		endp

				;ßßßßßßßßßßßßßßßßßßßßßßßßßßßßßßßßßßßßßßßßßßßßßßßßßßßßßßßßßßßßßßßßßßßßßßßßßß
				;                              SUBROUTINE
				;
				;         Called from:   2926:04B5, 1ECA
				;ÜÜÜÜÜÜÜÜÜÜÜÜÜÜÜÜÜÜÜÜÜÜÜÜÜÜÜÜÜÜÜÜÜÜÜÜÜÜÜÜÜÜÜÜÜÜÜÜÜÜÜÜÜÜÜÜÜÜÜÜÜÜÜÜÜÜÜÜÜÜÜÜÜÜ

2926:0096			sub_1		proc	near
2926:0096  E9 0087				jmp	loc_7			; (0120)
2926:0099  E9 00B3				jmp	loc_8			; (014F)

				;ßßßß External Entry into Subroutine ßßßßßßßßßßßßßßßßßßßßßßßßßßßßßßßßßßßßßß
				;
				;         Called from:   2926:1116

2926:009C			sub_2:
2926:009C  E9 00D6				jmp	loc_10			; (0175)
2926:009F  E9 0111				jmp	loc_14			; (01B3)

				;ßßßß External Entry into Subroutine ßßßßßßßßßßßßßßßßßßßßßßßßßßßßßßßßßßßßßß
				;
				;         Called from:   2926:1822, 18A5, 1A10, 1A2F, 1A4E, 1A6D

2926:00A2			sub_3:
2926:00A2  E9 0133				jmp	loc_18			; (01D8)

				;ßßßß External Entry into Subroutine ßßßßßßßßßßßßßßßßßßßßßßßßßßßßßßßßßßßßßß
				;
				;         Called from:   2926:0117, 0C03

2926:00A5			sub_4:
2926:00A5  E9 0216				jmp	loc_19			; (02BE)

				;ßßßß External Entry into Subroutine ßßßßßßßßßßßßßßßßßßßßßßßßßßßßßßßßßßßßßß
				;
				;         Called from:   2926:07BC, 084A, 08E5, 0F64, 101D, 1342, 136B
				;                             1382, 1395, 13A9, 13B9, 13C9, 13DA, 13E9
				;                             13F9, 141B, 1431, 1440, 1459, 1469, 148E

2926:00A8			sub_5:
2926:00A8  E9 0282				jmp	loc_20			; (032D)

				;ßßßß External Entry into Subroutine ßßßßßßßßßßßßßßßßßßßßßßßßßßßßßßßßßßßßßß
           ICON0.lst       ICON0.OVL		Sourcer	v8.01  20-Jul-2026 12:17 am   Page 5

				;
				;         Called from:   2926:1DF8

2926:00AB			sub_6:
2926:00AB  E9 02F8				jmp	loc_27			; (03A6)

				;ßßßß External Entry into Subroutine ßßßßßßßßßßßßßßßßßßßßßßßßßßßßßßßßßßßßßß
				;
				;         Called from:   2926:163D, 1667, 167E, 1696, 16CA, 1733, 173B
				;                             1743, 174B, 1753, 175B, 1763, 176B, 1773
				;                             177B, 1783, 178B, 1793, 179B, 17C7, 17E0
				;                             17FA, 182A, 1840, 1856, 1863, 1879, 1881
				;                             1889, 1891, 18AD, 18B5, 18BD, 18C5, 18CD
				;                             18D5, 18FE, 1912, 1942, 1959, 1973, 198D
				;                             19A7, 19C1, 19C9, 19FF, 1A1E, 1A3D, 1A5C

2926:00AE			sub_7:
2926:00AE  E9 03B7				jmp	loc_42			; (0468)
2926:00B1  E9 040A				jmp	loc_43			; (04BE)

				;ßßßß External Entry into Subroutine ßßßßßßßßßßßßßßßßßßßßßßßßßßßßßßßßßßßßßß
				;
				;         Called from:   2926:1DC7, 1DEE

2926:00B4			sub_8:
2926:00B4  E9 04E2				jmp	loc_53			; (0599)

				;ßßßß External Entry into Subroutine ßßßßßßßßßßßßßßßßßßßßßßßßßßßßßßßßßßßßßß
				;
				;         Called from:   2926:0E6D

2926:00B7			sub_9:
2926:00B7  E9 0514				jmp	loc_55			; (05CE)

				;ßßßß External Entry into Subroutine ßßßßßßßßßßßßßßßßßßßßßßßßßßßßßßßßßßßßßß
				;
				;         Called from:   2926:15D4

2926:00BA			sub_10:
2926:00BA  E9 06BB				jmp	loc_69			; (0778)

				;ßßßß External Entry into Subroutine ßßßßßßßßßßßßßßßßßßßßßßßßßßßßßßßßßßßßßß
				;
				;         Called from:   2926:1157, 11A3

2926:00BD			sub_11:
2926:00BD  E9 09F1				jmp	loc_97			; (0AB1)

				;ßßßß External Entry into Subroutine ßßßßßßßßßßßßßßßßßßßßßßßßßßßßßßßßßßßßßß
				;
				;         Called from:   2926:0B0B, 0C62, 1205, 1593, 1AC3, 1F0C

2926:00C0			sub_12:
2926:00C0  E9 0AEF				jmp	loc_104			; (0BB2) Register jump

				;ßßßß External Entry into Subroutine ßßßßßßßßßßßßßßßßßßßßßßßßßßßßßßßßßßßßßß
				;
           ICON0.lst       ICON0.OVL				Sourcer	v8.01  20-Jul-2026 12:17 am   Page 6

				;         Called from:   2926:149A

2926:00C3			sub_13:
2926:00C3  E9 0B46				jmp	loc_107			; (0C0C)

				;ßßßß External Entry into Subroutine ßßßßßßßßßßßßßßßßßßßßßßßßßßßßßßßßßßßßßß
				;
				;         Called from:   2926:1E89

2926:00C6			sub_14:
2926:00C6  E9 0FE8				jmp	loc_124			; (10B1)

				;ßßßß External Entry into Subroutine ßßßßßßßßßßßßßßßßßßßßßßßßßßßßßßßßßßßßßß
				;
				;         Called from:   2926:14BD

2926:00C9			sub_15:
2926:00C9  E9 144B				jmp	loc_176			; (1517)

				;ßßßß External Entry into Subroutine ßßßßßßßßßßßßßßßßßßßßßßßßßßßßßßßßßßßßßß
				;
				;         Called from:   2926:14CA

2926:00CC			sub_16:
2926:00CC  E9 1561				jmp	loc_185			; (1630)

				;ßßßß External Entry into Subroutine ßßßßßßßßßßßßßßßßßßßßßßßßßßßßßßßßßßßßßß
				;
				;         Called from:   2926:1331, 1358

2926:00CF			sub_17:
2926:00CF  E9 19B3				jmp	loc_219			; (1A85)

				;ßßßß External Entry into Subroutine ßßßßßßßßßßßßßßßßßßßßßßßßßßßßßßßßßßßßßß
				;
				;         Called from:   2926:14F6, 1DB6

2926:00D2			sub_18:
2926:00D2  E9 1C4C				jmp	loc_238			; (1D21)

				;ßßßß External Entry into Subroutine ßßßßßßßßßßßßßßßßßßßßßßßßßßßßßßßßßßßßßß
				;
				;         Called from:   2926:1097, 11BF, 11D1, 1508

2926:00D5			sub_19:
2926:00D5  E9 1CC7				jmp	loc_239			; (1D9F)

				;ßßßß External Entry into Subroutine ßßßßßßßßßßßßßßßßßßßßßßßßßßßßßßßßßßßßßß
				;
				;         Called from:   2926:031E, 10EB

2926:00D8			sub_20:
2926:00D8  E9 1CE4				jmp	loc_240			; (1DBF)
							                        ;* No entry point to code
2926:00DB  55					push	bp
2926:00DC  8B EC				mov	bp,sp
2926:00DE  55					push	bp
           ICON0.lst       ICON0.OVL		Sourcer	v8.01  20-Jul-2026 12:17 am   Page 7

2926:00DF  81 EC 0002				sub	sp,2
2926:00E3  F6 46 06 01				test	byte ptr [bp+6],1
2926:00E7  75 03				jnz	loc_5			; Jump if not zero
2926:00E9  E9 002E				jmp	loc_6			; (011A)
2926:00EC			loc_5:						;  xref 2926:00E7
2926:00EC  E8 7048				call	sub_278			; (7137)
2926:00EF  0E E8 0012				callf	sub_21			; (0105)
2926:00F3  11 50 61				adc	[bx+si+61h],dx
2926:00F6  73 63				jnc	loc_9			; Jump if carry=0
2926:00F8  61 6C 20 4D 54 2B			db	'al MT+ Error '
2926:00FE  20 45 72 72 6F 72
2926:0104  20

				;ßßßß External Entry into Subroutine ßßßßßßßßßßßßßßßßßßßßßßßßßßßßßßßßßßßßßß
				;
				;         Called from:   2926:00EF

2926:0105			sub_21:
2926:0105  E8 7035				call	sub_280			; (713D)
2926:0108  8B 46 04				mov	ax,[bp+4]
2926:010B  05 0030				add	ax,30h
2926:010E  50					push	ax
2926:010F  E8 7028				call	sub_279			; (713A)
2926:0112  E8 701F				call	sub_277			; (7134)
2926:0115  53					push	bx
2926:0116  50					push	ax
2926:0117  E8 FF8B				call	sub_4			; (00A5)
2926:011A			loc_6:						;  xref 2926:00E9
2926:011A  8B E5				mov	sp,bp
2926:011C  5D					pop	bp
2926:011D  C2 0004				retn	4
2926:0120			loc_7:						;  xref 2926:0096
2926:0120  55					push	bp
2926:0121  8B EC				mov	bp,sp
2926:0123  55					push	bp
2926:0124  81 EC 0002				sub	sp,2
2926:0128  A1 2904				mov	ax,ds:data_26e		; (2916:2904=0B320h)
2926:012B  50					push	ax
2926:012C  8B 46 04				mov	ax,[bp+4]
2926:012F  93					xchg	bx,ax
2926:0130  B8 000F				mov	ax,0Fh
2926:0133  23 C3				and	ax,bx
2926:0135  50					push	ax
2926:0136  A1 2904				mov	ax,ds:data_26e		; (2916:2904=0B320h)
2926:0139  93					xchg	bx,ax
2926:013A  B8 0007				mov	ax,7
2926:013D  23 C3				and	ax,bx
2926:013F  50					push	ax
2926:0140  E8 7293				call	sub_287			; (73D6)
2926:0143  5B					pop	bx
2926:0144  03 C3				add	ax,bx
2926:0146  A3 2904				mov	ds:data_26e,ax		; (2916:2904=0B320h)
2926:0149  8B E5				mov	sp,bp
2926:014B  5D					pop	bp
2926:014C  C2 0002				retn	2
2926:014F			loc_8:						;  xref 2926:0099
2926:014F  55					push	bp
           ICON0.lst       ICON0.OVL		Sourcer	v8.01  20-Jul-2026 12:17 am   Page 8

2926:0150  8B EC				mov	bp,sp
2926:0152  55					push	bp
2926:0153  81 EC 0002				sub	sp,2
2926:0157  C4 3E 206C				les	di,dword ptr ds:data_23e	; (2916:206C=0CD05h) Load seg:offset p
2926:015B			loc_9:						;  xref 2926:00F6
2926:015B  06					push	es
2926:015C  57					push	di
2926:015D  58					pop	ax
2926:015E  05 0000				add	ax,0
2926:0161  05 0000				add	ax,0
2926:0164  50					push	ax
2926:0165  B8 0FA0				mov	ax,0FA0h
2926:0168  50					push	ax
2926:0169  FF 76 04				push	word ptr [bp+4]
2926:016C  E8 1DE9				call	sub_57			; (1F58)
2926:016F  8B E5				mov	sp,bp
2926:0171  5D					pop	bp
2926:0172  C2 0002				retn	2
2926:0175			loc_10:						;  xref 2926:009C
2926:0175  55					push	bp
2926:0176  8B EC				mov	bp,sp
2926:0178  55					push	bp
2926:0179  81 EC 0006				sub	sp,6
2926:017D  C7 46 FC 0000			mov	word ptr [bp-4],0
2926:0182  C7 46 FA 0082			mov	word ptr [bp-6],82h
2926:0187			loc_11:						;  xref 2926:01AD
2926:0187 úFF 46 FC				inc	word ptr [bp-4]
2926:018A  FF 4E FA				dec	word ptr [bp-6]
2926:018D  7D 03				jge	loc_12			; Jump if > or =
2926:018F  E9 001D				jmp	loc_13			; (01AF)
2926:0192			loc_12:						;  xref 2926:018D
2926:0192  1E					push	ds
2926:0193  B8 5A9C				mov	ax,5A9Ch
2926:0196  50					push	ax
2926:0197  8B 46 FC				mov	ax,[bp-4]
2926:019A  48					dec	ax
2926:019B  BB 0006				mov	bx,6
2926:019E  F7 E3				mul	bx			; dx:ax = reg * ax
2926:01A0  5B					pop	bx
2926:01A1  03 C3				add	ax,bx
2926:01A3  05 0004				add	ax,4
2926:01A6  97					xchg	di,ax
2926:01A7  07					pop	es
2926:01A8  26: C7 05 FFFF			mov	word ptr es:[di],0FFFFh
2926:01AD  EB D8				jmp	short loc_11		; (0187)
2926:01AF			loc_13:						;  xref 2926:018F
2926:01AF  8B E5				mov	sp,bp
2926:01B1  5D					pop	bp
2926:01B2  C3					retn
2926:01B3			loc_14:						;  xref 2926:009F
2926:01B3  55					push	bp
2926:01B4  8B EC				mov	bp,sp
2926:01B6  55					push	bp
2926:01B7  81 EC 0002				sub	sp,2
2926:01BB			loc_15:						;  xref 2926:01CA
2926:01BB úA1 8272				mov	ax,ds:data_62e		; (2916:8272=0)
2926:01BE  50					push	ax
           ICON0.lst       ICON0.OVL		Sourcer	v8.01  20-Jul-2026 12:17 am   Page 9

2926:01BF  8B 46 04				mov	ax,[bp+4]
2926:01C2  5B					pop	bx
2926:01C3  3B D8				cmp	bx,ax
2926:01C5  7C 03				jl	loc_16			; Jump if <
2926:01C7  E9 0002				jmp	loc_17			; (01CC)
2926:01CA			loc_16:						;  xref 2926:01C5
2926:01CA  EB EF				jmp	short loc_15		; (01BB)
2926:01CC			loc_17:						;  xref 2926:01C7
2926:01CC  C7 06 8272 0000			mov	word ptr ds:data_62e,0	; (2916:8272=0)
2926:01D2  8B E5				mov	sp,bp
2926:01D4  5D					pop	bp
2926:01D5  C2 0002				retn	2
2926:01D8			loc_18:						;  xref 2926:00A2
2926:01D8  55					push	bp
2926:01D9  8B EC				mov	bp,sp
2926:01DB  55					push	bp
2926:01DC  81 EC 0002				sub	sp,2
2926:01E0  E8 1F4D				call	sub_60			; (2130)
2926:01E3  1E					push	ds
2926:01E4  B8 2B24				mov	ax,2B24h
2926:01E7  50					push	ax
2926:01E8  B8 0080				mov	ax,80h
2926:01EB  50					push	ax
2926:01EC  1E					push	ds
2926:01ED  B8 5E22				mov	ax,5E22h
2926:01F0  50					push	ax
2926:01F1  E8 4ED5				call	sub_221			; (50C9)
2926:01F4  1E					push	ds
2926:01F5  B8 82FD				mov	ax,82FDh
2926:01F8  50					push	ax
2926:01F9  E8 501C				call	sub_234			; (5218)
2926:01FC  E8 5E65				call	sub_248			; (6064)
2926:01FF  1E					push	ds
2926:0200  B8 82FD				mov	ax,82FDh
2926:0203  50					push	ax
2926:0204  E8 5011				call	sub_234			; (5218)
2926:0207  0E E8 0042				callf	sub_22			; (024D)
2926:020B  41 47 61 6D 65 20			db	'AGame save file is corrupt - ple'
2926:0211  73 61 76 65 20 66
2926:0217  69 6C 65 20 69 73
2926:021D  20 63 6F 72 72 75
2926:0223  70 74 20 2D 20 70
2926:0229  6C 65
2926:022B  61 73 65 20 64 6F			db	'ase do not try to edit game file'
2926:0231  20 6E 6F 74 20 74
2926:0237  72 79 20 74 6F 20
2926:023D  65 64 69 74 20 67
2926:0243  61 6D 65 20 66 69
2926:0249  6C 65
2926:024B  73 2E				db	's.'

				;ßßßß External Entry into Subroutine ßßßßßßßßßßßßßßßßßßßßßßßßßßßßßßßßßßßßßß
				;
				;         Called from:   2926:0207

2926:024D			sub_22:
2926:024D  B8 FFFF				mov	ax,0FFFFh
           ICON0.lst       ICON0.OVL		Sourcer	v8.01  20-Jul-2026 12:17 am   Page 10

2926:0250  50					push	ax
2926:0251  B8 FFFF				mov	ax,0FFFFh
2926:0254  50					push	ax
2926:0255  E8 6D65				call	sub_272			; (6FBD)
2926:0258  E8 5E09				call	sub_248			; (6064)
2926:025B  1E					push	ds
2926:025C  B8 82FD				mov	ax,82FDh
2926:025F  50					push	ax
2926:0260  E8 4FB5				call	sub_234			; (5218)
2926:0263  0E E8 0042				callf	sub_23			; (02A9)
2926:0267  41 54 68 65 20 66			db	'AThe file has been deleted for y'
2926:026D  69 6C 65 20 68 61
2926:0273  73 20 62 65 65 6E
2926:0279  20 64 65 6C 65 74
2926:027F  65 64 20 66 6F 72
2926:0285  20 79
2926:0287  6F 75 72 20 70 72			db	'our protection; please start ove'
2926:028D  6F 74 65 63 74 69
2926:0293  6F 6E 3B 20 70 6C
2926:0299  65 61 73 65 20 73
2926:029F  74 61 72 74 20 6F
2926:02A5  76 65
2926:02A7  72 2E				db	'r.'

				;ßßßß External Entry into Subroutine ßßßßßßßßßßßßßßßßßßßßßßßßßßßßßßßßßßßßßß
				;
				;         Called from:   2926:0263

2926:02A9			sub_23:
2926:02A9  B8 FFFF				mov	ax,0FFFFh
2926:02AC  50					push	ax
2926:02AD  B8 FFFF				mov	ax,0FFFFh
2926:02B0  50					push	ax
2926:02B1  E8 6D09				call	sub_272			; (6FBD)
2926:02B4  E8 5DAD				call	sub_248			; (6064)
2926:02B7  E8 71C2				call	sub_292			; (747C)
2926:02BA  8B E5				mov	sp,bp
2926:02BC  5D					pop	bp
2926:02BD  C3					retn
2926:02BE			loc_19:						;  xref 2926:00A5
2926:02BE  55					push	bp
2926:02BF  8B EC				mov	bp,sp
2926:02C1  55					push	bp
2926:02C2  81 EC 0076				sub	sp,76h
2926:02C6  16					push	ss
2926:02C7  8D 46 AD				lea	ax,[bp-53h]		; Load effective addr
2926:02CA  50					push	ax
2926:02CB  8B 46 06				mov	ax,[bp+6]
2926:02CE  50					push	ax
2926:02CF  8B 46 04				mov	ax,[bp+4]
2926:02D2  50					push	ax
2926:02D3  B8 0051				mov	ax,51h
2926:02D6  50					push	ax
2926:02D7  E8 4BD4				call	sub_215			; (4EAE)
2926:02DA  E8 1DD4				call	sub_59			; (20B1)
2926:02DD  E8 1E50				call	sub_60			; (2130)
2926:02E0  1E					push	ds
           ICON0.lst       ICON0.OVL		Sourcer	v8.01  20-Jul-2026 12:17 am   Page 11

2926:02E1  B8 82FD				mov	ax,82FDh
2926:02E4  50					push	ax
2926:02E5  E8 4F30				call	sub_234			; (5218)
2926:02E8  0E E8 0006				callf	sub_24			; (02F2)
2926:02EC  05 5245				add	ax,5245h
2926:02EF  52					push	dx
2926:02F0  4F					dec	di
2926:02F1 ú52					push	dx

				;ßßßß External Entry into Subroutine ßßßßßßßßßßßßßßßßßßßßßßßßßßßßßßßßßßßßßß
				;
				;         Called from:   2926:02E8

2926:02F2			sub_24:
2926:02F2  B8 FFFF				mov	ax,0FFFFh
2926:02F5  50					push	ax
2926:02F6  B8 FFFF				mov	ax,0FFFFh
2926:02F9  50					push	ax
2926:02FA  E8 6CC0				call	sub_272			; (6FBD)
2926:02FD  E8 5D64				call	sub_248			; (6064)
2926:0300  16					push	ss
2926:0301  8D 46 AD				lea	ax,[bp-53h]		; Load effective addr
2926:0304  50					push	ax
2926:0305  1E					push	ds
2926:0306  B8 82FD				mov	ax,82FDh
2926:0309  50					push	ax
2926:030A  E8 4F0B				call	sub_234			; (5218)
2926:030D  B8 FFFF				mov	ax,0FFFFh
2926:0310  50					push	ax
2926:0311  B8 FFFF				mov	ax,0FFFFh
2926:0314  50					push	ax
2926:0315  E8 6CA5				call	sub_272			; (6FBD)
2926:0318  E8 5D49				call	sub_248			; (6064)
2926:031B  E8 1C52				call	sub_58			; (1F70)
2926:031E  E8 FDB7				call	sub_20			; (00D8)
2926:0321  89 46 AA				mov	[bp-56h],ax
2926:0324  E8 7155				call	sub_292			; (747C)
2926:0327  8B E5				mov	sp,bp
2926:0329  5D					pop	bp
2926:032A  C2 0004				retn	4
2926:032D			loc_20:						;  xref 2926:00A8
2926:032D  55					push	bp
2926:032E  8B EC				mov	bp,sp
2926:0330  55					push	bp
2926:0331  81 EC 0061				sub	sp,61h
2926:0335  16					push	ss
2926:0336  8D 46 AD				lea	ax,[bp-53h]		; Load effective addr
2926:0339  50					push	ax
2926:033A  8B 46 06				mov	ax,[bp+6]
2926:033D  50					push	ax
2926:033E  8B 46 04				mov	ax,[bp+4]
2926:0341  50					push	ax
2926:0342  B8 0051				mov	ax,51h
2926:0345  50					push	ax
2926:0346  E8 4B65				call	sub_215			; (4EAE)
2926:0349  B8 0001				mov	ax,1
2926:034C  93					xchg	bx,ax
           ICON0.lst       ICON0.OVL		Sourcer	v8.01  20-Jul-2026 12:17 am   Page 12

2926:034D  A1 2DA6				mov	ax,ds:data_35e		; (2916:2DA6=4854h)
2926:0350  93					xchg	bx,ax
2926:0351  89 46 A1				mov	[bp-5Fh],ax
2926:0354  93					xchg	bx,ax
2926:0355  FF 4E A1				dec	word ptr [bp-5Fh]
2926:0358  2B C3				sub	ax,bx
2926:035A  40					inc	ax
2926:035B  89 46 9F				mov	[bp-61h],ax
2926:035E			loc_21:						;  xref 2926:0396
2926:035E úFF 46 A1				inc	word ptr [bp-5Fh]
2926:0361  FF 4E 9F				dec	word ptr [bp-61h]
2926:0364  7D 03				jge	loc_22			; Jump if > or =
2926:0366  E9 002F				jmp	loc_25			; (0398)
2926:0369			loc_22:						;  xref 2926:0364
2926:0369  16					push	ss
2926:036A  8D 46 AD				lea	ax,[bp-53h]		; Load effective addr
2926:036D  50					push	ax
2926:036E  1E					push	ds
2926:036F  B8 601C				mov	ax,601Ch
2926:0372  50					push	ax
2926:0373  8B 46 A1				mov	ax,[bp-5Fh]
2926:0376  48					dec	ax
2926:0377  BB 001D				mov	bx,1Dh
2926:037A  F7 E3				mul	bx			; dx:ax = reg * ax
2926:037C  5B					pop	bx
2926:037D  03 C3				add	ax,bx
2926:037F  05 0008				add	ax,8
2926:0382  50					push	ax
2926:0383  E8 69EE				call	sub_271			; (6D74)
2926:0386  D0 D8				rcr	al,1			; Rotate thru carry
2926:0388  72 03				jc	loc_23			; Jump if carry Set
2926:038A  E9 0009				jmp	loc_24			; (0396)
2926:038D			loc_23:						;  xref 2926:0388
2926:038D  8B 46 A1				mov	ax,[bp-5Fh]
2926:0390  89 46 F4				mov	[bp-0Ch],ax
2926:0393  E9 0007				jmp	loc_26			; (039D)
2926:0396			loc_24:						;  xref 2926:038A
2926:0396  EB C6				jmp	short loc_21		; (035E)
2926:0398			loc_25:						;  xref 2926:0366
2926:0398  C7 46 F4 FFFF			mov	word ptr [bp-0Ch],0FFFFh
2926:039D			loc_26:						;  xref 2926:0393
2926:039D  8B 46 F4				mov	ax,[bp-0Ch]
2926:03A0  8B E5				mov	sp,bp
2926:03A2  5D					pop	bp
2926:03A3  C2 0004				retn	4
2926:03A6			loc_27:						;  xref 2926:00AB
2926:03A6  55					push	bp
2926:03A7  8B EC				mov	bp,sp
2926:03A9  55					push	bp
2926:03AA  81 EC 000D				sub	sp,0Dh
2926:03AE  B8 0007				mov	ax,7
2926:03B1  50					push	ax
2926:03B2  1E					push	ds
2926:03B3  B8 2C18				mov	ax,2C18h
2926:03B6  50					push	ax
2926:03B7  E8 7320				call	sub_305			; (76DA)
2926:03BA  88 46 F3				mov	[bp-0Dh],al
           ICON0.lst       ICON0.OVL		Sourcer	v8.01  20-Jul-2026 12:17 am   Page 13

2926:03BD  8A 46 F3				mov	al,[bp-0Dh]
2926:03C0  32 E4				xor	ah,ah			; Zero register
2926:03C2  81 F8 001B				cmp	ax,1Bh
						nop	                        ;*ASM fixup - short reg form
2926:03C6  B8 0000				mov	ax,0
2926:03C9  75 01				jnz	loc_28			; Jump if not zero
2926:03CB  40					inc	ax
2926:03CC			loc_28:						;  xref 2926:03C9
2926:03CC  D0 D8				rcr	al,1			; Rotate thru carry
2926:03CE  72 03				jc	loc_29			; Jump if carry Set
2926:03D0  E9 0005				jmp	loc_30			; (03D8)
2926:03D3			loc_29:						;  xref 2926:03CE
2926:03D3  C6 06 5DF4 01			mov	byte ptr ds:[5DF4h],1	; (2926:5DF4=0FFh)
2926:03D8			loc_30:						;  xref 2926:03D0
2926:03D8  8A 46 F3				mov	al,[bp-0Dh]
2926:03DB  32 E4				xor	ah,ah			; Zero register
2926:03DD  81 F8 003B				cmp	ax,3Bh
						nop	                        ;*ASM fixup - short reg form
2926:03E1  B8 0000				mov	ax,0
2926:03E4  75 01				jnz	loc_31			; Jump if not zero
2926:03E6  40					inc	ax
2926:03E7			loc_31:						;  xref 2926:03E4
2926:03E7  D0 D8				rcr	al,1			; Rotate thru carry
2926:03E9  72 03				jc	loc_32			; Jump if carry Set
2926:03EB  E9 0004				jmp	loc_33			; (03F2)
2926:03EE			loc_32:						;  xref 2926:03E9
2926:03EE  C6 46 F3 00				mov	byte ptr [bp-0Dh],0
2926:03F2			loc_33:						;  xref 2926:03EB
2926:03F2  8A 46 F3				mov	al,[bp-0Dh]
2926:03F5  32 E4				xor	ah,ah			; Zero register
2926:03F7  81 F8 0000				cmp	ax,0
						nop	                        ;*ASM fixup - short reg form
2926:03FB  B8 0000				mov	ax,0
2926:03FE  75 01				jnz	loc_34			; Jump if not zero
2926:0400  40					inc	ax
2926:0401			loc_34:						;  xref 2926:03FE
2926:0401  D0 D8				rcr	al,1			; Rotate thru carry
2926:0403  72 03				jc	loc_35			; Jump if carry Set
2926:0405  E9 0051				jmp	loc_41			; (0459)
2926:0408			loc_35:						;  xref 2926:0403
2926:0408  8A 46 F3				mov	al,[bp-0Dh]
2926:040B  A2 5DAE				mov	byte ptr ds:[5DAEh],al	; (2926:5DAE=75h)
2926:040E  B8 0007				mov	ax,7
2926:0411  50					push	ax
2926:0412  1E					push	ds
2926:0413  B8 2C18				mov	ax,2C18h
2926:0416  50					push	ax
2926:0417  E8 72C0				call	sub_305			; (76DA)
2926:041A  88 46 F3				mov	[bp-0Dh],al
2926:041D  8A 46 F3				mov	al,[bp-0Dh]
2926:0420  32 E4				xor	ah,ah			; Zero register
2926:0422  81 F8 003C				cmp	ax,3Ch
						nop	                        ;*ASM fixup - short reg form
2926:0426  B8 0000				mov	ax,0
2926:0429  75 01				jnz	loc_36			; Jump if not zero
2926:042B  40					inc	ax
2926:042C			loc_36:						;  xref 2926:0429
           ICON0.lst       ICON0.OVL		Sourcer	v8.01  20-Jul-2026 12:17 am   Page 14

2926:042C  D0 D8				rcr	al,1			; Rotate thru carry
2926:042E  72 03				jc	loc_37			; Jump if carry Set
2926:0430  E9 000A				jmp	loc_38			; (043D)
2926:0433			loc_37:						;  xref 2926:042E
2926:0433  A0 5A7C				mov	al,byte ptr ds:[5A7Ch]	; (2926:5A7C=0C7h)
2926:0436  32 E4				xor	ah,ah			; Zero register
2926:0438  F7 D0				not	ax
2926:043A  A2 5A7C				mov	byte ptr ds:[5A7Ch],al	; (2926:5A7C=0C7h)
2926:043D			loc_38:						;  xref 2926:0430
2926:043D  8A 46 F3				mov	al,[bp-0Dh]
2926:0440  32 E4				xor	ah,ah			; Zero register
2926:0442  81 F8 003B				cmp	ax,3Bh
						nop	                        ;*ASM fixup - short reg form
2926:0446  B8 0000				mov	ax,0
2926:0449  74 01				jz	loc_39			; Jump if zero
2926:044B  40					inc	ax
2926:044C			loc_39:						;  xref 2926:0449
2926:044C  D0 D8				rcr	al,1			; Rotate thru carry
2926:044E  72 03				jc	loc_40			; Jump if carry Set
2926:0450  E9 0006				jmp	loc_41			; (0459)
2926:0453			loc_40:						;  xref 2926:044E
2926:0453  A0 5DAE				mov	al,byte ptr ds:[5DAEh]	; (2926:5DAE=75h)
2926:0456  88 46 F3				mov	[bp-0Dh],al
2926:0459			loc_41:						;  xref 2926:0405, 0450
2926:0459  8A 46 F3				mov	al,[bp-0Dh]
2926:045C  88 46 F4				mov	[bp-0Ch],al
2926:045F  8A 46 F4				mov	al,[bp-0Ch]
2926:0462  32 E4				xor	ah,ah			; Zero register
2926:0464  8B E5				mov	sp,bp
2926:0466  5D					pop	bp
2926:0467  C3					retn
				sub_1		endp

2926:0468			loc_42:						;  xref 2926:00AE
2926:0468  55					push	bp
2926:0469  8B EC				mov	bp,sp
2926:046B  55					push	bp
2926:046C  81 EC 0002				sub	sp,2
2926:0470  C4 7E 04				les	di,dword ptr [bp+4]	; Load seg:offset ptr
2926:0473  06					push	es
2926:0474  57					push	di
2926:0475  1E					push	ds
2926:0476  B8 2B24				mov	ax,2B24h
2926:0479 ú50					push	ax
2926:047A  B8 0080				mov	ax,80h
2926:047D  50					push	ax
2926:047E  E8 5E1D				call	sub_253			; (629E)
2926:0481  5F					pop	di
2926:0482  07					pop	es
2926:0483  26: 89 05				mov	es:[di],ax
2926:0486  C4 7E 04				les	di,dword ptr [bp+4]	; Load seg:offset ptr
2926:0489  06					push	es
2926:048A  57					push	di
2926:048B  C4 7E 04				les	di,dword ptr [bp+4]	; Load seg:offset ptr
2926:048E  26: 8B 05				mov	ax,es:[di]
2926:0491  50					push	ax
2926:0492  1E					push	ds
           ICON0.lst       ICON0.OVL		Sourcer	v8.01  20-Jul-2026 12:17 am   Page 15

2926:0493  B8 2B24				mov	ax,2B24h
2926:0496 ú50					push	ax
2926:0497  B8 0080				mov	ax,80h
2926:049A  50					push	ax
2926:049B  E8 5E00				call	sub_253			; (629E)
2926:049E  50					push	ax
2926:049F  B8 0008				mov	ax,8
2926:04A2  50					push	ax
2926:04A3  E8 6F30				call	sub_287			; (73D6)
2926:04A6  5B					pop	bx
2926:04A7  03 C3				add	ax,bx
2926:04A9  5F					pop	di
2926:04AA  07					pop	es
2926:04AB  26: 89 05				mov	es:[di],ax
2926:04AE  C4 7E 04				les	di,dword ptr [bp+4]	; Load seg:offset ptr
2926:04B1  26: 8B 05				mov	ax,es:[di]
2926:04B4  50					push	ax
2926:04B5  E8 FBDE				call	sub_1			; (0096)
2926:04B8  8B E5				mov	sp,bp
2926:04BA  5D					pop	bp
2926:04BB  C2 0004				retn	4
2926:04BE			loc_43:						;  xref 2926:00B1
2926:04BE  55					push	bp
2926:04BF  8B EC				mov	bp,sp
2926:04C1  55					push	bp
2926:04C2  81 EC 0003				sub	sp,3
2926:04C6  C4 7E 04				les	di,dword ptr [bp+4]	; Load seg:offset ptr
2926:04C9  06					push	es
2926:04CA  57					push	di
2926:04CB  0E E8 0001		;*		callf	sub_25			;*(04D0)
2926:04CB  0E E8 01 00				db	 0Eh,0E8h, 01h, 00h
2926:04CF  00 B8 0051				add	data_79[bx+si],bh	; (2926:0051=0)
2926:04D3  50					push	ax
2926:04D4  E8 49D7				call	sub_215			; (4EAE)
2926:04D7  81 7E 08 0000			cmp	word ptr [bp+8],0
2926:04DC  B8 0000				mov	ax,0
2926:04DF  7D 01				jge	loc_44			; Jump if > or =
2926:04E1  40					inc	ax
2926:04E2			loc_44:						;  xref 2926:04DF
2926:04E2  88 46 FD				mov	[bp-3],al
2926:04E5  8B 46 08				mov	ax,[bp+8]
2926:04E8  0B C0				or	ax,ax			; Zero ?
2926:04EA  79 02				jns	loc_45			; Jump if not sign
2926:04EC  F7 D8				neg	ax
2926:04EE			loc_45:						;  xref 2926:04EA
2926:04EE  89 46 08				mov	[bp+8],ax
2926:04F1			loc_46:						;  xref 2926:0539
2926:04F1 ú81 7E 08 0000			cmp	word ptr [bp+8],0
2926:04F6  75 03				jne	loc_47			; Jump if not equal
2926:04F8  E9 0040				jmp	loc_48			; (053B)
2926:04FB			loc_47:						;  xref 2926:04F6
2926:04FB  C4 7E 04				les	di,dword ptr [bp+4]	; Load seg:offset ptr
2926:04FE  06					push	es
2926:04FF  57					push	di
2926:0500  E8 6C34				call	sub_278			; (7137)
2926:0503  8B 46 08				mov	ax,[bp+8]
2926:0506  93					xchg	bx,ax
           ICON0.lst       ICON0.OVL		Sourcer	v8.01  20-Jul-2026 12:17 am   Page 16

2926:0507  B8 000A				mov	ax,0Ah
2926:050A  93					xchg	bx,ax
2926:050B  99					cwd				; Word to double word
2926:050C  F7 FB				idiv	bx			; ax,dx rem=dx:ax/reg
2926:050E  8B C2				mov	ax,dx
2926:0510  05 0030				add	ax,30h
2926:0513  50					push	ax
2926:0514  E8 6C23				call	sub_279			; (713A)
2926:0517  C4 7E 04				les	di,dword ptr [bp+4]	; Load seg:offset ptr
2926:051A  06					push	es
2926:051B  57					push	di
2926:051C  E8 6C1E				call	sub_280			; (713D)
2926:051F  E8 6C12				call	sub_277			; (7134)
2926:0522  53					push	bx
2926:0523  50					push	ax
2926:0524  B8 0051				mov	ax,51h
2926:0527  50					push	ax
2926:0528  E8 4983				call	sub_215			; (4EAE)
2926:052B  8B 46 08				mov	ax,[bp+8]
2926:052E  93					xchg	bx,ax
2926:052F  B8 000A				mov	ax,0Ah
2926:0532  93					xchg	bx,ax
2926:0533  99					cwd				; Word to double word
2926:0534  F7 FB				idiv	bx			; ax,dx rem=dx:ax/reg
2926:0536  89 46 08				mov	[bp+8],ax
2926:0539  EB B6				jmp	short loc_46		; (04F1)
2926:053B			loc_48:						;  xref 2926:04F8
2926:053B  C4 7E 04				les	di,dword ptr [bp+4]	; Load seg:offset ptr
2926:053E  06					push	es
2926:053F  57					push	di
2926:0540  0E E8 0001		;*		callf	sub_26			;*(0545)
2926:0540  0E E8 01 00				db	 0Eh,0E8h, 01h, 00h
2926:0544  00 E8				add	al,ch
2926:0546  2C 68				sub	al,68h			; 'h'
2926:0548  D0 D8				rcr	al,1			; Rotate thru carry
2926:054A  72 03				jc	loc_49			; Jump if carry Set
2926:054C  E9 0018				jmp	loc_50			; (0567)
2926:054F			loc_49:						;  xref 2926:054A
2926:054F  C4 7E 04				les	di,dword ptr [bp+4]	; Load seg:offset ptr
2926:0552  06					push	es
2926:0553  57					push	di
2926:0554  B8 0030				mov	ax,30h
2926:0557  50					push	ax
2926:0558  B8 FFFF				mov	ax,0FFFFh
2926:055B  50					push	ax
2926:055C  58					pop	ax
2926:055D  5B					pop	bx
2926:055E  50					push	ax
2926:055F  53					push	bx
2926:0560  B8 0051				mov	ax,51h
2926:0563  50					push	ax
2926:0564  E8 4947				call	sub_215			; (4EAE)
2926:0567			loc_50:						;  xref 2926:054C
2926:0567  F6 46 FD 01				test	byte ptr [bp-3],1
2926:056B  75 03				jnz	loc_51			; Jump if not zero
2926:056D  E9 0023				jmp	loc_52			; (0593)
2926:0570			loc_51:						;  xref 2926:056B
           ICON0.lst       ICON0.OVL		Sourcer	v8.01  20-Jul-2026 12:17 am   Page 17

2926:0570  C4 7E 04				les	di,dword ptr [bp+4]	; Load seg:offset ptr
2926:0573  06					push	es
2926:0574  57					push	di
2926:0575  E8 6BBF				call	sub_278			; (7137)
2926:0578  B8 002D				mov	ax,2Dh
2926:057B  50					push	ax
2926:057C  E8 6BBB				call	sub_279			; (713A)
2926:057F  C4 7E 04				les	di,dword ptr [bp+4]	; Load seg:offset ptr
2926:0582  06					push	es
2926:0583  57					push	di
2926:0584  E8 6BB6				call	sub_280			; (713D)
2926:0587  E8 6BAA				call	sub_277			; (7134)
2926:058A  53					push	bx
2926:058B  50					push	ax
2926:058C  B8 0051				mov	ax,51h
2926:058F  50					push	ax
2926:0590  E8 491B				call	sub_215			; (4EAE)
2926:0593			loc_52:						;  xref 2926:056D
2926:0593  8B E5				mov	sp,bp
2926:0595  5D					pop	bp
2926:0596  C2 0006				retn	6
2926:0599			loc_53:						;  xref 2926:00B4
2926:0599  55					push	bp
2926:059A  8B EC				mov	bp,sp
2926:059C  55					push	bp
2926:059D  81 EC 000C				sub	sp,0Ch
2926:05A1  B8 000B				mov	ax,0Bh
2926:05A4  50					push	ax
2926:05A5  0E					push	cs
2926:05A6  0E					push	cs
2926:05A7  B8 0035				mov	ax,35h
2926:05AA  97					xchg	di,ax
2926:05AB  07					pop	es
2926:05AC  26: 8B 05				mov	ax,es:[di]
2926:05AF  93					xchg	bx,ax
2926:05B0  B8 0037				mov	ax,37h
2926:05B3  03 C3				add	ax,bx
2926:05B5  50					push	ax
2926:05B6  E8 7121				call	sub_305			; (76DA)
2926:05B9  3D 0000				cmp	ax,0
2926:05BC  B8 0000				mov	ax,0
2926:05BF  74 01				jz	loc_54			; Jump if zero
2926:05C1  40					inc	ax
2926:05C2			loc_54:						;  xref 2926:05BF
2926:05C2  88 46 F4				mov	[bp-0Ch],al
2926:05C5  8A 46 F4				mov	al,[bp-0Ch]
2926:05C8  32 E4				xor	ah,ah			; Zero register
2926:05CA  8B E5				mov	sp,bp
2926:05CC  5D					pop	bp
2926:05CD  C3					retn
2926:05CE			loc_55:						;  xref 2926:00B7
2926:05CE  55					push	bp
2926:05CF  8B EC				mov	bp,sp
2926:05D1  55					push	bp
2926:05D2  81 EC 0004				sub	sp,4
2926:05D6  C7 46 FC 0001			mov	word ptr [bp-4],1
2926:05DB			loc_56:						;  xref 2926:06C2
           ICON0.lst       ICON0.OVL		Sourcer	v8.01  20-Jul-2026 12:17 am   Page 18

2926:05DB úC4 7E 04				les	di,dword ptr [bp+4]	; Load seg:offset ptr
2926:05DE  06					push	es
2926:05DF  57					push	di
2926:05E0  E8 201E				call	sub_65			; (2601)
2926:05E3  93					xchg	bx,ax
2926:05E4  B8 0061				mov	ax,61h
2926:05E7  93					xchg	bx,ax
2926:05E8  99					cwd				; Word to double word
2926:05E9  F7 FB				idiv	bx			; ax,dx rem=dx:ax/reg
2926:05EB  8B C2				mov	ax,dx
2926:05ED  40					inc	ax
2926:05EE  5F					pop	di
2926:05EF  07					pop	es
2926:05F0  26: 89 05				mov	es:[di],ax
2926:05F3  C4 7E 04				les	di,dword ptr [bp+4]	; Load seg:offset ptr
2926:05F6  83 C7 02				add	di,2
2926:05F9  06					push	es
2926:05FA  57					push	di
2926:05FB  E8 2003				call	sub_65			; (2601)
2926:05FE  93					xchg	bx,ax
2926:05FF  B8 0061				mov	ax,61h
2926:0602  93					xchg	bx,ax
2926:0603  99					cwd				; Word to double word
2926:0604  F7 FB				idiv	bx			; ax,dx rem=dx:ax/reg
2926:0606  8B C2				mov	ax,dx
2926:0608  40					inc	ax
2926:0609  5F					pop	di
2926:060A  07					pop	es
2926:060B  26: 89 05				mov	es:[di],ax
2926:060E  8B 46 FC				mov	ax,[bp-4]
2926:0611  40					inc	ax
2926:0612  89 46 FC				mov	[bp-4],ax
2926:0615  1E					push	ds
2926:0616  B8 31D4				mov	ax,31D4h
2926:0619  50					push	ax
2926:061A  C4 7E 04				les	di,dword ptr [bp+4]	; Load seg:offset ptr
2926:061D  26: 8B 05				mov	ax,es:[di]
2926:0620  BB 0064				mov	bx,64h
2926:0623  F7 E3				mul	bx			; dx:ax = reg * ax
2926:0625  5B					pop	bx
2926:0626  03 C3				add	ax,bx
2926:0628  50					push	ax
2926:0629  C4 7E 04				les	di,dword ptr [bp+4]	; Load seg:offset ptr
2926:062C  83 C7 02				add	di,2
2926:062F  26: 8B 05				mov	ax,es:[di]
2926:0632  5B					pop	bx
2926:0633  03 C3				add	ax,bx
2926:0635  97					xchg	di,ax
2926:0636  07					pop	es
2926:0637  26: 8A 05				mov	al,es:[di]
2926:063A  32 E4				xor	ah,ah			; Zero register
2926:063C  3D 0009				cmp	ax,9
2926:063F  B8 0000				mov	ax,0
2926:0642  7F 01				jg	loc_57			; Jump if >
2926:0644  40					inc	ax
2926:0645			loc_57:						;  xref 2926:0642
2926:0645  50					push	ax
           ICON0.lst       ICON0.OVL		Sourcer	v8.01  20-Jul-2026 12:17 am   Page 19

2926:0646  1E					push	ds
2926:0647  B8 31D4				mov	ax,31D4h
2926:064A  50					push	ax
2926:064B  C4 7E 04				les	di,dword ptr [bp+4]	; Load seg:offset ptr
2926:064E  26: 8B 05				mov	ax,es:[di]
2926:0651  BB 0064				mov	bx,64h
2926:0654  F7 E3				mul	bx			; dx:ax = reg * ax
2926:0656  5B					pop	bx
2926:0657  03 C3				add	ax,bx
2926:0659  50					push	ax
2926:065A  C4 7E 04				les	di,dword ptr [bp+4]	; Load seg:offset ptr
2926:065D  83 C7 02				add	di,2
2926:0660  26: 8B 05				mov	ax,es:[di]
2926:0663  48					dec	ax
2926:0664  5B					pop	bx
2926:0665  03 C3				add	ax,bx
2926:0667  97					xchg	di,ax
2926:0668  07					pop	es
2926:0669  26: 8A 05				mov	al,es:[di]
2926:066C  32 E4				xor	ah,ah			; Zero register
2926:066E  3D 0009				cmp	ax,9
2926:0671  B8 0000				mov	ax,0
2926:0674  7F 01				jg	loc_58			; Jump if >
2926:0676  40					inc	ax
2926:0677			loc_58:						;  xref 2926:0674
2926:0677  5B					pop	bx
2926:0678  23 C3				and	ax,bx
2926:067A  50					push	ax
2926:067B  1E					push	ds
2926:067C  B8 31D4				mov	ax,31D4h
2926:067F  50					push	ax
2926:0680  C4 7E 04				les	di,dword ptr [bp+4]	; Load seg:offset ptr
2926:0683  26: 8B 05				mov	ax,es:[di]
2926:0686  40					inc	ax
2926:0687  BB 0064				mov	bx,64h
2926:068A  F7 E3				mul	bx			; dx:ax = reg * ax
2926:068C  5B					pop	bx
2926:068D  03 C3				add	ax,bx
2926:068F  50					push	ax
2926:0690  C4 7E 04				les	di,dword ptr [bp+4]	; Load seg:offset ptr
2926:0693  83 C7 02				add	di,2
2926:0696  26: 8B 05				mov	ax,es:[di]
2926:0699  5B					pop	bx
2926:069A  03 C3				add	ax,bx
2926:069C  97					xchg	di,ax
2926:069D  07					pop	es
2926:069E  26: 8A 05				mov	al,es:[di]
2926:06A1  32 E4				xor	ah,ah			; Zero register
2926:06A3  3D 0009				cmp	ax,9
2926:06A6  B8 0000				mov	ax,0
2926:06A9  7F 01				jg	loc_59			; Jump if >
2926:06AB  40					inc	ax
2926:06AC			loc_59:						;  xref 2926:06A9
2926:06AC  5B					pop	bx
2926:06AD  23 C3				and	ax,bx
2926:06AF  50					push	ax
2926:06B0  81 7E FC 0064			cmp	word ptr [bp-4],64h
           ICON0.lst       ICON0.OVL		Sourcer	v8.01  20-Jul-2026 12:17 am   Page 20

2926:06B5  B8 0000				mov	ax,0
2926:06B8  7C 01				jl	loc_60			; Jump if <
2926:06BA  40					inc	ax
2926:06BB			loc_60:						;  xref 2926:06B8
2926:06BB  5B					pop	bx
2926:06BC  0B C3				or	ax,bx
2926:06BE  D0 D8				rcr	al,1			; Rotate thru carry
2926:06C0  72 03				jc	loc_61			; Jump if carry Set
2926:06C2  E9 FF16				jmp	loc_56			; (05DB)
2926:06C5			loc_61:						;  xref 2926:06C0
2926:06C5  81 7E FC 0064			cmp	word ptr [bp-4],64h
2926:06CA  7D 03				jge	loc_62			; Jump if > or =
2926:06CC  E9 000B				jmp	loc_63			; (06DA)
2926:06CF			loc_62:						;  xref 2926:06CA
2926:06CF  C4 7E 04				les	di,dword ptr [bp+4]	; Load seg:offset ptr
2926:06D2  83 C7 04				add	di,4
2926:06D5  26: C7 05 FFFF			mov	word ptr es:[di],0FFFFh
2926:06DA			loc_63:						;  xref 2926:06CC
2926:06DA  C4 7E 04				les	di,dword ptr [bp+4]	; Load seg:offset ptr
2926:06DD  83 C7 04				add	di,4
2926:06E0  26: 8B 05				mov	ax,es:[di]
2926:06E3  93					xchg	bx,ax
2926:06E4  A1 5A2C				mov	ax,word ptr ds:[5A2Ch]	; (2926:5A2C=0FFFFh)
2926:06E7  3B D8				cmp	bx,ax
2926:06E9  B8 0000				mov	ax,0
2926:06EC  75 01				jnz	loc_64			; Jump if not zero
2926:06EE  40					inc	ax
2926:06EF			loc_64:						;  xref 2926:06EC
2926:06EF  50					push	ax
2926:06F0  1E					push	ds
2926:06F1  B8 31D4				mov	ax,31D4h
2926:06F4  50					push	ax
2926:06F5  C4 7E 04				les	di,dword ptr [bp+4]	; Load seg:offset ptr
2926:06F8  26: 8B 05				mov	ax,es:[di]
2926:06FB  BB 0064				mov	bx,64h
2926:06FE  F7 E3				mul	bx			; dx:ax = reg * ax
2926:0700  5B					pop	bx
2926:0701  03 C3				add	ax,bx
2926:0703  50					push	ax
2926:0704  C4 7E 04				les	di,dword ptr [bp+4]	; Load seg:offset ptr
2926:0707  83 C7 02				add	di,2
2926:070A  26: 8B 05				mov	ax,es:[di]
2926:070D  5B					pop	bx
2926:070E  03 C3				add	ax,bx
2926:0710  97					xchg	di,ax
2926:0711  07					pop	es
2926:0712  26: 8A 05				mov	al,es:[di]
2926:0715  32 E4				xor	ah,ah			; Zero register
2926:0717  3D 0000				cmp	ax,0
2926:071A  B8 0000				mov	ax,0
2926:071D  74 01				jz	loc_65			; Jump if zero
2926:071F  40					inc	ax
2926:0720			loc_65:						;  xref 2926:071D
2926:0720  5B					pop	bx
2926:0721  23 C3				and	ax,bx
2926:0723  D0 D8				rcr	al,1			; Rotate thru carry
2926:0725  72 03				jc	loc_66			; Jump if carry Set
           ICON0.lst       ICON0.OVL		Sourcer	v8.01  20-Jul-2026 12:17 am   Page 21

2926:0727  E9 0016				jmp	loc_67			; (0740)
2926:072A			loc_66:						;  xref 2926:0725
2926:072A  C4 7E 04				les	di,dword ptr [bp+4]	; Load seg:offset ptr
2926:072D  83 C7 04				add	di,4
2926:0730  26: C7 05 FFFF			mov	word ptr es:[di],0FFFFh
2926:0735  C4 7E 04				les	di,dword ptr [bp+4]	; Load seg:offset ptr
2926:0738  26: C7 05 FFFF			mov	word ptr es:[di],0FFFFh
2926:073D  E9 0032				jmp	loc_68			; (0772)
2926:0740			loc_67:						;  xref 2926:0727
2926:0740  C4 7E 04				les	di,dword ptr [bp+4]	; Load seg:offset ptr
2926:0743  06					push	es
2926:0744  57					push	di
2926:0745  C4 7E 04				les	di,dword ptr [bp+4]	; Load seg:offset ptr
2926:0748  26: 8B 05				mov	ax,es:[di]
2926:074B  93					xchg	bx,ax
2926:074C  B8 0004				mov	ax,4
2926:074F  F7 EB				imul	bx			; dx:ax = reg * ax
2926:0751  5F					pop	di
2926:0752  07					pop	es
2926:0753  26: 89 05				mov	es:[di],ax
2926:0756  C4 7E 04				les	di,dword ptr [bp+4]	; Load seg:offset ptr
2926:0759  83 C7 02				add	di,2
2926:075C  06					push	es
2926:075D  57					push	di
2926:075E  C4 7E 04				les	di,dword ptr [bp+4]	; Load seg:offset ptr
2926:0761  83 C7 02				add	di,2
2926:0764  26: 8B 05				mov	ax,es:[di]
2926:0767  93					xchg	bx,ax
2926:0768  B8 0006				mov	ax,6
2926:076B  F7 EB				imul	bx			; dx:ax = reg * ax
2926:076D  5F					pop	di
2926:076E  07					pop	es
2926:076F  26: 89 05				mov	es:[di],ax
2926:0772			loc_68:						;  xref 2926:073D
2926:0772  8B E5				mov	sp,bp
2926:0774  5D					pop	bp
2926:0775  C2 0004				retn	4
2926:0778			loc_69:						;  xref 2926:00BA
2926:0778  55					push	bp
2926:0779  8B EC				mov	bp,sp
2926:077B  55					push	bp
2926:077C  81 EC 0055				sub	sp,55h
2926:0780  1E					push	ds
2926:0781  B8 29FC				mov	ax,29FCh
2926:0784  50					push	ax
2926:0785  E8 4A90				call	sub_234			; (5218)
2926:0788  C4 7E 04				les	di,dword ptr [bp+4]	; Load seg:offset ptr
2926:078B  83 C7 17				add	di,17h
2926:078E  06					push	es
2926:078F  57					push	di
2926:0790  E8 5E2A				call	sub_260			; (65BD)
2926:0793  E8 58EE				call	sub_249			; (6084)
2926:0796  1E					push	ds
2926:0797  B8 29FC				mov	ax,29FCh
2926:079A  50					push	ax
2926:079B  E8 4A7A				call	sub_234			; (5218)
2926:079E  16					push	ss
           ICON0.lst       ICON0.OVL		Sourcer	v8.01  20-Jul-2026 12:17 am   Page 22

2926:079F  8D 46 AD				lea	ax,[bp-53h]		; Load effective addr
2926:07A2 ú50					push	ax
2926:07A3  B8 0050				mov	ax,50h
2926:07A6  50					push	ax
2926:07A7  E8 6262				call	sub_265			; (6A0C)
2926:07AA  E8 58D7				call	sub_249			; (6084)
2926:07AD  C4 7E 04				les	di,dword ptr [bp+4]	; Load seg:offset ptr
2926:07B0  06					push	es
2926:07B1  57					push	di
2926:07B2  58					pop	ax
2926:07B3  05 0000				add	ax,0
2926:07B6  50					push	ax
2926:07B7  16					push	ss
2926:07B8  8D 46 AD				lea	ax,[bp-53h]		; Load effective addr
2926:07BB  50					push	ax
2926:07BC  E8 F8E9				call	sub_5			; (00A8)
2926:07BF  5F					pop	di
2926:07C0  07					pop	es
2926:07C1  26: 89 05				mov	es:[di],ax
2926:07C4  16					push	ss
2926:07C5  8D 46 AD				lea	ax,[bp-53h]		; Load effective addr
2926:07C8  50					push	ax
2926:07C9  0E E8 0007				callf	sub_27			; (07D4)
2926:07CD  06					push	es
2926:07CE  44					inc	sp
2926:07CF  72 61		;*		jc	loc_74			;*Jump if carry Set
2926:07CF  72 61				db	 72h, 61h
2926:07D1  67 6F 6E				db	 67h, 6Fh, 6Eh

				;ßßßßßßßßßßßßßßßßßßßßßßßßßßßßßßßßßßßßßßßßßßßßßßßßßßßßßßßßßßßßßßßßßßßßßßßßßß
				;                              SUBROUTINE
				;
				;         Called from:   2926:07C9
				;ÜÜÜÜÜÜÜÜÜÜÜÜÜÜÜÜÜÜÜÜÜÜÜÜÜÜÜÜÜÜÜÜÜÜÜÜÜÜÜÜÜÜÜÜÜÜÜÜÜÜÜÜÜÜÜÜÜÜÜÜÜÜÜÜÜÜÜÜÜÜÜÜÜÜ

2926:07D4			sub_27		proc	near
2926:07D4  E8 659D				call	sub_271			; (6D74)
2926:07D7  D0 D8				rcr	al,1			; Rotate thru carry
2926:07D9  72 03				jc	loc_70			; Jump if carry Set
2926:07DB  E9 001A				jmp	loc_71			; (07F8)
2926:07DE			loc_70:						;  xref 2926:07D9
2926:07DE  A1 5A9A				mov	ax,word ptr ds:[5A9Ah]	; (2926:5A9A=0FF3Dh)
2926:07E1  A3 2A44				mov	data_124,ax		; (2926:2A44=6170h)
2926:07E4  C4 7E 04				les	di,dword ptr [bp+4]	; Load seg:offset ptr
2926:07E7  06					push	es
2926:07E8  57					push	di
2926:07E9  58					pop	ax
2926:07EA  05 0000				add	ax,0
2926:07ED  97					xchg	di,ax
2926:07EE  07					pop	es
2926:07EF  26: 8B 05				mov	ax,es:[di]
2926:07F2  A3 2A48				mov	data_126,ax		; (2926:2A48=4220h)
2926:07F5  E9 00B2				jmp	loc_82			; (08AA)
2926:07F8			loc_71:						;  xref 2926:07DB
2926:07F8  16					push	ss
2926:07F9  8D 46 AD				lea	ax,[bp-53h]		; Load effective addr
2926:07FC  50					push	ax
           ICON0.lst       ICON0.OVL		Sourcer	v8.01  20-Jul-2026 12:17 am   Page 23

2926:07FD  0E E8 000D				callf	sub_28			; (080E)
2926:0801  0C 44				or	al,44h			; 'D'
2926:0803  77 61		;*		ja	loc_76			;*Jump if above
2926:0803  77 61				db	 77h, 61h
2926:0805  72 66				jc	loc_77			; Jump if carry Set
2926:0807  20 6C 65				and	[si+65h],ch
2926:080A  66 74 20 30				db	 66h, 74h, 20h, 30h

				;ßßßß External Entry into Subroutine ßßßßßßßßßßßßßßßßßßßßßßßßßßßßßßßßßßßßßß
				;
				;         Called from:   2926:07FD

2926:080E			sub_28:
2926:080E  E8 6563				call	sub_271			; (6D74)
2926:0811  D0 D8				rcr	al,1			; Rotate thru carry
2926:0813  72 03				jc	loc_72			; Jump if carry Set
2926:0815  E9 0009				jmp	loc_73			; (0821)
2926:0818			loc_72:						;  xref 2926:0813
2926:0818  A1 5A9A				mov	ax,word ptr ds:[5A9Ah]	; (2926:5A9A=0FF3Dh)
2926:081B  A3 2A4A				mov	data_127,ax		; (2926:2A4A=7261h)
2926:081E  E9 0089				jmp	loc_82			; (08AA)
2926:0821			loc_73:						;  xref 2926:0815
2926:0821  16					push	ss
2926:0822  8D 46 AD				lea	ax,[bp-53h]		; Load effective addr
2926:0825  50					push	ax
2926:0826  0E E8 0006				callf	sub_29			; (0830)
2926:082A  05 6847				add	ax,6847h
2926:082D  6F 73 74				db	 6Fh, 73h, 74h

				;ßßßß External Entry into Subroutine ßßßßßßßßßßßßßßßßßßßßßßßßßßßßßßßßßßßßßß
				;
				;         Called from:   2926:0826

2926:0830			sub_29:
2926:0830  E8 6541				call	sub_271			; (6D74)
2926:0833  D0 D8				rcr	al,1			; Rotate thru carry
2926:0835  72 03				jc	loc_75			; Jump if carry Set
2926:0837  E9 004A				jmp	loc_80			; (0884)
2926:083A			loc_75:						;  xref 2926:0835
2926:083A  A1 5A9A				mov	ax,word ptr ds:[5A9Ah]	; (2926:5A9A=0FF3Dh)
2926:083D  A3 2BE4				mov	word ptr ds:[2BE4h],ax	; (2926:2BE4=8A8h)
2926:0840  0E E8 0006				callf	sub_30			; (084A)
2926:0844  05 6847				add	ax,6847h
2926:0847  6F 73 74				db	 6Fh, 73h, 74h

				;ßßßß External Entry into Subroutine ßßßßßßßßßßßßßßßßßßßßßßßßßßßßßßßßßßßßßß
				;
				;         Called from:   2926:0840

2926:084A			sub_30:
2926:084A  E8 F85B				call	sub_5			; (00A8)
2926:084D  A3 2BE6				mov	word ptr ds:[2BE6h],ax	; (2926:2BE6=675h)
2926:0850  B8 000B				mov	ax,0Bh
2926:0853  03 06 8222				add	ax,ds:data_297e		; (2926:8222=0)
2926:0857  A3 2B20				mov	word ptr ds:[2B20h],ax	; (2926:2B20=57A0h)
2926:085A  A1 2B20				mov	ax,word ptr ds:[2B20h]	; (2926:2B20=57A0h)
2926:085D  50					push	ax
           ICON0.lst       ICON0.OVL		Sourcer	v8.01  20-Jul-2026 12:17 am   Page 24

2926:085E  C4 7E 04				les	di,dword ptr [bp+4]	; Load seg:offset ptr
2926:0861  83 C7 17				add	di,17h
2926:0864  26: 8A 05				mov	al,es:[di]
2926:0867  32 E4				xor	ah,ah			; Zero register
2926:0869  5B					pop	bx
2926:086A  03 C3				add	ax,bx
2926:086C  48					dec	ax
2926:086D			loc_77:						;  xref 2926:0805
2926:086D  A3 2DA4				mov	data_145,ax		; (2926:2DA4=6C6Fh)
2926:0870  A1 2DA4				mov	ax,data_145		; (2926:2DA4=6C6Fh)
2926:0873  3D 005A				cmp	ax,5Ah
2926:0876  7F 03				jg	loc_78			; Jump if >
2926:0878  E9 0006				jmp	loc_79			; (0881)
2926:087B			loc_78:						;  xref 2926:0876
2926:087B  C7 06 2DA4 005A			mov	data_145,5Ah		; (2926:2DA4=6C6Fh)
2926:0881			loc_79:						;  xref 2926:0878
2926:0881  E9 0026				jmp	loc_82			; (08AA)
2926:0884			loc_80:						;  xref 2926:0837
2926:0884  16					push	ss
2926:0885  8D 46 AD				lea	ax,[bp-53h]		; Load effective addr
2926:0888  50					push	ax
2926:0889  0E E8 000D				callf	sub_31			; (089A)
2926:088D  0C 42				or	al,42h			; 'B'
2926:088F  6C 61 63 6B 5F 4B			db	'lack_Knight'
2926:0895  6E 69 67 68 74

				;ßßßß External Entry into Subroutine ßßßßßßßßßßßßßßßßßßßßßßßßßßßßßßßßßßßßßß
				;
				;         Called from:   2926:0889

2926:089A			sub_31:
2926:089A  E8 64D7				call	sub_271			; (6D74)
2926:089D  D0 D8				rcr	al,1			; Rotate thru carry
2926:089F  72 03				jc	loc_81			; Jump if carry Set
2926:08A1  E9 0006				jmp	loc_82			; (08AA)
2926:08A4			loc_81:						;  xref 2926:089F
2926:08A4  A1 5A9A				mov	ax,word ptr ds:[5A9Ah]	; (2926:5A9A=0FF3Dh)
2926:08A7  A3 2072				mov	word ptr ds:[2072h],ax	; (2926:2072=0EEBh)
2926:08AA			loc_82:						;  xref 2926:07F5, 081E, 0881, 08A1
2926:08AA  A1 8222				mov	ax,ds:data_297e		; (2926:8222=0)
2926:08AD  50					push	ax
2926:08AE  C4 7E 04				les	di,dword ptr [bp+4]	; Load seg:offset ptr
2926:08B1  83 C7 17				add	di,17h
2926:08B4  26: 8A 05				mov	al,es:[di]
2926:08B7  32 E4				xor	ah,ah			; Zero register
2926:08B9  5B					pop	bx
2926:08BA  03 C3				add	ax,bx
2926:08BC  A3 8222				mov	ds:data_297e,ax		; (2926:8222=0)
2926:08BF  1E					push	ds
2926:08C0  B8 29FC				mov	ax,29FCh
2926:08C3  50					push	ax
2926:08C4  E8 4951				call	sub_234			; (5218)
2926:08C7  16					push	ss
2926:08C8  8D 46 AD				lea	ax,[bp-53h]		; Load effective addr
2926:08CB ú50					push	ax
2926:08CC  B8 0050				mov	ax,50h
2926:08CF  50					push	ax
           ICON0.lst       ICON0.OVL		Sourcer	v8.01  20-Jul-2026 12:17 am   Page 25

2926:08D0  E8 6139				call	sub_265			; (6A0C)
2926:08D3  E8 57AE				call	sub_249			; (6084)
2926:08D6  C4 7E 04				les	di,dword ptr [bp+4]	; Load seg:offset ptr
2926:08D9  06					push	es
2926:08DA  57					push	di
2926:08DB  58					pop	ax
2926:08DC  05 0002				add	ax,2
2926:08DF  50					push	ax
2926:08E0  16					push	ss
2926:08E1  8D 46 AD				lea	ax,[bp-53h]		; Load effective addr
2926:08E4  50					push	ax
2926:08E5  E8 F7C0				call	sub_5			; (00A8)
2926:08E8  5F					pop	di
2926:08E9  07					pop	es
2926:08EA  26: 89 05				mov	es:[di],ax
2926:08ED  C4 7E 04				les	di,dword ptr [bp+4]	; Load seg:offset ptr
2926:08F0  06					push	es
2926:08F1  57					push	di
2926:08F2  58					pop	ax
2926:08F3  05 0000				add	ax,0
2926:08F6  97					xchg	di,ax
2926:08F7  07					pop	es
2926:08F8  26: 8B 05				mov	ax,es:[di]
2926:08FB  93					xchg	bx,ax
2926:08FC  A1 2BE6				mov	ax,word ptr ds:[2BE6h]	; (2926:2BE6=675h)
2926:08FF  3B D8				cmp	bx,ax
2926:0901  74 03				je	loc_83			; Jump if equal
2926:0903  E9 0011				jmp	loc_84			; (0917)
2926:0906			loc_83:						;  xref 2926:0901
2926:0906  C4 7E 04				les	di,dword ptr [bp+4]	; Load seg:offset ptr
2926:0909  06					push	es
2926:090A  57					push	di
2926:090B  58					pop	ax
2926:090C  05 0002				add	ax,2
2926:090F  97					xchg	di,ax
2926:0910  A1 2BE6				mov	ax,word ptr ds:[2BE6h]	; (2926:2BE6=675h)
2926:0913  07					pop	es
2926:0914  26: 89 05				mov	es:[di],ax
2926:0917			loc_84:						;  xref 2926:0903
2926:0917  1E					push	ds
2926:0918  B8 29FC				mov	ax,29FCh
2926:091B  50					push	ax
2926:091C  E8 48F9				call	sub_234			; (5218)
2926:091F  C4 7E 04				les	di,dword ptr [bp+4]	; Load seg:offset ptr
2926:0922  83 C7 04				add	di,4
2926:0925  06					push	es
2926:0926  57					push	di
2926:0927  E8 5C93				call	sub_260			; (65BD)
2926:092A  E8 5757				call	sub_249			; (6084)
2926:092D  1E					push	ds
2926:092E  B8 29FC				mov	ax,29FCh
2926:0931  50					push	ax
2926:0932  E8 48E3				call	sub_234			; (5218)
2926:0935  C4 7E 04				les	di,dword ptr [bp+4]	; Load seg:offset ptr
2926:0938  83 C7 05				add	di,5
2926:093B  06					push	es
2926:093C  57					push	di
           ICON0.lst       ICON0.OVL		Sourcer	v8.01  20-Jul-2026 12:17 am   Page 26

2926:093D  E8 5C7D				call	sub_260			; (65BD)
2926:0940  E8 5741				call	sub_249			; (6084)
2926:0943  1E					push	ds
2926:0944  B8 29FC				mov	ax,29FCh
2926:0947  50					push	ax
2926:0948  E8 48CD				call	sub_234			; (5218)
2926:094B  C4 7E 04				les	di,dword ptr [bp+4]	; Load seg:offset ptr
2926:094E  83 C7 14				add	di,14h
2926:0951  06					push	es
2926:0952  57					push	di
2926:0953  E8 5C67				call	sub_260			; (65BD)
2926:0956  E8 572B				call	sub_249			; (6084)
2926:0959  1E					push	ds
2926:095A  B8 29FC				mov	ax,29FCh
2926:095D  50					push	ax
2926:095E  E8 48B7				call	sub_234			; (5218)
2926:0961  C4 7E 04				les	di,dword ptr [bp+4]	; Load seg:offset ptr
2926:0964  83 C7 06				add	di,6
2926:0967  06					push	es
2926:0968  57					push	di
2926:0969  E8 5C54				call	sub_261			; (65C0)
2926:096C  E8 5715				call	sub_249			; (6084)
2926:096F  1E					push	ds
2926:0970  B8 29FC				mov	ax,29FCh
2926:0973  50					push	ax
2926:0974  E8 48A1				call	sub_234			; (5218)
2926:0977  C4 7E 04				les	di,dword ptr [bp+4]	; Load seg:offset ptr
2926:097A  83 C7 08				add	di,8
2926:097D  06					push	es
2926:097E  57					push	di
2926:097F  E8 5C3E				call	sub_261			; (65C0)
2926:0982  E8 56FF				call	sub_249			; (6084)
2926:0985  1E					push	ds
2926:0986  B8 29FC				mov	ax,29FCh
2926:0989  50					push	ax
2926:098A  E8 488B				call	sub_234			; (5218)
2926:098D  C4 7E 04				les	di,dword ptr [bp+4]	; Load seg:offset ptr
2926:0990  83 C7 0A				add	di,0Ah
2926:0993  06					push	es
2926:0994  57					push	di
2926:0995  E8 5C28				call	sub_261			; (65C0)
2926:0998  E8 56E9				call	sub_249			; (6084)
2926:099B  1E					push	ds
2926:099C  B8 29FC				mov	ax,29FCh
2926:099F  50					push	ax
2926:09A0  E8 4875				call	sub_234			; (5218)
2926:09A3  C4 7E 04				les	di,dword ptr [bp+4]	; Load seg:offset ptr
2926:09A6  83 C7 0E				add	di,0Eh
2926:09A9  06					push	es
2926:09AA  57					push	di
2926:09AB  E8 5C12				call	sub_261			; (65C0)
2926:09AE  E8 56D3				call	sub_249			; (6084)
2926:09B1  1E					push	ds
2926:09B2  B8 29FC				mov	ax,29FCh
2926:09B5  50					push	ax
2926:09B6  E8 485F				call	sub_234			; (5218)
2926:09B9  C4 7E 04				les	di,dword ptr [bp+4]	; Load seg:offset ptr
           ICON0.lst       ICON0.OVL		Sourcer	v8.01  20-Jul-2026 12:17 am   Page 27

2926:09BC  83 C7 10				add	di,10h
2926:09BF  06					push	es
2926:09C0  57					push	di
2926:09C1  E8 5BFC				call	sub_261			; (65C0)
2926:09C4  E8 56BD				call	sub_249			; (6084)
2926:09C7  1E					push	ds
2926:09C8  B8 29FC				mov	ax,29FCh
2926:09CB  50					push	ax
2926:09CC  E8 4849				call	sub_234			; (5218)
2926:09CF  16					push	ss
2926:09D0  8D 46 AB				lea	ax,[bp-55h]		; Load effective addr
2926:09D3  50					push	ax
2926:09D4  E8 5BE9				call	sub_261			; (65C0)
2926:09D7  E8 56AA				call	sub_249			; (6084)
2926:09DA  81 7E AB 0000			cmp	word ptr [bp-55h],0
2926:09DF  74 03				je	loc_85			; Jump if equal
2926:09E1  E9 000D				jmp	loc_86			; (09F1)
2926:09E4			loc_85:						;  xref 2926:09DF
2926:09E4  C4 7E 04				les	di,dword ptr [bp+4]	; Load seg:offset ptr
2926:09E7  83 C7 12				add	di,12h
2926:09EA  26: C6 05 00				mov	byte ptr es:[di],0
2926:09EE  E9 000A				jmp	loc_87			; (09FB)
2926:09F1			loc_86:						;  xref 2926:09E1
2926:09F1  C4 7E 04				les	di,dword ptr [bp+4]	; Load seg:offset ptr
2926:09F4  83 C7 12				add	di,12h
2926:09F7  26: C6 05 01				mov	byte ptr es:[di],1
2926:09FB			loc_87:						;  xref 2926:09EE
2926:09FB  1E					push	ds
2926:09FC  B8 29FC				mov	ax,29FCh
2926:09FF  50					push	ax
2926:0A00  E8 4815				call	sub_234			; (5218)
2926:0A03  16					push	ss
2926:0A04  8D 46 AB				lea	ax,[bp-55h]		; Load effective addr
2926:0A07  50					push	ax
2926:0A08  E8 5BB5				call	sub_261			; (65C0)
2926:0A0B  E8 5676				call	sub_249			; (6084)
2926:0A0E  A1 5A9A				mov	ax,word ptr ds:[5A9Ah]	; (2926:5A9A=0FF3Dh)
2926:0A11  93					xchg	bx,ax
2926:0A12  A1 2BE4				mov	ax,word ptr ds:[2BE4h]	; (2926:2BE4=8A8h)
2926:0A15  3B D8				cmp	bx,ax
2926:0A17  74 03				je	loc_88			; Jump if equal
2926:0A19  E9 001E				jmp	loc_91			; (0A3A)
2926:0A1C			loc_88:						;  xref 2926:0A17
2926:0A1C  81 7E AB 000C			cmp	word ptr [bp-55h],0Ch
2926:0A21  7F 03				jg	loc_89			; Jump if >
2926:0A23  E9 0005				jmp	loc_90			; (0A2B)
2926:0A26			loc_89:						;  xref 2926:0A21
2926:0A26  C7 46 AB 000C			mov	word ptr [bp-55h],0Ch
2926:0A2B			loc_90:						;  xref 2926:0A23
2926:0A2B  8B 46 AB				mov	ax,[bp-55h]
2926:0A2E  93					xchg	bx,ax
2926:0A2F  B8 0008				mov	ax,8
2926:0A32  F7 EB				imul	bx			; dx:ax = reg * ax
2926:0A34  89 46 AB				mov	[bp-55h],ax
2926:0A37  E9 0043				jmp	loc_96			; (0A7D)
2926:0A3A			loc_91:						;  xref 2926:0A19
2926:0A3A  A0 2070				mov	al,byte ptr ds:[2070h]	; (2926:2070=20h)
           ICON0.lst       ICON0.OVL		Sourcer	v8.01  20-Jul-2026 12:17 am   Page 28

2926:0A3D  32 E4				xor	ah,ah			; Zero register
2926:0A3F  93					xchg	bx,ax
2926:0A40  B8 0000				mov	ax,0
2926:0A43  25 0001				and	ax,1
2926:0A46  81 E3 0001				and	bx,1
2926:0A4A  53					push	bx
2926:0A4B  5B					pop	bx
2926:0A4C  3B D8				cmp	bx,ax
2926:0A4E  74 03				je	loc_92			; Jump if equal
2926:0A50  E9 001E				jmp	loc_95			; (0A71)
2926:0A53			loc_92:						;  xref 2926:0A4E
2926:0A53  81 7E AB 0019			cmp	word ptr [bp-55h],19h
2926:0A58  7F 03				jg	loc_93			; Jump if >
2926:0A5A  E9 0005				jmp	loc_94			; (0A62)
2926:0A5D			loc_93:						;  xref 2926:0A58
2926:0A5D  C7 46 AB 0019			mov	word ptr [bp-55h],19h
2926:0A62			loc_94:						;  xref 2926:0A5A
2926:0A62  8B 46 AB				mov	ax,[bp-55h]
2926:0A65  93					xchg	bx,ax
2926:0A66  B8 0004				mov	ax,4
2926:0A69  F7 EB				imul	bx			; dx:ax = reg * ax
2926:0A6B  89 46 AB				mov	[bp-55h],ax
2926:0A6E  E9 000C				jmp	loc_96			; (0A7D)
2926:0A71			loc_95:						;  xref 2926:0A50
2926:0A71  8B 46 AB				mov	ax,[bp-55h]
2926:0A74  93					xchg	bx,ax
2926:0A75  B8 0002				mov	ax,2
2926:0A78  F7 EB				imul	bx			; dx:ax = reg * ax
2926:0A7A  89 46 AB				mov	[bp-55h],ax
2926:0A7D			loc_96:						;  xref 2926:0A37, 0A6E
2926:0A7D  C4 7E 04				les	di,dword ptr [bp+4]	; Load seg:offset ptr
2926:0A80  83 C7 0C				add	di,0Ch
2926:0A83  90					nop
2926:0A84  90					nop
2926:0A85  8B 46 AB				mov	ax,[bp-55h]
2926:0A88  26: 89 05				mov	es:[di],ax
2926:0A8B  1E					push	ds
2926:0A8C  B8 29FC				mov	ax,29FCh
2926:0A8F  50					push	ax
2926:0A90  E8 4785				call	sub_234			; (5218)
2926:0A93  C4 7E 04				les	di,dword ptr [bp+4]	; Load seg:offset ptr
2926:0A96  83 C7 15				add	di,15h
2926:0A99  06					push	es
2926:0A9A  57					push	di
2926:0A9B  E8 5B22				call	sub_261			; (65C0)
2926:0A9E  E8 55E3				call	sub_249			; (6084)
2926:0AA1  C4 7E 04				les	di,dword ptr [bp+4]	; Load seg:offset ptr
2926:0AA4  83 C7 13				add	di,13h
2926:0AA7  26: C6 05 00				mov	byte ptr es:[di],0
2926:0AAB  8B E5				mov	sp,bp
2926:0AAD  5D					pop	bp
2926:0AAE  C2 0004				retn	4
				sub_27		endp

2926:0AB1			loc_97:						;  xref 2926:00BD
2926:0AB1  55					push	bp
2926:0AB2  8B EC				mov	bp,sp
           ICON0.lst       ICON0.OVL		Sourcer	v8.01  20-Jul-2026 12:17 am   Page 29

2926:0AB4  55					push	bp
2926:0AB5  81 EC 002C				sub	sp,2Ch
2926:0AB9  16					push	ss
2926:0ABA  8D 46 D8				lea	ax,[bp-28h]		; Load effective addr
2926:0ABD  50					push	ax
2926:0ABE  E8 6676				call	sub_278			; (7137)
2926:0AC1  B8 0062				mov	ax,62h
2926:0AC4  50					push	ax
2926:0AC5  E8 6672				call	sub_279			; (713A)
2926:0AC8  8A 46 04				mov	al,[bp+4]
2926:0ACB  32 E4				xor	ah,ah			; Zero register
2926:0ACD  50					push	ax
2926:0ACE  E8 6669				call	sub_279			; (713A)
2926:0AD1  0E E8 0005				callf	sub_32			; (0ADA)
2926:0AD5  04 2E				add	al,2Eh			; '.'
2926:0AD7  64 61 74				db	 64h, 61h, 74h

				;ßßßßßßßßßßßßßßßßßßßßßßßßßßßßßßßßßßßßßßßßßßßßßßßßßßßßßßßßßßßßßßßßßßßßßßßßßß
				;                              SUBROUTINE
				;
				;         Called from:   2926:0AD1
				;ÜÜÜÜÜÜÜÜÜÜÜÜÜÜÜÜÜÜÜÜÜÜÜÜÜÜÜÜÜÜÜÜÜÜÜÜÜÜÜÜÜÜÜÜÜÜÜÜÜÜÜÜÜÜÜÜÜÜÜÜÜÜÜÜÜÜÜÜÜÜÜÜÜÜ

2926:0ADA			sub_32		proc	near
2926:0ADA  E8 6660				call	sub_280			; (713D)
2926:0ADD  E8 6654				call	sub_277			; (7134)
2926:0AE0  53					push	bx
2926:0AE1  50					push	ax
2926:0AE2  B8 001E				mov	ax,1Eh
2926:0AE5  50					push	ax
2926:0AE6  E8 43C5				call	sub_215			; (4EAE)
2926:0AE9  1E					push	ds
2926:0AEA  B8 2A5A				mov	ax,2A5Ah
2926:0AED  50					push	ax
2926:0AEE  B8 0080				mov	ax,80h
2926:0AF1  50					push	ax
2926:0AF2  16					push	ss
2926:0AF3  8D 46 D8				lea	ax,[bp-28h]		; Load effective addr
2926:0AF6  50					push	ax
2926:0AF7  E8 69C6				call	sub_295			; (74C0)
2926:0AFA  1E					push	ds
2926:0AFB  B8 2A5A				mov	ax,2A5Ah
2926:0AFE ú50					push	ax
2926:0AFF  B8 0080				mov	ax,80h
2926:0B02  50					push	ax
2926:0B03  E8 43E1				call	sub_216			; (4EE7)
2926:0B06  16					push	ss
2926:0B07  8D 46 D8				lea	ax,[bp-28h]		; Load effective addr
2926:0B0A  50					push	ax
2926:0B0B  E8 F5B2				call	sub_12			; (00C0)
2926:0B0E  1E					push	ds
2926:0B0F  B8 2A5A				mov	ax,2A5Ah
2926:0B12 ú50					push	ax
2926:0B13  B8 0080				mov	ax,80h
2926:0B16  50					push	ax
2926:0B17  E8 5784				call	sub_253			; (629E)
2926:0B1A  89 46 FC				mov	[bp-4],ax
           ICON0.lst       ICON0.OVL		Sourcer	v8.01  20-Jul-2026 12:17 am   Page 30

2926:0B1D  B8 0000				mov	ax,0
2926:0B20  50					push	ax
2926:0B21  8B 46 FC				mov	ax,[bp-4]
2926:0B24  5B					pop	bx
2926:0B25  93					xchg	bx,ax
2926:0B26  89 46 F8				mov	[bp-8],ax
2926:0B29  93					xchg	bx,ax
2926:0B2A  FF 4E F8				dec	word ptr [bp-8]
2926:0B2D  2B C3				sub	ax,bx
2926:0B2F  40					inc	ax
2926:0B30  89 46 D6				mov	[bp-2Ah],ax
2926:0B33			loc_98:						;  xref 2926:0B99
2926:0B33 úFF 46 F8				inc	word ptr [bp-8]
2926:0B36  FF 4E D6				dec	word ptr [bp-2Ah]
2926:0B39  7D 03				jge	loc_99			; Jump if > or =
2926:0B3B  E9 005D				jmp	loc_103			; (0B9B)
2926:0B3E			loc_99:						;  xref 2926:0B39
2926:0B3E  C7 46 FA FFFF			mov	word ptr [bp-6],0FFFFh
2926:0B43  C7 46 D4 000C			mov	word ptr [bp-2Ch],0Ch
2926:0B48			loc_100:					;  xref 2926:0B97
2926:0B48 úFF 46 FA				inc	word ptr [bp-6]
2926:0B4B  FF 4E D4				dec	word ptr [bp-2Ch]
2926:0B4E  7D 03				jge	loc_101			; Jump if > or =
2926:0B50  E9 0046				jmp	loc_102			; (0B99)
2926:0B53			loc_101:					;  xref 2926:0B4E
2926:0B53  1E					push	ds
2926:0B54  B8 207A				mov	ax,207Ah
2926:0B57  50					push	ax
2926:0B58  FF 76 F8				push	word ptr [bp-8]
2926:0B5B  58					pop	ax
2926:0B5C  BB 0018				mov	bx,18h
2926:0B5F  F7 E3				mul	bx			; dx:ax = reg * ax
2926:0B61  5B					pop	bx
2926:0B62  03 C3				add	ax,bx
2926:0B64  50					push	ax
2926:0B65  8B 46 FA				mov	ax,[bp-6]
2926:0B68  D1 E0				shl	ax,1			; Shift w/zeros fill
2926:0B6A  5B					pop	bx
2926:0B6B  03 C3				add	ax,bx
2926:0B6D  50					push	ax
2926:0B6E  1E					push	ds
2926:0B6F  B8 2A5A				mov	ax,2A5Ah
2926:0B72 ú50					push	ax
2926:0B73  B8 0080				mov	ax,80h
2926:0B76  50					push	ax
2926:0B77  E8 5724				call	sub_253			; (629E)
2926:0B7A  50					push	ax
2926:0B7B  1E					push	ds
2926:0B7C  B8 2A5A				mov	ax,2A5Ah
2926:0B7F ú50					push	ax
2926:0B80  B8 0080				mov	ax,80h
2926:0B83  50					push	ax
2926:0B84  E8 5717				call	sub_253			; (629E)
2926:0B87  50					push	ax
2926:0B88  B8 0008				mov	ax,8
2926:0B8B  50					push	ax
2926:0B8C  E8 6847				call	sub_287			; (73D6)
           ICON0.lst       ICON0.OVL		Sourcer	v8.01  20-Jul-2026 12:17 am   Page 31

2926:0B8F  5B					pop	bx
2926:0B90  0B C3				or	ax,bx
2926:0B92  5F					pop	di
2926:0B93  07					pop	es
2926:0B94  26: 89 05				mov	es:[di],ax
2926:0B97  EB AF				jmp	short loc_100		; (0B48)
2926:0B99			loc_102:					;  xref 2926:0B50
2926:0B99  EB 98				jmp	short loc_98		; (0B33)
2926:0B9B			loc_103:					;  xref 2926:0B3B
2926:0B9B  1E					push	ds
2926:0B9C  B8 2A5A				mov	ax,2A5Ah
2926:0B9F ú50					push	ax
2926:0BA0  B8 0080				mov	ax,80h
2926:0BA3  50					push	ax
2926:0BA4  1E					push	ds
2926:0BA5  B8 5E22				mov	ax,5E22h
2926:0BA8  50					push	ax
2926:0BA9  E8 451A				call	sub_220			; (50C6)
2926:0BAC  8B E5				mov	sp,bp
2926:0BAE  5D					pop	bp
2926:0BAF  C2 0002				retn	2
				sub_32		endp

2926:0BB2			loc_104:					;  xref 2926:00C0
2926:0BB2  55					push	bp
2926:0BB3  8B EC				mov	bp,sp
2926:0BB5  55					push	bp
2926:0BB6  81 EC 0073				sub	sp,73h
2926:0BBA  16					push	ss
2926:0BBB  8D 46 AD				lea	ax,[bp-53h]		; Load effective addr
2926:0BBE  50					push	ax
2926:0BBF  8B 46 06				mov	ax,[bp+6]
2926:0BC2  50					push	ax
2926:0BC3  8B 46 04				mov	ax,[bp+4]
2926:0BC6  50					push	ax
2926:0BC7  B8 0051				mov	ax,51h
2926:0BCA  50					push	ax
2926:0BCB  E8 42E0				call	sub_215			; (4EAE)
2926:0BCE  E8 57AC				call	sub_255			; (637D)
2926:0BD1  3D 0000				cmp	ax,0
2926:0BD4  75 03				jne	loc_105			; Jump if not equal
2926:0BD6  E9 002D				jmp	loc_106			; (0C06)
2926:0BD9			loc_105:					;  xref 2926:0BD4
2926:0BD9  E8 655B				call	sub_278			; (7137)
2926:0BDC  0E E8 0013				callf	sub_33			; (0BF3)
2926:0BE0  12 43 61				adc	al,[bp+di+61h]
2926:0BE3  6E 27 74 20 6F 70			db	'n', 27h, 't open file - '
2926:0BE9  65 6E 20 66 69 6C
2926:0BEF  65 20 2D 20

				;ßßßßßßßßßßßßßßßßßßßßßßßßßßßßßßßßßßßßßßßßßßßßßßßßßßßßßßßßßßßßßßßßßßßßßßßßßß
				;                              SUBROUTINE
				;
				;         Called from:   2926:0BDC
				;ÜÜÜÜÜÜÜÜÜÜÜÜÜÜÜÜÜÜÜÜÜÜÜÜÜÜÜÜÜÜÜÜÜÜÜÜÜÜÜÜÜÜÜÜÜÜÜÜÜÜÜÜÜÜÜÜÜÜÜÜÜÜÜÜÜÜÜÜÜÜÜÜÜÜ

2926:0BF3			sub_33		proc	near
           ICON0.lst       ICON0.OVL		Sourcer	v8.01  20-Jul-2026 12:17 am   Page 32

2926:0BF3  E8 6547				call	sub_280			; (713D)
2926:0BF6  16					push	ss
2926:0BF7  8D 46 AD				lea	ax,[bp-53h]		; Load effective addr
2926:0BFA  50					push	ax
2926:0BFB  E8 653F				call	sub_280			; (713D)
2926:0BFE  E8 6533				call	sub_277			; (7134)
2926:0C01  53					push	bx
2926:0C02  50					push	ax
2926:0C03  E8 F49F				call	sub_4			; (00A5)
2926:0C06			loc_106:					;  xref 2926:0BD6
2926:0C06  8B E5				mov	sp,bp
2926:0C08  5D					pop	bp
2926:0C09  C2 0004				retn	4
				sub_33		endp

2926:0C0C			loc_107:					;  xref 2926:00C3
2926:0C0C  55					push	bp
2926:0C0D  8B EC				mov	bp,sp
2926:0C0F  55					push	bp
2926:0C10  81 EC 002F				sub	sp,2Fh
2926:0C14  16					push	ss
2926:0C15  8D 46 D3				lea	ax,[bp-2Dh]		; Load effective addr
2926:0C18  50					push	ax
2926:0C19  E8 651B				call	sub_278			; (7137)
2926:0C1C  B8 004C				mov	ax,4Ch
2926:0C1F  50					push	ax
2926:0C20  E8 6517				call	sub_279			; (713A)
2926:0C23  8A 46 04				mov	al,[bp+4]
2926:0C26  32 E4				xor	ah,ah			; Zero register
2926:0C28  50					push	ax
2926:0C29  E8 650E				call	sub_279			; (713A)
2926:0C2C  1E					push	ds
2926:0C2D  B8 2A54				mov	ax,2A54h
2926:0C30  50					push	ax
2926:0C31  E8 6509				call	sub_280			; (713D)
2926:0C34  E8 64FD				call	sub_277			; (7134)
2926:0C37  53					push	bx
2926:0C38  50					push	ax
2926:0C39  B8 001E				mov	ax,1Eh
2926:0C3C  50					push	ax
2926:0C3D  E8 426E				call	sub_215			; (4EAE)
2926:0C40  1E					push	ds
2926:0C41  B8 29FC				mov	ax,29FCh
2926:0C44  50					push	ax
2926:0C45  B8 0001				mov	ax,1
2926:0C48  50					push	ax
2926:0C49  16					push	ss
2926:0C4A  8D 46 D3				lea	ax,[bp-2Dh]		; Load effective addr
2926:0C4D  50					push	ax
2926:0C4E  E8 686F				call	sub_295			; (74C0)
2926:0C51  1E					push	ds
2926:0C52  B8 29FC				mov	ax,29FCh
2926:0C55 ú50					push	ax
2926:0C56  B8 FFFF				mov	ax,0FFFFh
2926:0C59  50					push	ax
2926:0C5A  E8 428A				call	sub_216			; (4EE7)
2926:0C5D  16					push	ss
           ICON0.lst       ICON0.OVL		Sourcer	v8.01  20-Jul-2026 12:17 am   Page 33

2926:0C5E  8D 46 D3				lea	ax,[bp-2Dh]		; Load effective addr
2926:0C61  50					push	ax
2926:0C62  E8 F45B				call	sub_12			; (00C0)
2926:0C65  1E					push	ds
2926:0C66  B8 29FC				mov	ax,29FCh
2926:0C69  50					push	ax
2926:0C6A  E8 45AB				call	sub_234			; (5218)
2926:0C6D  1E					push	ds
2926:0C6E  B8 29F8				mov	ax,29F8h
2926:0C71  50					push	ax
2926:0C72  E8 594B				call	sub_261			; (65C0)
2926:0C75  1E					push	ds
2926:0C76  B8 29FA				mov	ax,29FAh
2926:0C79  50					push	ax
2926:0C7A  E8 5943				call	sub_261			; (65C0)
2926:0C7D  E8 5404				call	sub_249			; (6084)
2926:0C80  1E					push	ds
2926:0C81  B8 2990				mov	ax,2990h
2926:0C84  05 0000				add	ax,0
2926:0C87  97					xchg	di,ax
2926:0C88  A1 29F8				mov	ax,word ptr ds:[29F8h]	; (2916:29F8=0B320h)
2926:0C8B  07					pop	es
2926:0C8C  26: 89 05				mov	es:[di],ax
2926:0C8F  1E					push	ds
2926:0C90  B8 2990				mov	ax,2990h
2926:0C93  05 0002				add	ax,2
2926:0C96  97					xchg	di,ax
2926:0C97  A1 29FA				mov	ax,word ptr ds:[29FAh]	; (2916:29FA=2020h)
2926:0C9A  07					pop	es
2926:0C9B  26: 89 05				mov	es:[di],ax
2926:0C9E  1E					push	ds
2926:0C9F  B8 29FC				mov	ax,29FCh
2926:0CA2  50					push	ax
2926:0CA3  E8 4572				call	sub_234			; (5218)
2926:0CA6  1E					push	ds
2926:0CA7  B8 5DAA				mov	ax,5DAAh
2926:0CAA  50					push	ax
2926:0CAB  E8 5912				call	sub_261			; (65C0)
2926:0CAE  1E					push	ds
2926:0CAF  B8 5DAC				mov	ax,5DACh
2926:0CB2  50					push	ax
2926:0CB3  E8 590A				call	sub_261			; (65C0)
2926:0CB6  E8 53CB				call	sub_249			; (6084)
2926:0CB9  1E					push	ds
2926:0CBA  B8 2990				mov	ax,2990h
2926:0CBD  05 0004				add	ax,4
2926:0CC0  97					xchg	di,ax
2926:0CC1  A1 5DAA				mov	ax,word ptr ds:[5DAAh]	; (2916:5DAA=83FAh)
2926:0CC4  07					pop	es
2926:0CC5  26: 89 05				mov	es:[di],ax
2926:0CC8  1E					push	ds
2926:0CC9  B8 2990				mov	ax,2990h
2926:0CCC  05 0006				add	ax,6
2926:0CCF  97					xchg	di,ax
2926:0CD0  A1 5DAC				mov	ax,word ptr ds:[5DACh]	; (2916:5DAC=26C7h)
2926:0CD3  07					pop	es
2926:0CD4  26: 89 05				mov	es:[di],ax
           ICON0.lst       ICON0.OVL		Sourcer	v8.01  20-Jul-2026 12:17 am   Page 34

2926:0CD7  1E					push	ds
2926:0CD8  B8 29FC				mov	ax,29FCh
2926:0CDB  50					push	ax
2926:0CDC  E8 4539				call	sub_234			; (5218)
2926:0CDF  1E					push	ds
2926:0CE0  B8 822A				mov	ax,822Ah
2926:0CE3  50					push	ax
2926:0CE4  E8 58D9				call	sub_261			; (65C0)
2926:0CE7  1E					push	ds
2926:0CE8  B8 822E				mov	ax,822Eh
2926:0CEB  50					push	ax
2926:0CEC  E8 58D1				call	sub_261			; (65C0)
2926:0CEF  E8 5392				call	sub_249			; (6084)
2926:0CF2  1E					push	ds
2926:0CF3  B8 2990				mov	ax,2990h
2926:0CF6  05 0008				add	ax,8
2926:0CF9  97					xchg	di,ax
2926:0CFA  A1 822A				mov	ax,word ptr ds:[822Ah]	; (2916:822A=0)
2926:0CFD  07					pop	es
2926:0CFE  26: 89 05				mov	es:[di],ax
2926:0D01  1E					push	ds
2926:0D02  B8 2990				mov	ax,2990h
2926:0D05  05 000A				add	ax,0Ah
2926:0D08  97					xchg	di,ax
2926:0D09  A1 822E				mov	ax,word ptr ds:[822Eh]	; (2916:822E=0)
2926:0D0C  07					pop	es
2926:0D0D  26: 89 05				mov	es:[di],ax
2926:0D10  1E					push	ds
2926:0D11  B8 29FC				mov	ax,29FCh
2926:0D14  50					push	ax
2926:0D15  E8 4500				call	sub_234			; (5218)
2926:0D18  1E					push	ds
2926:0D19  B8 5A9C				mov	ax,5A9Ch
2926:0D1C  50					push	ax
2926:0D1D  A1 31BE				mov	ax,ds:data_38e		; (2916:31BE=2E21h)
2926:0D20  48					dec	ax
2926:0D21  BB 0006				mov	bx,6
2926:0D24  F7 E3				mul	bx			; dx:ax = reg * ax
2926:0D26  5B					pop	bx
2926:0D27  03 C3				add	ax,bx
2926:0D29  50					push	ax
2926:0D2A  E8 5893				call	sub_261			; (65C0)
2926:0D2D  1E					push	ds
2926:0D2E  B8 5A9C				mov	ax,5A9Ch
2926:0D31  50					push	ax
2926:0D32  A1 31BE				mov	ax,ds:data_38e		; (2916:31BE=2E21h)
2926:0D35  48					dec	ax
2926:0D36  BB 0006				mov	bx,6
2926:0D39  F7 E3				mul	bx			; dx:ax = reg * ax
2926:0D3B  5B					pop	bx
2926:0D3C  03 C3				add	ax,bx
2926:0D3E  40					inc	ax
2926:0D3F  40					inc	ax
2926:0D40  50					push	ax
2926:0D41  E8 587C				call	sub_261			; (65C0)
2926:0D44  E8 533D				call	sub_249			; (6084)
2926:0D47  1E					push	ds
           ICON0.lst       ICON0.OVL		Sourcer	v8.01  20-Jul-2026 12:17 am   Page 35

2926:0D48  B8 2990				mov	ax,2990h
2926:0D4B  05 000C				add	ax,0Ch
2926:0D4E  50					push	ax
2926:0D4F  1E					push	ds
2926:0D50  B8 5A9C				mov	ax,5A9Ch
2926:0D53  50					push	ax
2926:0D54  A1 31BE				mov	ax,ds:data_38e		; (2916:31BE=2E21h)
2926:0D57  48					dec	ax
2926:0D58  BB 0006				mov	bx,6
2926:0D5B  F7 E3				mul	bx			; dx:ax = reg * ax
2926:0D5D  5B					pop	bx
2926:0D5E  03 C3				add	ax,bx
2926:0D60  97					xchg	di,ax
2926:0D61  07					pop	es
2926:0D62  26: 8B 05				mov	ax,es:[di]
2926:0D65  5F					pop	di
2926:0D66  07					pop	es
2926:0D67  26: 89 05				mov	es:[di],ax
2926:0D6A  1E					push	ds
2926:0D6B  B8 2990				mov	ax,2990h
2926:0D6E  05 000E				add	ax,0Eh
2926:0D71  50					push	ax
2926:0D72  1E					push	ds
2926:0D73  B8 5A9C				mov	ax,5A9Ch
2926:0D76  50					push	ax
2926:0D77  A1 31BE				mov	ax,ds:data_38e		; (2916:31BE=2E21h)
2926:0D7A  48					dec	ax
2926:0D7B  BB 0006				mov	bx,6
2926:0D7E  F7 E3				mul	bx			; dx:ax = reg * ax
2926:0D80  5B					pop	bx
2926:0D81  03 C3				add	ax,bx
2926:0D83  40					inc	ax
2926:0D84  40					inc	ax
2926:0D85  97					xchg	di,ax
2926:0D86  07					pop	es
2926:0D87  26: 8B 05				mov	ax,es:[di]
2926:0D8A  5F					pop	di
2926:0D8B  07					pop	es
2926:0D8C  26: 89 05				mov	es:[di],ax
2926:0D8F  1E					push	ds
2926:0D90  B8 29FC				mov	ax,29FCh
2926:0D93  50					push	ax
2926:0D94  E8 4481				call	sub_234			; (5218)
2926:0D97  1E					push	ds
2926:0D98  B8 31D2				mov	ax,31D2h
2926:0D9B  50					push	ax
2926:0D9C  E8 5821				call	sub_261			; (65C0)
2926:0D9F  E8 52E2				call	sub_249			; (6084)
2926:0DA2  1E					push	ds
2926:0DA3  B8 2990				mov	ax,2990h
2926:0DA6  05 0010				add	ax,10h
2926:0DA9  97					xchg	di,ax
2926:0DAA  A1 31D2				mov	ax,word ptr ds:[31D2h]	; (2916:31D2=6165h)
2926:0DAD  07					pop	es
2926:0DAE  26: 89 05				mov	es:[di],ax
2926:0DB1  1E					push	ds
2926:0DB2  B8 29FC				mov	ax,29FCh
           ICON0.lst       ICON0.OVL		Sourcer	v8.01  20-Jul-2026 12:17 am   Page 36

2926:0DB5  50					push	ax
2926:0DB6  E8 445F				call	sub_234			; (5218)
2926:0DB9  1E					push	ds
2926:0DBA  B8 5A24				mov	ax,5A24h
2926:0DBD  50					push	ax
2926:0DBE  E8 57FF				call	sub_261			; (65C0)
2926:0DC1  E8 52C0				call	sub_249			; (6084)
2926:0DC4  1E					push	ds
2926:0DC5  B8 2990				mov	ax,2990h
2926:0DC8  05 0012				add	ax,12h
2926:0DCB  97					xchg	di,ax
2926:0DCC  A1 5A24				mov	ax,word ptr ds:[5A24h]	; (2916:5A24=5C6h)
2926:0DCF  07					pop	es
2926:0DD0  26: 89 05				mov	es:[di],ax
2926:0DD3  C7 46 FA 000A			mov	word ptr [bp-6],0Ah
2926:0DD8  C7 46 F6 005A			mov	word ptr [bp-0Ah],5Ah
2926:0DDD  C7 46 D1 000B			mov	word ptr [bp-2Fh],0Bh
2926:0DE2			loc_108:					;  xref 2926:106A
2926:0DE2 úFF 46 F6				inc	word ptr [bp-0Ah]
2926:0DE5  FF 4E D1				dec	word ptr [bp-2Fh]
2926:0DE8  7D 03				jge	loc_109			; Jump if > or =
2926:0DEA  E9 0280				jmp	loc_123			; (106D)
2926:0DED			loc_109:					;  xref 2926:0DE8
2926:0DED  1E					push	ds
2926:0DEE  B8 2C1A				mov	ax,2C1Ah
2926:0DF1  50					push	ax
2926:0DF2  8B 46 F6				mov	ax,[bp-0Ah]
2926:0DF5  2D 0047				sub	ax,47h
2926:0DF8  BB 0006				mov	bx,6
2926:0DFB  F7 E3				mul	bx			; dx:ax = reg * ax
2926:0DFD  5B					pop	bx
2926:0DFE  03 C3				add	ax,bx
2926:0E00  89 46 F2				mov	[bp-0Eh],ax
2926:0E03  58					pop	ax
2926:0E04  89 46 F4				mov	[bp-0Ch],ax
2926:0E07  C4 7E F2				les	di,dword ptr [bp-0Eh]	; Load seg:offset ptr
2926:0E0A  83 C7 04				add	di,4
2926:0E0D  26: C7 05 FFFF			mov	word ptr es:[di],0FFFFh
2926:0E12  1E					push	ds
2926:0E13  B8 29FC				mov	ax,29FCh
2926:0E16  50					push	ax
2926:0E17  E8 43FE				call	sub_234			; (5218)
2926:0E1A  16					push	ss
2926:0E1B  8D 46 F8				lea	ax,[bp-8]		; Load effective addr
2926:0E1E  50					push	ax
2926:0E1F  E8 579E				call	sub_261			; (65C0)
2926:0E22  1E					push	ds
2926:0E23  B8 2990				mov	ax,2990h
2926:0E26  50					push	ax
2926:0E27  8B 46 FA				mov	ax,[bp-6]
2926:0E2A  D1 E0				shl	ax,1			; Shift w/zeros fill
2926:0E2C  5B					pop	bx
2926:0E2D  03 C3				add	ax,bx
2926:0E2F  97					xchg	di,ax
2926:0E30  8B 46 F8				mov	ax,[bp-8]
2926:0E33  07					pop	es
2926:0E34  26: 89 05				mov	es:[di],ax
           ICON0.lst       ICON0.OVL		Sourcer	v8.01  20-Jul-2026 12:17 am   Page 37

2926:0E37  8B 46 FA				mov	ax,[bp-6]
2926:0E3A  40					inc	ax
2926:0E3B  89 46 FA				mov	[bp-6],ax
2926:0E3E  81 7E F8 FFFF			cmp	word ptr [bp-8],0FFFFh
2926:0E43  74 03				je	loc_110			; Jump if equal
2926:0E45  E9 0016				jmp	loc_111			; (0E5E)
2926:0E48			loc_110:					;  xref 2926:0E43
2926:0E48  1E					push	ds
2926:0E49  B8 29FC				mov	ax,29FCh
2926:0E4C  50					push	ax
2926:0E4D  E8 43C8				call	sub_234			; (5218)
2926:0E50  E8 5231				call	sub_249			; (6084)
2926:0E53  C4 7E F2				les	di,dword ptr [bp-0Eh]	; Load seg:offset ptr
2926:0E56  26: C7 05 FFFF			mov	word ptr es:[di],0FFFFh
2926:0E5B  E9 020C				jmp	loc_122			; (106A)
2926:0E5E			loc_111:					;  xref 2926:0E45
2926:0E5E  81 7E F8 FFFE			cmp	word ptr [bp-8],0FFFEh
2926:0E63  74 03				je	loc_112			; Jump if equal
2926:0E65  E9 0016				jmp	loc_113			; (0E7E)
2926:0E68			loc_112:					;  xref 2926:0E63
2926:0E68  C4 7E F2				les	di,dword ptr [bp-0Eh]	; Load seg:offset ptr
2926:0E6B  06					push	es
2926:0E6C  57					push	di
2926:0E6D  E8 F247				call	sub_9			; (00B7)
2926:0E70  1E					push	ds
2926:0E71  B8 29FC				mov	ax,29FCh
2926:0E74  50					push	ax
2926:0E75  E8 43A0				call	sub_234			; (5218)
2926:0E78  E8 5209				call	sub_249			; (6084)
2926:0E7B  E9 0058				jmp	loc_114			; (0ED6)
2926:0E7E			loc_113:					;  xref 2926:0E65
2926:0E7E  C4 7E F2				les	di,dword ptr [bp-0Eh]	; Load seg:offset ptr
2926:0E81  06					push	es
2926:0E82  57					push	di
2926:0E83  8B 46 F8				mov	ax,[bp-8]
2926:0E86  93					xchg	bx,ax
2926:0E87  B8 0004				mov	ax,4
2926:0E8A  F7 EB				imul	bx			; dx:ax = reg * ax
2926:0E8C  5F					pop	di
2926:0E8D  07					pop	es
2926:0E8E  26: 89 05				mov	es:[di],ax
2926:0E91  1E					push	ds
2926:0E92  B8 29FC				mov	ax,29FCh
2926:0E95  50					push	ax
2926:0E96  E8 437F				call	sub_234			; (5218)
2926:0E99  16					push	ss
2926:0E9A  8D 46 F8				lea	ax,[bp-8]		; Load effective addr
2926:0E9D  50					push	ax
2926:0E9E  E8 571F				call	sub_261			; (65C0)
2926:0EA1  E8 51E0				call	sub_249			; (6084)
2926:0EA4  C4 7E F2				les	di,dword ptr [bp-0Eh]	; Load seg:offset ptr
2926:0EA7  83 C7 02				add	di,2
2926:0EAA  06					push	es
2926:0EAB  57					push	di
2926:0EAC  8B 46 F8				mov	ax,[bp-8]
2926:0EAF  93					xchg	bx,ax
2926:0EB0  B8 0006				mov	ax,6
           ICON0.lst       ICON0.OVL		Sourcer	v8.01  20-Jul-2026 12:17 am   Page 38

2926:0EB3  F7 EB				imul	bx			; dx:ax = reg * ax
2926:0EB5  5F					pop	di
2926:0EB6  07					pop	es
2926:0EB7  26: 89 05				mov	es:[di],ax
2926:0EBA  1E					push	ds
2926:0EBB  B8 2990				mov	ax,2990h
2926:0EBE  50					push	ax
2926:0EBF  8B 46 FA				mov	ax,[bp-6]
2926:0EC2  D1 E0				shl	ax,1			; Shift w/zeros fill
2926:0EC4  5B					pop	bx
2926:0EC5  03 C3				add	ax,bx
2926:0EC7  97					xchg	di,ax
2926:0EC8  8B 46 F8				mov	ax,[bp-8]
2926:0ECB  07					pop	es
2926:0ECC  26: 89 05				mov	es:[di],ax
2926:0ECF  8B 46 FA				mov	ax,[bp-6]
2926:0ED2  40					inc	ax
2926:0ED3  89 46 FA				mov	[bp-6],ax
2926:0ED6			loc_114:					;  xref 2926:0E7B
2926:0ED6  8B 46 F6				mov	ax,[bp-0Ah]
2926:0ED9  50					push	ax
2926:0EDA  E9 014B				jmp	loc_120			; (1028)
							                        ;* No entry point to code
2926:0EDD  C4 7E F2				les	di,dword ptr [bp-0Eh]	; Load seg:offset ptr
2926:0EE0  83 C7 04				add	di,4
2926:0EE3  90					nop
2926:0EE4  90					nop
2926:0EE5  A1 810A				mov	ax,ds:data_296e		; (2926:810A=0)
2926:0EE8  26: 89 05				mov	es:[di],ax
2926:0EEB  E9 0159				jmp	loc_121			; (1047)
							                        ;* No entry point to code
2926:0EEE  1E					push	ds
2926:0EEF  B8 29FC				mov	ax,29FCh
2926:0EF2  50					push	ax
2926:0EF3  E8 4322				call	sub_234			; (5218)
2926:0EF6  16					push	ss
2926:0EF7  8D 46 FC				lea	ax,[bp-4]		; Load effective addr
2926:0EFA  50					push	ax
2926:0EFB  E8 56C2				call	sub_261			; (65C0)
2926:0EFE  E8 5183				call	sub_249			; (6084)
2926:0F01  1E					push	ds
2926:0F02  B8 2990				mov	ax,2990h
2926:0F05  50					push	ax
2926:0F06  8B 46 FA				mov	ax,[bp-6]
2926:0F09  D1 E0				shl	ax,1			; Shift w/zeros fill
2926:0F0B  5B					pop	bx
2926:0F0C  03 C3				add	ax,bx
2926:0F0E  97					xchg	di,ax
2926:0F0F  8B 46 FC				mov	ax,[bp-4]
2926:0F12  07					pop	es
2926:0F13  26: 89 05				mov	es:[di],ax
2926:0F16  8B 46 FA				mov	ax,[bp-6]
2926:0F19  40					inc	ax
2926:0F1A  89 46 FA				mov	[bp-6],ax
2926:0F1D  81 7E FC 0000			cmp	word ptr [bp-4],0
2926:0F22  74 03				je	loc_115			; Jump if equal
2926:0F24  E9 0011				jmp	loc_116			; (0F38)
           ICON0.lst       ICON0.OVL		Sourcer	v8.01  20-Jul-2026 12:17 am   Page 39

2926:0F27			loc_115:					;  xref 2926:0F22
2926:0F27  C4 7E F2				les	di,dword ptr [bp-0Eh]	; Load seg:offset ptr
2926:0F2A  83 C7 04				add	di,4
2926:0F2D  90					nop
2926:0F2E  90					nop
2926:0F2F  A1 2078				mov	ax,data_98		; (2926:2078=4A47h)
2926:0F32  26: 89 05				mov	es:[di],ax
2926:0F35  E9 0034				jmp	loc_119			; (0F6C)
2926:0F38			loc_116:					;  xref 2926:0F24
2926:0F38  81 7E FC 0001			cmp	word ptr [bp-4],1
2926:0F3D  74 03				je	loc_117			; Jump if equal
2926:0F3F  E9 0011				jmp	loc_118			; (0F53)
2926:0F42			loc_117:					;  xref 2926:0F3D
2926:0F42  C4 7E F2				les	di,dword ptr [bp-0Eh]	; Load seg:offset ptr
2926:0F45  83 C7 04				add	di,4
2926:0F48  90					nop
2926:0F49  90					nop
2926:0F4A  A1 31BC				mov	ax,word ptr ds:[31BCh]	; (2926:31BC=4926h)
2926:0F4D  26: 89 05				mov	es:[di],ax
2926:0F50  E9 0019				jmp	loc_119			; (0F6C)
2926:0F53			loc_118:					;  xref 2926:0F3F
2926:0F53  C4 7E F2				les	di,dword ptr [bp-0Eh]	; Load seg:offset ptr
2926:0F56  83 C7 04				add	di,4
2926:0F59  06					push	es
2926:0F5A ú57					push	di
2926:0F5B  0E E8 0005				callf	sub_34			; (0F64)
2926:0F5F  04 47				add	al,47h			; 'G'
2926:0F61  69 72 6C				db	 69h, 72h, 6Ch

				;ßßßßßßßßßßßßßßßßßßßßßßßßßßßßßßßßßßßßßßßßßßßßßßßßßßßßßßßßßßßßßßßßßßßßßßßßßß
				;                              SUBROUTINE
				;
				;         Called from:   2926:0F5B
				;ÜÜÜÜÜÜÜÜÜÜÜÜÜÜÜÜÜÜÜÜÜÜÜÜÜÜÜÜÜÜÜÜÜÜÜÜÜÜÜÜÜÜÜÜÜÜÜÜÜÜÜÜÜÜÜÜÜÜÜÜÜÜÜÜÜÜÜÜÜÜÜÜÜÜ

2926:0F64			sub_34		proc	near
2926:0F64  E8 F141				call	sub_5			; (00A8)
2926:0F67  5F					pop	di
2926:0F68  07					pop	es
2926:0F69  26: 89 05				mov	es:[di],ax
2926:0F6C			loc_119:					;  xref 2926:0F35, 0F50
2926:0F6C  E9 00D8				jmp	loc_121			; (1047)
							                        ;* No entry point to code
2926:0F6F  C4 7E F2				les	di,dword ptr [bp-0Eh]	; Load seg:offset ptr
2926:0F72  83 C7 04				add	di,4
2926:0F75  90					nop
2926:0F76  90					nop
2926:0F77  A1 5DF6				mov	ax,word ptr ds:[5DF6h]	; (2926:5DF6=0AF3Eh)
2926:0F7A  26: 89 05				mov	es:[di],ax
2926:0F7D  E9 00C7				jmp	loc_121			; (1047)
							                        ;* No entry point to code
2926:0F80  C4 7E F2				les	di,dword ptr [bp-0Eh]	; Load seg:offset ptr
2926:0F83  83 C7 04				add	di,4
2926:0F86  90					nop
2926:0F87  90					nop
2926:0F88  A1 2074				mov	ax,data_97		; (2926:2074=8AC4h)
2926:0F8B  26: 89 05				mov	es:[di],ax
           ICON0.lst       ICON0.OVL		Sourcer	v8.01  20-Jul-2026 12:17 am   Page 40

2926:0F8E  E9 00B6				jmp	loc_121			; (1047)
							                        ;* No entry point to code
2926:0F91  C4 7E F2				les	di,dword ptr [bp-0Eh]	; Load seg:offset ptr
2926:0F94  83 C7 04				add	di,4
2926:0F97  90					nop
2926:0F98  90					nop
2926:0F99  A1 012A				mov	ax,word ptr ds:[12Ah]	; (2926:012A=5029h)
2926:0F9C  26: 89 05				mov	es:[di],ax
2926:0F9F  E9 00A5				jmp	loc_121			; (1047)
							                        ;* No entry point to code
2926:0FA2  C4 7E F2				les	di,dword ptr [bp-0Eh]	; Load seg:offset ptr
2926:0FA5  83 C7 04				add	di,4
2926:0FA8  90					nop
2926:0FA9  90					nop
2926:0FAA  A1 5E32				mov	ax,word ptr ds:[5E32h]	; (2926:5E32=83AFh)
2926:0FAD  26: 89 05				mov	es:[di],ax
2926:0FB0  E9 0094				jmp	loc_121			; (1047)
							                        ;* No entry point to code
2926:0FB3  C4 7E F2				les	di,dword ptr [bp-0Eh]	; Load seg:offset ptr
2926:0FB6  83 C7 04				add	di,4
2926:0FB9  90					nop
2926:0FBA  90					nop
2926:0FBB  A1 2BF0				mov	ax,word ptr ds:[2BF0h]	; (2926:2BF0=0E900h)
2926:0FBE  26: 89 05				mov	es:[di],ax
2926:0FC1  E9 0083				jmp	loc_121			; (1047)
							                        ;* No entry point to code
2926:0FC4  C4 7E F2				les	di,dword ptr [bp-0Eh]	; Load seg:offset ptr
2926:0FC7  83 C7 04				add	di,4
2926:0FCA  90					nop
2926:0FCB  90					nop
2926:0FCC  A1 2BEE				mov	ax,word ptr ds:[2BEEh]	; (2926:2BEE=49B8h)
2926:0FCF  26: 89 05				mov	es:[di],ax
2926:0FD2  E9 0072				jmp	loc_121			; (1047)
							                        ;* No entry point to code
2926:0FD5  C4 7E F2				les	di,dword ptr [bp-0Eh]	; Load seg:offset ptr
2926:0FD8  83 C7 04				add	di,4
2926:0FDB  90					nop
2926:0FDC  90					nop
2926:0FDD  A1 0128				mov	ax,word ptr ds:[128h]	; (2926:0128=4A1h)
2926:0FE0  26: 89 05				mov	es:[di],ax
2926:0FE3  E9 0061				jmp	loc_121			; (1047)
							                        ;* No entry point to code
2926:0FE6  C4 7E F2				les	di,dword ptr [bp-0Eh]	; Load seg:offset ptr
2926:0FE9  83 C7 04				add	di,4
2926:0FEC  90					nop
2926:0FED  90					nop
2926:0FEE  A1 5E24				mov	ax,word ptr ds:[5E24h]	; (2926:5E24=1650h)
2926:0FF1  26: 89 05				mov	es:[di],ax
2926:0FF4  E9 0050				jmp	loc_121			; (1047)
							                        ;* No entry point to code
2926:0FF7  C4 7E F2				les	di,dword ptr [bp-0Eh]	; Load seg:offset ptr
2926:0FFA  83 C7 04				add	di,4
2926:0FFD  06					push	es
2926:0FFE  57					push	di
2926:0FFF  E8 6135				call	sub_278			; (7137)
2926:1002  0E E8 0006				callf	sub_35			; (100C)
2926:1006  05 6369				add	ax,6369h
           ICON0.lst       ICON0.OVL		Sourcer	v8.01  20-Jul-2026 12:17 am   Page 41

2926:1009  6F 6E 20				db	 6Fh, 6Eh, 20h

				;ßßßß External Entry into Subroutine ßßßßßßßßßßßßßßßßßßßßßßßßßßßßßßßßßßßßßß
				;
				;         Called from:   2926:1002

2926:100C			sub_35:
2926:100C  E8 612E				call	sub_280			; (713D)
2926:100F  A0 2DA8				mov	al,data_147		; (2926:2DA8=6Eh)
2926:1012  32 E4				xor	ah,ah			; Zero register
2926:1014  50					push	ax
2926:1015  E8 6122				call	sub_279			; (713A)
2926:1018  E8 6119				call	sub_277			; (7134)
2926:101B  53					push	bx
2926:101C  50					push	ax
2926:101D  E8 F088				call	sub_5			; (00A8)
2926:1020  5F					pop	di
2926:1021  07					pop	es
2926:1022  26: 89 05				mov	es:[di],ax
2926:1025  E9 001F				jmp	loc_121			; (1047)
2926:1028			loc_120:					;  xref 2926:0EDA
2926:1028  E8 6413				call	sub_291			; (743E)
2926:102B  5B					pop	bx
2926:102C  00 0A				add	[bp+si],cl
2926:102E  00 AC BBFE				add	ds:data_349e[si],ch	; (2926:BBFE=0)
2926:1032  FE 3A FF 49 FF 58			db	0FEh, 3Ah,0FFh, 49h,0FFh, 58h
2926:1038  FF 67 FF 76 FF 85			db	0FFh, 67h,0FFh, 76h,0FFh, 85h
2926:103E  FF 94 FF A3 FF B2			db	0FFh, 94h,0FFh,0A3h,0FFh,0B2h
2926:1044  FF 00 00				db	0FFh, 00h, 00h
2926:1047			loc_121:					;  xref 2926:0EEB, 0F6C, 0F7D, 0F8E
										;            0F9F, 0FB0, 0FC1, 0FD2
										;            0FE3, 0FF4, 1025
2926:1047  1E					push	ds
2926:1048  B8 5A9C				mov	ax,5A9Ch
2926:104B  50					push	ax
2926:104C  8B 46 F6				mov	ax,[bp-0Ah]
2926:104F  48					dec	ax
2926:1050  BB 0006				mov	bx,6
2926:1053  F7 E3				mul	bx			; dx:ax = reg * ax
2926:1055  5B					pop	bx
2926:1056  03 C3				add	ax,bx
2926:1058  05 0004				add	ax,4
2926:105B  50					push	ax
2926:105C  C4 7E F2				les	di,dword ptr [bp-0Eh]	; Load seg:offset ptr
2926:105F  83 C7 04				add	di,4
2926:1062  26: 8B 05				mov	ax,es:[di]
2926:1065  5F					pop	di
2926:1066  07					pop	es
2926:1067  26: 89 05				mov	es:[di],ax
2926:106A			loc_122:					;  xref 2926:0E5B
2926:106A  E9 FD75				jmp	loc_108			; (0DE2)
				sub_34		endp

2926:106D			loc_123:					;  xref 2926:0DEA
2926:106D  A1 29F8				mov	ax,data_118		; (2926:29F8=6572h)
2926:1070  93					xchg	bx,ax
2926:1071  B8 0120				mov	ax,120h
           ICON0.lst       ICON0.OVL		Sourcer	v8.01  20-Jul-2026 12:17 am   Page 42

2926:1074  F7 EB				imul	bx			; dx:ax = reg * ax
2926:1076  A3 5A32				mov	word ptr ds:[5A32h],ax	; (2926:5A32=1EF7h)
2926:1079  A1 29FA				mov	ax,data_119		; (2926:29FA=202Eh)
2926:107C  93					xchg	bx,ax
2926:107D  B8 0120				mov	ax,120h
2926:1080  F7 EB				imul	bx			; dx:ax = reg * ax
2926:1082  A3 5A34				mov	word ptr ds:[5A34h],ax	; (2926:5A34=0B5B8h)
2926:1085  C7 06 2BEC 0000			mov	word ptr ds:[2BECh],0	; (2926:2BEC=0FFE5h)
2926:108B  B8 0012				mov	ax,12h
2926:108E  50					push	ax
2926:108F  B8 0005				mov	ax,5
2926:1092  50					push	ax
2926:1093  B8 0005				mov	ax,5
2926:1096  50					push	ax
2926:1097  E8 F03B				call	sub_19			; (00D5)
2926:109A  1E					push	ds
2926:109B  B8 29FC				mov	ax,29FCh
2926:109E ú50					push	ax
2926:109F  B8 0001				mov	ax,1
2926:10A2  50					push	ax
2926:10A3  1E					push	ds
2926:10A4  B8 5E22				mov	ax,5E22h
2926:10A7  50					push	ax
2926:10A8  E8 401B				call	sub_220			; (50C6)
2926:10AB  8B E5				mov	sp,bp
2926:10AD  5D					pop	bp
2926:10AE  C2 0002				retn	2
2926:10B1			loc_124:					;  xref 2926:00C6
2926:10B1  55					push	bp
2926:10B2  8B EC				mov	bp,sp
2926:10B4  55					push	bp
2926:10B5  81 EC 0010				sub	sp,10h
2926:10B9  A0 298C				mov	al,data_116		; (2926:298C=68h)
2926:10BC  D0 D8				rcr	al,1			; Rotate thru carry
2926:10BE  72 03				jc	loc_125			; Jump if carry Set
2926:10C0  E9 0049				jmp	loc_130			; (110C)
2926:10C3			loc_125:					;  xref 2926:10BE
2926:10C3  E8 1252				call	sub_62			; (2318)
2926:10C6  3D 0001				cmp	ax,1
2926:10C9  75 03				jne	loc_126			; Jump if not equal
2926:10CB  E9 003E				jmp	loc_130			; (110C)
2926:10CE			loc_126:					;  xref 2926:10C9
2926:10CE  E8 0FE0				call	sub_59			; (20B1)
2926:10D1			loc_127:					;  xref 2926:1109
2926:10D1 úB8 0007				mov	ax,7
2926:10D4  50					push	ax
2926:10D5  1E					push	ds
2926:10D6  B8 82FD				mov	ax,82FDh
2926:10D9  50					push	ax
2926:10DA  E8 413B				call	sub_234			; (5218)
2926:10DD  B8 FFFF				mov	ax,0FFFFh
2926:10E0  50					push	ax
2926:10E1  B8 FFFF				mov	ax,0FFFFh
2926:10E4  50					push	ax
2926:10E5  E8 5F05				call	sub_273			; (6FED)
2926:10E8  E8 15DC				call	sub_67			; (26C7)
2926:10EB  E8 EFEA				call	sub_20			; (00D8)
           ICON0.lst       ICON0.OVL		Sourcer	v8.01  20-Jul-2026 12:17 am   Page 43

2926:10EE  89 46 F2				mov	[bp-0Eh],ax
2926:10F1  81 7E F2 0020			cmp	word ptr [bp-0Eh],20h
2926:10F6  75 03				jne	loc_128			; Jump if not equal
2926:10F8  E9 0006				jmp	loc_129			; (1101)
2926:10FB			loc_128:					;  xref 2926:10F6
2926:10FB  E8 1032				call	sub_60			; (2130)
2926:10FE  E8 637B				call	sub_292			; (747C)
2926:1101			loc_129:					;  xref 2926:10F8
2926:1101  E8 1214				call	sub_62			; (2318)
2926:1104  3D 0001				cmp	ax,1
2926:1107  74 03				je	loc_130			; Jump if equal
2926:1109  E9 FFC5				jmp	loc_127			; (10D1)
						nop	                                        ;*jump fixup
2926:110C			loc_130:					;  xref 2926:10C0, 10CB, 1107
2926:110C  C6 06 0120 00			mov	byte ptr ds:[120h],0	; (2926:0120=55h)
2926:1111  C6 06 298C 00			mov	byte ptr data_116,0	; (2926:298C=68h)
2926:1116  E8 EF83				call	sub_2			; (009C)
2926:1119  A0 5A36				mov	al,byte ptr ds:[5A36h]	; (2926:5A36=83h)
2926:111C  D0 D8				rcr	al,1			; Rotate thru carry
2926:111E  72 03				jc	loc_131			; Jump if carry Set
2926:1120  E9 0371				jmp	loc_168			; (1494)
2926:1123			loc_131:					;  xref 2926:111E
2926:1123  A0 2DA8				mov	al,data_147		; (2926:2DA8=6Eh)
2926:1126  32 E4				xor	ah,ah			; Zero register
2926:1128  50					push	ax
2926:1129  E8 1B32				call	sub_74			; (2C5E)
2926:112C  A0 2DA8				mov	al,data_147		; (2926:2DA8=6Eh)
2926:112F  32 E4				xor	ah,ah			; Zero register
2926:1131  3D 0063				cmp	ax,63h
2926:1134  B8 0000				mov	ax,0
2926:1137  75 01				jnz	loc_132			; Jump if not zero
2926:1139  40					inc	ax
2926:113A			loc_132:					;  xref 2926:1137
2926:113A  50					push	ax
2926:113B  A0 2DA8				mov	al,data_147		; (2926:2DA8=6Eh)
2926:113E  32 E4				xor	ah,ah			; Zero register
2926:1140  3D 0065				cmp	ax,65h
2926:1143  B8 0000				mov	ax,0
2926:1146  75 01				jnz	loc_133			; Jump if not zero
2926:1148  40					inc	ax
2926:1149			loc_133:					;  xref 2926:1146
2926:1149  5B					pop	bx
2926:114A  0B C3				or	ax,bx
2926:114C  D0 D8				rcr	al,1			; Rotate thru carry
2926:114E  72 03				jc	loc_134			; Jump if carry Set
2926:1150  E9 000A				jmp	loc_135			; (115D)
2926:1153			loc_134:					;  xref 2926:114E
2926:1153  B8 0062				mov	ax,62h
2926:1156  50					push	ax
2926:1157  E8 EF63				call	sub_11			; (00BD)
2926:115A  E9 0049				jmp	loc_140			; (11A6)
2926:115D			loc_135:					;  xref 2926:1150
2926:115D  A0 2DA8				mov	al,data_147		; (2926:2DA8=6Eh)
2926:1160  32 E4				xor	ah,ah			; Zero register
2926:1162  3D 0061				cmp	ax,61h
2926:1165  B8 0000				mov	ax,0
2926:1168  75 01				jnz	loc_136			; Jump if not zero
           ICON0.lst       ICON0.OVL		Sourcer	v8.01  20-Jul-2026 12:17 am   Page 44

2926:116A  40					inc	ax
2926:116B			loc_136:					;  xref 2926:1168
2926:116B  50					push	ax
2926:116C  A0 2DA8				mov	al,data_147		; (2926:2DA8=6Eh)
2926:116F  32 E4				xor	ah,ah			; Zero register
2926:1171  3D 0064				cmp	ax,64h
2926:1174  B8 0000				mov	ax,0
2926:1177  75 01				jnz	loc_137			; Jump if not zero
2926:1179  40					inc	ax
2926:117A			loc_137:					;  xref 2926:1177
2926:117A  5B					pop	bx
2926:117B  0B C3				or	ax,bx
2926:117D  50					push	ax
2926:117E  A0 2DA8				mov	al,data_147		; (2926:2DA8=6Eh)
2926:1181  32 E4				xor	ah,ah			; Zero register
2926:1183  3D 0066				cmp	ax,66h
2926:1186  B8 0000				mov	ax,0
2926:1189  75 01				jnz	loc_138			; Jump if not zero
2926:118B  40					inc	ax
2926:118C			loc_138:					;  xref 2926:1189
2926:118C  5B					pop	bx
2926:118D  0B C3				or	ax,bx
2926:118F  50					push	ax
2926:1190  A0 5E20				mov	al,byte ptr ds:[5E20h]	; (2926:5E20=0)
2926:1193  32 E4				xor	ah,ah			; Zero register
2926:1195  5B					pop	bx
2926:1196  0B C3				or	ax,bx
2926:1198  D0 D8				rcr	al,1			; Rotate thru carry
2926:119A  72 03				jc	loc_139			; Jump if carry Set
2926:119C  E9 0007				jmp	loc_140			; (11A6)
2926:119F			loc_139:					;  xref 2926:119A
2926:119F  B8 0061				mov	ax,61h
2926:11A2  50					push	ax
2926:11A3  E8 EF17				call	sub_11			; (00BD)
2926:11A6			loc_140:					;  xref 2926:115A, 119C
2926:11A6  A0 2DA8				mov	al,data_147		; (2926:2DA8=6Eh)
2926:11A9  32 E4				xor	ah,ah			; Zero register
2926:11AB  3D 0063				cmp	ax,63h
2926:11AE  7E 03				jle	loc_141			; Jump if < or =
2926:11B0  E9 0012				jmp	loc_142			; (11C5)
2926:11B3			loc_141:					;  xref 2926:11AE
2926:11B3  B8 0020				mov	ax,20h
2926:11B6  50					push	ax
2926:11B7  B8 0000				mov	ax,0
2926:11BA  50					push	ax
2926:11BB  B8 0000				mov	ax,0
2926:11BE  50					push	ax
2926:11BF  E8 EF13				call	sub_19			; (00D5)
2926:11C2  E9 000F				jmp	loc_143			; (11D4)
2926:11C5			loc_142:					;  xref 2926:11B0
2926:11C5  B8 0020				mov	ax,20h
2926:11C8  50					push	ax
2926:11C9  B8 000E				mov	ax,0Eh
2926:11CC  50					push	ax
2926:11CD  B8 000E				mov	ax,0Eh
2926:11D0  50					push	ax
2926:11D1  E8 EF01				call	sub_19			; (00D5)
           ICON0.lst       ICON0.OVL		Sourcer	v8.01  20-Jul-2026 12:17 am   Page 45

2926:11D4			loc_143:					;  xref 2926:11C2
2926:11D4  1E					push	ds
2926:11D5  B8 58E4				mov	ax,58E4h
2926:11D8  05 0002				add	ax,2
2926:11DB  97					xchg	di,ax
2926:11DC  8A 46 04				mov	al,[bp+4]
2926:11DF  07					pop	es
2926:11E0  26: 88 05				mov	es:[di],al
2926:11E3  1E					push	ds
2926:11E4  B8 2A5A				mov	ax,2A5Ah
2926:11E7  50					push	ax
2926:11E8  B8 0080				mov	ax,80h
2926:11EB  50					push	ax
2926:11EC  1E					push	ds
2926:11ED  B8 58E4				mov	ax,58E4h
2926:11F0  50					push	ax
2926:11F1  E8 62CC				call	sub_295			; (74C0)
2926:11F4  1E					push	ds
2926:11F5  B8 2A5A				mov	ax,2A5Ah
2926:11F8 ú50					push	ax
2926:11F9  B8 0080				mov	ax,80h
2926:11FC  50					push	ax
2926:11FD  E8 3CE7				call	sub_216			; (4EE7)
2926:1200  1E					push	ds
2926:1201  B8 58E4				mov	ax,58E4h
2926:1204  50					push	ax
2926:1205  E8 EEB8				call	sub_12			; (00C0)
2926:1208  1E					push	ds
2926:1209  B8 31D4				mov	ax,31D4h
2926:120C  05 0000				add	ax,0
2926:120F  05 0000				add	ax,0
2926:1212  89 46 FA				mov	[bp-6],ax
2926:1215  58					pop	ax
2926:1216  89 46 FC				mov	[bp-4],ax
2926:1219  C7 46 F4 0000			mov	word ptr [bp-0Ch],0
2926:121E  C7 46 F6 0000			mov	word ptr [bp-0Ah],0
2926:1223			loc_144:					;  xref 2926:1305
2926:1223 ú81 7E F4 2710			cmp	word ptr [bp-0Ch],2710h
2926:1228  B8 0000				mov	ax,0
2926:122B  7D 01				jge	loc_145			; Jump if > or =
2926:122D  40					inc	ax
2926:122E			loc_145:					;  xref 2926:122B
2926:122E  50					push	ax
2926:122F  1E					push	ds
2926:1230  B8 2A5A				mov	ax,2A5Ah
2926:1233 ú50					push	ax
2926:1234  B8 0080				mov	ax,80h
2926:1237  50					push	ax
2926:1238  E8 4F05				call	sub_251			; (6140)
2926:123B  F7 D0				not	ax
2926:123D  5B					pop	bx
2926:123E  23 C3				and	ax,bx
2926:1240  D0 D8				rcr	al,1			; Rotate thru carry
2926:1242  72 03				jc	loc_146			; Jump if carry Set
2926:1244  E9 00C1				jmp	loc_155			; (1308)
2926:1247			loc_146:					;  xref 2926:1242
2926:1247  8B 46 F6				mov	ax,[bp-0Ah]
           ICON0.lst       ICON0.OVL		Sourcer	v8.01  20-Jul-2026 12:17 am   Page 46

2926:124A  89 46 F8				mov	[bp-8],ax
2926:124D  1E					push	ds
2926:124E  B8 2A5A				mov	ax,2A5Ah
2926:1251 ú50					push	ax
2926:1252  B8 0080				mov	ax,80h
2926:1255  50					push	ax
2926:1256  E8 5045				call	sub_253			; (629E)
2926:1259  89 46 F6				mov	[bp-0Ah],ax
2926:125C  81 7E F6 007F			cmp	word ptr [bp-0Ah],7Fh
2926:1261  7F 03				jg	loc_147			; Jump if >
2926:1263  E9 0084				jmp	loc_153			; (12EA)
2926:1266			loc_147:					;  xref 2926:1261
2926:1266  8B 46 F4				mov	ax,[bp-0Ch]
2926:1269  48					dec	ax
2926:126A  89 46 F4				mov	[bp-0Ch],ax
2926:126D  8B 46 F6				mov	ax,[bp-0Ah]
2926:1270  93					xchg	bx,ax
2926:1271  B8 007F				mov	ax,7Fh
2926:1274  23 C3				and	ax,bx
2926:1276  89 46 F6				mov	[bp-0Ah],ax
2926:1279  8B 46 F4				mov	ax,[bp-0Ch]
2926:127C  93					xchg	bx,ax
2926:127D  8B 46 F6				mov	ax,[bp-0Ah]
2926:1280  03 C3				add	ax,bx
2926:1282  3D 2710				cmp	ax,2710h
2926:1285  7F 03				jg	loc_148			; Jump if >
2926:1287  E9 000E				jmp	loc_149			; (1298)
2926:128A			loc_148:					;  xref 2926:1285
2926:128A  B8 2710				mov	ax,2710h
2926:128D  50					push	ax
2926:128E  8B 46 F4				mov	ax,[bp-0Ch]
2926:1291  5B					pop	bx
2926:1292  2B D8				sub	bx,ax
2926:1294  93					xchg	bx,ax
2926:1295  89 46 F6				mov	[bp-0Ah],ax
2926:1298			loc_149:					;  xref 2926:1287
2926:1298  B8 0002				mov	ax,2
2926:129B  50					push	ax
2926:129C  8B 46 F6				mov	ax,[bp-0Ah]
2926:129F  5B					pop	bx
2926:12A0  93					xchg	bx,ax
2926:12A1  89 46 F2				mov	[bp-0Eh],ax
2926:12A4  93					xchg	bx,ax
2926:12A5  FF 4E F2				dec	word ptr [bp-0Eh]
2926:12A8  2B C3				sub	ax,bx
2926:12AA  40					inc	ax
2926:12AB  89 46 F0				mov	[bp-10h],ax
2926:12AE			loc_150:					;  xref 2926:12D3
2926:12AE úFF 46 F2				inc	word ptr [bp-0Eh]
2926:12B1  FF 4E F0				dec	word ptr [bp-10h]
2926:12B4  7D 03				jge	loc_151			; Jump if > or =
2926:12B6  E9 001C				jmp	loc_152			; (12D5)
2926:12B9			loc_151:					;  xref 2926:12B4
2926:12B9  C4 7E FA				les	di,dword ptr [bp-6]	; Load seg:offset ptr
2926:12BC  06					push	es
2926:12BD  57					push	di
2926:12BE  8B 46 F2				mov	ax,[bp-0Eh]
           ICON0.lst       ICON0.OVL		Sourcer	v8.01  20-Jul-2026 12:17 am   Page 47

2926:12C1  93					xchg	bx,ax
2926:12C2  8B 46 F4				mov	ax,[bp-0Ch]
2926:12C5  03 C3				add	ax,bx
2926:12C7  48					dec	ax
2926:12C8  5B					pop	bx
2926:12C9  03 C3				add	ax,bx
2926:12CB  97					xchg	di,ax
2926:12CC  8B 46 F8				mov	ax,[bp-8]
2926:12CF  07					pop	es
2926:12D0  26: 88 05				mov	es:[di],al
2926:12D3  EB D9				jmp	short loc_150		; (12AE)
2926:12D5			loc_152:					;  xref 2926:12B6
2926:12D5  8B 46 F4				mov	ax,[bp-0Ch]
2926:12D8  93					xchg	bx,ax
2926:12D9  8B 46 F6				mov	ax,[bp-0Ah]
2926:12DC  03 C3				add	ax,bx
2926:12DE  89 46 F4				mov	[bp-0Ch],ax
2926:12E1  8B 46 F8				mov	ax,[bp-8]
2926:12E4  89 46 F6				mov	[bp-0Ah],ax
2926:12E7  E9 001B				jmp	loc_154			; (1305)
2926:12EA			loc_153:					;  xref 2926:1263
2926:12EA  8B 46 F4				mov	ax,[bp-0Ch]
2926:12ED  40					inc	ax
2926:12EE  89 46 F4				mov	[bp-0Ch],ax
2926:12F1  C4 7E FA				les	di,dword ptr [bp-6]	; Load seg:offset ptr
2926:12F4  06					push	es
2926:12F5  57					push	di
2926:12F6  8B 46 F4				mov	ax,[bp-0Ch]
2926:12F9  48					dec	ax
2926:12FA  5B					pop	bx
2926:12FB  03 C3				add	ax,bx
2926:12FD  97					xchg	di,ax
2926:12FE  8B 46 F6				mov	ax,[bp-0Ah]
2926:1301  07					pop	es
2926:1302  26: 88 05				mov	es:[di],al
2926:1305			loc_154:					;  xref 2926:12E7
2926:1305  E9 FF1B				jmp	loc_144			; (1223)
2926:1308			loc_155:					;  xref 2926:1244
2926:1308  1E					push	ds
2926:1309  B8 2A5A				mov	ax,2A5Ah
2926:130C ú50					push	ax
2926:130D  B8 0080				mov	ax,80h
2926:1310  50					push	ax
2926:1311  1E					push	ds
2926:1312  B8 5E22				mov	ax,5E22h
2926:1315  50					push	ax
2926:1316  E8 3DAD				call	sub_220			; (50C6)
2926:1319  A0 2DA8				mov	al,ds:data_36e		; (2916:2DA8=45h)
2926:131C  32 E4				xor	ah,ah			; Zero register
2926:131E  3D 0066				cmp	ax,66h
2926:1321  74 03				je	loc_156			; Jump if equal
2926:1323  E9 0011				jmp	loc_157			; (1337)
2926:1326			loc_156:					;  xref 2926:1321
2926:1326  0E E8 0007				callf	sub_36			; (1331)
2926:132A  06					push	es
2926:132B  64 72 2E 64 61 74			db	 64h, 72h, 2Eh, 64h, 61h, 74h

           ICON0.lst       ICON0.OVL		Sourcer	v8.01  20-Jul-2026 12:17 am   Page 48

				;ßßßßßßßßßßßßßßßßßßßßßßßßßßßßßßßßßßßßßßßßßßßßßßßßßßßßßßßßßßßßßßßßßßßßßßßßßß
				;                              SUBROUTINE
				;
				;         Called from:   2926:1326
				;ÜÜÜÜÜÜÜÜÜÜÜÜÜÜÜÜÜÜÜÜÜÜÜÜÜÜÜÜÜÜÜÜÜÜÜÜÜÜÜÜÜÜÜÜÜÜÜÜÜÜÜÜÜÜÜÜÜÜÜÜÜÜÜÜÜÜÜÜÜÜÜÜÜÜ

2926:1331			sub_36		proc	near
2926:1331  E8 ED9B				call	sub_17			; (00CF)
2926:1334  E9 0024				jmp	loc_159			; (135B)
2926:1337			loc_157:					;  xref 2926:1323
2926:1337  0E E8 0007				callf	sub_37			; (1342)
2926:133B  06					push	es
2926:133C  44					inc	sp
2926:133D  72 61		;*		jc	loc_160			;*Jump if carry Set
2926:133D  72 61				db	 72h, 61h
2926:133F  67 6F 6E				db	 67h, 6Fh, 6Eh

				;ßßßß External Entry into Subroutine ßßßßßßßßßßßßßßßßßßßßßßßßßßßßßßßßßßßßßß
				;
				;         Called from:   2926:1337

2926:1342			sub_37:
2926:1342  E8 ED63				call	sub_5			; (00A8)
2926:1345  3D FFFF				cmp	ax,0FFFFh
2926:1348  75 03				jne	loc_158			; Jump if not equal
2926:134A  E9 000E				jmp	loc_159			; (135B)
2926:134D			loc_158:					;  xref 2926:1348
2926:134D  0E E8 0007				callf	sub_38			; (1358)
2926:1351  06					push	es
2926:1352  73 70		;*		jnc	loc_161			;*Jump if carry=0
2926:1352  73 70				db	 73h, 70h
2926:1354  2E 64 61 74				db	 2Eh, 64h, 61h, 74h

				;ßßßß External Entry into Subroutine ßßßßßßßßßßßßßßßßßßßßßßßßßßßßßßßßßßßßßß
				;
				;         Called from:   2926:134D

2926:1358			sub_38:
2926:1358  E8 ED74				call	sub_17			; (00CF)
2926:135B			loc_159:					;  xref 2926:1334, 134A
2926:135B  0E E8 000C				callf	sub_39			; (136B)
2926:135F  0B 6D 61				or	bp,[di+61h]
2926:1362  67 69 63 20 73 77			db	'gic sword'
2926:1368  6F 72 64

				;ßßßß External Entry into Subroutine ßßßßßßßßßßßßßßßßßßßßßßßßßßßßßßßßßßßßßß
				;
				;         Called from:   2926:135B

2926:136B			sub_39:
2926:136B  E8 ED3A				call	sub_5			; (00A8)
2926:136E  A3 31BC				mov	ds:data_37e,ax		; (2916:31BC=22h)
2926:1371  0E E8 000D				callf	sub_40			; (1382)
2926:1375  0C 62				or	al,62h			; 'b'
2926:1377  72 6F				jc	$+71h			; Jump if carry Set
2926:1379  6B 65 6E 20 73 77			db	'ken sword'
2926:137F  6F 72 64
           ICON0.lst       ICON0.OVL		Sourcer	v8.01  20-Jul-2026 12:17 am   Page 49


				;ßßßß External Entry into Subroutine ßßßßßßßßßßßßßßßßßßßßßßßßßßßßßßßßßßßßßß
				;
				;         Called from:   2926:1371

2926:1382			sub_40:
2926:1382  E8 ED23				call	sub_5			; (00A8)
2926:1385  A3 2078				mov	ds:data_25e,ax		; (2916:2078=0DB33h)
2926:1388  0E E8 0009				callf	sub_41			; (1395)
2926:138C  08 72 65				or	[bp+si+65h],dh
2926:138F  64 20 77 61 6E 64			db	 64h, 20h, 77h, 61h, 6Eh, 64h

				;ßßßß External Entry into Subroutine ßßßßßßßßßßßßßßßßßßßßßßßßßßßßßßßßßßßßßß
				;
				;         Called from:   2926:1388

2926:1395			sub_41:
2926:1395  E8 ED10				call	sub_5			; (00A8)
2926:1398  A3 5DF6				mov	ds:data_44e,ax		; (2916:5DF6=4005h)
2926:139B  0E E8 000A				callf	sub_42			; (13A9)
2926:139F  09 62 6C				or	[bp+si+6Ch],sp
2926:13A2  75 65				jnz	loc_163			; Jump if not zero
2926:13A4  20 77 61				and	[bx+61h],dh
2926:13A7  6E 64				db	 6Eh, 64h

				;ßßßß External Entry into Subroutine ßßßßßßßßßßßßßßßßßßßßßßßßßßßßßßßßßßßßßß
				;
				;         Called from:   2926:139B

2926:13A9			sub_42:
2926:13A9  E8 ECFC				call	sub_5			; (00A8)
2926:13AC  A3 2074				mov	ds:data_24e,ax		; (2916:2074=0CDFFh)
2926:13AF  0E E8 0006				callf	sub_43			; (13B9)
2926:13B3  05 7773				add	ax,7773h
2926:13B6  6F 72 64				db	 6Fh, 72h, 64h

				;ßßßß External Entry into Subroutine ßßßßßßßßßßßßßßßßßßßßßßßßßßßßßßßßßßßßßß
				;
				;         Called from:   2926:13AF

2926:13B9			sub_43:
2926:13B9  E8 ECEC				call	sub_5			; (00A8)
2926:13BC  A3 810A				mov	ds:data_49e,ax		; (2916:810A=0)
2926:13BF  0E E8 0006				callf	sub_44			; (13C9)
2926:13C3  05 6E61				add	ax,6E61h
2926:13C6  76 69				jbe	loc_164			; Jump if below or =
2926:13C8  6C					db	6Ch

				;ßßßß External Entry into Subroutine ßßßßßßßßßßßßßßßßßßßßßßßßßßßßßßßßßßßßßß
				;
				;         Called from:   2926:13BF

2926:13C9			sub_44:
2926:13C9  E8 ECDC				call	sub_5			; (00A8)
2926:13CC  A3 0128				mov	ds:data_21e,ax		; (2916:0128=0)
2926:13CF  0E E8 0007				callf	sub_45			; (13DA)
2926:13D3  06					push	es
           ICON0.lst       ICON0.OVL		Sourcer	v8.01  20-Jul-2026 12:17 am   Page 50

2926:13D4  68 61 6D 6D 65 72			db	 68h, 61h, 6Dh, 6Dh, 65h, 72h

				;ßßßß External Entry into Subroutine ßßßßßßßßßßßßßßßßßßßßßßßßßßßßßßßßßßßßßß
				;
				;         Called from:   2926:13CF

2926:13DA			sub_45:
2926:13DA  E8 ECCB				call	sub_5			; (00A8)
2926:13DD  A3 2BEE				mov	ds:data_32e,ax		; (2916:2BEE=0EC74h)
2926:13E0  0E E8 0005				callf	sub_46			; (13E9)
2926:13E4  04 72				add	al,72h			; 'r'
2926:13E6  69 6E 67				db	 69h, 6Eh, 67h

				;ßßßß External Entry into Subroutine ßßßßßßßßßßßßßßßßßßßßßßßßßßßßßßßßßßßßßß
				;
				;         Called from:   2926:13E0

2926:13E9			sub_46:
2926:13E9  E8 ECBC				call	sub_5			; (00A8)
2926:13EC  A3 5E24				mov	ds:data_46e,ax		; (2916:5E24=0B800h)
2926:13EF  0E E8 0006				callf	sub_47			; (13F9)
2926:13F3			loc_162:					;  xref 2926:1409
2926:13F3  05 7261				add	ax,7261h
2926:13F6  6D 6F 72				db	 6Dh, 6Fh, 72h

				;ßßßß External Entry into Subroutine ßßßßßßßßßßßßßßßßßßßßßßßßßßßßßßßßßßßßßß
				;
				;         Called from:   2926:13EF

2926:13F9			sub_47:
2926:13F9  E8 ECAC				call	sub_5			; (00A8)
2926:13FC  A3 012A				mov	ds:data_22e,ax		; (2916:012A=0)
2926:13FF  0E E8 0007		;*		callf	sub_48			;*(140A)
2926:13FF  0E E8 07 00				db	 0Eh,0E8h, 07h, 00h
2926:1403  06					push	es
2926:1404  68 65 6C 6D 65			db	 68h, 65h, 6Ch, 6Dh, 65h
2926:1409			loc_163:					;  xref 2926:13A2
2926:1409  74 E8				jz	loc_162			; Jump if zero
2926:140B  9B					fwait				; Wait til math done
2926:140C  EC					in	al,dx			; port 0, DMA-1 bas&add ch 0
2926:140D  A3 2BF0				mov	ds:data_33e,ax		; (2916:2BF0=513Ch)
2926:1410  0E E8 0007				callf	sub_49			; (141B)
2926:1414  06					push	es
2926:1415  73 68		;*		jnc	loc_166			;*Jump if carry=0
2926:1415  73 68				db	 73h, 68h
2926:1417  69 65 6C 64				db	 69h, 65h, 6Ch, 64h

				;ßßßß External Entry into Subroutine ßßßßßßßßßßßßßßßßßßßßßßßßßßßßßßßßßßßßßß
				;
				;         Called from:   2926:1410

2926:141B			sub_49:
2926:141B  E8 EC8A				call	sub_5			; (00A8)
2926:141E  A3 5E32				mov	ds:data_47e,ax		; (2916:5E32=0F946h)
2926:1421  0E E8 000C				callf	sub_50			; (1431)
2926:1425  0B 73 68				or	si,[bp+di+68h]
2926:1428  69 65 6C 64 20 62			db	'ield back'
           ICON0.lst       ICON0.OVL		Sourcer	v8.01  20-Jul-2026 12:17 am   Page 51

2926:142E  61 63 6B

				;ßßßß External Entry into Subroutine ßßßßßßßßßßßßßßßßßßßßßßßßßßßßßßßßßßßßßß
				;
				;         Called from:   2926:1421

2926:1431			sub_50:
2926:1431			loc_164:					;  xref 2926:13C6
2926:1431  E8 EC74				call	sub_5			; (00A8)
2926:1434  A3 5E34				mov	ds:data_48e,ax		; (2916:5E34=468Ah)
2926:1437  0E E8 0005				callf	sub_51			; (1440)
2926:143B  04 47				add	al,47h			; 'G'
2926:143D  69 72 6C				db	 69h, 72h, 6Ch

				;ßßßß External Entry into Subroutine ßßßßßßßßßßßßßßßßßßßßßßßßßßßßßßßßßßßßßß
				;
				;         Called from:   2926:1437

2926:1440			sub_51:
2926:1440  E8 EC65				call	sub_5			; (00A8)
2926:1443  A3 2BE8				mov	ds:data_30e,ax		; (2916:2BE8=4A3Ch)
2926:1446  0E E8 000F				callf	sub_52			; (1459)
2926:144A  0E					push	cs
2926:144B  77 68				ja	loc_169			; Jump if above
2926:144D  69 74 65 20 6D 75			db	'ite mushroom'
2926:1453  73 68 72 6F 6F 6D

				;ßßßß External Entry into Subroutine ßßßßßßßßßßßßßßßßßßßßßßßßßßßßßßßßßßßßßß
				;
				;         Called from:   2926:1446

2926:1459			sub_52:
2926:1459  E8 EC4C				call	sub_5			; (00A8)
2926:145C  A3 5A2C				mov	ds:data_40e,ax		; (2916:5A2C=83B3h)
2926:145F  0E E8 0006				callf	sub_53			; (1469)
2926:1463  05 7263				add	ax,7263h
2926:1466  6F 73 73				db	 6Fh, 73h, 73h

				;ßßßß External Entry into Subroutine ßßßßßßßßßßßßßßßßßßßßßßßßßßßßßßßßßßßßßß
				;
				;         Called from:   2926:145F

2926:1469			sub_53:
2926:1469  E8 EC3C				call	sub_5			; (00A8)
2926:146C  A3 298E				mov	ds:data_28e,ax		; (2916:298E=0B00h)
2926:146F  A0 2DA8				mov	al,ds:data_36e		; (2916:2DA8=45h)
2926:1472  32 E4				xor	ah,ah			; Zero register
2926:1474  3D 0066				cmp	ax,66h
2926:1477  74 03				je	loc_165			; Jump if equal
2926:1479  E9 0009				jmp	loc_167			; (1485)
2926:147C			loc_165:					;  xref 2926:1477
2926:147C  C7 06 2BEA FFFF			mov	word ptr ds:data_31e,0FFFFh	; (2916:2BEA=0F074h)
2926:1482  E9 000F				jmp	loc_168			; (1494)
2926:1485			loc_167:					;  xref 2926:1479
2926:1485  0E E8 0005				callf	sub_54			; (148E)
2926:1489  04 67				add	al,67h			; 'g'
2926:148B  6F 6C 64				db	 6Fh, 6Ch, 64h
           ICON0.lst       ICON0.OVL		Sourcer	v8.01  20-Jul-2026 12:17 am   Page 52


				;ßßßß External Entry into Subroutine ßßßßßßßßßßßßßßßßßßßßßßßßßßßßßßßßßßßßßß
				;
				;         Called from:   2926:1485

2926:148E			sub_54:
2926:148E  E8 EC17				call	sub_5			; (00A8)
2926:1491  A3 2BEA				mov	ds:data_31e,ax		; (2916:2BEA=0F074h)
2926:1494			loc_168:					;  xref 2926:1120, 1482
2926:1494  8A 46 04				mov	al,[bp+4]
2926:1497  32 E4				xor	ah,ah			; Zero register
2926:1499  50					push	ax
2926:149A  E8 EC26				call	sub_13			; (00C3)
2926:149D  E8 5C97				call	sub_278			; (7137)
2926:14A0  B8 006D				mov	ax,6Dh
2926:14A3  50					push	ax
2926:14A4  E8 5C93				call	sub_279			; (713A)
2926:14A7  A0 2DA8				mov	al,ds:data_36e		; (2916:2DA8=45h)
2926:14AA  32 E4				xor	ah,ah			; Zero register
2926:14AC  50					push	ax
2926:14AD  E8 5C8A				call	sub_279			; (713A)
2926:14B0  1E					push	ds
2926:14B1  B8 2A54				mov	ax,2A54h
2926:14B4  50					push	ax
2926:14B5			loc_169:					;  xref 2926:144B
2926:14B5  E8 5C85				call	sub_280			; (713D)
2926:14B8  E8 5C79				call	sub_277			; (7134)
2926:14BB  53					push	bx
2926:14BC  50					push	ax
2926:14BD  E8 EC09				call	sub_15			; (00C9)
2926:14C0  A0 5E20				mov	al,ds:data_45e		; (2916:5E20=74h)
2926:14C3  D0 D8				rcr	al,1			; Rotate thru carry
2926:14C5  72 03				jc	loc_170			; Jump if carry Set
2926:14C7  E9 0006				jmp	loc_171			; (14D0)
2926:14CA			loc_170:					;  xref 2926:14C5
2926:14CA  E8 EBFF				call	sub_16			; (00CC)
2926:14CD  E9 0005				jmp	loc_172			; (14D5)
2926:14D0			loc_171:					;  xref 2926:14C7
2926:14D0  C6 06 8226 00			mov	byte ptr ds:data_50e,0	; (2916:8226=0)
2926:14D5			loc_172:					;  xref 2926:14CD
2926:14D5  A0 2DA8				mov	al,ds:data_36e		; (2916:2DA8=45h)
2926:14D8  32 E4				xor	ah,ah			; Zero register
2926:14DA  3D 0061				cmp	ax,61h
2926:14DD  74 03				je	loc_173			; Jump if equal
2926:14DF  E9 001A				jmp	loc_174			; (14FC)
2926:14E2			loc_173:					;  xref 2926:14DD
2926:14E2  B8 001E				mov	ax,1Eh
2926:14E5  50					push	ax
2926:14E6  B8 0001				mov	ax,1
2926:14E9  50					push	ax
2926:14EA  B8 0002				mov	ax,2
2926:14ED  50					push	ax
2926:14EE  B8 0004				mov	ax,4
2926:14F1  50					push	ax
2926:14F2  B8 000D				mov	ax,0Dh
2926:14F5  50					push	ax
2926:14F6  E8 EBD9				call	sub_18			; (00D2)
           ICON0.lst       ICON0.OVL		Sourcer	v8.01  20-Jul-2026 12:17 am   Page 53

2926:14F9  E9 0015				jmp	loc_175			; (1511)
2926:14FC			loc_174:					;  xref 2926:14DF
2926:14FC  B8 001E				mov	ax,1Eh
2926:14FF  50					push	ax
2926:1500  B8 0000				mov	ax,0
2926:1503  50					push	ax
2926:1504  B8 0004				mov	ax,4
2926:1507  50					push	ax
2926:1508  E8 EBCA				call	sub_19			; (00D5)
2926:150B  A1 31BE				mov	ax,ds:data_38e		; (2916:31BE=2E21h)
2926:150E  A3 5A26				mov	ds:data_39e,ax		; (2916:5A26=0E900h)
2926:1511			loc_175:					;  xref 2926:14F9
2926:1511  8B E5				mov	sp,bp
2926:1513  5D					pop	bp
2926:1514  C2 0002				retn	2
				sub_36		endp

2926:1517			loc_176:					;  xref 2926:00C9
2926:1517  55					push	bp
2926:1518  8B EC				mov	bp,sp
2926:151A  55					push	bp
2926:151B  81 EC 0075				sub	sp,75h
2926:151F  16					push	ss
2926:1520  8D 46 AD				lea	ax,[bp-53h]		; Load effective addr
2926:1523  50					push	ax
2926:1524  8B 46 06				mov	ax,[bp+6]
2926:1527  50					push	ax
2926:1528  8B 46 04				mov	ax,[bp+4]
2926:152B  50					push	ax
2926:152C  B8 0051				mov	ax,51h
2926:152F  50					push	ax
2926:1530  E8 397B				call	sub_215			; (4EAE)
2926:1533  C7 06 5A9A 0000			mov	word ptr ds:[5A9Ah],0	; (2926:5A9A=0FF3Dh)
2926:1539  C7 06 8222 0000			mov	word ptr ds:data_297e,0	; (2926:8222=0)
2926:153F  C7 06 2A44 FFFF			mov	data_124,0FFFFh		; (2926:2A44=6170h)
2926:1545  C7 06 2A4A FFFF			mov	data_127,0FFFFh		; (2926:2A4A=7261h)
2926:154B  C7 06 2BE4 FFFF			mov	word ptr ds:[2BE4h],0FFFFh	; (2926:2BE4=8A8h)
2926:1551  C7 06 2BE6 FFFF			mov	word ptr ds:[2BE6h],0FFFFh	; (2926:2BE6=675h)
2926:1557  C7 06 2072 FFFF			mov	word ptr ds:[2072h],0FFFFh	; (2926:2072=0EEBh)
2926:155D  A0 5E20				mov	al,byte ptr ds:[5E20h]	; (2926:5E20=0)
2926:1560  32 E4				xor	ah,ah			; Zero register
2926:1562  F7 D0				not	ax
2926:1564  D0 D8				rcr	al,1			; Rotate thru carry
2926:1566  72 03				jc	loc_177			; Jump if carry Set
2926:1568  E9 0006				jmp	loc_178			; (1571)
2926:156B			loc_177:					;  xref 2926:1566
2926:156B  C7 06 2A46 FFFF			mov	data_125,0FFFFh		; (2926:2A46=6563h)
2926:1571			loc_178:					;  xref 2926:1568
2926:1571  1E					push	ds
2926:1572  B8 29FC				mov	ax,29FCh
2926:1575  50					push	ax
2926:1576  B8 0001				mov	ax,1
2926:1579  50					push	ax
2926:157A  16					push	ss
2926:157B  8D 46 AD				lea	ax,[bp-53h]		; Load effective addr
2926:157E  50					push	ax
2926:157F  E8 5F3E				call	sub_295			; (74C0)
           ICON0.lst       ICON0.OVL		Sourcer	v8.01  20-Jul-2026 12:17 am   Page 54

2926:1582  1E					push	ds
2926:1583  B8 29FC				mov	ax,29FCh
2926:1586 ú50					push	ax
2926:1587  B8 FFFF				mov	ax,0FFFFh
2926:158A  50					push	ax
2926:158B  E8 3959				call	sub_216			; (4EE7)
2926:158E  16					push	ss
2926:158F  8D 46 AD				lea	ax,[bp-53h]		; Load effective addr
2926:1592  50					push	ax
2926:1593  E8 EB2A				call	sub_12			; (00C0)
2926:1596			loc_179:					;  xref 2926:15D7
2926:1596 ú1E					push	ds
2926:1597  B8 29FC				mov	ax,29FCh
2926:159A ú50					push	ax
2926:159B  B8 0001				mov	ax,1
2926:159E  50					push	ax
2926:159F  E8 4B9E				call	sub_251			; (6140)
2926:15A2  F7 D0				not	ax
2926:15A4  50					push	ax
2926:15A5  A1 5A9A				mov	ax,word ptr ds:[5A9Ah]	; (2926:5A9A=0FF3Dh)
2926:15A8  3D 000D				cmp	ax,0Dh
2926:15AB  B8 0000				mov	ax,0
2926:15AE  7D 01				jge	loc_180			; Jump if > or =
2926:15B0  40					inc	ax
2926:15B1			loc_180:					;  xref 2926:15AE
2926:15B1  5B					pop	bx
2926:15B2  23 C3				and	ax,bx
2926:15B4  D0 D8				rcr	al,1			; Rotate thru carry
2926:15B6  72 03				jc	loc_181			; Jump if carry Set
2926:15B8  E9 001E				jmp	loc_182			; (15D9)
2926:15BB			loc_181:					;  xref 2926:15B6
2926:15BB  A1 5A9A				mov	ax,word ptr ds:[5A9Ah]	; (2926:5A9A=0FF3Dh)
2926:15BE  40					inc	ax
2926:15BF  A3 5A9A				mov	word ptr ds:[5A9Ah],ax	; (2926:5A9A=0FF3Dh)
2926:15C2  1E					push	ds
2926:15C3  B8 58EC				mov	ax,58ECh
2926:15C6  50					push	ax
2926:15C7  A1 5A9A				mov	ax,word ptr ds:[5A9Ah]	; (2926:5A9A=0FF3Dh)
2926:15CA  48					dec	ax
2926:15CB  BB 0018				mov	bx,18h
2926:15CE  F7 E3				mul	bx			; dx:ax = reg * ax
2926:15D0  5B					pop	bx
2926:15D1  03 C3				add	ax,bx
2926:15D3  50					push	ax
2926:15D4  E8 EAE3				call	sub_10			; (00BA)
2926:15D7  EB BD				jmp	short loc_179		; (1596)
2926:15D9			loc_182:					;  xref 2926:15B8
2926:15D9  1E					push	ds
2926:15DA  B8 29FC				mov	ax,29FCh
2926:15DD ú50					push	ax
2926:15DE  B8 0001				mov	ax,1
2926:15E1  50					push	ax
2926:15E2  16					push	ss
2926:15E3  8D 46 AB				lea	ax,[bp-55h]		; Load effective addr
2926:15E6  50					push	ax
2926:15E7  E8 3ADC				call	sub_220			; (50C6)
2926:15EA  A1 2A4A				mov	ax,ds:data_29e		; (2916:2A4A=7441h)
           ICON0.lst       ICON0.OVL		Sourcer	v8.01  20-Jul-2026 12:17 am   Page 55

2926:15ED  3D FFFF				cmp	ax,0FFFFh
2926:15F0  75 03				jne	loc_183			; Jump if not equal
2926:15F2  E9 0035				jmp	loc_184			; (162A)
2926:15F5			loc_183:					;  xref 2926:15F0
2926:15F5  1E					push	ds
2926:15F6  B8 58EC				mov	ax,58ECh
2926:15F9  50					push	ax
2926:15FA  A1 2A4A				mov	ax,ds:data_29e		; (2916:2A4A=7441h)
2926:15FD  48					dec	ax
2926:15FE  BB 0018				mov	bx,18h
2926:1601  F7 E3				mul	bx			; dx:ax = reg * ax
2926:1603  5B					pop	bx
2926:1604  03 C3				add	ax,bx
2926:1606  05 0013				add	ax,13h
2926:1609  97					xchg	di,ax
2926:160A  07					pop	es
2926:160B  26: C6 05 01				mov	byte ptr es:[di],1
2926:160F  1E					push	ds
2926:1610  B8 58EC				mov	ax,58ECh
2926:1613  50					push	ax
2926:1614  A1 2A4A				mov	ax,ds:data_29e		; (2916:2A4A=7441h)
2926:1617  40					inc	ax
2926:1618  48					dec	ax
2926:1619  BB 0018				mov	bx,18h
2926:161C  F7 E3				mul	bx			; dx:ax = reg * ax
2926:161E  5B					pop	bx
2926:161F  03 C3				add	ax,bx
2926:1621  05 0013				add	ax,13h
2926:1624  97					xchg	di,ax
2926:1625  07					pop	es
2926:1626  26: C6 05 01				mov	byte ptr es:[di],1
2926:162A			loc_184:					;  xref 2926:15F2
2926:162A  8B E5				mov	sp,bp
2926:162C  5D					pop	bp
2926:162D  C2 0004				retn	4
2926:1630			loc_185:					;  xref 2926:00CC
2926:1630  55					push	bp
2926:1631  8B EC				mov	bp,sp
2926:1633  55					push	bp
2926:1634  81 EC 0036				sub	sp,36h
2926:1638  1E					push	ds
2926:1639  B8 826D				mov	ax,826Dh
2926:163C  50					push	ax
2926:163D  E8 EA6E				call	sub_7			; (00AE)
2926:1640  C7 46 FA 0000			mov	word ptr [bp-6],0
2926:1645  C7 46 D4 0082			mov	word ptr [bp-2Ch],82h
2926:164A			loc_186:					;  xref 2926:1699
2926:164A úFF 46 FA				inc	word ptr [bp-6]
2926:164D  FF 4E D4				dec	word ptr [bp-2Ch]
2926:1650  7D 03				jge	loc_187			; Jump if > or =
2926:1652  E9 0046				jmp	loc_188			; (169B)
2926:1655			loc_187:					;  xref 2926:1650
2926:1655  1E					push	ds
2926:1656  B8 5A9C				mov	ax,5A9Ch
2926:1659  50					push	ax
2926:165A  8B 46 FA				mov	ax,[bp-6]
2926:165D  48					dec	ax
           ICON0.lst       ICON0.OVL		Sourcer	v8.01  20-Jul-2026 12:17 am   Page 56

2926:165E  BB 0006				mov	bx,6
2926:1661  F7 E3				mul	bx			; dx:ax = reg * ax
2926:1663  5B					pop	bx
2926:1664  03 C3				add	ax,bx
2926:1666  50					push	ax
2926:1667  E8 EA44				call	sub_7			; (00AE)
2926:166A  1E					push	ds
2926:166B  B8 5A9C				mov	ax,5A9Ch
2926:166E  50					push	ax
2926:166F  8B 46 FA				mov	ax,[bp-6]
2926:1672  48					dec	ax
2926:1673  BB 0006				mov	bx,6
2926:1676  F7 E3				mul	bx			; dx:ax = reg * ax
2926:1678  5B					pop	bx
2926:1679  03 C3				add	ax,bx
2926:167B  40					inc	ax
2926:167C  40					inc	ax
2926:167D  50					push	ax
2926:167E  E8 EA2D				call	sub_7			; (00AE)
2926:1681  1E					push	ds
2926:1682  B8 5A9C				mov	ax,5A9Ch
2926:1685  50					push	ax
2926:1686  8B 46 FA				mov	ax,[bp-6]
2926:1689  48					dec	ax
2926:168A  BB 0006				mov	bx,6
2926:168D  F7 E3				mul	bx			; dx:ax = reg * ax
2926:168F  5B					pop	bx
2926:1690  03 C3				add	ax,bx
2926:1692  05 0004				add	ax,4
2926:1695  50					push	ax
2926:1696  E8 EA15				call	sub_7			; (00AE)
2926:1699  EB AF				jmp	short loc_186		; (164A)
2926:169B			loc_188:					;  xref 2926:1652
2926:169B  C7 46 FA 0010			mov	word ptr [bp-6],10h
2926:16A0  C7 46 D2 0010			mov	word ptr [bp-2Eh],10h
2926:16A5			loc_189:					;  xref 2926:172B
2926:16A5 úFF 46 FA				inc	word ptr [bp-6]
2926:16A8  FF 4E D2				dec	word ptr [bp-2Eh]
2926:16AB  7D 03				jge	loc_190			; Jump if > or =
2926:16AD  E9 007E				jmp	loc_194			; (172E)
2926:16B0			loc_190:					;  xref 2926:16AB
2926:16B0  C7 46 FC FFFF			mov	word ptr [bp-4],0FFFFh
2926:16B5  C7 46 D0 0002			mov	word ptr [bp-30h],2
2926:16BA			loc_191:					;  xref 2926:1729
2926:16BA úFF 46 FC				inc	word ptr [bp-4]
2926:16BD  FF 4E D0				dec	word ptr [bp-30h]
2926:16C0  7D 03				jge	loc_192			; Jump if > or =
2926:16C2  E9 0066				jmp	loc_193			; (172B)
2926:16C5			loc_192:					;  xref 2926:16C0
2926:16C5  16					push	ss
2926:16C6  8D 46 F8				lea	ax,[bp-8]		; Load effective addr
2926:16C9  50					push	ax
2926:16CA  E8 E9E1				call	sub_7			; (00AE)
2926:16CD  1E					push	ds
2926:16CE  B8 2906				mov	ax,2906h
2926:16D1  50					push	ax
2926:16D2  FF 76 FA				push	word ptr [bp-6]
           ICON0.lst       ICON0.OVL		Sourcer	v8.01  20-Jul-2026 12:17 am   Page 57

2926:16D5  58					pop	ax
2926:16D6 úBB 0004		;*		mov	bx,offset loc_4		;*
2926:16D6  BB 04 00				db	0BBh, 04h, 00h
2926:16D9  F7 E3				mul	bx			; dx:ax = reg * ax
2926:16DB  5B					pop	bx
2926:16DC  03 C3				add	ax,bx
2926:16DE  50					push	ax
2926:16DF  8B 46 FC				mov	ax,[bp-4]
2926:16E2  93					xchg	bx,ax
2926:16E3  B8 0002				mov	ax,2
2926:16E6  F7 EB				imul	bx			; dx:ax = reg * ax
2926:16E8  5B					pop	bx
2926:16E9  03 C3				add	ax,bx
2926:16EB  50					push	ax
2926:16EC  FF 76 F8				push	word ptr [bp-8]
2926:16EF  B8 0008				mov	ax,8
2926:16F2  50					push	ax
2926:16F3  E8 5CD9				call	sub_286			; (73CF)
2926:16F6  5F					pop	di
2926:16F7  07					pop	es
2926:16F8  26: 88 05				mov	es:[di],al
2926:16FB  1E					push	ds
2926:16FC  B8 2906				mov	ax,2906h
2926:16FF  50					push	ax
2926:1700  FF 76 FA				push	word ptr [bp-6]
2926:1703  58					pop	ax
2926:1704  BB 0004				mov	bx,4
2926:1707  F7 E3				mul	bx			; dx:ax = reg * ax
2926:1709  5B					pop	bx
2926:170A  03 C3				add	ax,bx
2926:170C  50					push	ax
2926:170D  8B 46 FC				mov	ax,[bp-4]
2926:1710  93					xchg	bx,ax
2926:1711  B8 0002				mov	ax,2
2926:1714  F7 EB				imul	bx			; dx:ax = reg * ax
2926:1716  40					inc	ax
2926:1717  5B					pop	bx
2926:1718  03 C3				add	ax,bx
2926:171A  50					push	ax
2926:171B  8B 46 F8				mov	ax,[bp-8]
2926:171E  93					xchg	bx,ax
2926:171F  B8 00FF				mov	ax,0FFh
2926:1722  23 C3				and	ax,bx
2926:1724  5F					pop	di
2926:1725  07					pop	es
2926:1726  26: 88 05				mov	es:[di],al
2926:1729  EB 8F				jmp	short loc_191		; (16BA)
2926:172B			loc_193:					;  xref 2926:16C2
2926:172B  E9 FF77				jmp	loc_189			; (16A5)
2926:172E			loc_194:					;  xref 2926:16AD
2926:172E  1E					push	ds
2926:172F  B8 5A32				mov	ax,5A32h
2926:1732  50					push	ax
2926:1733  E8 E978				call	sub_7			; (00AE)
2926:1736  1E					push	ds
2926:1737  B8 5A34				mov	ax,5A34h
2926:173A  50					push	ax
           ICON0.lst       ICON0.OVL		Sourcer	v8.01  20-Jul-2026 12:17 am   Page 58

2926:173B  E8 E970				call	sub_7			; (00AE)
2926:173E  1E					push	ds
2926:173F  B8 5DAA				mov	ax,5DAAh
2926:1742  50					push	ax
2926:1743  E8 E968				call	sub_7			; (00AE)
2926:1746  1E					push	ds
2926:1747  B8 5DAC				mov	ax,5DACh
2926:174A  50					push	ax
2926:174B  E8 E960				call	sub_7			; (00AE)
2926:174E  1E					push	ds
2926:174F  B8 822A				mov	ax,822Ah
2926:1752  50					push	ax
2926:1753  E8 E958				call	sub_7			; (00AE)
2926:1756  1E					push	ds
2926:1757  B8 822E				mov	ax,822Eh
2926:175A  50					push	ax
2926:175B  E8 E950				call	sub_7			; (00AE)
2926:175E  1E					push	ds
2926:175F  B8 29F8				mov	ax,29F8h
2926:1762  50					push	ax
2926:1763  E8 E948				call	sub_7			; (00AE)
2926:1766  1E					push	ds
2926:1767  B8 29FA				mov	ax,29FAh
2926:176A  50					push	ax
2926:176B  E8 E940				call	sub_7			; (00AE)
2926:176E  1E					push	ds
2926:176F  B8 31C2				mov	ax,31C2h
2926:1772  50					push	ax
2926:1773  E8 E938				call	sub_7			; (00AE)
2926:1776  1E					push	ds
2926:1777  B8 8228				mov	ax,8228h
2926:177A  50					push	ax
2926:177B  E8 E930				call	sub_7			; (00AE)
2926:177E  1E					push	ds
2926:177F  B8 2BEC				mov	ax,2BECh
2926:1782  50					push	ax
2926:1783  E8 E928				call	sub_7			; (00AE)
2926:1786  1E					push	ds
2926:1787  B8 31D0				mov	ax,31D0h
2926:178A  50					push	ax
2926:178B  E8 E920				call	sub_7			; (00AE)
2926:178E  1E					push	ds
2926:178F  B8 31D2				mov	ax,31D2h
2926:1792  50					push	ax
2926:1793  E8 E918				call	sub_7			; (00AE)
2926:1796  1E					push	ds
2926:1797  B8 8222				mov	ax,8222h
2926:179A  50					push	ax
2926:179B  E8 E910				call	sub_7			; (00AE)
2926:179E  C7 46 FA 0046			mov	word ptr [bp-6],46h
2926:17A3  C7 46 CE 003C			mov	word ptr [bp-32h],3Ch
2926:17A8			loc_195:					;  xref 2926:17FD
2926:17A8 úFF 46 FA				inc	word ptr [bp-6]
2926:17AB  FF 4E CE				dec	word ptr [bp-32h]
2926:17AE  7D 03				jge	loc_196			; Jump if > or =
2926:17B0  E9 004C				jmp	loc_197			; (17FF)
2926:17B3			loc_196:					;  xref 2926:17AE
           ICON0.lst       ICON0.OVL		Sourcer	v8.01  20-Jul-2026 12:17 am   Page 59

2926:17B3  1E					push	ds
2926:17B4  B8 2C1A				mov	ax,2C1Ah
2926:17B7  50					push	ax
2926:17B8  8B 46 FA				mov	ax,[bp-6]
2926:17BB  2D 0047				sub	ax,47h
2926:17BE  BB 0006				mov	bx,6
2926:17C1  F7 E3				mul	bx			; dx:ax = reg * ax
2926:17C3  5B					pop	bx
2926:17C4  03 C3				add	ax,bx
2926:17C6  50					push	ax
2926:17C7  E8 E8E4				call	sub_7			; (00AE)
2926:17CA  1E					push	ds
2926:17CB  B8 2C1A				mov	ax,2C1Ah
2926:17CE  50					push	ax
2926:17CF  8B 46 FA				mov	ax,[bp-6]
2926:17D2  2D 0047				sub	ax,47h
2926:17D5  BB 0006				mov	bx,6
2926:17D8  F7 E3				mul	bx			; dx:ax = reg * ax
2926:17DA  5B					pop	bx
2926:17DB  03 C3				add	ax,bx
2926:17DD  40					inc	ax
2926:17DE  40					inc	ax
2926:17DF  50					push	ax
2926:17E0  E8 E8CB				call	sub_7			; (00AE)
2926:17E3  1E					push	ds
2926:17E4  B8 2C1A				mov	ax,2C1Ah
2926:17E7  50					push	ax
2926:17E8  8B 46 FA				mov	ax,[bp-6]
2926:17EB  2D 0047				sub	ax,47h
2926:17EE  BB 0006				mov	bx,6
2926:17F1  F7 E3				mul	bx			; dx:ax = reg * ax
2926:17F3  5B					pop	bx
2926:17F4  03 C3				add	ax,bx
2926:17F6  05 0004				add	ax,4
2926:17F9  50					push	ax
2926:17FA  E8 E8B1				call	sub_7			; (00AE)
2926:17FD  EB A9				jmp	short loc_195		; (17A8)
2926:17FF			loc_197:					;  xref 2926:17B0
2926:17FF  1E					push	ds
2926:1800  B8 2B24				mov	ax,2B24h
2926:1803 ú50					push	ax
2926:1804  B8 0080				mov	ax,80h
2926:1807  50					push	ax
2926:1808  E8 4A93				call	sub_253			; (629E)
2926:180B  05 0051				add	ax,51h
2926:180E  89 46 F8				mov	[bp-8],ax
2926:1811  8B 46 F8				mov	ax,[bp-8]
2926:1814  50					push	ax
2926:1815  A0 2DA8				mov	al,data_147		; (2926:2DA8=6Eh)
2926:1818  32 E4				xor	ah,ah			; Zero register
2926:181A  5B					pop	bx
2926:181B  3B D8				cmp	bx,ax
2926:181D  75 03				jne	loc_198			; Jump if not equal
2926:181F  E9 0003				jmp	loc_199			; (1825)
2926:1822			loc_198:					;  xref 2926:181D
2926:1822  E8 E87D				call	sub_3			; (00A2)
2926:1825			loc_199:					;  xref 2926:181F
           ICON0.lst       ICON0.OVL		Sourcer	v8.01  20-Jul-2026 12:17 am   Page 60

2926:1825  16					push	ss
2926:1826  8D 46 F8				lea	ax,[bp-8]		; Load effective addr
2926:1829  50					push	ax
2926:182A  E8 E881				call	sub_7			; (00AE)
2926:182D  81 7E F8 0001			cmp	word ptr [bp-8],1
2926:1832  B8 0000				mov	ax,0
2926:1835  75 01				jnz	loc_200			; Jump if not zero
2926:1837  40					inc	ax
2926:1838			loc_200:					;  xref 2926:1835
2926:1838  A2 8226				mov	ds:data_299e,al		; (2926:8226=0)
2926:183B  16					push	ss
2926:183C  8D 46 F8				lea	ax,[bp-8]		; Load effective addr
2926:183F  50					push	ax
2926:1840  E8 E86B				call	sub_7			; (00AE)
2926:1843  81 7E F8 0001			cmp	word ptr [bp-8],1
2926:1848  B8 0000				mov	ax,0
2926:184B  75 01				jnz	loc_201			; Jump if not zero
2926:184D  40					inc	ax
2926:184E			loc_201:					;  xref 2926:184B
2926:184E  A2 298C				mov	data_116,al		; (2926:298C=68h)
2926:1851  16					push	ss
2926:1852  8D 46 F8				lea	ax,[bp-8]		; Load effective addr
2926:1855  50					push	ax
2926:1856  E8 E855				call	sub_7			; (00AE)
2926:1859  C6 06 2A3E 00			mov	byte ptr data_122,0	; (2926:2A3E=65h)
2926:185E  16					push	ss
2926:185F  8D 46 F8				lea	ax,[bp-8]		; Load effective addr
2926:1862  50					push	ax
2926:1863  E8 E848				call	sub_7			; (00AE)
2926:1866  81 7E F8 0001			cmp	word ptr [bp-8],1
2926:186B  B8 0000				mov	ax,0
2926:186E  75 01				jnz	loc_202			; Jump if not zero
2926:1870  40					inc	ax
2926:1871			loc_202:					;  xref 2926:186E
2926:1871  A2 2DAA				mov	byte ptr data_148,al	; (2926:2DAA='ring of great')
2926:1874  1E					push	ds
2926:1875  B8 2076				mov	ax,2076h
2926:1878  50					push	ax
2926:1879  E8 E832				call	sub_7			; (00AE)
2926:187C  1E					push	ds
2926:187D  B8 5A2A				mov	ax,5A2Ah
2926:1880  50					push	ax
2926:1881  E8 E82A				call	sub_7			; (00AE)
2926:1884  1E					push	ds
2926:1885  B8 5DE2				mov	ax,5DE2h
2926:1888  50					push	ax
2926:1889  E8 E822				call	sub_7			; (00AE)
2926:188C  16					push	ss
2926:188D  8D 46 F8				lea	ax,[bp-8]		; Load effective addr
2926:1890  50					push	ax
2926:1891  E8 E81A				call	sub_7			; (00AE)
2926:1894  8B 46 F8				mov	ax,[bp-8]
2926:1897  50					push	ax
2926:1898  A1 5E2E				mov	ax,word ptr ds:[5E2Eh]	; (2926:5E2E=0F946h)
2926:189B  F7 D8				neg	ax
2926:189D  5B					pop	bx
2926:189E  3B D8				cmp	bx,ax
           ICON0.lst       ICON0.OVL		Sourcer	v8.01  20-Jul-2026 12:17 am   Page 61

2926:18A0  75 03				jne	loc_203			; Jump if not equal
2926:18A2  E9 0003				jmp	loc_204			; (18A8)
2926:18A5			loc_203:					;  xref 2926:18A0
2926:18A5  E8 E7FA				call	sub_3			; (00A2)
2926:18A8			loc_204:					;  xref 2926:18A2
2926:18A8  1E					push	ds
2926:18A9  B8 2A50				mov	ax,2A50h
2926:18AC  50					push	ax
2926:18AD  E8 E7FE				call	sub_7			; (00AE)
2926:18B0  1E					push	ds
2926:18B1  B8 2A52				mov	ax,2A52h
2926:18B4  50					push	ax
2926:18B5  E8 E7F6				call	sub_7			; (00AE)
2926:18B8  1E					push	ds
2926:18B9  B8 2A4C				mov	ax,2A4Ch
2926:18BC  50					push	ax
2926:18BD  E8 E7EE				call	sub_7			; (00AE)
2926:18C0  1E					push	ds
2926:18C1  B8 2A4E				mov	ax,2A4Eh
2926:18C4  50					push	ax
2926:18C5  E8 E7E6				call	sub_7			; (00AE)
2926:18C8  1E					push	ds
2926:18C9  B8 2B1A				mov	ax,2B1Ah
2926:18CC  50					push	ax
2926:18CD  E8 E7DE				call	sub_7			; (00AE)
2926:18D0  1E					push	ds
2926:18D1  B8 2B1C				mov	ax,2B1Ch
2926:18D4  50					push	ax
2926:18D5  E8 E7D6				call	sub_7			; (00AE)
2926:18D8  C7 46 FA 0046			mov	word ptr [bp-6],46h
2926:18DD  C7 46 CC 0014			mov	word ptr [bp-34h],14h
2926:18E2			loc_205:					;  xref 2926:1915
2926:18E2 úFF 46 FA				inc	word ptr [bp-6]
2926:18E5  FF 4E CC				dec	word ptr [bp-34h]
2926:18E8  7D 03				jge	loc_206			; Jump if > or =
2926:18EA  E9 002A				jmp	loc_207			; (1917)
2926:18ED			loc_206:					;  xref 2926:18E8
2926:18ED  1E					push	ds
2926:18EE  B8 5DF8				mov	ax,5DF8h
2926:18F1  50					push	ax
2926:18F2  8B 46 FA				mov	ax,[bp-6]
2926:18F5  2D 0047				sub	ax,47h
2926:18F8  D1 E0				shl	ax,1			; Shift w/zeros fill
2926:18FA  5B					pop	bx
2926:18FB  03 C3				add	ax,bx
2926:18FD  50					push	ax
2926:18FE  E8 E7AD				call	sub_7			; (00AE)
2926:1901  1E					push	ds
2926:1902  B8 5DB0				mov	ax,5DB0h
2926:1905  50					push	ax
2926:1906  8B 46 FA				mov	ax,[bp-6]
2926:1909  2D 0047				sub	ax,47h
2926:190C  D1 E0				shl	ax,1			; Shift w/zeros fill
2926:190E  5B					pop	bx
2926:190F  03 C3				add	ax,bx
2926:1911  50					push	ax
2926:1912  E8 E799				call	sub_7			; (00AE)
           ICON0.lst       ICON0.OVL		Sourcer	v8.01  20-Jul-2026 12:17 am   Page 62

2926:1915  EB CB				jmp	short loc_205		; (18E2)
2926:1917			loc_207:					;  xref 2926:18EA
2926:1917  C7 46 FA 000A			mov	word ptr [bp-6],0Ah
2926:191C  C7 46 CA 0050			mov	word ptr [bp-36h],50h
2926:1921			loc_208:					;  xref 2926:19F1
2926:1921 úFF 46 FA				inc	word ptr [bp-6]
2926:1924  FF 4E CA				dec	word ptr [bp-36h]
2926:1927  7D 03				jge	loc_209			; Jump if > or =
2926:1929  E9 00C8				jmp	loc_210			; (19F4)
2926:192C			loc_209:					;  xref 2926:1927
2926:192C  1E					push	ds
2926:192D  B8 2DAC				mov	ax,2DACh
2926:1930  50					push	ax
2926:1931  8B 46 FA				mov	ax,[bp-6]
2926:1934  2D 000B				sub	ax,0Bh
2926:1937  BB 000D				mov	bx,0Dh
2926:193A  F7 E3				mul	bx			; dx:ax = reg * ax
2926:193C  5B					pop	bx
2926:193D  03 C3				add	ax,bx
2926:193F  40					inc	ax
2926:1940  40					inc	ax
2926:1941  50					push	ax
2926:1942  E8 E769				call	sub_7			; (00AE)
2926:1945  1E					push	ds
2926:1946  B8 2DAC				mov	ax,2DACh
2926:1949  50					push	ax
2926:194A  8B 46 FA				mov	ax,[bp-6]
2926:194D  2D 000B				sub	ax,0Bh
2926:1950  BB 000D				mov	bx,0Dh
2926:1953  F7 E3				mul	bx			; dx:ax = reg * ax
2926:1955  5B					pop	bx
2926:1956  03 C3				add	ax,bx
2926:1958  50					push	ax
2926:1959  E8 E752				call	sub_7			; (00AE)
2926:195C  1E					push	ds
2926:195D  B8 2DAC				mov	ax,2DACh
2926:1960  50					push	ax
2926:1961  8B 46 FA				mov	ax,[bp-6]
2926:1964  2D 000B				sub	ax,0Bh
2926:1967  BB 000D				mov	bx,0Dh
2926:196A  F7 E3				mul	bx			; dx:ax = reg * ax
2926:196C  5B					pop	bx
2926:196D  03 C3				add	ax,bx
2926:196F  05 0006				add	ax,6
2926:1972  50					push	ax
2926:1973  E8 E738				call	sub_7			; (00AE)
2926:1976  1E					push	ds
2926:1977  B8 2DAC				mov	ax,2DACh
2926:197A  50					push	ax
2926:197B  8B 46 FA				mov	ax,[bp-6]
2926:197E  2D 000B				sub	ax,0Bh
2926:1981  BB 000D				mov	bx,0Dh
2926:1984  F7 E3				mul	bx			; dx:ax = reg * ax
2926:1986  5B					pop	bx
2926:1987  03 C3				add	ax,bx
2926:1989  05 0004				add	ax,4
2926:198C  50					push	ax
           ICON0.lst       ICON0.OVL		Sourcer	v8.01  20-Jul-2026 12:17 am   Page 63

2926:198D  E8 E71E				call	sub_7			; (00AE)
2926:1990  1E					push	ds
2926:1991  B8 2DAC				mov	ax,2DACh
2926:1994  50					push	ax
2926:1995  8B 46 FA				mov	ax,[bp-6]
2926:1998  2D 000B				sub	ax,0Bh
2926:199B  BB 000D				mov	bx,0Dh
2926:199E  F7 E3				mul	bx			; dx:ax = reg * ax
2926:19A0  5B					pop	bx
2926:19A1  03 C3				add	ax,bx
2926:19A3  05 0008				add	ax,8
2926:19A6  50					push	ax
2926:19A7  E8 E704				call	sub_7			; (00AE)
2926:19AA  1E					push	ds
2926:19AB  B8 2DAC				mov	ax,2DACh
2926:19AE  50					push	ax
2926:19AF  8B 46 FA				mov	ax,[bp-6]
2926:19B2  2D 000B				sub	ax,0Bh
2926:19B5  BB 000D				mov	bx,0Dh
2926:19B8  F7 E3				mul	bx			; dx:ax = reg * ax
2926:19BA  5B					pop	bx
2926:19BB  03 C3				add	ax,bx
2926:19BD  05 000A				add	ax,0Ah
2926:19C0  50					push	ax
2926:19C1  E8 E6EA				call	sub_7			; (00AE)
2926:19C4  16					push	ss
2926:19C5  8D 46 F6				lea	ax,[bp-0Ah]		; Load effective addr
2926:19C8  50					push	ax
2926:19C9  E8 E6E2				call	sub_7			; (00AE)
2926:19CC  1E					push	ds
2926:19CD  B8 2DAC				mov	ax,2DACh
2926:19D0  50					push	ax
2926:19D1  8B 46 FA				mov	ax,[bp-6]
2926:19D4  2D 000B				sub	ax,0Bh
2926:19D7  BB 000D				mov	bx,0Dh
2926:19DA  F7 E3				mul	bx			; dx:ax = reg * ax
2926:19DC  5B					pop	bx
2926:19DD  03 C3				add	ax,bx
2926:19DF  05 000C				add	ax,0Ch
2926:19E2  50					push	ax
2926:19E3  8B 46 F6				mov	ax,[bp-0Ah]
2926:19E6  93					xchg	bx,ax
2926:19E7  B8 00FF				mov	ax,0FFh
2926:19EA  23 C3				and	ax,bx
2926:19EC  5F					pop	di
2926:19ED  07					pop	es
2926:19EE  26: 88 05				mov	es:[di],al
2926:19F1  E9 FF2D				jmp	loc_208			; (1921)
2926:19F4			loc_210:					;  xref 2926:1929
2926:19F4  A1 2904				mov	ax,data_115		; (2926:2904=0B320h)
2926:19F7  89 46 F8				mov	[bp-8],ax
2926:19FA  16					push	ss
2926:19FB  8D 46 FA				lea	ax,[bp-6]		; Load effective addr
2926:19FE  50					push	ax
2926:19FF  E8 E6AC				call	sub_7			; (00AE)
2926:1A02  8B 46 F8				mov	ax,[bp-8]
2926:1A05  93					xchg	bx,ax
           ICON0.lst       ICON0.OVL		Sourcer	v8.01  20-Jul-2026 12:17 am   Page 64

2926:1A06  8B 46 FA				mov	ax,[bp-6]
2926:1A09  3B D8				cmp	bx,ax
2926:1A0B  75 03				jne	loc_211			; Jump if not equal
2926:1A0D  E9 0003				jmp	loc_212			; (1A13)
2926:1A10			loc_211:					;  xref 2926:1A0B
2926:1A10  E8 E68F				call	sub_3			; (00A2)
2926:1A13			loc_212:					;  xref 2926:1A0D
2926:1A13  E8 0BEB				call	sub_65			; (2601)
2926:1A16  89 46 FA				mov	[bp-6],ax
2926:1A19  16					push	ss
2926:1A1A  8D 46 F8				lea	ax,[bp-8]		; Load effective addr
2926:1A1D  50					push	ax
2926:1A1E  E8 E68D				call	sub_7			; (00AE)
2926:1A21  8B 46 F8				mov	ax,[bp-8]
2926:1A24  93					xchg	bx,ax
2926:1A25  A1 826D				mov	ax,ds:data_315e		; (2926:826D=0)
2926:1A28  3B D8				cmp	bx,ax
2926:1A2A  75 03				jne	loc_213			; Jump if not equal
2926:1A2C  E9 0003				jmp	loc_214			; (1A32)
2926:1A2F			loc_213:					;  xref 2926:1A2A
2926:1A2F  E8 E670				call	sub_3			; (00A2)
2926:1A32			loc_214:					;  xref 2926:1A2C
2926:1A32  E8 0BCC				call	sub_65			; (2601)
2926:1A35  89 46 FA				mov	[bp-6],ax
2926:1A38  16					push	ss
2926:1A39  8D 46 F8				lea	ax,[bp-8]		; Load effective addr
2926:1A3C  50					push	ax
2926:1A3D  E8 E66E				call	sub_7			; (00AE)
2926:1A40  8B 46 F8				mov	ax,[bp-8]
2926:1A43  93					xchg	bx,ax
2926:1A44  A1 826D				mov	ax,ds:data_315e		; (2926:826D=0)
2926:1A47  3B D8				cmp	bx,ax
2926:1A49  75 03				jne	loc_215			; Jump if not equal
2926:1A4B  E9 0003				jmp	loc_216			; (1A51)
2926:1A4E			loc_215:					;  xref 2926:1A49
2926:1A4E  E8 E651				call	sub_3			; (00A2)
2926:1A51			loc_216:					;  xref 2926:1A4B
2926:1A51  E8 0BAD				call	sub_65			; (2601)
2926:1A54  89 46 FA				mov	[bp-6],ax
2926:1A57  16					push	ss
2926:1A58  8D 46 F8				lea	ax,[bp-8]		; Load effective addr
2926:1A5B  50					push	ax
2926:1A5C  E8 E64F				call	sub_7			; (00AE)
2926:1A5F  8B 46 F8				mov	ax,[bp-8]
2926:1A62  93					xchg	bx,ax
2926:1A63  A1 826D				mov	ax,ds:data_315e		; (2926:826D=0)
2926:1A66  3B D8				cmp	bx,ax
2926:1A68  75 03				jne	loc_217			; Jump if not equal
2926:1A6A  E9 0003				jmp	loc_218			; (1A70)
2926:1A6D			loc_217:					;  xref 2926:1A68
2926:1A6D  E8 E632				call	sub_3			; (00A2)
2926:1A70			loc_218:					;  xref 2926:1A6A
2926:1A70  1E					push	ds
2926:1A71  B8 2B24				mov	ax,2B24h
2926:1A74 ú50					push	ax
2926:1A75  B8 0080				mov	ax,80h
2926:1A78  50					push	ax
           ICON0.lst       ICON0.OVL		Sourcer	v8.01  20-Jul-2026 12:17 am   Page 65

2926:1A79  1E					push	ds
2926:1A7A  B8 5E22				mov	ax,5E22h
2926:1A7D  50					push	ax
2926:1A7E  E8 3645				call	sub_220			; (50C6)
2926:1A81  8B E5				mov	sp,bp
2926:1A83  5D					pop	bp
2926:1A84  C3					retn
2926:1A85			loc_219:					;  xref 2926:00CF
2926:1A85  55					push	bp
2926:1A86  8B EC				mov	bp,sp
2926:1A88  55					push	bp
2926:1A89  81 EC 008A				sub	sp,8Ah
2926:1A8D  16					push	ss
2926:1A8E  8D 46 AD				lea	ax,[bp-53h]		; Load effective addr
2926:1A91  50					push	ax
2926:1A92  8B 46 06				mov	ax,[bp+6]
2926:1A95  50					push	ax
2926:1A96  8B 46 04				mov	ax,[bp+4]
2926:1A99  50					push	ax
2926:1A9A  B8 0051				mov	ax,51h
2926:1A9D  50					push	ax
2926:1A9E  E8 340D				call	sub_215			; (4EAE)
2926:1AA1  1E					push	ds
2926:1AA2  B8 2A5A				mov	ax,2A5Ah
2926:1AA5  50					push	ax
2926:1AA6  B8 0080				mov	ax,80h
2926:1AA9  50					push	ax
2926:1AAA  16					push	ss
2926:1AAB  8D 46 AD				lea	ax,[bp-53h]		; Load effective addr
2926:1AAE  50					push	ax
2926:1AAF  E8 5A0E				call	sub_295			; (74C0)
2926:1AB2  1E					push	ds
2926:1AB3  B8 2A5A				mov	ax,2A5Ah
2926:1AB6 ú50					push	ax
2926:1AB7  B8 0080				mov	ax,80h
2926:1ABA  50					push	ax
2926:1ABB  E8 3429				call	sub_216			; (4EE7)
2926:1ABE  16					push	ss
2926:1ABF  8D 46 AD				lea	ax,[bp-53h]		; Load effective addr
2926:1AC2  50					push	ax
2926:1AC3  E8 E5FA				call	sub_12			; (00C0)
2926:1AC6  C7 46 A1 0000			mov	word ptr [bp-5Fh],0
2926:1ACB  C7 46 A5 0000			mov	word ptr [bp-5Bh],0
2926:1AD0			loc_220:					;  xref 2926:1CFE
2926:1AD0 ú1E					push	ds
2926:1AD1  B8 2A5A				mov	ax,2A5Ah
2926:1AD4 ú50					push	ax
2926:1AD5  B8 0080				mov	ax,80h
2926:1AD8  50					push	ax
2926:1AD9  E8 4664				call	sub_251			; (6140)
2926:1ADC  F7 D0				not	ax
2926:1ADE  D0 D8				rcr	al,1			; Rotate thru carry
2926:1AE0  72 03				jc	loc_221			; Jump if carry Set
2926:1AE2  E9 021C				jmp	loc_236			; (1D01)
2926:1AE5			loc_221:					;  xref 2926:1AE0
2926:1AE5  8B 46 A1				mov	ax,[bp-5Fh]
2926:1AE8  40					inc	ax
           ICON0.lst       ICON0.OVL		Sourcer	v8.01  20-Jul-2026 12:17 am   Page 66

2926:1AE9  89 46 A1				mov	[bp-5Fh],ax
2926:1AEC  1E					push	ds
2926:1AED  B8 601C				mov	ax,601Ch
2926:1AF0  50					push	ax
2926:1AF1  8B 46 A1				mov	ax,[bp-5Fh]
2926:1AF4  48					dec	ax
2926:1AF5  BB 001D				mov	bx,1Dh
2926:1AF8  F7 E3				mul	bx			; dx:ax = reg * ax
2926:1AFA  5B					pop	bx
2926:1AFB  03 C3				add	ax,bx
2926:1AFD  89 46 9C				mov	[bp-64h],ax
2926:1B00  58					pop	ax
2926:1B01  89 46 9E				mov	[bp-62h],ax
2926:1B04  1E					push	ds
2926:1B05  B8 2A5A				mov	ax,2A5Ah
2926:1B08 ú50					push	ax
2926:1B09  B8 0080				mov	ax,80h
2926:1B0C  50					push	ax
2926:1B0D  E8 478E				call	sub_253			; (629E)
2926:1B10  89 46 AB				mov	[bp-55h],ax
2926:1B13  81 7E AB 0000			cmp	word ptr [bp-55h],0
2926:1B18  74 03				je	loc_222			; Jump if equal
2926:1B1A  E9 0003				jmp	loc_223			; (1B20)
2926:1B1D			loc_222:					;  xref 2926:1B18
2926:1B1D  E9 01FE				jmp	loc_237			; (1D1E)
2926:1B20			loc_223:					;  xref 2926:1B1A
2926:1B20  C4 7E 9C				les	di,dword ptr [bp-64h]	; Load seg:offset ptr
2926:1B23  83 C7 08				add	di,8
2926:1B26  06					push	es
2926:1B27  57					push	di
2926:1B28  58					pop	ax
2926:1B29  05 0000				add	ax,0
2926:1B2C  97					xchg	di,ax
2926:1B2D  8B 46 AB				mov	ax,[bp-55h]
2926:1B30  07					pop	es
2926:1B31  26: 88 05				mov	es:[di],al
2926:1B34  B8 0001				mov	ax,1
2926:1B37  50					push	ax
2926:1B38  8B 46 AB				mov	ax,[bp-55h]
2926:1B3B  5B					pop	bx
2926:1B3C  93					xchg	bx,ax
2926:1B3D  89 46 A9				mov	[bp-57h],ax
2926:1B40  93					xchg	bx,ax
2926:1B41  FF 4E A9				dec	word ptr [bp-57h]
2926:1B44  2B C3				sub	ax,bx
2926:1B46  40					inc	ax
2926:1B47  89 86 FF7A				mov	[bp-86h],ax
2926:1B4B			loc_224:					;  xref 2926:1B77
2926:1B4B úFF 46 A9				inc	word ptr [bp-57h]
2926:1B4E  FF 8E FF7A				dec	word ptr [bp-86h]
2926:1B52  7D 03				jge	loc_225			; Jump if > or =
2926:1B54  E9 0022				jmp	loc_226			; (1B79)
2926:1B57			loc_225:					;  xref 2926:1B52
2926:1B57  C4 7E 9C				les	di,dword ptr [bp-64h]	; Load seg:offset ptr
2926:1B5A  83 C7 08				add	di,8
2926:1B5D  06					push	es
2926:1B5E  57					push	di
           ICON0.lst       ICON0.OVL		Sourcer	v8.01  20-Jul-2026 12:17 am   Page 67

2926:1B5F  8B 46 A9				mov	ax,[bp-57h]
2926:1B62  5B					pop	bx
2926:1B63  03 C3				add	ax,bx
2926:1B65  50					push	ax
2926:1B66  1E					push	ds
2926:1B67  B8 2A5A				mov	ax,2A5Ah
2926:1B6A ú50					push	ax
2926:1B6B  B8 0080				mov	ax,80h
2926:1B6E  50					push	ax
2926:1B6F  E8 472C				call	sub_253			; (629E)
2926:1B72  5F					pop	di
2926:1B73  07					pop	es
2926:1B74  26: 88 05				mov	es:[di],al
2926:1B77  EB D2				jmp	short loc_224		; (1B4B)
2926:1B79			loc_226:					;  xref 2926:1B54
2926:1B79  C4 7E 9C				les	di,dword ptr [bp-64h]	; Load seg:offset ptr
2926:1B7C  83 C7 06				add	di,6
2926:1B7F  06					push	es
2926:1B80  57					push	di
2926:1B81  1E					push	ds
2926:1B82  B8 2A5A				mov	ax,2A5Ah
2926:1B85 ú50					push	ax
2926:1B86  B8 0080				mov	ax,80h
2926:1B89  50					push	ax
2926:1B8A  E8 4711				call	sub_253			; (629E)
2926:1B8D  5F					pop	di
2926:1B8E  07					pop	es
2926:1B8F  26: 89 05				mov	es:[di],ax
2926:1B92  C4 7E 9C				les	di,dword ptr [bp-64h]	; Load seg:offset ptr
2926:1B95  83 C7 04				add	di,4
2926:1B98  06					push	es
2926:1B99  57					push	di
2926:1B9A  1E					push	ds
2926:1B9B  B8 2A5A				mov	ax,2A5Ah
2926:1B9E ú50					push	ax
2926:1B9F  B8 0080				mov	ax,80h
2926:1BA2  50					push	ax
2926:1BA3  E8 46F8				call	sub_253			; (629E)
2926:1BA6  5F					pop	di
2926:1BA7  07					pop	es
2926:1BA8  26: 89 05				mov	es:[di],ax
2926:1BAB  C4 7E 9C				les	di,dword ptr [bp-64h]	; Load seg:offset ptr
2926:1BAE  06					push	es
2926:1BAF  57					push	di
2926:1BB0  8B 46 A5				mov	ax,[bp-5Bh]
2926:1BB3  40					inc	ax
2926:1BB4  5F					pop	di
2926:1BB5  07					pop	es
2926:1BB6  26: 89 05				mov	es:[di],ax
2926:1BB9  B8 0001				mov	ax,1
2926:1BBC  50					push	ax
2926:1BBD  C4 7E 9C				les	di,dword ptr [bp-64h]	; Load seg:offset ptr
2926:1BC0  83 C7 06				add	di,6
2926:1BC3  26: 8B 05				mov	ax,es:[di]
2926:1BC6  50					push	ax
2926:1BC7  C4 7E 9C				les	di,dword ptr [bp-64h]	; Load seg:offset ptr
2926:1BCA  83 C7 04				add	di,4
           ICON0.lst       ICON0.OVL		Sourcer	v8.01  20-Jul-2026 12:17 am   Page 68

2926:1BCD  26: 8B 05				mov	ax,es:[di]
2926:1BD0  5B					pop	bx
2926:1BD1  F7 EB				imul	bx			; dx:ax = reg * ax
2926:1BD3  5B					pop	bx
2926:1BD4  93					xchg	bx,ax
2926:1BD5  89 46 A3				mov	[bp-5Dh],ax
2926:1BD8  93					xchg	bx,ax
2926:1BD9  FF 4E A3				dec	word ptr [bp-5Dh]
2926:1BDC  2B C3				sub	ax,bx
2926:1BDE  40					inc	ax
2926:1BDF  89 86 FF78				mov	[bp-88h],ax
2926:1BE3			loc_227:					;  xref 2926:1C18
2926:1BE3 úFF 46 A3				inc	word ptr [bp-5Dh]
2926:1BE6  FF 8E FF78				dec	word ptr [bp-88h]
2926:1BEA  7D 03				jge	loc_228			; Jump if > or =
2926:1BEC  E9 002B				jmp	loc_229			; (1C1A)
2926:1BEF			loc_228:					;  xref 2926:1BEA
2926:1BEF  1E					push	ds
2926:1BF0  B8 2A5A				mov	ax,2A5Ah
2926:1BF3 ú50					push	ax
2926:1BF4  B8 0080				mov	ax,80h
2926:1BF7  50					push	ax
2926:1BF8  E8 46A3				call	sub_253			; (629E)
2926:1BFB  88 46 A0				mov	[bp-60h],al
2926:1BFE  1E					push	ds
2926:1BFF  B8 680A				mov	ax,680Ah
2926:1C02  50					push	ax
2926:1C03  8B 46 A3				mov	ax,[bp-5Dh]
2926:1C06  93					xchg	bx,ax
2926:1C07  8B 46 A5				mov	ax,[bp-5Bh]
2926:1C0A  03 C3				add	ax,bx
2926:1C0C  48					dec	ax
2926:1C0D  5B					pop	bx
2926:1C0E  03 C3				add	ax,bx
2926:1C10  97					xchg	di,ax
2926:1C11  8A 46 A0				mov	al,[bp-60h]
2926:1C14  07					pop	es
2926:1C15  26: 88 05				mov	es:[di],al
2926:1C18  EB C9				jmp	short loc_227		; (1BE3)
2926:1C1A			loc_229:					;  xref 2926:1BEC
2926:1C1A  8B 46 A5				mov	ax,[bp-5Bh]
2926:1C1D  50					push	ax
2926:1C1E  C4 7E 9C				les	di,dword ptr [bp-64h]	; Load seg:offset ptr
2926:1C21  83 C7 06				add	di,6
2926:1C24  26: 8B 05				mov	ax,es:[di]
2926:1C27  50					push	ax
2926:1C28  C4 7E 9C				les	di,dword ptr [bp-64h]	; Load seg:offset ptr
2926:1C2B  83 C7 04				add	di,4
2926:1C2E  26: 8B 05				mov	ax,es:[di]
2926:1C31  5B					pop	bx
2926:1C32  F7 EB				imul	bx			; dx:ax = reg * ax
2926:1C34  5B					pop	bx
2926:1C35  03 C3				add	ax,bx
2926:1C37  89 46 A5				mov	[bp-5Bh],ax
2926:1C3A  1E					push	ds
2926:1C3B  B8 2A5A				mov	ax,2A5Ah
2926:1C3E ú50					push	ax
           ICON0.lst       ICON0.OVL		Sourcer	v8.01  20-Jul-2026 12:17 am   Page 69

2926:1C3F  B8 0080				mov	ax,80h
2926:1C42  50					push	ax
2926:1C43  E8 4658				call	sub_253			; (629E)
2926:1C46  89 46 A7				mov	[bp-59h],ax
2926:1C49  81 7E A7 0001			cmp	word ptr [bp-59h],1
2926:1C4E  74 03				je	loc_230			; Jump if equal
2926:1C50  E9 00A0				jmp	loc_234			; (1CF3)
2926:1C53			loc_230:					;  xref 2926:1C4E
2926:1C53  B8 0001				mov	ax,1
2926:1C56  50					push	ax
2926:1C57  C4 7E 9C				les	di,dword ptr [bp-64h]	; Load seg:offset ptr
2926:1C5A  83 C7 06				add	di,6
2926:1C5D  26: 8B 05				mov	ax,es:[di]
2926:1C60  50					push	ax
2926:1C61  B8 0001				mov	ax,1
2926:1C64  50					push	ax
2926:1C65  E8 5767				call	sub_286			; (73CF)
2926:1C68  50					push	ax
2926:1C69  C4 7E 9C				les	di,dword ptr [bp-64h]	; Load seg:offset ptr
2926:1C6C  83 C7 04				add	di,4
2926:1C6F  26: 8B 05				mov	ax,es:[di]
2926:1C72  5B					pop	bx
2926:1C73  F7 EB				imul	bx			; dx:ax = reg * ax
2926:1C75  5B					pop	bx
2926:1C76  93					xchg	bx,ax
2926:1C77  89 46 A3				mov	[bp-5Dh],ax
2926:1C7A  93					xchg	bx,ax
2926:1C7B  FF 4E A3				dec	word ptr [bp-5Dh]
2926:1C7E  2B C3				sub	ax,bx
2926:1C80  40					inc	ax
2926:1C81  89 86 FF76				mov	[bp-8Ah],ax
2926:1C85			loc_231:					;  xref 2926:1CB5
2926:1C85 úFF 46 A3				inc	word ptr [bp-5Dh]
2926:1C88  FF 8E FF76				dec	word ptr [bp-8Ah]
2926:1C8C  7D 03				jge	loc_232			; Jump if > or =
2926:1C8E  E9 0026				jmp	loc_233			; (1CB7)
2926:1C91			loc_232:					;  xref 2926:1C8C
2926:1C91  1E					push	ds
2926:1C92  B8 680A				mov	ax,680Ah
2926:1C95  50					push	ax
2926:1C96  8B 46 A3				mov	ax,[bp-5Dh]
2926:1C99  93					xchg	bx,ax
2926:1C9A  8B 46 A5				mov	ax,[bp-5Bh]
2926:1C9D  03 C3				add	ax,bx
2926:1C9F  48					dec	ax
2926:1CA0  5B					pop	bx
2926:1CA1  03 C3				add	ax,bx
2926:1CA3  50					push	ax
2926:1CA4  1E					push	ds
2926:1CA5  B8 2A5A				mov	ax,2A5Ah
2926:1CA8 ú50					push	ax
2926:1CA9  B8 0080				mov	ax,80h
2926:1CAC  50					push	ax
2926:1CAD  E8 45EE				call	sub_253			; (629E)
2926:1CB0  5F					pop	di
2926:1CB1  07					pop	es
2926:1CB2  26: 88 05				mov	es:[di],al
           ICON0.lst       ICON0.OVL		Sourcer	v8.01  20-Jul-2026 12:17 am   Page 70

2926:1CB5  EB CE				jmp	short loc_231		; (1C85)
2926:1CB7			loc_233:					;  xref 2926:1C8E
2926:1CB7  C4 7E 9C				les	di,dword ptr [bp-64h]	; Load seg:offset ptr
2926:1CBA  83 C7 02				add	di,2
2926:1CBD  06					push	es
2926:1CBE  57					push	di
2926:1CBF  8B 46 A5				mov	ax,[bp-5Bh]
2926:1CC2  40					inc	ax
2926:1CC3  5F					pop	di
2926:1CC4  07					pop	es
2926:1CC5  26: 89 05				mov	es:[di],ax
2926:1CC8  8B 46 A5				mov	ax,[bp-5Bh]
2926:1CCB  50					push	ax
2926:1CCC  C4 7E 9C				les	di,dword ptr [bp-64h]	; Load seg:offset ptr
2926:1CCF  83 C7 06				add	di,6
2926:1CD2  26: 8B 05				mov	ax,es:[di]
2926:1CD5  50					push	ax
2926:1CD6  B8 0001				mov	ax,1
2926:1CD9  50					push	ax
2926:1CDA  E8 56F2				call	sub_286			; (73CF)
2926:1CDD  50					push	ax
2926:1CDE  C4 7E 9C				les	di,dword ptr [bp-64h]	; Load seg:offset ptr
2926:1CE1  83 C7 04				add	di,4
2926:1CE4  26: 8B 05				mov	ax,es:[di]
2926:1CE7  5B					pop	bx
2926:1CE8  F7 EB				imul	bx			; dx:ax = reg * ax
2926:1CEA  5B					pop	bx
2926:1CEB  03 C3				add	ax,bx
2926:1CED  89 46 A5				mov	[bp-5Bh],ax
2926:1CF0  E9 000B				jmp	loc_235			; (1CFE)
2926:1CF3			loc_234:					;  xref 2926:1C50
2926:1CF3  C4 7E 9C				les	di,dword ptr [bp-64h]	; Load seg:offset ptr
2926:1CF6  83 C7 02				add	di,2
2926:1CF9  26: C7 05 FFFF			mov	word ptr es:[di],0FFFFh
2926:1CFE			loc_235:					;  xref 2926:1CF0
2926:1CFE  E9 FDCF				jmp	loc_220			; (1AD0)
2926:1D01			loc_236:					;  xref 2926:1AE2, 1D1E
2926:1D01 ú1E					push	ds
2926:1D02  B8 2A5A				mov	ax,2A5Ah
2926:1D05 ú50					push	ax
2926:1D06  B8 0080				mov	ax,80h
2926:1D09  50					push	ax
2926:1D0A  1E					push	ds
2926:1D0B  B8 5E22				mov	ax,5E22h
2926:1D0E  50					push	ax
2926:1D0F  E8 33B4				call	sub_220			; (50C6)
2926:1D12  8B 46 A1				mov	ax,[bp-5Fh]
2926:1D15  A3 2DA6				mov	ds:data_35e,ax		; (2916:2DA6=4854h)
2926:1D18  8B E5				mov	sp,bp
2926:1D1A  5D					pop	bp
2926:1D1B  C2 0004				retn	4
2926:1D1E			loc_237:					;  xref 2926:1B1D
2926:1D1E  E9 FFE0				jmp	loc_236			; (1D01)
						nop	                                        ;*jump fixup
2926:1D21			loc_238:					;  xref 2926:00D2
2926:1D21  55					push	bp
2926:1D22  8B EC				mov	bp,sp
           ICON0.lst       ICON0.OVL		Sourcer	v8.01  20-Jul-2026 12:17 am   Page 71

2926:1D24  55					push	bp
2926:1D25  81 EC 0022				sub	sp,22h
2926:1D29  1E					push	ds
2926:1D2A  B8 2906				mov	ax,2906h
2926:1D2D  50					push	ax
2926:1D2E  FF 76 0C				push	word ptr [bp+0Ch]
2926:1D31  58					pop	ax
2926:1D32  BB 0004				mov	bx,4
2926:1D35  F7 E3				mul	bx			; dx:ax = reg * ax
2926:1D37  5B					pop	bx
2926:1D38  03 C3				add	ax,bx
2926:1D3A  05 0000				add	ax,0
2926:1D3D  97					xchg	di,ax
2926:1D3E  8B 46 0A				mov	ax,[bp+0Ah]
2926:1D41  07					pop	es
2926:1D42  26: 88 05				mov	es:[di],al
2926:1D45  1E					push	ds
2926:1D46  B8 2906				mov	ax,2906h
2926:1D49  50					push	ax
2926:1D4A  FF 76 0C				push	word ptr [bp+0Ch]
2926:1D4D  58					pop	ax
2926:1D4E  BB 0004				mov	bx,4
2926:1D51  F7 E3				mul	bx			; dx:ax = reg * ax
2926:1D53  5B					pop	bx
2926:1D54  03 C3				add	ax,bx
2926:1D56  05 0001				add	ax,1
2926:1D59  97					xchg	di,ax
2926:1D5A  8B 46 08				mov	ax,[bp+8]
2926:1D5D  07					pop	es
2926:1D5E  26: 88 05				mov	es:[di],al
2926:1D61  1E					push	ds
2926:1D62  B8 2906				mov	ax,2906h
2926:1D65  50					push	ax
2926:1D66  FF 76 0C				push	word ptr [bp+0Ch]
2926:1D69  58					pop	ax
2926:1D6A  BB 0004				mov	bx,4
2926:1D6D  F7 E3				mul	bx			; dx:ax = reg * ax
2926:1D6F  5B					pop	bx
2926:1D70  03 C3				add	ax,bx
2926:1D72  05 0002				add	ax,2
2926:1D75  97					xchg	di,ax
2926:1D76  8B 46 06				mov	ax,[bp+6]
2926:1D79  07					pop	es
2926:1D7A  26: 88 05				mov	es:[di],al
2926:1D7D  1E					push	ds
2926:1D7E  B8 2906				mov	ax,2906h
2926:1D81  50					push	ax
2926:1D82  FF 76 0C				push	word ptr [bp+0Ch]
2926:1D85  58					pop	ax
2926:1D86  BB 0004				mov	bx,4
2926:1D89  F7 E3				mul	bx			; dx:ax = reg * ax
2926:1D8B  5B					pop	bx
2926:1D8C  03 C3				add	ax,bx
2926:1D8E  05 0003				add	ax,3
2926:1D91  97					xchg	di,ax
2926:1D92  8B 46 04				mov	ax,[bp+4]
2926:1D95  07					pop	es
           ICON0.lst       ICON0.OVL		Sourcer	v8.01  20-Jul-2026 12:17 am   Page 72

2926:1D96  26: 88 05				mov	es:[di],al
2926:1D99  8B E5				mov	sp,bp
2926:1D9B  5D					pop	bp
2926:1D9C  C2 000A				retn	0Ah
2926:1D9F			loc_239:					;  xref 2926:00D5
2926:1D9F  55					push	bp
2926:1DA0  8B EC				mov	bp,sp
2926:1DA2  55					push	bp
2926:1DA3  81 EC 0022				sub	sp,22h
2926:1DA7  FF 76 08				push	word ptr [bp+8]
2926:1DAA  FF 76 06				push	word ptr [bp+6]
2926:1DAD  FF 76 04				push	word ptr [bp+4]
2926:1DB0  FF 76 06				push	word ptr [bp+6]
2926:1DB3  FF 76 04				push	word ptr [bp+4]
2926:1DB6  E8 E319				call	sub_18			; (00D2)
2926:1DB9  8B E5				mov	sp,bp
2926:1DBB  5D					pop	bp
2926:1DBC  C2 0006				retn	6
2926:1DBF			loc_240:					;  xref 2926:00D8
2926:1DBF  55					push	bp
2926:1DC0  8B EC				mov	bp,sp
2926:1DC2  55					push	bp
2926:1DC3  81 EC 002D				sub	sp,2Dh
2926:1DC7			loc_241:					;  xref 2926:1DEB
2926:1DC7 úE8 E2EA				call	sub_8			; (00B4)
2926:1DCA  50					push	ax
2926:1DCB  E8 05A6				call	sub_63			; (2374)
2926:1DCE  93					xchg	bx,ax
2926:1DCF  B8 0003				mov	ax,3
2926:1DD2  23 C3				and	ax,bx
2926:1DD4  3D 0000				cmp	ax,0
2926:1DD7  B8 0000				mov	ax,0
2926:1DDA  74 01				jz	loc_242			; Jump if zero
2926:1DDC  40					inc	ax
2926:1DDD			loc_242:					;  xref 2926:1DDA
2926:1DDD  5B					pop	bx
2926:1DDE  0B C3				or	ax,bx
2926:1DE0  50					push	ax
2926:1DE1  E8 0DAD				call	sub_71			; (2B91)
2926:1DE4  5B					pop	bx
2926:1DE5  0B C3				or	ax,bx
2926:1DE7  D0 D8				rcr	al,1			; Rotate thru carry
2926:1DE9  72 03				jc	loc_243			; Jump if carry Set
2926:1DEB  E9 FFD9				jmp	loc_241			; (1DC7)
						nop	                                        ;*jump fixup
2926:1DEE			loc_243:					;  xref 2926:1DE9
2926:1DEE  E8 E2C3				call	sub_8			; (00B4)
2926:1DF1  D0 D8				rcr	al,1			; Rotate thru carry
2926:1DF3  72 03				jc	loc_244			; Jump if carry Set
2926:1DF5  E9 0009				jmp	loc_245			; (1E01)
2926:1DF8			loc_244:					;  xref 2926:1DF3
2926:1DF8  E8 E2B0				call	sub_6			; (00AB)
2926:1DFB  88 46 F3				mov	[bp-0Dh],al
2926:1DFE  E9 0004				jmp	loc_246			; (1E05)
2926:1E01			loc_245:					;  xref 2926:1DF5
2926:1E01  C6 46 F3 20				mov	byte ptr [bp-0Dh],20h	; ' '
2926:1E05			loc_246:					;  xref 2926:1DFE
           ICON0.lst       ICON0.OVL		Sourcer	v8.01  20-Jul-2026 12:17 am   Page 73

2926:1E05  8A 46 F3				mov	al,[bp-0Dh]
2926:1E08  88 46 F4				mov	[bp-0Ch],al
2926:1E0B  8A 46 F4				mov	al,[bp-0Ch]
2926:1E0E  32 E4				xor	ah,ah			; Zero register
2926:1E10  8B E5				mov	sp,bp
2926:1E12  5D					pop	bp
2926:1E13  C3					retn
							                        ;* No entry point to code
2926:1E14  E8 2F2B				call	sub_212			; (4D42)
2926:1E17  8B EC				mov	bp,sp
2926:1E19  4D					dec	bp
2926:1E1A  4D					dec	bp
2926:1E1B  55					push	bp
2926:1E1C  1E					push	ds
2926:1E1D  B8 5A3A				mov	ax,5A3Ah
2926:1E20 ú50					push	ax
2926:1E21  B8 0000				mov	ax,0
2926:1E24  50					push	ax
2926:1E25  1E					push	ds
2926:1E26  B8 5E22				mov	ax,5E22h
2926:1E29  50					push	ax
2926:1E2A  E8 3299				call	sub_220			; (50C6)
2926:1E2D  A0 298C				mov	al,ds:data_27e		; (2916:298C=0)
2926:1E30  D0 D8				rcr	al,1			; Rotate thru carry
2926:1E32  72 03				jc	loc_247			; Jump if carry Set
2926:1E34  E9 004C				jmp	loc_252			; (1E83)
2926:1E37			loc_247:					;  xref 2926:1E32
2926:1E37  A0 2DA8				mov	al,ds:data_36e		; (2916:2DA8=45h)
2926:1E3A  32 E4				xor	ah,ah			; Zero register
2926:1E3C  40					inc	ax
2926:1E3D  A2 2DA8				mov	ds:data_36e,al		; (2916:2DA8=45h)
2926:1E40  C7 06 2C18 0066			mov	word ptr ds:data_34e,66h	; (2916:2C18=0C322h)
2926:1E46			loc_248:					;  xref 2926:1E81
2926:1E46 úA1 2C18				mov	ax,word ptr ds:[2C18h]	; (2926:2C18=0FFB9h)
2926:1E49  3D 0079				cmp	ax,79h
2926:1E4C  7E 03				jle	loc_249			; Jump if < or =
2926:1E4E  E9 0032				jmp	loc_252			; (1E83)
2926:1E51			loc_249:					;  xref 2926:1E4C
2926:1E51  1E					push	ds
2926:1E52  B8 2C1A				mov	ax,2C1Ah
2926:1E55  50					push	ax
2926:1E56  A1 2C18				mov	ax,word ptr ds:[2C18h]	; (2926:2C18=0FFB9h)
2926:1E59  2D 0047				sub	ax,47h
2926:1E5C  BB 0006				mov	bx,6
2926:1E5F  F7 E3				mul	bx			; dx:ax = reg * ax
2926:1E61  5B					pop	bx
2926:1E62  03 C3				add	ax,bx
2926:1E64  97					xchg	di,ax
2926:1E65  07					pop	es
2926:1E66  26: 8B 05				mov	ax,es:[di]
2926:1E69  3D FFFE				cmp	ax,0FFFEh
2926:1E6C  74 03				je	loc_250			; Jump if equal
2926:1E6E  E9 0009				jmp	loc_251			; (1E7A)
2926:1E71			loc_250:					;  xref 2926:1E6C
2926:1E71  A1 5E2E				mov	ax,word ptr ds:[5E2Eh]	; (2926:5E2E=0F946h)
2926:1E74  05 0019				add	ax,19h
2926:1E77  A3 5E2E				mov	word ptr ds:[5E2Eh],ax	; (2926:5E2E=0F946h)
           ICON0.lst       ICON0.OVL		Sourcer	v8.01  20-Jul-2026 12:17 am   Page 74

2926:1E7A			loc_251:					;  xref 2926:1E6E
2926:1E7A  A1 2C18				mov	ax,word ptr ds:[2C18h]	; (2926:2C18=0FFB9h)
2926:1E7D  40					inc	ax
2926:1E7E  A3 2C18				mov	word ptr ds:[2C18h],ax	; (2926:2C18=0FFB9h)
2926:1E81  EB C3				jmp	short loc_248		; (1E46)
2926:1E83			loc_252:					;  xref 2926:1E34, 1E4E
2926:1E83  A0 2DA8				mov	al,data_147		; (2926:2DA8=6Eh)
2926:1E86  32 E4				xor	ah,ah			; Zero register
2926:1E88  50					push	ax
2926:1E89  E8 E23A				call	sub_14			; (00C6)
2926:1E8C  C7 06 2904 0000			mov	data_115,0		; (2926:2904=0B320h)
2926:1E92  0E					push	cs
2926:1E93  B8 0482				mov	ax,482h
2926:1E96  93					xchg	bx,ax
2926:1E97  B8 1E16				mov	ax,1E16h
2926:1E9A  03 C3				add	ax,bx
2926:1E9C  A3 5DEC				mov	word ptr ds:[5DECh],ax	; (2926:5DEC=4001h)
2926:1E9F  58					pop	ax
2926:1EA0  A3 5DEE				mov	word ptr ds:[5DEEh],ax	; (2926:5DEE=0D8D0h)
2926:1EA3  0E					push	cs
2926:1EA4  B8 0697				mov	ax,697h
2926:1EA7  93					xchg	bx,ax
2926:1EA8  B8 1E27				mov	ax,1E27h
2926:1EAB  03 C3				add	ax,bx
2926:1EAD  A3 5DF0				mov	word ptr ds:[5DF0h],ax	; (2926:5DF0=372h)
2926:1EB0  58					pop	ax
2926:1EB1  A3 5DF2				mov	word ptr ds:[5DF2h],ax	; (2926:5DF2=0D8E9h)
2926:1EB4			loc_253:					;  xref 2926:1ED6
2926:1EB4 úA1 5DEC				mov	ax,ds:data_42e		; (2916:5DEC=5706h)
2926:1EB7  93					xchg	bx,ax
2926:1EB8  A1 5DF0				mov	ax,ds:data_43e		; (2916:5DF0=83FAh)
2926:1EBB  3B D8				cmp	bx,ax
2926:1EBD  72 03				jb	loc_254			; Jump if below
2926:1EBF  E9 0016				jmp	loc_255			; (1ED8)
2926:1EC2			loc_254:					;  xref 2926:1EBD
2926:1EC2  C4 3E 5DEC				les	di,dword ptr ds:data_42e	; (2916:5DEC=5706h) Load seg:offset pt
2926:1EC6  26: 8B 05				mov	ax,es:[di]
2926:1EC9  50					push	ax
2926:1ECA  E8 E1C9				call	sub_1			; (0096)
2926:1ECD  A1 5DEC				mov	ax,ds:data_42e		; (2916:5DEC=5706h)
2926:1ED0  05 0002				add	ax,2
2926:1ED3  A3 5DEC				mov	ds:data_42e,ax		; (2916:5DEC=5706h)
2926:1ED6  EB DC				jmp	short loc_253		; (1EB4)
2926:1ED8			loc_255:					;  xref 2926:1EBF
2926:1ED8  1E					push	ds
2926:1ED9  B8 5A3A				mov	ax,5A3Ah
2926:1EDC  50					push	ax
2926:1EDD  B8 0000				mov	ax,0
2926:1EE0  50					push	ax
2926:1EE1  0E E8 000A				callf	sub_55			; (1EEF)
2926:1EE5  09 69 63				or	[bx+di+63h],bp
2926:1EE8  6F 6E 31 2E 6F 76			db	 6Fh, 6Eh, 31h, 2Eh, 6Fh, 76h
2926:1EEE  6C					db	 6Ch

				;ßßßßßßßßßßßßßßßßßßßßßßßßßßßßßßßßßßßßßßßßßßßßßßßßßßßßßßßßßßßßßßßßßßßßßßßßßß
				;                              SUBROUTINE
				;
           ICON0.lst       ICON0.OVL				Sourcer	v8.01  20-Jul-2026 12:17 am   Page 75

				;         Called from:   2926:1EE1
				;ÜÜÜÜÜÜÜÜÜÜÜÜÜÜÜÜÜÜÜÜÜÜÜÜÜÜÜÜÜÜÜÜÜÜÜÜÜÜÜÜÜÜÜÜÜÜÜÜÜÜÜÜÜÜÜÜÜÜÜÜÜÜÜÜÜÜÜÜÜÜÜÜÜÜ

2926:1EEF			sub_55		proc	near
2926:1EEF  E8 55CE				call	sub_295			; (74C0)
2926:1EF2  1E					push	ds
2926:1EF3  B8 5A3A				mov	ax,5A3Ah
2926:1EF6 ú50					push	ax
2926:1EF7  B8 0000				mov	ax,0
2926:1EFA  50					push	ax
2926:1EFB  E8 2FE9				call	sub_216			; (4EE7)
2926:1EFE  0E E8 000A				callf	sub_56			; (1F0C)
2926:1F02  09 69 63				or	[bx+di+63h],bp
2926:1F05  6F 6E 31 2E 6F 76			db	 6Fh, 6Eh, 31h, 2Eh, 6Fh, 76h
2926:1F0B  6C					db	 6Ch

				;ßßßß External Entry into Subroutine ßßßßßßßßßßßßßßßßßßßßßßßßßßßßßßßßßßßßßß
				;
				;         Called from:   2926:1EFE

2926:1F0C			sub_56:
2926:1F0C  E8 E1B1				call	sub_12			; (00C0)
2926:1F0F  1E					push	ds
2926:1F10  B8 833E				mov	ax,833Eh
2926:1F13 ú50					push	ax
2926:1F14  B8 0001				mov	ax,1
2926:1F17  50					push	ax
2926:1F18  1E					push	ds
2926:1F19  B8 5E22				mov	ax,5E22h
2926:1F1C  50					push	ax
2926:1F1D  E8 31A6				call	sub_220			; (50C6)
2926:1F20  1E					push	ds
2926:1F21  B8 82FD				mov	ax,82FDh
2926:1F24 ú50					push	ax
2926:1F25  B8 0001				mov	ax,1
2926:1F28  50					push	ax
2926:1F29  1E					push	ds
2926:1F2A  B8 5E22				mov	ax,5E22h
2926:1F2D  50					push	ax
2926:1F2E  E8 3195				call	sub_220			; (50C6)
2926:1F31  1E					push	ds
2926:1F32  B8 5A3A				mov	ax,5A3Ah
2926:1F35  50					push	ax
2926:1F36  B8 0000				mov	ax,0
2926:1F39  50					push	ax
2926:1F3A  E8 32EA				call	sub_239			; (5227)
2926:1F3D			loc_256:					;  xref 2926:1F43
2926:1F3D úE8 01F0				call	sub_60			; (2130)
2926:1F40  E8 5539				call	sub_292			; (747C)
2926:1F43  E9 FFF7				jmp	loc_256			; (1F3D)
						nop	                                        ;*jump fixup
				sub_55		endp

2926:1F46  E9 0000				jmp	loc_257			; (1F49)
2926:1F49			loc_257:					;  xref 2926:1F46
2926:1F49  E9 0000				jmp	loc_258			; (1F4C)
2926:1F4C			loc_258:					;  xref 2926:1F49
           ICON0.lst       ICON0.OVL		Sourcer	v8.01  20-Jul-2026 12:17 am   Page 76

2926:1F4C  55					push	bp
2926:1F4D  8B EC				mov	bp,sp
2926:1F4F  55					push	bp
2926:1F50  81 EC 0002				sub	sp,2
2926:1F54  8B E5				mov	sp,bp
2926:1F56  5D					pop	bp
2926:1F57  C3					retn

				;ßßßßßßßßßßßßßßßßßßßßßßßßßßßßßßßßßßßßßßßßßßßßßßßßßßßßßßßßßßßßßßßßßßßßßßßßßß
				;                              SUBROUTINE
				;
				;         Called from:   2926:016C, 20E9, 20FC, 4C04
				;ÜÜÜÜÜÜÜÜÜÜÜÜÜÜÜÜÜÜÜÜÜÜÜÜÜÜÜÜÜÜÜÜÜÜÜÜÜÜÜÜÜÜÜÜÜÜÜÜÜÜÜÜÜÜÜÜÜÜÜÜÜÜÜÜÜÜÜÜÜÜÜÜÜÜ

2926:1F58			sub_57		proc	near
2926:1F58  5B					pop	bx
2926:1F59  58					pop	ax
2926:1F5A  59					pop	cx
2926:1F5B  5F					pop	di
2926:1F5C  07					pop	es

2926:1F5D			locloop_259:					;  xref 2926:1F5E
2926:1F5D  AB					stosw				; Store ax to es:[di]
2926:1F5E  E2 FD				loop	locloop_259		; Loop if cx > 0

2926:1F60  FF E3				jmp	bx			;*
							                        ;* No entry point to code
2926:1F62  A1 5DDC				mov	ax,ds:data_41e		; (2916:5DDC=0C303h)
2926:1F65  24 01				and	al,1
2926:1F67  D0 E0				shl	al,1			; Shift w/zeros fill
2926:1F69  D0 E0				shl	al,1			; Shift w/zeros fill
2926:1F6B  B4 05				mov	ah,5
2926:1F6D  CD 10				int	10h			; Video display   ah=functn 05h
										;  set display page al
2926:1F6F  C3					retn
				sub_57		endp


				;ßßßßßßßßßßßßßßßßßßßßßßßßßßßßßßßßßßßßßßßßßßßßßßßßßßßßßßßßßßßßßßßßßßßßßßßßßß
				;                              SUBROUTINE
				;
				;         Called from:   2926:031B
				;ÜÜÜÜÜÜÜÜÜÜÜÜÜÜÜÜÜÜÜÜÜÜÜÜÜÜÜÜÜÜÜÜÜÜÜÜÜÜÜÜÜÜÜÜÜÜÜÜÜÜÜÜÜÜÜÜÜÜÜÜÜÜÜÜÜÜÜÜÜÜÜÜÜÜ

2926:1F70			sub_58		proc	near
2926:1F70  B8 0C06				mov	ax,0C06h
2926:1F73  B2 FF				mov	dl,0FFh
2926:1F75  CD 21				int	21h			; DOS Services  ah=function 0Ch
										;  clear keybd buffer & input al
2926:1F77  C3					retn
				sub_58		endp

							                        ;* No entry point to code
2926:1F78  33 DB				xor	bx,bx			; Zero register
2926:1F7A  8E C3				mov	es,bx
2926:1F7C úBF 0074				mov	di,data_5e		; (0000:0074=0A4h)
2926:1F7F  8D 06 8275				lea	ax,cs:[8275h]		; Load effective addr
           ICON0.lst       ICON0.OVL		Sourcer	v8.01  20-Jul-2026 12:17 am   Page 77

2926:1F83  26: 89 05				mov	es:[di],ax
2926:1F86  83 C7 02				add	di,2
2926:1F89  8C DB				mov	bx,ds
2926:1F8B  26: 89 1D				mov	es:[di],bx
2926:1F8E  8C DB				mov	bx,ds
2926:1F90  FC					cld				; Clear direction
2926:1F91  8B 36 8262				mov	si,ds:data_310e		; (2926:8262=0)
2926:1F95  8E 1E 8264				mov	ds,ds:data_311e		; (2926:8264=0)
2926:1F99  8B F8				mov	di,ax
2926:1F9B  8E C3				mov	es,bx
2926:1F9D  B9 0040				mov	cx,40h
2926:1FA0  F3/ A5				rep	movsw			; Rep when cx >0 Mov [si] to es:[di]
2926:1FA2  8E DB				mov	ds,bx
2926:1FA4  8B F8				mov	di,ax
2926:1FA6  83 C7 04				add	di,4
2926:1FA9  C6 05 7F				mov	byte ptr [di],7Fh
2926:1FAC  83 C7 02				add	di,2
2926:1FAF  C6 05 64				mov	byte ptr [di],64h	; 'd'
2926:1FB2  83 C7 01				add	di,1
2926:1FB5  C6 05 70				mov	byte ptr [di],70h	; 'p'
2926:1FB8  83 C7 02				add	di,2
2926:1FBB  C6 05 01				mov	byte ptr [di],1
2926:1FBE  83 C7 08				add	di,8
2926:1FC1  C6 05 01				mov	byte ptr [di],1
2926:1FC4  83 C7 03				add	di,3
2926:1FC7  C6 05 7F				mov	byte ptr [di],7Fh
2926:1FCA  83 C7 02				add	di,2
2926:1FCD  C6 05 01				mov	byte ptr [di],1
2926:1FD0  47					inc	di
2926:1FD1  C6 05 70				mov	byte ptr [di],70h	; 'p'
2926:1FD4  83 C7 02				add	di,2
2926:1FD7  C6 05 01				mov	byte ptr [di],1
2926:1FDA  33 C0				xor	ax,ax			; Zero register
2926:1FDC  CD 10				int	10h			; Video display   ah=functn 00h
										;  set display mode in al
2926:1FDE  B9 0040				mov	cx,40h
2926:1FE1  8E C1				mov	es,cx
2926:1FE3 úBF 0065				mov	di,data_10e		; (0040:0065=29h)
2926:1FE6  26: 8A 1D				mov	bl,es:[di]
2926:1FE9  80 FB 2C				cmp	bl,2Ch			; ','
2926:1FEC  75 13				jne	loc_260			; Jump if not equal
2926:1FEE  B8 0001				mov	ax,1
2926:1FF1  CD 10				int	10h			; Video display   ah=functn 00h
										;  set display mode in al
2926:1FF3  26: 8A 1D				mov	bl,es:[di]
2926:1FF6  80 FB 28				cmp	bl,28h			; '('
2926:1FF9  75 06				jne	loc_260			; Jump if not equal
2926:1FFB  80 E3 1F				and	bl,1Fh
2926:1FFE  26: 88 1D				mov	es:[di],bl
2926:2001			loc_260:					;  xref 2926:1FEC, 1FF9
2926:2001  B4 0B				mov	ah,0Bh
2926:2003  33 DB				xor	bx,bx			; Zero register
2926:2005  CD 10				int	10h			; Video display   ah=functn 0Bh
										;  set color from bx (CGA modes)
2926:2007  80 3E 8256 01			cmp	byte ptr ds:data_306e,1	; (2926:8256=0)
2926:200C  75 12				jne	loc_261			; Jump if not equal
2926:200E  B8 0001				mov	ax,1
           ICON0.lst       ICON0.OVL		Sourcer	v8.01  20-Jul-2026 12:17 am   Page 78

2926:2011  CD 10				int	10h			; Video display   ah=functn 00h
										;  set display mode in al
2926:2013  BA 03DA				mov	dx,3DAh
2926:2016  EC					in	al,dx			; port 3DAh, CGA/EGA vid status
2926:2017  B0 03				mov	al,3
2926:2019  EE					out	dx,al			; port 3DAh, VGA feature contrl
2926:201A  B0 00				mov	al,0
2926:201C  EE					out	dx,al			; port 3DAh, VGA feature contrl
2926:201D  E9 003B				jmp	loc_262			; (205B)
2926:2020			loc_261:					;  xref 2926:200C
2926:2020  B8 0001				mov	ax,1
2926:2023  CD 10				int	10h			; Video display   ah=functn 00h
										;  set display mode in al
2926:2025  B8 1130				mov	ax,1130h
2926:2028  B7 FF				mov	bh,0FFh
2926:202A  CD 10				int	10h			; Video display   ah=functn 11h
										;  get font type bh info into
										;   cx=points,dl=rows, es:bp=ptr
2926:202C  80 FF FF				cmp	bh,0FFh
2926:202F  75 2A				jne	loc_262			; Jump if not equal
2926:2031  B8 1102				mov	ax,1102h
2926:2034  BB 0000				mov	bx,0
2926:2037  CD 10				int	10h			; Video display   ah=functn 11h
										;  load 8x8 font, bl=block
2926:2039  B8 1102				mov	ax,1102h
2926:203C  BB 0001				mov	bx,1
2926:203F  CD 10				int	10h			; Video display   ah=functn 11h
										;  load 8x8 font, bl=block
2926:2041  BA 03DA				mov	dx,3DAh
2926:2044  EC					in	al,dx			; port 3DAh, CGA/EGA vid status
2926:2045  BA 03C0				mov	dx,3C0h
2926:2048  B0 30				mov	al,30h			; '0'
2926:204A  EE					out	dx,al			; port 3C0h, EGA attributes
2926:204B  B0 00				mov	al,0
2926:204D  EE					out	dx,al			; port 3C0h, EGA attributes
2926:204E  BA 03D4				mov	dx,3D4h
2926:2051  B0 09				mov	al,9
2926:2053  EE					out	dx,al			; port 3D4h, CGA/EGA reg index
										;  al = 9, max raster address
2926:2054  B0 81				mov	al,81h
2926:2056  42					inc	dx
2926:2057  EE					out	dx,al			; port 3D5h, CGA/EGA indxd data
2926:2058  90					nop
2926:2059  90					nop
2926:205A  90					nop
2926:205B			loc_262:					;  xref 2926:201D, 202F
2926:205B  BA 03DA				mov	dx,3DAh
2926:205E  EC					in	al,dx			; port 3DAh, CGA/EGA vid status
2926:205F  BA 03C0				mov	dx,3C0h
2926:2062  B0 10				mov	al,10h
2926:2064  EE					out	dx,al			; port 3C0h, EGA attributes
										;  al = 10h, mode control
2926:2065  B0 04				mov	al,4
2926:2067  EE					out	dx,al			; port 3C0h, EGA attributes
2926:2068  BA 03DA				mov	dx,3DAh
2926:206B  EC					in	al,dx			; port 3DAh, CGA/EGA vid status
2926:206C  BA 03C0				mov	dx,3C0h
           ICON0.lst       ICON0.OVL		Sourcer	v8.01  20-Jul-2026 12:17 am   Page 79

2926:206F  B0 20				mov	al,20h			; ' '
2926:2071  EE					out	dx,al			; port 3C0h, EGA attributes
2926:2072  EB 0E				jmp	short loc_263		; (2082)
2926:2074  8AC4			data_97		dw	8AC4h			;  xref 2926:0F88
2926:2076  05 EE				db	 05h,0EEh
2926:2078  4A47			data_98		dw	4A47h			;  xref 2926:0F2F
2926:207A  E2 F3 B0 08 BA D8			db	0E2h,0F3h,0B0h, 08h,0BAh,0D8h
2926:2080  03 90				db	 03h, 90h
2926:2082			loc_263:					;  xref 2926:2072
2926:2082  E8 0AC9		;*		call	sub_69			;*(2B4E)
2926:2082  E8 C9 0A				db	0E8h,0C9h, 0Ah
2926:2085  E8 0BA2				call	sub_72			; (2C2A)
2926:2088  33 DB				xor	bx,bx			; Zero register
2926:208A  8E C3				mov	es,bx
2926:208C úBF 006C				mov	di,data_3e		; (0000:006C=60h)
2926:208F  FA					cli				; Disable interrupts
2926:2090  B9 2199				mov	cx,2199h
2926:2093  26: 89 0D				mov	es:[di],cx
2926:2096  83 C7 02				add	di,2
2926:2099  26: 8C 0D				mov	es:[di],cs
2926:209C úBF 008C				mov	di,data_6e		; (0000:008C=91h)
2926:209F  BB 2199				mov	bx,2199h
2926:20A2  26: 89 1D				mov	es:[di],bx
2926:20A5  47					inc	di
2926:20A6  47					inc	di
2926:20A7  26: 8C 0D				mov	es:[di],cs
2926:20AA  FB					sti				; Enable interrupts
2926:20AB  2E: 8C 1E 2197			mov	word ptr cs:[2197h],ds	; (2926:2197=74h)
2926:20B0  C3					retn

				;ßßßßßßßßßßßßßßßßßßßßßßßßßßßßßßßßßßßßßßßßßßßßßßßßßßßßßßßßßßßßßßßßßßßßßßßßßß
				;                              SUBROUTINE
				;
				;         Called from:   2926:02DA, 10CE
				;ÜÜÜÜÜÜÜÜÜÜÜÜÜÜÜÜÜÜÜÜÜÜÜÜÜÜÜÜÜÜÜÜÜÜÜÜÜÜÜÜÜÜÜÜÜÜÜÜÜÜÜÜÜÜÜÜÜÜÜÜÜÜÜÜÜÜÜÜÜÜÜÜÜÜ

2926:20B1			sub_59		proc	near
2926:20B1  33 DB				xor	bx,bx			; Zero register
2926:20B3  8E C3				mov	es,bx
2926:20B5 úBF 0074				mov	di,data_5e		; (0000:0074=0A4h)
2926:20B8  8B 1E 8262				mov	bx,ds:data_58e		; (2916:8262=0)
2926:20BC  26: 89 1D				mov	es:[di],bx
2926:20BF  83 C7 02				add	di,2
2926:20C2  8B 1E 8264				mov	bx,ds:data_59e		; (2916:8264=0)
2926:20C6  26: 89 1D				mov	es:[di],bx
2926:20C9  B8 0001				mov	ax,1
2926:20CC  CD 10				int	10h			; Video display   ah=functn 00h
										;  set display mode in al
2926:20CE  B4 0B				mov	ah,0Bh
2926:20D0  BB 0001				mov	bx,1
2926:20D3  CD 10				int	10h			; Video display   ah=functn 0Bh
										;  set color from bx (CGA modes)
2926:20D5  B8 0500				mov	ax,500h
2926:20D8  CD 10				int	10h			; Video display   ah=functn 05h
										;  set display page al
2926:20DA  BB B800				mov	bx,0B800h
2926:20DD  53					push	bx
           ICON0.lst       ICON0.OVL		Sourcer	v8.01  20-Jul-2026 12:17 am   Page 80

2926:20DE  33 DB				xor	bx,bx			; Zero register
2926:20E0  53					push	bx
2926:20E1  BB 0800				mov	bx,800h
2926:20E4  53					push	bx
2926:20E5 úBB 1F20		;*		mov	bx,offset loc_2		;*
2926:20E5  BB 20 1F				db	0BBh, 20h, 1Fh
2926:20E8  53					push	bx
2926:20E9  E8 FE6C				call	sub_57			; (1F58)
2926:20EC  BB B800				mov	bx,0B800h
2926:20EF  53					push	bx
2926:20F0  BB 07D0				mov	bx,7D0h
2926:20F3  53					push	bx
2926:20F4  BB 03F2				mov	bx,3F2h
2926:20F7  53					push	bx
2926:20F8 úBB 1120		;*		mov	bx,offset loc_1		;*
2926:20F8  BB 20 11				db	0BBh, 20h, 11h
2926:20FB  53					push	bx
2926:20FC  E8 FE59				call	sub_57			; (1F58)
2926:20FF  BB 0001				mov	bx,1
2926:2102  53					push	bx
2926:2103  BB 000F				mov	bx,0Fh
2926:2106  53					push	bx
2926:2107  E8 0157				call	sub_61			; (2261)
2926:210A  33 DB				xor	bx,bx			; Zero register
2926:210C  8E C3				mov	es,bx
2926:210E úBF 006C				mov	di,data_3e		; (0000:006C=60h)
2926:2111  FA					cli				; Disable interrupts
2926:2112  B9 0188				mov	cx,188h
2926:2115  26: 89 0D				mov	es:[di],cx
2926:2118  47					inc	di
2926:2119  47					inc	di
2926:211A  26: 89 1D				mov	es:[di],bx
2926:211D úBF 008C				mov	di,data_6e		; (0000:008C=91h)
2926:2120  26: 89 0D				mov	es:[di],cx
2926:2123  47					inc	di
2926:2124  47					inc	di
2926:2125  26: 89 1D				mov	es:[di],bx
2926:2128  FB					sti				; Enable interrupts
2926:2129  E8 0A4D				call	sub_70			; (2B79)
2926:212C  E8 0B1A				call	sub_73			; (2C49)
2926:212F  C3					retn
				sub_59		endp


				;ßßßßßßßßßßßßßßßßßßßßßßßßßßßßßßßßßßßßßßßßßßßßßßßßßßßßßßßßßßßßßßßßßßßßßßßßßß
				;                              SUBROUTINE
				;
				;         Called from:   2926:01E0, 02DD, 10FB, 1F3D
				;ÜÜÜÜÜÜÜÜÜÜÜÜÜÜÜÜÜÜÜÜÜÜÜÜÜÜÜÜÜÜÜÜÜÜÜÜÜÜÜÜÜÜÜÜÜÜÜÜÜÜÜÜÜÜÜÜÜÜÜÜÜÜÜÜÜÜÜÜÜÜÜÜÜÜ

2926:2130			sub_60		proc	near
2926:2130  B4 0B				mov	ah,0Bh
2926:2132  33 DB				xor	bx,bx			; Zero register
2926:2134  CD 10				int	10h			; Video display   ah=functn 0Bh
										;  set color from bx (CGA modes)
2926:2136  32 E4				xor	ah,ah			; Zero register
2926:2138  A0 8261				mov	al,ds:data_57e		; (2916:8261=0)
           ICON0.lst       ICON0.OVL		Sourcer	v8.01  20-Jul-2026 12:17 am   Page 81

2926:213B  CD 10				int	10h			; Video display   ah=functn 00h
										;  set display mode in al
2926:213D  33 DB				xor	bx,bx			; Zero register
2926:213F  8E C3				mov	es,bx
2926:2141 úBF 006C				mov	di,data_3e		; (0000:006C=60h)
2926:2144  8B 1E 8232				mov	bx,ds:data_51e		; (2916:8232=0)
2926:2148  FA					cli				; Disable interrupts
2926:2149  26: 89 1D				mov	es:[di],bx
2926:214C  47					inc	di
2926:214D  47					inc	di
2926:214E  8B 1E 8234				mov	bx,ds:data_52e		; (2916:8234=0)
2926:2152  26: 89 1D				mov	es:[di],bx
2926:2155 úBF 008C				mov	di,data_6e		; (0000:008C=91h)
2926:2158  8B 1E 824A				mov	bx,ds:data_53e		; (2916:824A=0)
2926:215C  26: 89 1D				mov	es:[di],bx
2926:215F  8B 1E 824C				mov	bx,ds:data_54e		; (2916:824C=0)
2926:2163  47					inc	di
2926:2164  47					inc	di
2926:2165  26: 89 1D				mov	es:[di],bx
2926:2168 úBF 0014				mov	di,data_1e		; (0000:0014=54h)
2926:216B  8B 1E 8269				mov	bx,ds:data_60e		; (2916:8269=0)
2926:216F  26: 89 1D				mov	es:[di],bx
2926:2172  47					inc	di
2926:2173  47					inc	di
2926:2174  8B 1E 826B				mov	bx,ds:data_61e		; (2916:826B=0)
2926:2178  26: 89 1D				mov	es:[di],bx
2926:217B  FB					sti				; Enable interrupts
2926:217C  FB					sti				; Enable interrupts
2926:217D  8B 1E 0124				mov	bx,ds:data_19e		; (2916:0124=0)
2926:2181  8B 0E 0126				mov	cx,ds:data_20e		; (2916:0126=0)
2926:2185  51					push	cx
2926:2186  53					push	bx
2926:2187  E8 00D7				call	sub_61			; (2261)
2926:218A  C3					retn
				sub_60		endp

							                        ;* No entry point to code
2926:218B  B4 0F				mov	ah,0Fh
2926:218D  CD 10				int	10h			; Video display   ah=functn 0Fh
										;  get state, al=mode, bh=page
										;   ah=columns on screen
2926:218F  A2 8261				mov	ds:data_309e,al		; (2926:8261=0)
2926:2192  33 DB				xor	bx,bx			; Zero register
2926:2194  8E C3				mov	es,bx
2926:2196 úBF 0074				mov	di,data_5e		; (0000:0074=0A4h)
2926:2199  26: 8B 1D				mov	bx,es:[di]
2926:219C  89 1E 8262				mov	ds:data_310e,bx		; (2926:8262=0)
2926:21A0  83 C7 02				add	di,2
2926:21A3  26: 8B 1D				mov	bx,es:[di]
2926:21A6  89 1E 8264				mov	ds:data_311e,bx		; (2926:8264=0)
2926:21AA  FA					cli				; Disable interrupts
2926:21AB  33 DB				xor	bx,bx			; Zero register
2926:21AD  8E C3				mov	es,bx
2926:21AF úBF 006C				mov	di,data_3e		; (0000:006C=60h)
2926:21B2  26: 8B 1D				mov	bx,es:[di]
2926:21B5  89 1E 8232				mov	ds:data_302e,bx		; (2926:8232=0)
2926:21B9  47					inc	di
           ICON0.lst       ICON0.OVL		Sourcer	v8.01  20-Jul-2026 12:17 am   Page 82

2926:21BA  47					inc	di
2926:21BB  26: 8B 1D				mov	bx,es:[di]
2926:21BE  89 1E 8234				mov	ds:data_303e,bx		; (2926:8234=0)
2926:21C2 úBF 008C				mov	di,data_6e		; (0000:008C=91h)
2926:21C5  26: 8B 1D				mov	bx,es:[di]
2926:21C8  89 1E 824A				mov	ds:data_304e,bx		; (2926:824A=0)
2926:21CC  47					inc	di
2926:21CD  47					inc	di
2926:21CE  26: 8B 1D				mov	bx,es:[di]
2926:21D1  89 1E 824C				mov	ds:data_305e,bx		; (2926:824C=0)
2926:21D5 úBF 0188				mov	di,data_9e		; (0000:0188=0)
2926:21D8  B3 CF				mov	bl,0CFh
2926:21DA  26: 88 1D				mov	es:[di],bl
2926:21DD úBF 0014				mov	di,data_1e		; (0000:0014=54h)
2926:21E0  26: 8B 1D				mov	bx,es:[di]
2926:21E3  89 1E 8269				mov	ds:data_313e,bx		; (2926:8269=0)
2926:21E7  BB 0188				mov	bx,188h
2926:21EA  26: 89 1D				mov	es:[di],bx
2926:21ED  47					inc	di
2926:21EE  47					inc	di
2926:21EF  26: 8B 1D				mov	bx,es:[di]
2926:21F2  89 1E 826B				mov	ds:data_314e,bx		; (2926:826B=0)
2926:21F6  8C C3				mov	bx,es
2926:21F8  26: 89 1D				mov	es:[di],bx
2926:21FB  FB					sti				; Enable interrupts
2926:21FC  C6 06 8256 00			mov	byte ptr ds:data_306e,0	; (2926:8256=0)
2926:2201  B9 FFFF				mov	cx,0FFFFh
2926:2204  8E C1				mov	es,cx
2926:2206 úBF 000E				mov	di,offset data_76	; (2926:000E=0)
2926:2209  26: 8A 1D				mov	bl,es:[di]
2926:220C  80 FB FD				cmp	bl,0FDh
2926:220F  75 05				jne	loc_ret_264		; Jump if not equal
2926:2211  C6 06 8256 01			mov	byte ptr ds:data_306e,1	; (2926:8256=0)

2926:2216			loc_ret_264:					;  xref 2926:220F
2926:2216  C3					retn
2926:2217  00 00 FB 1E 2E 8E			db	 00h, 00h,0FBh, 1Eh, 2Eh, 8Eh
2926:221D  1E 97 21 C7 06 F4			db	 1Eh, 97h, 21h,0C7h, 06h,0F4h
2926:2223  5D 01 00 1F CF FC			db	 5Dh, 01h, 00h, 1Fh,0CFh,0FCh
2926:2229  5B 59 5F 07 5E 58			db	 5Bh, 59h, 5Fh, 07h, 5Eh, 58h
2926:222F  8C DA 8E D8 F3 A5			db	 8Ch,0DAh, 8Eh,0D8h,0F3h,0A5h
2926:2235  8E DA FF E3 5B 59			db	 8Eh,0DAh,0FFh,0E3h, 5Bh, 59h
2926:223B  5F 07 5E 58 8C DA			db	 5Fh, 07h, 5Eh, 58h, 8Ch,0DAh
2926:2241  8E D8 8B C1 48 D1			db	 8Eh,0D8h, 8Bh,0C1h, 48h,0D1h
2926:2247  E0 03 F8 03 F0 FD			db	0E0h, 03h,0F8h, 03h,0F0h,0FDh
2926:224D  F3 A5 FC 8E DA FF			db	0F3h,0A5h,0FCh, 8Eh,0DAh,0FFh
2926:2253  E3 1B 5B 30 3B 24			db	0E3h, 1Bh, 5Bh, 30h, 3Bh, 24h
2926:2259  00 04 02 06 01 05			db	 00h, 04h, 02h, 06h, 01h, 05h
2926:225F  03 07				db	 03h, 07h

				;ßßßßßßßßßßßßßßßßßßßßßßßßßßßßßßßßßßßßßßßßßßßßßßßßßßßßßßßßßßßßßßßßßßßßßßßßßß
				;                              SUBROUTINE
				;
				;         Called from:   2926:2107, 2187, 4C0F
				;ÜÜÜÜÜÜÜÜÜÜÜÜÜÜÜÜÜÜÜÜÜÜÜÜÜÜÜÜÜÜÜÜÜÜÜÜÜÜÜÜÜÜÜÜÜÜÜÜÜÜÜÜÜÜÜÜÜÜÜÜÜÜÜÜÜÜÜÜÜÜÜÜÜÜ

2926:2261			sub_61		proc	near
           ICON0.lst       ICON0.OVL		Sourcer	v8.01  20-Jul-2026 12:17 am   Page 83

2926:2261  B4 03				mov	ah,3
2926:2263  33 DB				xor	bx,bx			; Zero register
2926:2265  CD 10				int	10h			; Video display   ah=functn 03h
										;  get cursor loc in dx, mode cx
2926:2267  5B					pop	bx
2926:2268  58					pop	ax
2926:2269  59					pop	cx
2926:226A  53					push	bx
2926:226B  8B 1E 0122				mov	bx,ds:data_18e		; (2916:0122=0)
2926:226F  0B DB				or	bx,bx			; Zero ?
2926:2271  75 01				jnz	loc_265			; Jump if not zero
2926:2273  C3					retn
2926:2274			loc_265:					;  xref 2926:2271
2926:2274  52					push	dx
2926:2275  51					push	cx
2926:2276  50					push	ax
2926:2277  B4 09				mov	ah,9
2926:2279  1E					push	ds
2926:227A  8C CA				mov	dx,cs
2926:227C  8E DA				mov	ds,dx
2926:227E úBA 21D4				mov	dx,21D4h		; (2926:21D4='      &    ')
2926:2281  CD 21				int	21h			; DOS Services  ah=function 09h
										;  display char string at ds:dx
2926:2283  1F					pop	ds
2926:2284  B4 06				mov	ah,6
2926:2286  5B					pop	bx
2926:2287  80 FB 08				cmp	bl,8
2926:228A  7C 0B				jl	loc_266			; Jump if <
2926:228C  B2 31				mov	dl,31h			; '1'
2926:228E  CD 21				int	21h			; DOS Services  ah=function 06h
										;  special char i/o, dl=subfunc
2926:2290  B2 3B				mov	dl,3Bh			; ';'
2926:2292  CD 21				int	21h			; DOS Services  ah=function 06h
										;  special char i/o, dl=subfunc
2926:2294  80 EB 08				sub	bl,8
2926:2297			loc_266:					;  xref 2926:228A
2926:2297  B2 33				mov	dl,33h			; '3'
2926:2299  CD 21				int	21h			; DOS Services  ah=function 06h
										;  special char i/o, dl=subfunc
2926:229B  8A C3				mov	al,bl
2926:229D úBB 21D9				mov	bx,21D9h		; (2926:21D9=' ')
2926:22A0  2E: D7				xlat	cs:[bx]			; al=[al+[bx]] table
2926:22A2  8A D0				mov	dl,al
2926:22A4  80 C2 30				add	dl,30h			; '0'
2926:22A7  B4 06				mov	ah,6
2926:22A9  CD 21				int	21h			; DOS Services  ah=function 06h
										;  special char i/o, dl=subfunc
2926:22AB  B2 3B				mov	dl,3Bh			; ';'
2926:22AD  CD 21				int	21h			; DOS Services  ah=function 06h
										;  special char i/o, dl=subfunc
2926:22AF  5B					pop	bx
2926:22B0  80 FB 08				cmp	bl,8
2926:22B3  7C 0B				jl	loc_267			; Jump if <
2926:22B5  B2 35				mov	dl,35h			; '5'
2926:22B7  CD 21				int	21h			; DOS Services  ah=function 06h
										;  special char i/o, dl=subfunc
2926:22B9  B2 3B				mov	dl,3Bh			; ';'
           ICON0.lst       ICON0.OVL		Sourcer	v8.01  20-Jul-2026 12:17 am   Page 84

2926:22BB  CD 21				int	21h			; DOS Services  ah=function 06h
										;  special char i/o, dl=subfunc
2926:22BD  80 EB 08				sub	bl,8
2926:22C0			loc_267:					;  xref 2926:22B3
2926:22C0  B2 34				mov	dl,34h			; '4'
2926:22C2  CD 21				int	21h			; DOS Services  ah=function 06h
										;  special char i/o, dl=subfunc
2926:22C4  8A C3				mov	al,bl
2926:22C6 úBB 21D9				mov	bx,21D9h		; (2926:21D9=' ')
2926:22C9  2E: D7				xlat	cs:[bx]			; al=[al+[bx]] table
2926:22CB  8A D0				mov	dl,al
2926:22CD  80 C2 30				add	dl,30h			; '0'
2926:22D0  B4 06				mov	ah,6
2926:22D2  CD 21				int	21h			; DOS Services  ah=function 06h
										;  special char i/o, dl=subfunc
2926:22D4  B2 6D				mov	dl,6Dh			; 'm'
2926:22D6  CD 21				int	21h			; DOS Services  ah=function 06h
										;  special char i/o, dl=subfunc
2926:22D8  B8 0500				mov	ax,500h
2926:22DB  CD 10				int	10h			; Video display   ah=functn 05h
										;  set display page al
2926:22DD  B4 02				mov	ah,2
2926:22DF  33 DB				xor	bx,bx			; Zero register
2926:22E1  5A					pop	dx
2926:22E2  CD 10				int	10h			; Video display   ah=functn 02h
										;  set cursor location in dx
2926:22E4  C3					retn
				sub_61		endp

							                        ;* No entry point to code
2926:22E5  B8 09CE				mov	ax,9CEh
2926:22E8  BB 0000				mov	bx,0
2926:22EB  B9 0001				mov	cx,1
2926:22EE  CD 10				int	10h			; Video display   ah=functn 09h
										;  set char al & attrib bl @curs
										;   cx=# of chars to replicate
2926:22F0  B8 0920				mov	ax,920h
2926:22F3  BB 0007				mov	bx,7
2926:22F6  B9 0001				mov	cx,1
2926:22F9  CD 10				int	10h			; Video display   ah=functn 09h
										;  set char al & attrib bl @curs
										;   cx=# of chars to replicate
2926:22FB  B8 B800				mov	ax,0B800h
2926:22FE  8E C0				mov	es,ax
2926:2300  33 C0				xor	ax,ax			; Zero register
2926:2302  8B F8				mov	di,ax
2926:2304  B8 00CE				mov	ax,0CEh
2926:2307  B9 07DA				mov	cx,7DAh
2926:230A  F3/ AF				repe	scasw			; Rep zf=1+cx >0 Scan es:[di] for ax
2926:230C  0B C9				or	cx,cx			; Zero ?
2926:230E  75 03				jnz	loc_268			; Jump if not zero
2926:2310  33 C0				xor	ax,ax			; Zero register
2926:2312  C3					retn
2926:2313			loc_268:					;  xref 2926:230E
2926:2313  33 C0				xor	ax,ax			; Zero register
2926:2315  F7 D0				not	ax
2926:2317  C3					retn
           ICON0.lst       ICON0.OVL		Sourcer	v8.01  20-Jul-2026 12:17 am   Page 85


				;ßßßßßßßßßßßßßßßßßßßßßßßßßßßßßßßßßßßßßßßßßßßßßßßßßßßßßßßßßßßßßßßßßßßßßßßßßß
				;                              SUBROUTINE
				;
				;         Called from:   2926:10C3, 1101
				;ÜÜÜÜÜÜÜÜÜÜÜÜÜÜÜÜÜÜÜÜÜÜÜÜÜÜÜÜÜÜÜÜÜÜÜÜÜÜÜÜÜÜÜÜÜÜÜÜÜÜÜÜÜÜÜÜÜÜÜÜÜÜÜÜÜÜÜÜÜÜÜÜÜÜ

2926:2318			sub_62		proc	near
2926:2318  1E					push	ds
2926:2319  8C CA				mov	dx,cs
2926:231B  8E DA				mov	ds,dx
2926:231D  A0 22BB				mov	al,byte ptr ds:[22BBh]	; (2926:22BB=0CDh)
2926:2320  04 1D				add	al,1Dh
2926:2322  A2 22BB				mov	byte ptr ds:[22BBh],al	; (2926:22BB=0CDh)
2926:2325  80 0E 22BC 03			or	byte ptr ds:[22BCh],3	; (2926:22BC=21h)
2926:232A  E8 009A				call	sub_64			; (23C7)
2926:232D  33 D2				xor	dx,dx			; Zero register
2926:232F			loc_269:					;  xref 2926:234F
2926:232F  B9 0004				mov	cx,4

2926:2332			locloop_270:					;  xref 2926:2348
2926:2332  51					push	cx
2926:2333  B1 80				mov	cl,80h
2926:2335  B5 27				mov	ch,27h			; '''
2926:2337  B4 04				mov	ah,4
2926:2339  B0 01				mov	al,1
2926:233B  B0 10				mov	al,10h
2926:233D  59					pop	cx
2926:233E  73 08				jnc	loc_271			; Jump if carry=0
2926:2340  80 E4 EF				and	ah,0EFh
2926:2343  75 03				jnz	loc_271			; Jump if not zero
2926:2345  E9 001A				jmp	loc_272			; (2362)
2926:2348			loc_271:					;  xref 2926:233E, 2343
2926:2348  E2 E8				loop	locloop_270		; Loop if cx > 0

2926:234A  FE C2				inc	dl
2926:234C  80 FA 02				cmp	dl,2
2926:234F  7C DE				jl	loc_269			; Jump if <
2926:2351  80 26 22BC 10			and	byte ptr ds:[22BCh],10h	; (2926:22BC=21h)
2926:2356  A0 22BB				mov	al,byte ptr ds:[22BBh]	; (2926:22BB=0CDh)
2926:2359  2C 1D				sub	al,1Dh
2926:235B  A2 22BB				mov	byte ptr ds:[22BBh],al	; (2926:22BB=0CDh)
2926:235E  1F					pop	ds
2926:235F  33 C0				xor	ax,ax			; Zero register
2926:2361  C3					retn
2926:2362			loc_272:					;  xref 2926:2345
2926:2362  80 26 22BC 10			and	byte ptr ds:[22BCh],10h	; (2926:22BC=21h)
2926:2367  A0 22BB				mov	al,byte ptr ds:[22BBh]	; (2926:22BB=0CDh)
2926:236A  2C 1D				sub	al,1Dh
2926:236C  A2 22BB				mov	byte ptr ds:[22BBh],al	; (2926:22BB=0CDh)
2926:236F  1F					pop	ds
2926:2370  B8 0001				mov	ax,1
2926:2373  C3					retn
				sub_62		endp


				;ßßßßßßßßßßßßßßßßßßßßßßßßßßßßßßßßßßßßßßßßßßßßßßßßßßßßßßßßßßßßßßßßßßßßßßßßßß
           ICON0.lst       ICON0.OVL		Sourcer	v8.01  20-Jul-2026 12:17 am   Page 86

				;                              SUBROUTINE
				;
				;         Called from:   2926:1DCB
				;ÜÜÜÜÜÜÜÜÜÜÜÜÜÜÜÜÜÜÜÜÜÜÜÜÜÜÜÜÜÜÜÜÜÜÜÜÜÜÜÜÜÜÜÜÜÜÜÜÜÜÜÜÜÜÜÜÜÜÜÜÜÜÜÜÜÜÜÜÜÜÜÜÜÜ

2926:2374			sub_63		proc	near
2926:2374  33 C0				xor	ax,ax			; Zero register
2926:2376  80 3E 8224 00			cmp	byte ptr ds:data_298e,0	; (2926:8224=0)
2926:237B  74 1E				je	loc_ret_275		; Jump if equal
2926:237D  33 DB				xor	bx,bx			; Zero register
2926:237F  B1 04				mov	cl,4
2926:2381  BA 0201				mov	dx,201h
2926:2384			loc_273:					;  xref 2926:2391, 2399
2926:2384 úEC					in	al,dx			; port 201h, start game 1-shots
2926:2385  D2 E8				shr	al,cl			; Shift w/zeros fill
2926:2387  F6 D0				not	al
2926:2389  3A C3				cmp	al,bl
2926:238B  74 07				je	loc_274			; Jump if equal
2926:238D  32 FF				xor	bh,bh			; Zero register
2926:238F  8A D8				mov	bl,al
2926:2391  E9 FFF0				jmp	loc_273			; (2384)
						nop	                                        ;*jump fixup
2926:2394			loc_274:					;  xref 2926:238B
2926:2394  FE C7				inc	bh
2926:2396  80 FF 32				cmp	bh,32h			; '2'
2926:2399  7C E9				jl	loc_273			; Jump if <

2926:239B			loc_ret_275:					;  xref 2926:237B
2926:239B  C3					retn
				sub_63		endp

2926:239C  28 63 29 20 38 34			db	'(c) 84 - NW & RB'
2926:23A2  20 2D 20 4E 57 20
2926:23A8  26 20 52 42
2926:23AC  FA B9 FF 00 BA 01			db	0FAh,0B9h,0FFh, 00h,0BAh, 01h
2926:23B2  02 33 F6 BB 01 01			db	 02h, 33h,0F6h,0BBh, 01h, 01h
2926:23B8  EE					db	0EEh

2926:23B9			locloop_276:					;  xref 2926:23C2
2926:23B9  EC					in	al,dx			; port 201h, start game 1-shots
2926:23BA  8A E0				mov	ah,al
2926:23BC  D0 EC				shr	ah,1			; Shift w/zeros fill
2926:23BE  23 D8				and	bx,ax
2926:23C0  03 F3				add	si,bx
2926:23C2  E2 F5				loop	locloop_276		; Loop if cx > 0

2926:23C4  8B C6				mov	ax,si
2926:23C6  FB					sti				; Enable interrupts

				;ßßßßßßßßßßßßßßßßßßßßßßßßßßßßßßßßßßßßßßßßßßßßßßßßßßßßßßßßßßßßßßßßßßßßßßßßßß
				;                              SUBROUTINE
				;
				;         Called from:   2926:232A
				;ÜÜÜÜÜÜÜÜÜÜÜÜÜÜÜÜÜÜÜÜÜÜÜÜÜÜÜÜÜÜÜÜÜÜÜÜÜÜÜÜÜÜÜÜÜÜÜÜÜÜÜÜÜÜÜÜÜÜÜÜÜÜÜÜÜÜÜÜÜÜÜÜÜÜ

2926:23C7			sub_64		proc	near
2926:23C7  C7 06 2C18 FFFF			mov	word ptr ds:[2C18h],0FFFFh	; (2926:2C18=0FFB9h)
           ICON0.lst       ICON0.OVL		Sourcer	v8.01  20-Jul-2026 12:17 am   Page 87

2926:23CD  C3					retn
				sub_64		endp

2926:23CE  00 01 1F 00 02 01			db	 00h, 01h, 1Fh, 00h, 02h, 01h
2926:23D4  00 DA C4 00 03 23			db	 00h,0DAh,0C4h, 00h, 03h, 23h
2926:23DA  C4 BF 00 02 01 01			db	0C4h,0BFh, 00h, 02h, 01h, 01h
2926:23E0  B3 20 20 20 20 DC			db	0B3h, 20h, 20h, 20h, 20h,0DCh
2926:23E6  DC DC DC DC 20 20			db	0DCh,0DCh,0DCh,0DCh, 20h, 20h
2926:23EC  DC DC DC DC DC 20			db	0DCh,0DCh,0DCh,0DCh,0DCh, 20h
2926:23F2  20 DC DC DC DC DC			db	 20h,0DCh,0DCh,0DCh,0DCh,0DCh
2926:23F8  20 20 DC DC DC DC			db	 20h, 20h,0DCh,0DCh,0DCh,0DCh
2926:23FE  DC 00 02 26 01 B3			db	0DCh, 00h, 02h, 26h, 01h,0B3h
2926:2404  00 02 01 02 B3 20			db	 00h, 02h, 01h, 02h,0B3h, 20h
2926:240A  20 20 20 20 20 DB			db	 20h, 20h, 20h, 20h, 20h,0DBh
2926:2410  20 20 20 20 DB 20			db	 20h, 20h, 20h, 20h,0DBh, 20h
2926:2416  20 20 DB 20 20 DB			db	 20h, 20h,0DBh, 20h, 20h,0DBh
2926:241C  20 20 20 DB 20 20			db	 20h, 20h, 20h,0DBh, 20h, 20h
2926:2422  DB 20 20 20 DB 00			db	0DBh, 20h, 20h, 20h,0DBh, 00h
2926:2428  02 26 02 B3 00 02			db	 02h, 26h, 02h,0B3h, 00h, 02h
2926:242E  01 03 B3 20 20 20			db	 01h, 03h,0B3h, 20h, 20h, 20h
2926:2434  20 20 20 DB 20 20			db	 20h, 20h, 20h,0DBh, 20h, 20h
2926:243A  20 20 DB 20 20 20			db	 20h, 20h,0DBh, 20h, 20h, 20h
2926:2440  20 20 20 DB 20 20			db	 20h, 20h, 20h,0DBh, 20h, 20h
2926:2446  20 DB 20 20 DB 20			db	 20h,0DBh, 20h, 20h,0DBh, 20h
2926:244C  20 20 DB 00 02 26			db	 20h, 20h,0DBh, 00h, 02h, 26h
2926:2452  03 B3 00 02 01 04			db	 03h,0B3h, 00h, 02h, 01h, 04h
2926:2458  B3 20 20 20 20 20			db	0B3h, 20h, 20h, 20h, 20h, 20h
2926:245E  20 DB 20 20 20 20			db	 20h,0DBh, 20h, 20h, 20h, 20h
2926:2464  DB 20 20 20 DB 20			db	0DBh, 20h, 20h, 20h,0DBh, 20h
2926:246A  20 DB 20 20 20 DB			db	 20h,0DBh, 20h, 20h, 20h,0DBh
2926:2470  20 20 DB 20 20 20			db	 20h, 20h,0DBh, 20h, 20h, 20h
2926:2476  DB 00 02 26 04 B3			db	0DBh, 00h, 02h, 26h, 04h,0B3h
2926:247C  00 02 01 05 B3 20			db	 00h, 02h, 01h, 05h,0B3h, 20h
2926:2482  20 20 20 DF DF DF			db	 20h, 20h, 20h,0DFh,0DFh,0DFh
2926:2488  DF DF 20 20 DF DF			db	0DFh,0DFh, 20h, 20h,0DFh,0DFh
2926:248E  DF DF DF 20 20 DF			db	0DFh,0DFh,0DFh, 20h, 20h,0DFh
2926:2494  DF DF DF DF 20 20			db	0DFh,0DFh,0DFh,0DFh, 20h, 20h
2926:249A  DF 20 20 20 DF 00			db	0DFh, 20h, 20h, 20h,0DFh, 00h
2926:24A0  02 26 05 B3 00 02			db	 02h, 26h, 05h,0B3h, 00h, 02h
2926:24A6  01 06 B3 00 02 08			db	 01h, 06h,0B3h, 00h, 02h, 08h
2926:24AC  06					db	 06h
2926:24AD  54 48 45 20 51 55			db	'THE QUEST FOR THE RING'
2926:24B3  45 53 54 20 46 4F
2926:24B9  52 20 54 48 45 20
2926:24BF  52 49 4E 47
2926:24C3  00 02 26 06 B3 00			db	 00h, 02h, 26h, 06h,0B3h, 00h
2926:24C9  02 01 07 B3 00 02			db	 02h, 01h, 07h,0B3h, 00h, 02h
2926:24CF  26 07 B3 00 02 01			db	 26h, 07h,0B3h, 00h, 02h, 01h
2926:24D5  08 B3 00 02				db	 08h,0B3h, 00h, 02h
2926:24D9  0A 08 28 43 29 20			db	0Ah, 8, '(C) Copyright 1984,'
2926:24DF  43 6F 70 79 72 69
2926:24E5  67 68 74 20 31 39
2926:24EB  38 34 2C
2926:24EE  00 02 26 08 B3 00			db	 00h, 02h, 26h, 08h,0B3h, 00h
2926:24F4  02 01 09 B3				db	 02h, 01h, 09h,0B3h
2926:24F8  20					db	20h
2926:24F9  4E 65 61 6C 20 57			db	'Neal White III a'
           ICON0.lst       ICON0.OVL		Sourcer	v8.01  20-Jul-2026 12:17 am   Page 88

2926:24FF  68 69 74 65 20 49
2926:2505  49 49 20 61
2926:2509  6E 64 20 52 61 6E			db	'nd Rand E. Bohrer  '
2926:250F  64 20 45 2E 20 42
2926:2515  6F 68 72 65 72 20
2926:251B  20
2926:251C  B3 00 02 01 0A B3			db	0B3h, 00h, 02h, 01h, 0Ah,0B3h
2926:2522  00 02				db	 00h, 02h
2926:2524  0A 0A 41 6C 6C 20			db	0Ah, 0Ah, 'All Rights Reserved'
2926:252A  52 69 67 68 74 73
2926:2530  20 52 65 73 65 72
2926:2536  76 65 64
2926:2539  00 02 26 0A B3 00			db	 00h, 02h, 26h, 0Ah,0B3h, 00h
2926:253F  02 01 0B C3 00 03			db	 02h, 01h, 0Bh,0C3h, 00h, 03h
2926:2545  24 C4 B4 00 02 01			db	 24h,0C4h,0B4h, 00h, 02h, 01h
2926:254B  0C B3 00 02				db	 0Ch,0B3h, 00h, 02h
2926:254F  0D 0C 4D 61 63 72			db	0Dh, 0Ch, 'Macrocom, Inc.'
2926:2555  6F 63 6F 6D 2C 20
2926:255B  49 6E 63 2E
2926:255F  00 02 26 0C B3 00			db	 00h, 02h, 26h, 0Ch,0B3h, 00h
2926:2565  02 01 0D C0 00 03			db	 02h, 01h, 0Dh,0C0h, 00h, 03h
2926:256B  24 C4 D9 00 02 01			db	 24h,0C4h,0D9h, 00h, 02h, 01h
2926:2571  0E					db	 0Eh
2926:2572  54 68				db	 54h, 68h
2926:2574  69 73 20 67 61 6D			db	'is game re'
2926:257A  65 20 72 65
2926:257E  71 75 69 72 65 73			db	'quires an IBM PC or true'
2926:2584  20 61 6E 20 49 42
2926:258A  4D 20 50 43 20 6F
2926:2590  72 20 74 72 75 65
2926:2596  00 02 01 0F				db	 00h, 02h, 01h, 0Fh
2926:259A  63 6F 6D 70 61 74			db	'compatibl'
2926:25A0  69 62 6C
2926:25A3  65 20 77 69 74 68			db	'e with a color graphics card.'
2926:25A9  20 61 20 63 6F 6C
2926:25AF  6F 72 20 67 72 61
2926:25B5  70 68 69 63 73 20
2926:25BB  63 61 72 64 2E
2926:25C0  00 02 01 11				db	 00h, 02h, 01h, 11h
2926:25C4  41					db	'A'
2926:25C5  66 74 65 72 20 74			db	'fter the game'
2926:25CB  68 65 20 67 61 6D
2926:25D1  65
2926:25D2  20 68 61 73 20 62			db	' has begun, press the F1'
2926:25D8  65 67 75 6E 2C 20
2926:25DE  70 72 65 73 73 20
2926:25E4  74 68 65 20 46 31
2926:25EA  00 02 01 12				db	 00h, 02h, 01h, 12h
2926:25EE  6B 65 79 20 66 6F			db	'key for HELP.'
2926:25F4  72 20 48 45 4C 50
2926:25FA  2E
2926:25FB  00 02 00 14 00 00			db	 00h, 02h, 00h, 14h, 00h, 00h

				;ßßßßßßßßßßßßßßßßßßßßßßßßßßßßßßßßßßßßßßßßßßßßßßßßßßßßßßßßßßßßßßßßßßßßßßßßßß
				;                              SUBROUTINE
				;
				;         Called from:   2926:05E0, 05FB, 1A13, 1A32, 1A51
           ICON0.lst       ICON0.OVL		Sourcer	v8.01  20-Jul-2026 12:17 am   Page 89

				;ÜÜÜÜÜÜÜÜÜÜÜÜÜÜÜÜÜÜÜÜÜÜÜÜÜÜÜÜÜÜÜÜÜÜÜÜÜÜÜÜÜÜÜÜÜÜÜÜÜÜÜÜÜÜÜÜÜÜÜÜÜÜÜÜÜÜÜÜÜÜÜÜÜÜ

2926:2601			sub_65		proc	near
2926:2601  A1 826D				mov	ax,ds:data_315e		; (2926:826D=0)
2926:2604  05 9248				add	ax,9248h
2926:2607  B1 03				mov	cl,3
2926:2609  D3 C8				ror	ax,cl			; Rotate
2926:260B  A3 826D				mov	ds:data_315e,ax		; (2926:826D=0)
2926:260E  BB 2710				mov	bx,2710h
2926:2611  33 D2				xor	dx,dx			; Zero register
2926:2613  F7 F3				div	bx			; ax,dx rem=dx:ax/reg
2926:2615  8B C2				mov	ax,dx
2926:2617  C3					retn
				sub_65		endp


				;ßßßßßßßßßßßßßßßßßßßßßßßßßßßßßßßßßßßßßßßßßßßßßßßßßßßßßßßßßßßßßßßßßßßßßßßßßß
				;                              SUBROUTINE
				;
				;         Called from:   2926:26CB
				;ÜÜÜÜÜÜÜÜÜÜÜÜÜÜÜÜÜÜÜÜÜÜÜÜÜÜÜÜÜÜÜÜÜÜÜÜÜÜÜÜÜÜÜÜÜÜÜÜÜÜÜÜÜÜÜÜÜÜÜÜÜÜÜÜÜÜÜÜÜÜÜÜÜÜ

2926:2618			sub_66		proc	near
2926:2618  2E: 8C 1E 26B4			mov	word ptr cs:[26B4h],ds	; (2926:26B4=26B4h)
2926:261D  8C C8				mov	ax,cs
2926:261F  8E D8				mov	ds,ax
2926:2621  2E: C7 06 26B1 0001			mov	word ptr cs:[26B1h],1	; (2926:26B1=8E2Eh)
2926:2628  FC					cld				; Clear direction
2926:2629			loc_277:					;  xref 2926:266E, 267F, 2690, 269E
2926:2629 úAC					lodsb				; String [si] to al
2926:262A  0A C0				or	al,al			; Zero ?
2926:262C  74 43				jz	loc_280			; Jump if zero
2926:262E			loc_278:					;  xref 2926:2695
2926:262E  2E: A2 26AE				mov	byte ptr cs:[26AEh],al	; (2926:26AE=2)
2926:2632  2E: 8A 16 26AF			mov	dl,byte ptr cs:[26AFh]	; (2926:26AF=0CDh)
2926:2637  2E: 8A 36 26B0			mov	dh,byte ptr cs:[26B0h]	; (2926:26B0=10h)
2926:263C  32 FF				xor	bh,bh			; Zero register
2926:263E  B4 02				mov	ah,2
2926:2640  CD 10				int	10h			; Video display   ah=functn 02h
										;  set cursor location in dx
2926:2642  33 C0				xor	ax,ax			; Zero register
2926:2644  2E: A0 26AE				mov	al,byte ptr cs:[26AEh]	; (2926:26AE=2)
2926:2648  2E: 8B 0E 26B1			mov	cx,word ptr cs:[26B1h]	; (2926:26B1=8E2Eh)
2926:264D  2E: 8A 1E 26B3			mov	bl,byte ptr cs:[26B3h]	; (2926:26B3=1Eh)
2926:2652  3D 00B3				cmp	ax,0B3h
2926:2655  7C 07				jl	loc_279			; Jump if <
2926:2657  3D 00DA				cmp	ax,0DAh
2926:265A  7F 02				jg	loc_279			; Jump if >
2926:265C  B3 10				mov	bl,10h
2926:265E			loc_279:					;  xref 2926:2655, 265A
2926:265E  B4 09				mov	ah,9
2926:2660  CD 10				int	10h			; Video display   ah=functn 09h
										;  set char al & attrib bl @curs
										;   cx=# of chars to replicate
2926:2662  2E: 00 0E 26AF			add	byte ptr cs:[26AFh],cl	; (2926:26AF=0CDh)
2926:2667  2E: C7 06 26B1 0001			mov	word ptr cs:[26B1h],1	; (2926:26B1=8E2Eh)
2926:266E  E9 FFB8				jmp	loc_277			; (2629)
           ICON0.lst       ICON0.OVL		Sourcer	v8.01  20-Jul-2026 12:17 am   Page 90

						nop	                                        ;*jump fixup
2926:2671			loc_280:					;  xref 2926:262C
2926:2671  AC					lodsb				; String [si] to al
2926:2672  0A C0				or	al,al			; Zero ?
2926:2674  74 2B				jz	loc_283			; Jump if zero
2926:2676  3C 01				cmp	al,1
2926:2678  75 08				jne	loc_281			; Jump if not equal
2926:267A  AC					lodsb				; String [si] to al
2926:267B  2E: A2 26B3				mov	byte ptr cs:[26B3h],al	; (2926:26B3=1Eh)
2926:267F  E9 FFA7				jmp	loc_277			; (2629)
						nop	                                        ;*jump fixup
2926:2682			loc_281:					;  xref 2926:2678
2926:2682  3C 02				cmp	al,2
2926:2684  75 0D				jne	loc_282			; Jump if not equal
2926:2686  AC					lodsb				; String [si] to al
2926:2687  2E: A2 26AF				mov	byte ptr cs:[26AFh],al	; (2926:26AF=0CDh)
2926:268B  AC					lodsb				; String [si] to al
2926:268C  2E: A2 26B0				mov	byte ptr cs:[26B0h],al	; (2926:26B0=10h)
2926:2690  E9 FF96				jmp	loc_277			; (2629)
						nop	                                        ;*jump fixup
2926:2693			loc_282:					;  xref 2926:2684
2926:2693  3C 03				cmp	al,3
2926:2695  75 97				jne	loc_278			; Jump if not equal
2926:2697  AC					lodsb				; String [si] to al
2926:2698  32 E4				xor	ah,ah			; Zero register
2926:269A  2E: A3 26B1				mov	word ptr cs:[26B1h],ax	; (2926:26B1=8E2Eh)
2926:269E  E9 FF88				jmp	loc_277			; (2629)
						nop	                                        ;*jump fixup
2926:26A1			loc_283:					;  xref 2926:2674
2926:26A1  2E: 8A 16 26AF			mov	dl,byte ptr cs:[26AFh]	; (2926:26AF=0CDh)
2926:26A6  2E: 8A 36 26B0			mov	dh,byte ptr cs:[26B0h]	; (2926:26B0=10h)
2926:26AB  32 FF				xor	bh,bh			; Zero register
2926:26AD  B4 02				mov	ah,2
2926:26AF  CD 10				int	10h			; Video display   ah=functn 02h
										;  set cursor location in dx
2926:26B1  2E: 8E 1E 26B4			mov	ds,word ptr cs:[26B4h]	; (2926:26B4=26B4h)
2926:26B6  C3					retn
				sub_66		endp

2926:26B7 ú8D 36 B6 26 E8 5A			db	 8Dh, 36h,0B6h, 26h,0E8h, 5Ah
2926:26BD  FF C3				db	0FFh,0C3h
2926:26BF ú8D 36 4E 23 E8 52			db	 8Dh, 36h, 4Eh, 23h,0E8h, 52h
2926:26C5  FF C3				db	0FFh,0C3h

				;ßßßßßßßßßßßßßßßßßßßßßßßßßßßßßßßßßßßßßßßßßßßßßßßßßßßßßßßßßßßßßßßßßßßßßßßßßß
				;                              SUBROUTINE
				;
				;         Called from:   2926:10E8
				;ÜÜÜÜÜÜÜÜÜÜÜÜÜÜÜÜÜÜÜÜÜÜÜÜÜÜÜÜÜÜÜÜÜÜÜÜÜÜÜÜÜÜÜÜÜÜÜÜÜÜÜÜÜÜÜÜÜÜÜÜÜÜÜÜÜÜÜÜÜÜÜÜÜÜ

2926:26C7			sub_67		proc	near
2926:26C7 ú8D 36 29E6				lea	si,ds:data_13e		; (26B4:29E6=16h) Load effective addr
2926:26CB  E8 FF4A				call	sub_66			; (2618)
2926:26CE  C3					retn
				sub_67		endp

2926:26CF  00 2E 80 3E 4F 26			db	 00h, 2Eh, 80h, 3Eh, 4Fh, 26h
           ICON0.lst       ICON0.OVL		Sourcer	v8.01  20-Jul-2026 12:17 am   Page 91

2926:26D5  00 74 0C 32 E4 2E			db	 00h, 74h, 0Ch, 32h,0E4h, 2Eh
2926:26DB  A0 4F 26 2E 88 26			db	0A0h, 4Fh, 26h, 2Eh, 88h, 26h
2926:26E1  4F 26 C3 32 E4 2E			db	 4Fh, 26h,0C3h, 32h,0E4h, 2Eh
2926:26E7  88 26 4F 26 CD 16			db	 88h, 26h, 4Fh, 26h,0CDh, 16h
2926:26ED  3C 00 75 05 2E 88			db	 3Ch, 00h, 75h, 05h, 2Eh, 88h
2926:26F3  26 4F 26 32 E4 C3			db	 26h, 4Fh, 26h, 32h,0E4h,0C3h
2926:26F9  B9 04 00				db	0B9h, 04h, 00h

2926:26FC			locloop_284:					;  xref 2926:270B
2926:26FC  51					push	cx
2926:26FD  32 F6				xor	dh,dh			; Zero register
2926:26FF  B1 05				mov	cl,5
2926:2701  B5 29				mov	ch,29h			; ')'
2926:2703  B8 0401				mov	ax,401h
2926:2706  CD 13				int	13h			; Disk  dl=drive a  ah=func 04h
										;  verify sectors with mem es:bx
										;   al=#,ch=cyl,cl=sectr,dh=head
2926:2708  59					pop	cx
2926:2709  73 06				jnc	loc_285			; Jump if carry=0
2926:270B  E2 EF				loop	locloop_284		; Loop if cx > 0

2926:270D  B8 0000				mov	ax,0
2926:2710  C3					retn
2926:2711			loc_285:					;  xref 2926:2709
2926:2711  B8 0001				mov	ax,1
2926:2714  C3					retn

				;ßßßßßßßßßßßßßßßßßßßßßßßßßßßßßßßßßßßßßßßßßßßßßßßßßßßßßßßßßßßßßßßßßßßßßßßßßß
				;                              SUBROUTINE
				;
				;         Called from:   2926:4C1A
				;ÜÜÜÜÜÜÜÜÜÜÜÜÜÜÜÜÜÜÜÜÜÜÜÜÜÜÜÜÜÜÜÜÜÜÜÜÜÜÜÜÜÜÜÜÜÜÜÜÜÜÜÜÜÜÜÜÜÜÜÜÜÜÜÜÜÜÜÜÜÜÜÜÜÜ

2926:2715			sub_68		proc	near
2926:2715  5B					pop	bx
2926:2716  59					pop	cx
2926:2717  8A F1				mov	dh,cl
2926:2719  2E: 88 36 26B0			mov	byte ptr cs:[26B0h],dh	; (2926:26B0=10h)
2926:271E  59					pop	cx
2926:271F  8A D1				mov	dl,cl
2926:2721  2E: 88 16 26AF			mov	byte ptr cs:[26AFh],dl	; (2926:26AF=0CDh)
2926:2726  53					push	bx
2926:2727  32 FF				xor	bh,bh			; Zero register
2926:2729  B4 02				mov	ah,2
2926:272B  CD 10				int	10h			; Video display   ah=functn 02h
										;  set cursor location in dx
2926:272D  C3					retn
				sub_68		endp

2926:272E  00 00 00 01 00 07			db	 00h, 00h, 00h, 01h, 00h, 07h
2926:2734  00 00 00 01 1F 00			db	 00h, 00h, 00h, 01h, 1Fh, 00h
2926:273A  02 13 01 48 20 45			db	 02h, 13h, 01h, 48h, 20h, 45h
2926:2740  20 4C 20 50 00 02			db	 20h, 4Ch, 20h, 50h, 00h, 02h
2926:2746  00 02 00 03 16 C4			db	 00h, 02h, 00h, 03h, 16h,0C4h
2926:274C  C2 00 03 11 C4 00			db	0C2h, 00h, 03h, 11h,0C4h, 00h
2926:2752  02 00 03 DA C4 C4			db	 02h, 00h, 03h,0DAh,0C4h,0C4h
2926:2758  BF 00 02 0C 03 DA			db	0BFh, 00h, 02h, 0Ch, 03h,0DAh
           ICON0.lst       ICON0.OVL		Sourcer	v8.01  20-Jul-2026 12:17 am   Page 92

2926:275E  C4 C4 C4 BF 20 20			db	0C4h,0C4h,0C4h,0BFh, 20h, 20h
2926:2764  20 20 20 B3				db	 20h, 20h, 20h,0B3h
2926:2768  4D 6F 76 65 6D 65			db	'Movement Commands'
2926:276E  6E 74 20 43 6F 6D
2926:2774  6D 61 6E 64 73
2926:2779  00 02 00 04 B3 50			db	 00h, 02h, 00h, 04h,0B3h, 50h
2926:277F  20 B3				db	 20h,0B3h
2926:2781  50 69 63 6B 20 75			db	'Pick up '
2926:2787  70 20
2926:2789  B3 45 73 63 B3 51			db	0B3h, 45h, 73h, 63h,0B3h, 51h
2926:278F  75 69 74 20 C3 00			db	 75h, 69h, 74h, 20h,0C3h, 00h
2926:2795  03 11 C4 00 02 00			db	 03h, 11h,0C4h, 00h, 02h, 00h
2926:279B  05 C0 C4 C4 D9			db	 05h,0C0h,0C4h,0C4h,0D9h
2926:27A0  6F 62 6A 65 63 74			db	'object  '
2926:27A6  20 20
2926:27A8  C0 C4 C4 C4 D9 20			db	0C0h,0C4h,0C4h,0C4h,0D9h, 20h
2926:27AE  20 20 20 20 B3 20			db	 20h, 20h, 20h, 20h,0B3h, 20h
2926:27B4  20 DA C4 C4 C4 D2			db	 20h,0DAh,0C4h,0C4h,0C4h,0D2h
2926:27BA  C4 C4 C4 D2 C4 C4			db	0C4h,0C4h,0C4h,0D2h,0C4h,0C4h
2926:27C0  C4 BF 00 02 00 06			db	0C4h,0BFh, 00h, 02h, 00h, 06h
2926:27C6  DA C4 C4 BF 00 02			db	0DAh,0C4h,0C4h,0BFh, 00h, 02h
2926:27CC  0C 06 DA C4 C4 BF			db	 0Ch, 06h,0DAh,0C4h,0C4h,0BFh
2926:27D2  20 20 20 20 20 20			db	 20h, 20h, 20h, 20h, 20h, 20h
2926:27D8  B3 20 20 B3 37 20			db	0B3h, 20h, 20h,0B3h, 37h, 20h
2926:27DE  20 BA 38 20 20 BA			db	 20h,0BAh, 38h, 20h, 20h,0BAh
2926:27E4  39 20 20 B3 00 02			db	 39h, 20h, 20h,0B3h, 00h, 02h
2926:27EA  00 07 B3 44 20 B3			db	 00h, 07h,0B3h, 44h, 20h,0B3h
2926:27F0  44 72 6F 70 20 20			db	'Drop    '
2926:27F6  20 20
2926:27F8  B3 46 31 B3 48 45			db	0B3h, 46h, 31h,0B3h, 48h, 45h
2926:27FE  4C 50 20 20 B3 20			db	 4Ch, 50h, 20h, 20h,0B3h, 20h
2926:2804  20 B3 20 20 5C BA			db	 20h,0B3h, 20h, 20h, 5Ch,0BAh
2926:280A  20 18 20 BA 20 2F			db	 20h, 18h, 20h,0BAh, 20h, 2Fh
2926:2810  20 B3 00 02 00 08			db	 20h,0B3h, 00h, 02h, 00h, 08h
2926:2816  C0 C4 C4 D9				db	0C0h,0C4h,0C4h,0D9h
2926:281A  6F 62 6A 65 63 74			db	'object  '
2926:2820  20 20
2926:2822  C0 C4 C4 D9 20 20			db	0C0h,0C4h,0C4h,0D9h, 20h, 20h
2926:2828  20 20 20 20 B3 20			db	 20h, 20h, 20h, 20h,0B3h, 20h
2926:282E  20 C6 CD CD CD CE			db	 20h,0C6h,0CDh,0CDh,0CDh,0CEh
2926:2834  CD CD CD CE CD CD			db	0CDh,0CDh,0CDh,0CEh,0CDh,0CDh
2926:283A  CD B5 00 02 00 09			db	0CDh,0B5h, 00h, 02h, 00h, 09h
2926:2840  DA C4 C4 BF 00 02			db	0DAh,0C4h,0C4h,0BFh, 00h, 02h
2926:2846  0C 09 DA C4 C4 BF			db	 0Ch, 09h,0DAh,0C4h,0C4h,0BFh
2926:284C  20 20 20 20 20 20			db	 20h, 20h, 20h, 20h, 20h, 20h
2926:2852  B3 20 20 B3 34 20			db	0B3h, 20h, 20h,0B3h, 34h, 20h
2926:2858  20 BA 35 20 20 BA			db	 20h,0BAh, 35h, 20h, 20h,0BAh
2926:285E  36 20 20 B3 00 02			db	 36h, 20h, 20h,0B3h, 00h, 02h
2926:2864  00 0A B3 57 20 B3			db	 00h, 0Ah,0B3h, 57h, 20h,0B3h
2926:286A  57 65 61 70 6F 6E			db	'Weapon  '
2926:2870  20 20
2926:2872  B3 46 32 B3 53 6F			db	0B3h, 46h, 32h,0B3h, 53h, 6Fh
2926:2878  75 6E 64 20 B3 20			db	 75h, 6Eh, 64h, 20h,0B3h, 20h
2926:287E  20 B3 20 11 2D BA			db	 20h,0B3h, 20h, 11h, 2Dh,0BAh
2926:2884  20 20 20 BA 20 2D			db	 20h, 20h, 20h,0BAh, 20h, 2Dh
2926:288A  10 B3 00 02 00 0B			db	 10h,0B3h, 00h, 02h, 00h, 0Bh
2926:2890  C0 C4 C4 D9				db	0C0h,0C4h,0C4h,0D9h
           ICON0.lst       ICON0.OVL		Sourcer	v8.01  20-Jul-2026 12:17 am   Page 93

2926:2894  73 65 6C 65 63 74			db	'select  '
2926:289A  20 20
2926:289C  C0 C4 C4 D9 4F 4E			db	0C0h,0C4h,0C4h,0D9h, 4Fh, 4Eh
2926:28A2  2F 4F 46 46 B3 20			db	 2Fh, 4Fh, 46h, 46h,0B3h, 20h
2926:28A8  20 C6 CD CD CD CE			db	 20h,0C6h,0CDh,0CDh,0CDh,0CEh
2926:28AE  CD CD CD CE CD CD			db	0CDh,0CDh,0CDh,0CEh,0CDh,0CDh
2926:28B4  CD B5 00 02 00 0C			db	0CDh,0B5h, 00h, 02h, 00h, 0Ch
2926:28BA  DA C4 C4 BF 00 02			db	0DAh,0C4h,0C4h,0BFh, 00h, 02h
2926:28C0  0C 0C DA C4 C4 BF			db	 0Ch, 0Ch,0DAh,0C4h,0C4h,0BFh
2926:28C6  20 20 20 20 20 20			db	 20h, 20h, 20h, 20h, 20h, 20h
2926:28CC  B3 20 20 B3 31 20			db	0B3h, 20h, 20h,0B3h, 31h, 20h
2926:28D2  20 BA 32 20 20 BA			db	 20h,0BAh, 32h, 20h, 20h,0BAh
2926:28D8  33 20 20 B3 00 02			db	 33h, 20h, 20h,0B3h, 00h, 02h
2926:28DE  00 0D B3 53 20 B3			db	 00h, 0Dh,0B3h, 53h, 20h,0B3h
2926:28E4  53 74 61 74 75 73			db	'Status  '
2926:28EA  20 20
2926:28EC  B3 4A 20 B3 4A 6F			db	0B3h, 4Ah, 20h,0B3h, 4Ah, 6Fh
2926:28F2  79 2D 20 20 B3 20			db	 79h, 2Dh, 20h, 20h,0B3h, 20h
2926:28F8  20 B3 20 20 2F BA			db	 20h,0B3h, 20h, 20h, 2Fh,0BAh
2926:28FE  20 19 20 BA				db	 20h, 19h, 20h,0BAh
2926:2902  20 5C				db	 20h, 5Ch
2926:2904  B320			data_115	dw	0B320h			;  xref 2926:19F4, 1E8C
2926:2906  00 02 00 0E C0 C4			db	 00h, 02h, 00h, 0Eh,0C0h,0C4h
2926:290C  C4 D9 00 02 0C 0E			db	0C4h,0D9h, 00h, 02h, 0Ch, 0Eh
2926:2912  C0 C4 C4 D9 73 74			db	0C0h,0C4h,0C4h,0D9h, 73h, 74h
2926:2918  69 63 6B 20 B3 20			db	 69h, 63h, 6Bh, 20h,0B3h, 20h
2926:291E  20 C0 C4 C4 C4 D0			db	 20h,0C0h,0C4h,0C4h,0C4h,0D0h
2926:2924  C4 C4 C4 D0 C4 C4			db	0C4h,0C4h,0C4h,0D0h,0C4h,0C4h
2926:292A  C4 D9 00 02 00 0F			db	0C4h,0D9h, 00h, 02h, 00h, 0Fh
2926:2930  DA 00 03 09 C4 BF			db	0DAh, 00h, 03h, 09h,0C4h,0BFh
2926:2936  00 02 16 0F B3 00			db	 00h, 02h, 16h, 0Fh,0B3h, 00h
2926:293C  02 00 10 B3				db	 02h, 00h, 10h,0B3h
2926:2940  53 70 61 63 65 20			db	'Space Bar'
2926:2946  42 61 72
2926:2949  B3					db	0B3h
2926:294A  41 74 74 61 63 6B			db	'Attack with'
2926:2950  20 77 69 74 68
2926:2955  B3					db	0B3h
2926:2956  20 50 72 65 73 73			db	' Press the key in'
2926:295C  20 74 68 65 20 6B
2926:2962  65 79 20 69 6E
2926:2967  00 02 00 11 C0 00			db	 00h, 02h, 00h, 11h,0C0h, 00h
2926:296D  03 09 C4 D9				db	 03h, 09h,0C4h,0D9h
2926:2971  73 77 6F 72 64 20			db	'sword or a '
2926:2977  6F 72 20 61 20
2926:297C  B3					db	0B3h
2926:297D  20 6F 6E 65 20 6F			db	' one of the eig'
2926:2983  66 20 74 68 65 20
2926:2989  65 69 67
2926:298C  68			data_116	db	68h			;  xref 2926:10B9, 184E
2926:298D  74					db	74h
2926:298E  0200			data_117	dw	200h
2926:2990  00 12				db	 00h, 12h
2926:2992  6D 61 67 69 63 20			db	'magic wand. When using'
2926:2998  77 61 6E 64 2E 20
2926:299E  57 68 65 6E 20 75
2926:29A4  73 69 6E 67
           ICON0.lst       ICON0.OVL		Sourcer	v8.01  20-Jul-2026 12:17 am   Page 94

2926:29A8  B3					db	0B3h
2926:29A9  20 64 69 72 65 63			db	' directions you'
2926:29AF  74 69 6F 6E 73 20
2926:29B5  79 6F 75
2926:29B8  00 02 00 13				db	 00h, 02h, 00h, 13h
2926:29BC  61 20 77 61 6E 64			db	'a wand, follow with a '
2926:29C2  2C 20 66 6F 6C 6C
2926:29C8  6F 77 20 77 69 74
2926:29CE  68 20 61 20
2926:29D2  B3					db	0B3h
2926:29D3  20 77 69 73 68 20			db	' wish to move or'
2926:29D9  74 6F 20 6D 6F 76
2926:29DF  65 20 6F 72
2926:29E3  00 02 00 14				db	 00h, 02h, 00h, 14h
2926:29E7  61 20 64 69 72 65			db	'a direction to fi'
2926:29ED  63 74 69 6F 6E 20
2926:29F3  74 6F 20 66 69
2926:29F8  6572			data_118	dw	6572h			;  xref 2926:0C88, 106D
2926:29FA  202E			data_119	dw	202Eh			;  xref 2926:0C97, 1079
2926:29FC  20 B3				db	 20h,0B3h
2926:29FE  20 74 6F 20 66 69			db	' to fire a wand.'
2926:2A04  72 65 20 61 20 77
2926:2A0A  61 6E 64 2E
2926:2A0E  00 02 00 15 00 03			db	 00h, 02h, 00h, 15h, 00h, 03h
2926:2A14  16 C4 C1 00 03 11			db	 16h,0C4h,0C1h, 00h, 03h, 11h
2926:2A1A  C4 00 02 04 17			db	0C4h, 00h, 02h, 04h, 17h
2926:2A1F  53 65				db	'Se'
2926:2A21  6C 65 63 74 20 79			db	'lect your command or pres'
2926:2A27  6F 75 72 20 63 6F
2926:2A2D  6D 6D 61 6E 64 20
2926:2A33  6F 72 20 70 72 65
2926:2A39  73
2926:2A3A  2073			data_121	dw	2073h			;  xref 2926:2B73
2926:2A3C  74 68				db	 74h, 68h
2926:2A3E  65			data_122	db	65h			;  xref 2926:1859
2926:2A3F  00 02 04 18				db	 00h, 02h, 04h, 18h
2926:2A43  53					db	'S'
2926:2A44  6170			data_124	dw	6170h			;  xref 2926:07E1, 153F
2926:2A46  6563			data_125	dw	6563h			;  xref 2926:156B
2926:2A48  4220			data_126	dw	4220h			;  xref 2926:07F2
2926:2A4A  7261			data_127	dw	7261h			;  xref 2926:081B, 1545
2926:2A4C  20 74 6F 20 72 65			db	' to return to your game.'
2926:2A52  74 75 72 6E 20 74
2926:2A58  6F 20 79 6F 75 72
2926:2A5E  20 67 61 6D 65 2E
2926:2A64  00 00 00 01 1F 00			db	 00h, 00h, 00h, 01h, 1Fh, 00h
2926:2A6A  02 01 00				db	 02h, 01h, 00h
2926:2A6D  50 75 74 20 74 68	data_128	db	'Put the original game disk in fl'
2926:2A73  65 20 6F 72 69 67
2926:2A79  69 6E 61 6C 20 67
2926:2A7F  61 6D 65 20 64 69
2926:2A85  73 6B 20 69 6E 20
2926:2A8B  66 6C
2926:2A8D  6F 70 70 79 00			db	'oppy', 0
2926:2A92  02 01 02 64 72			db	 02h, 01h, 02h, 64h, 72h
2926:2A97  69 76 65 20 41			db	'ive A'
2926:2A9C  20 6F 72 20 42 20			db	' or B & press the Space Bar.'
           ICON0.lst       ICON0.OVL		Sourcer	v8.01  20-Jul-2026 12:17 am   Page 95

2926:2AA2  26 20 70 72 65 73
2926:2AA8  73 20 74 68 65 20
2926:2AAE  53 70 61 63 65 20
2926:2AB4  42 61 72 2E
2926:2AB8  00 00 00 00 FB 50			db	 00h, 00h, 00h, 00h,0FBh, 50h
2926:2ABE  53 51 52 55 1E 06			db	 53h, 51h, 52h, 55h, 1Eh, 06h
2926:2AC4  57 56 2E A1 3A 2A			db	 57h, 56h, 2Eh,0A1h, 3Ah, 2Ah
2926:2ACA  8E D8 33 C0 E4 60			db	 8Eh,0D8h, 33h,0C0h,0E4h, 60h
2926:2AD0  8B D0 3C FF 74 06			db	 8Bh,0D0h, 3Ch,0FFh, 74h, 06h
2926:2AD6  24 7F				db	 24h, 7Fh
2926:2AD8  3C 47 7D 0C				db	 3Ch, 47h, 7Dh, 0Ch
2926:2ADC			loc_286:					;  xref 2926:2AEA, 2AEE, 2AF2
2926:2ADC  5E					pop	si
2926:2ADD  5F					pop	di
2926:2ADE  07					pop	es
2926:2ADF  1F					pop	ds
2926:2AE0  5D					pop	bp
2926:2AE1  5A					pop	dx
2926:2AE2  59					pop	cx
2926:2AE3  5B					pop	bx
2926:2AE4  58					pop	ax
2926:2AE5  CD 60				int	60h			; ??INT Non-standard interrupt
2926:2AE7  CF					iret				; Interrupt return
2926:2AE8			loc_287:
2926:2AE8  3C 4A				cmp	al,4Ah			; 'J'
2926:2AEA  74 F0				je	loc_286			; Jump if equal
2926:2AEC  3C 4E				cmp	al,4Eh			; 'N'
2926:2AEE  74 EC				je	loc_286			; Jump if equal
2926:2AF0  3C 51				cmp	al,51h			; 'Q'
2926:2AF2  7F E8				jg	loc_286			; Jump if >
2926:2AF4 úBB 2A7C				mov	bx,offset data_128+0Fh	; (2926:2A7C='l game disk in f')
2926:2AF7  2E: D7				xlat	cs:[bx]			; al=[al+[bx]] table
2926:2AF9  8A D8				mov	bl,al
2926:2AFB  8B C2				mov	ax,dx
2926:2AFD  A8 80				test	al,80h
2926:2AFF  74 1F				jz	loc_289			; Jump if zero
2926:2B01  A0 8268				mov	al,ds:data_312e		; (2926:8268=0)
2926:2B04  0A C0				or	al,al			; Zero ?
2926:2B06  75 06				jnz	loc_288			; Jump if not zero
2926:2B08  A0 8257				mov	al,ds:data_307e		; (2926:8257=0)
2926:2B0B  A2 8260				mov	ds:data_308e,al		; (2926:8260=0)
2926:2B0E			loc_288:					;  xref 2926:2B06
2926:2B0E  33 C0				xor	ax,ax			; Zero register
2926:2B10  A2 8268				mov	ds:data_312e,al		; (2926:8268=0)
2926:2B13  A0 8257				mov	al,ds:data_307e		; (2926:8257=0)
2926:2B16  F6 D3				not	bl
2926:2B18  22 C3				and	al,bl
2926:2B1A  A2 8257				mov	ds:data_307e,al		; (2926:8257=0)
2926:2B1D  E9 0008				jmp	loc_290			; (2B28)
2926:2B20			loc_289:					;  xref 2926:2AFF
2926:2B20  A0 8257				mov	al,ds:data_307e		; (2926:8257=0)
2926:2B23  0A C3				or	al,bl
2926:2B25  A2 8257				mov	ds:data_307e,al		; (2926:8257=0)
2926:2B28			loc_290:					;  xref 2926:2B1D
2926:2B28  E4 61				in	al,61h			; port 61h, 8255 port B, read
2926:2B2A  8A E0				mov	ah,al
2926:2B2C  0C 80				or	al,80h
           ICON0.lst       ICON0.OVL		Sourcer	v8.01  20-Jul-2026 12:17 am   Page 96

2926:2B2E  E6 61				out	61h,al			; port 61h, 8255 B - spkr, etc
2926:2B30  86 E0				xchg	ah,al
2926:2B32  E6 61				out	61h,al			; port 61h, 8255 B - spkr, etc
2926:2B34  FA					cli				; Disable interrupts
2926:2B35  B0 20				mov	al,20h			; ' '
2926:2B37  E6 20				out	20h,al			; port 20h, 8259-1 int command
										;  al = 20h, end of interrupt
2926:2B39  5E					pop	si
2926:2B3A  5F					pop	di
2926:2B3B  07					pop	es
2926:2B3C  1F					pop	ds
2926:2B3D  5D					pop	bp
2926:2B3E  5A					pop	dx
2926:2B3F  59					pop	cx
2926:2B40  5B					pop	bx
2926:2B41  58					pop	ax
2926:2B42  CF					iret				; Interrupt return
							                        ;* No entry point to code
2926:2B43  80 40 20 00				add	byte ptr [bx+si+20h],0
2926:2B47  10 00				adc	[bx+si],al
2926:2B49  08 00				or	[bx+si],al
2926:2B4B  04 02				add	al,2
2926:2B4D  01 FC				add	sp,di
2926:2B4F  33 C0				xor	ax,ax			; Zero register
2926:2B51  8E C0				mov	es,ax
2926:2B53  A2 8257				mov	ds:data_307e,al		; (2926:8257=0)
2926:2B56  A2 8260				mov	ds:data_308e,al		; (2926:8260=0)
2926:2B59  A2 8268				mov	ds:data_312e,al		; (2926:8268=0)
2926:2B5C  FA					cli				; Disable interrupts
2926:2B5D úBE 0024				mov	si,data_2e		; (0000:0024=87h)
2926:2B60 úBF 0180				mov	di,data_7e		; (0000:0180=0)
2926:2B63  26: A5				movs	word ptr es:[di],word ptr es:[si]	; Mov [si] to es:[di]
2926:2B65  26: A5				movs	word ptr es:[di],word ptr es:[si]	; Mov [si] to es:[di]
2926:2B67 úBF 0024				mov	di,data_2e		; (0000:0024=87h)
2926:2B6A  B8 2A3C				mov	ax,2A3Ch
2926:2B6D  AB					stosw				; Store ax to es:[di]
2926:2B6E  8C C8				mov	ax,cs
2926:2B70  AB					stosw				; Store ax to es:[di]
2926:2B71  8C D8				mov	ax,ds
2926:2B73  2E: A3 2A3A				mov	cs:data_121,ax		; (2926:2A3A=2073h)
2926:2B77  FB					sti				; Enable interrupts
2926:2B78  C3					retn

				;ßßßßßßßßßßßßßßßßßßßßßßßßßßßßßßßßßßßßßßßßßßßßßßßßßßßßßßßßßßßßßßßßßßßßßßßßßß
				;                              SUBROUTINE
				;
				;         Called from:   2926:2129
				;ÜÜÜÜÜÜÜÜÜÜÜÜÜÜÜÜÜÜÜÜÜÜÜÜÜÜÜÜÜÜÜÜÜÜÜÜÜÜÜÜÜÜÜÜÜÜÜÜÜÜÜÜÜÜÜÜÜÜÜÜÜÜÜÜÜÜÜÜÜÜÜÜÜÜ

2926:2B79			sub_70		proc	near
2926:2B79  FC					cld				; Clear direction
2926:2B7A  33 C0				xor	ax,ax			; Zero register
2926:2B7C  8E C0				mov	es,ax
2926:2B7E  A2 8257				mov	ds:data_55e,al		; (2916:8257=0)
2926:2B81  A2 8260				mov	ds:data_56e,al		; (2916:8260=0)
2926:2B84  FA					cli				; Disable interrupts
2926:2B85 úBE 0180				mov	si,data_7e		; (0000:0180=0)
           ICON0.lst       ICON0.OVL		Sourcer	v8.01  20-Jul-2026 12:17 am   Page 97

2926:2B88 úBF 0024				mov	di,data_2e		; (0000:0024=87h)
2926:2B8B  26: A5				movs	word ptr es:[di],word ptr es:[si]	; Mov [si] to es:[di]
2926:2B8D  26: A5				movs	word ptr es:[di],word ptr es:[si]	; Mov [si] to es:[di]
2926:2B8F  FB					sti				; Enable interrupts
2926:2B90  C3					retn
				sub_70		endp


				;ßßßßßßßßßßßßßßßßßßßßßßßßßßßßßßßßßßßßßßßßßßßßßßßßßßßßßßßßßßßßßßßßßßßßßßßßßß
				;                              SUBROUTINE
				;
				;         Called from:   2926:1DE1
				;ÜÜÜÜÜÜÜÜÜÜÜÜÜÜÜÜÜÜÜÜÜÜÜÜÜÜÜÜÜÜÜÜÜÜÜÜÜÜÜÜÜÜÜÜÜÜÜÜÜÜÜÜÜÜÜÜÜÜÜÜÜÜÜÜÜÜÜÜÜÜÜÜÜÜ

2926:2B91			sub_71		proc	near
2926:2B91  33 C0				xor	ax,ax			; Zero register
2926:2B93  A0 8257				mov	al,ds:data_307e		; (2926:8257=0)
2926:2B96  0A 06 8260				or	al,ds:data_308e		; (2926:8260=0)
2926:2B9A  0B C0				or	ax,ax			; Zero ?
2926:2B9C  74 03				jz	loc_ret_291		; Jump if zero
2926:2B9E  B8 0001				mov	ax,1

2926:2BA1			loc_ret_291:					;  xref 2926:2B9C
2926:2BA1  C3					retn
				sub_71		endp

							                        ;* No entry point to code
2926:2BA2  33 C0				xor	ax,ax			; Zero register
2926:2BA4  A0 8260				mov	al,ds:data_308e		; (2926:8260=0)
2926:2BA7  0B C0				or	ax,ax			; Zero ?
2926:2BA9  75 08				jnz	loc_292			; Jump if not zero
2926:2BAB  B0 01				mov	al,1
2926:2BAD  A2 8268				mov	ds:data_312e,al		; (2926:8268=0)
2926:2BB0  A0 8257				mov	al,ds:data_307e		; (2926:8257=0)
2926:2BB3			loc_292:					;  xref 2926:2BA9
2926:2BB3  A8 40				test	al,40h			; '@'
2926:2BB5  75 29				jnz	loc_295			; Jump if not zero
2926:2BB7  A8 02				test	al,2
2926:2BB9  75 4B				jnz	loc_300			; Jump if not zero
2926:2BBB  A8 10				test	al,10h
2926:2BBD  75 35				jnz	loc_297			; Jump if not zero
2926:2BBF  A8 08				test	al,8
2926:2BC1  75 37				jnz	loc_298			; Jump if not zero
2926:2BC3  A8 80				test	al,80h
2926:2BC5  75 13				jnz	loc_294			; Jump if not zero
2926:2BC7  A8 20				test	al,20h			; ' '
2926:2BC9  75 23				jnz	loc_296			; Jump if not zero
2926:2BCB  A8 04				test	al,4
2926:2BCD  75 31				jnz	loc_299			; Jump if not zero
2926:2BCF  A8 01				test	al,1
2926:2BD1  75 41				jnz	loc_301			; Jump if not zero
2926:2BD3			loc_293:					;  xref 2926:2BDD, 2BEB, 2BF1, 2BF7
										;            2BFD, 2C03, 2C11, 2C17
2926:2BD3 ú33 DB				xor	bx,bx			; Zero register
2926:2BD5  88 1E 8260				mov	ds:data_308e,bl		; (2926:8260=0)
2926:2BD9  C3					retn
2926:2BDA			loc_294:					;  xref 2926:2BC5, 2BE2
           ICON0.lst       ICON0.OVL		Sourcer	v8.01  20-Jul-2026 12:17 am   Page 98

2926:2BDA  B8 0047				mov	ax,47h
2926:2BDD  E9 FFF3				jmp	loc_293			; (2BD3)
						nop	                                        ;*jump fixup
2926:2BE0			loc_295:					;  xref 2926:2BB5
2926:2BE0  A8 10				test	al,10h
2926:2BE2  75 F6				jnz	loc_294			; Jump if not zero
2926:2BE4  A8 08				test	al,8
2926:2BE6  75 06				jnz	loc_296			; Jump if not zero
2926:2BE8  B8 0048				mov	ax,48h
2926:2BEB  E9 FFE5				jmp	loc_293			; (2BD3)
						nop	                                        ;*jump fixup
2926:2BEE			loc_296:					;  xref 2926:2BC9, 2BE6
2926:2BEE  B8 0049				mov	ax,49h
2926:2BF1  E9 FFDF				jmp	loc_293			; (2BD3)
						nop	                                        ;*jump fixup
2926:2BF4			loc_297:					;  xref 2926:2BBD
2926:2BF4  B8 004B				mov	ax,4Bh
2926:2BF7  E9 FFD9				jmp	loc_293			; (2BD3)
						nop	                                        ;*jump fixup
2926:2BFA			loc_298:					;  xref 2926:2BC1
2926:2BFA  B8 004D				mov	ax,4Dh
2926:2BFD  E9 FFD3				jmp	loc_293			; (2BD3)
						nop	                                        ;*jump fixup
2926:2C00			loc_299:					;  xref 2926:2BCD, 2C08
2926:2C00  B8 004F				mov	ax,4Fh
2926:2C03  E9 FFCD				jmp	loc_293			; (2BD3)
						nop	                                        ;*jump fixup
2926:2C06			loc_300:					;  xref 2926:2BB9
2926:2C06  A8 10				test	al,10h
2926:2C08  75 F6				jnz	loc_299			; Jump if not zero
2926:2C0A  A8 08				test	al,8
2926:2C0C  75 06				jnz	loc_301			; Jump if not zero
2926:2C0E  B8 0050				mov	ax,50h
2926:2C11  E9 FFBF				jmp	loc_293			; (2BD3)
						nop	                                        ;*jump fixup
2926:2C14			loc_301:					;  xref 2926:2BD1, 2C0C
2926:2C14  B8 0051				mov	ax,51h
2926:2C17  E9 FFB9				jmp	loc_293			; (2BD3)
						nop	                                        ;*jump fixup
2926:2C1A  FB 1E 2E A1 3A 2A			db	0FBh, 1Eh, 2Eh,0A1h, 3Ah, 2Ah
2926:2C20  8E D8 FE 06 72 82			db	 8Eh,0D8h,0FEh, 06h, 72h, 82h
2926:2C26  1F CD 61 CF				db	 1Fh,0CDh, 61h,0CFh

				;ßßßßßßßßßßßßßßßßßßßßßßßßßßßßßßßßßßßßßßßßßßßßßßßßßßßßßßßßßßßßßßßßßßßßßßßßßß
				;                              SUBROUTINE
				;
				;         Called from:   2926:2085
				;ÜÜÜÜÜÜÜÜÜÜÜÜÜÜÜÜÜÜÜÜÜÜÜÜÜÜÜÜÜÜÜÜÜÜÜÜÜÜÜÜÜÜÜÜÜÜÜÜÜÜÜÜÜÜÜÜÜÜÜÜÜÜÜÜÜÜÜÜÜÜÜÜÜÜ

2926:2C2A			sub_72		proc	near
2926:2C2A  FC					cld				; Clear direction
2926:2C2B  33 C0				xor	ax,ax			; Zero register
2926:2C2D  8E C0				mov	es,ax
2926:2C2F  A3 8272				mov	ds:data_316e,ax		; (2926:8272=0)
2926:2C32  FA					cli				; Disable interrupts
2926:2C33 úBE 0070				mov	si,data_4e		; (0000:0070=60h)
2926:2C36 úBF 0184				mov	di,data_8e		; (0000:0184=0)
           ICON0.lst       ICON0.OVL		Sourcer	v8.01  20-Jul-2026 12:17 am   Page 99

2926:2C39  26: A5				movs	word ptr es:[di],word ptr es:[si]	; Mov [si] to es:[di]
2926:2C3B  26: A5				movs	word ptr es:[di],word ptr es:[si]	; Mov [si] to es:[di]
2926:2C3D úBF 0070				mov	di,data_4e		; (0000:0070=60h)
2926:2C40  B8 2B9A				mov	ax,2B9Ah
2926:2C43  AB					stosw				; Store ax to es:[di]
2926:2C44  8C C8				mov	ax,cs
2926:2C46  AB					stosw				; Store ax to es:[di]
2926:2C47  FB					sti				; Enable interrupts
2926:2C48  C3					retn
				sub_72		endp


				;ßßßßßßßßßßßßßßßßßßßßßßßßßßßßßßßßßßßßßßßßßßßßßßßßßßßßßßßßßßßßßßßßßßßßßßßßßß
				;                              SUBROUTINE
				;
				;         Called from:   2926:212C
				;ÜÜÜÜÜÜÜÜÜÜÜÜÜÜÜÜÜÜÜÜÜÜÜÜÜÜÜÜÜÜÜÜÜÜÜÜÜÜÜÜÜÜÜÜÜÜÜÜÜÜÜÜÜÜÜÜÜÜÜÜÜÜÜÜÜÜÜÜÜÜÜÜÜÜ

2926:2C49			sub_73		proc	near
2926:2C49  FC					cld				; Clear direction
2926:2C4A  33 C0				xor	ax,ax			; Zero register
2926:2C4C  8E C0				mov	es,ax
2926:2C4E  FA					cli				; Disable interrupts
2926:2C4F úBE 0184				mov	si,data_8e		; (0000:0184=0)
2926:2C52 úBF 0070				mov	di,data_4e		; (0000:0070=60h)
2926:2C55  26: A5				movs	word ptr es:[di],word ptr es:[si]	; Mov [si] to es:[di]
2926:2C57  26: A5				movs	word ptr es:[di],word ptr es:[si]	; Mov [si] to es:[di]
2926:2C59  FB					sti				; Enable interrupts
2926:2C5A  C3					retn
				sub_73		endp

2926:2C5B  E9 00 00				db	0E9h, 00h, 00h

				;ßßßßßßßßßßßßßßßßßßßßßßßßßßßßßßßßßßßßßßßßßßßßßßßßßßßßßßßßßßßßßßßßßßßßßßßßßß
				;                              SUBROUTINE
				;
				;         Called from:   2926:1129
				;ÜÜÜÜÜÜÜÜÜÜÜÜÜÜÜÜÜÜÜÜÜÜÜÜÜÜÜÜÜÜÜÜÜÜÜÜÜÜÜÜÜÜÜÜÜÜÜÜÜÜÜÜÜÜÜÜÜÜÜÜÜÜÜÜÜÜÜÜÜÜÜÜÜÜ

2926:2C5E			sub_74		proc	near
2926:2C5E  E9 1F8B				jmp	loc_314			; (4BEC)
				sub_74		endp


				;ßßßßßßßßßßßßßßßßßßßßßßßßßßßßßßßßßßßßßßßßßßßßßßßßßßßßßßßßßßßßßßßßßßßßßßßßßß
				;                              SUBROUTINE
				;
				;         Called from:   2926:4C26
				;ÜÜÜÜÜÜÜÜÜÜÜÜÜÜÜÜÜÜÜÜÜÜÜÜÜÜÜÜÜÜÜÜÜÜÜÜÜÜÜÜÜÜÜÜÜÜÜÜÜÜÜÜÜÜÜÜÜÜÜÜÜÜÜÜÜÜÜÜÜÜÜÜÜÜ

2926:2C61			sub_75		proc	near
2926:2C61  E9 0012				jmp	loc_302			; (2C76)

				;ßßßß External Entry into Subroutine ßßßßßßßßßßßßßßßßßßßßßßßßßßßßßßßßßßßßßß
				;
				;         Called from:   2926:4C2C

           ICON0.lst       ICON0.OVL		Sourcer	v8.01  20-Jul-2026 12:17 am   Page 100

2926:2C64			sub_76:
2926:2C64  E9 03FC				jmp	loc_304			; (3063)

				;ßßßß External Entry into Subroutine ßßßßßßßßßßßßßßßßßßßßßßßßßßßßßßßßßßßßßß
				;
				;         Called from:   2926:4C32

2926:2C67			sub_77:
2926:2C67  E9 09CB				jmp	loc_306			; (3635)

				;ßßßß External Entry into Subroutine ßßßßßßßßßßßßßßßßßßßßßßßßßßßßßßßßßßßßßß
				;
				;         Called from:   2926:4C38

2926:2C6A			sub_78:
2926:2C6A  E9 0EC0				jmp	loc_307			; (3B2D)

				;ßßßß External Entry into Subroutine ßßßßßßßßßßßßßßßßßßßßßßßßßßßßßßßßßßßßßß
				;
				;         Called from:   2926:4C3E

2926:2C6D			sub_79:
2926:2C6D  E9 13F7				jmp	loc_308			; (4067)

				;ßßßß External Entry into Subroutine ßßßßßßßßßßßßßßßßßßßßßßßßßßßßßßßßßßßßßß
				;
				;         Called from:   2926:4C44

2926:2C70			sub_80:
2926:2C70  E9 171D				jmp	loc_309			; (4390)

				;ßßßß External Entry into Subroutine ßßßßßßßßßßßßßßßßßßßßßßßßßßßßßßßßßßßßßß
				;
				;         Called from:   2926:4C4A

2926:2C73			sub_81:
2926:2C73  E9 1BD4				jmp	loc_310			; (484A)
2926:2C76			loc_302:					;  xref 2926:2C61
2926:2C76  55					push	bp
2926:2C77  8B C4				mov	ax,sp
2926:2C79  FF 76 FE				push	word ptr [bp-2]
2926:2C7C  8B E8				mov	bp,ax
2926:2C7E  55					push	bp
2926:2C7F  81 EC 0004				sub	sp,4
2926:2C83  1E					push	ds
2926:2C84  B8 82FD				mov	ax,82FDh
2926:2C87  50					push	ax
2926:2C88  E8 258D				call	sub_234			; (5218)
2926:2C8B  0E E8 001F				callf	sub_82			; (2CAE)
2926:2C8F  1E					push	ds
2926:2C90  20 20 20 20 20 20			db	'        THE LEGEND OF THE RING'
2926:2C96  20 20 54 48 45 20
2926:2C9C  4C 45 47 45 4E 44
2926:2CA2  20 4F 46 20 54 48
2926:2CA8  45 20 52 49 4E 47

				;ßßßß External Entry into Subroutine ßßßßßßßßßßßßßßßßßßßßßßßßßßßßßßßßßßßßßß
           ICON0.lst       ICON0.OVL		Sourcer	v8.01  20-Jul-2026 12:17 am   Page 101

				;
				;         Called from:   2926:2C8B

2926:2CAE			sub_82:
2926:2CAE  B8 FFFF				mov	ax,0FFFFh
2926:2CB1  50					push	ax
2926:2CB2  B8 FFFF				mov	ax,0FFFFh
2926:2CB5  50					push	ax
2926:2CB6  E8 4304				call	sub_272			; (6FBD)
2926:2CB9  E8 33A8				call	sub_248			; (6064)
2926:2CBC  1E					push	ds
2926:2CBD  B8 82FD				mov	ax,82FDh
2926:2CC0  50					push	ax
2926:2CC1  E8 2554				call	sub_234			; (5218)
2926:2CC4  E8 339D				call	sub_248			; (6064)
2926:2CC7  1E					push	ds
2926:2CC8  B8 82FD				mov	ax,82FDh
2926:2CCB  50					push	ax
2926:2CCC  E8 2549				call	sub_234			; (5218)
2926:2CCF  0E E8 0028				callf	sub_83			; (2CFB)
2926:2CD3  27 4F 6E 20 61 6E			db	27h, 'On an island in the midst o'
2926:2CD9  20 69 73 6C 61 6E
2926:2CDF  64 20 69 6E 20 74
2926:2CE5  68 65 20 6D 69 64
2926:2CEB  73 74 20 6F
2926:2CEF  66 20 74 68 65 20			db	'f the Rhine,'
2926:2CF5  52 68 69 6E 65 2C

				;ßßßß External Entry into Subroutine ßßßßßßßßßßßßßßßßßßßßßßßßßßßßßßßßßßßßßß
				;
				;         Called from:   2926:2CCF

2926:2CFB			sub_83:
2926:2CFB  B8 FFFF				mov	ax,0FFFFh
2926:2CFE  50					push	ax
2926:2CFF  B8 FFFF				mov	ax,0FFFFh
2926:2D02  50					push	ax
2926:2D03  E8 42B7				call	sub_272			; (6FBD)
2926:2D06  E8 335B				call	sub_248			; (6064)
2926:2D09  1E					push	ds
2926:2D0A  B8 82FD				mov	ax,82FDh
2926:2D0D  50					push	ax
2926:2D0E  E8 2507				call	sub_234			; (5218)
2926:2D11  0E E8 0026				callf	sub_84			; (2D3B)
2926:2D15  25 6C 69 76 65 20			db	'%live a band of river spirits kn'
2926:2D1B  61 20 62 61 6E 64
2926:2D21  20 6F 66 20 72 69
2926:2D27  76 65 72 20 73 70
2926:2D2D  69 72 69 74 73 20
2926:2D33  6B 6E
2926:2D35  6F 77 6E 20 61 73			db	'own as'

				;ßßßß External Entry into Subroutine ßßßßßßßßßßßßßßßßßßßßßßßßßßßßßßßßßßßßßß
				;
				;         Called from:   2926:2D11

2926:2D3B			sub_84:
           ICON0.lst       ICON0.OVL		Sourcer	v8.01  20-Jul-2026 12:17 am   Page 102

2926:2D3B  B8 FFFF				mov	ax,0FFFFh
2926:2D3E  50					push	ax
2926:2D3F  B8 FFFF				mov	ax,0FFFFh
2926:2D42  50					push	ax
2926:2D43  E8 4277				call	sub_272			; (6FBD)
2926:2D46  E8 331B				call	sub_248			; (6064)
2926:2D49  1E					push	ds
2926:2D4A  B8 82FD				mov	ax,82FDh
2926:2D4D  50					push	ax
2926:2D4E  E8 24C7				call	sub_234			; (5218)
2926:2D51  0E E8 0026				callf	sub_85			; (2D7B)
2926:2D55  25 74 68 65 20 52			db	'%the Rhinemaidens.  They have in'
2926:2D5B  68 69 6E 65 6D 61
2926:2D61  69 64 65 6E 73 2E
2926:2D67  20 20 54 68 65 79
2926:2D6D  20 68 61 76 65 20
2926:2D73  69 6E
2926:2D75  20 74 68 65 69 72			db	' their'

				;ßßßß External Entry into Subroutine ßßßßßßßßßßßßßßßßßßßßßßßßßßßßßßßßßßßßßß
				;
				;         Called from:   2926:2D51

2926:2D7B			sub_85:
2926:2D7B  B8 FFFF				mov	ax,0FFFFh
2926:2D7E  50					push	ax
2926:2D7F  B8 FFFF				mov	ax,0FFFFh
2926:2D82  50					push	ax
2926:2D83  E8 4237				call	sub_272			; (6FBD)
2926:2D86  E8 32DB				call	sub_248			; (6064)
2926:2D89  1E					push	ds
2926:2D8A  B8 82FD				mov	ax,82FDh
2926:2D8D  50					push	ax
2926:2D8E  E8 2487				call	sub_234			; (5218)
2926:2D91  0E E8 0022				callf	sub_86			; (2DB7)
2926:2D95  21 70 6F				and	[bx+si+6Fh],si
2926:2D98  73 73				jnc	$+75h			; Jump if carry=0
2926:2D9A  65 73 73 69 6F 6E			db	'ession a g'
2926:2DA0  20 61 20 67
2926:2DA4  6C6F			data_145	dw	6C6Fh			;  xref 2926:086D, 0870, 087B
2926:2DA6  6564			data_146	dw	6564h
2926:2DA8  6E			data_147	db	6Eh			;  xref 2926:100F, 1815, 1E83, 4C1D
2926:2DA9  20					db	20h
2926:2DAA  72 69 6E 67 20 6F	data_148	db	'ring of great'		;  xref 2926:1871
2926:2DB0  66 20 67 72 65 61
2926:2DB6  74

				;ßßßß External Entry into Subroutine ßßßßßßßßßßßßßßßßßßßßßßßßßßßßßßßßßßßßßß
				;
				;         Called from:   2926:2D91

2926:2DB7			sub_86:
2926:2DB7  B8 FFFF				mov	ax,0FFFFh
2926:2DBA  50					push	ax
2926:2DBB  B8 FFFF				mov	ax,0FFFFh
2926:2DBE  50					push	ax
2926:2DBF  E8 41FB				call	sub_272			; (6FBD)
           ICON0.lst       ICON0.OVL		Sourcer	v8.01  20-Jul-2026 12:17 am   Page 103

2926:2DC2  E8 329F				call	sub_248			; (6064)
2926:2DC5  1E					push	ds
2926:2DC6  B8 82FD				mov	ax,82FDh
2926:2DC9  50					push	ax
2926:2DCA  E8 244B				call	sub_234			; (5218)
2926:2DCD  0E E8 0022				callf	sub_87			; (2DF3)
2926:2DD1  21 6D 61 67 69 63			db	'!magical powers.  Whoever can ga'
2926:2DD7  61 6C 20 70 6F 77
2926:2DDD  65 72 73 2E 20 20
2926:2DE3  57 68 6F 65 76 65
2926:2DE9  72 20 63 61 6E 20
2926:2DEF  67 61
2926:2DF1  69 6E				db	'in'

				;ßßßß External Entry into Subroutine ßßßßßßßßßßßßßßßßßßßßßßßßßßßßßßßßßßßßßß
				;
				;         Called from:   2926:2DCD

2926:2DF3			sub_87:
2926:2DF3  B8 FFFF				mov	ax,0FFFFh
2926:2DF6  50					push	ax
2926:2DF7  B8 FFFF				mov	ax,0FFFFh
2926:2DFA  50					push	ax
2926:2DFB  E8 41BF				call	sub_272			; (6FBD)
2926:2DFE  E8 3263				call	sub_248			; (6064)
2926:2E01  1E					push	ds
2926:2E02  B8 82FD				mov	ax,82FDh
2926:2E05  50					push	ax
2926:2E06  E8 240F				call	sub_234			; (5218)
2926:2E09  0E E8 0024				callf	sub_88			; (2E31)
2926:2E0D  23 63 6F 6E 74 72			db	'#control of the ring will be abl'
2926:2E13  6F 6C 20 6F 66 20
2926:2E19  74 68 65 20 72 69
2926:2E1F  6E 67 20 77 69 6C
2926:2E25  6C 20 62 65 20 61
2926:2E2B  62 6C
2926:2E2D  65 20 74 6F				db	'e to'

				;ßßßß External Entry into Subroutine ßßßßßßßßßßßßßßßßßßßßßßßßßßßßßßßßßßßßßß
				;
				;         Called from:   2926:2E09

2926:2E31			sub_88:
2926:2E31  B8 FFFF				mov	ax,0FFFFh
2926:2E34  50					push	ax
2926:2E35  B8 FFFF				mov	ax,0FFFFh
2926:2E38  50					push	ax
2926:2E39  E8 4181				call	sub_272			; (6FBD)
2926:2E3C  E8 3225				call	sub_248			; (6064)
2926:2E3F  1E					push	ds
2926:2E40  B8 82FD				mov	ax,82FDh
2926:2E43  50					push	ax
2926:2E44  E8 23D1				call	sub_234			; (5218)
2926:2E47  0E E8 0026				callf	sub_89			; (2E71)
2926:2E4B  25 64 6F 6D 69 6E			db	'%dominate the world.  But only a'
2926:2E51  61 74 65 20 74 68
2926:2E57  65 20 77 6F 72 6C
           ICON0.lst       ICON0.OVL		Sourcer	v8.01  20-Jul-2026 12:17 am   Page 104

2926:2E5D  64 2E 20 20 42 75
2926:2E63  74 20 6F 6E 6C 79
2926:2E69  20 61
2926:2E6B  20 62 65 69 6E 67			db	' being'

				;ßßßß External Entry into Subroutine ßßßßßßßßßßßßßßßßßßßßßßßßßßßßßßßßßßßßßß
				;
				;         Called from:   2926:2E47

2926:2E71			sub_89:
2926:2E71  B8 FFFF				mov	ax,0FFFFh
2926:2E74  50					push	ax
2926:2E75  B8 FFFF				mov	ax,0FFFFh
2926:2E78  50					push	ax
2926:2E79  E8 4141				call	sub_272			; (6FBD)
2926:2E7C  E8 31E5				call	sub_248			; (6064)
2926:2E7F  1E					push	ds
2926:2E80  B8 82FD				mov	ax,82FDh
2926:2E83  50					push	ax
2926:2E84  E8 2391				call	sub_234			; (5218)
2926:2E87  0E E8 0023				callf	sub_90			; (2EAE)
2926:2E8B  22 77 68 6F 20 69			db	'"who is willing to give up love '
2926:2E91  73 20 77 69 6C 6C
2926:2E97  69 6E 67 20 74 6F
2926:2E9D  20 67 69 76 65 20
2926:2EA3  75 70 20 6C 6F 76
2926:2EA9  65 20
2926:2EAB  63 61 6E				db	'can'

				;ßßßß External Entry into Subroutine ßßßßßßßßßßßßßßßßßßßßßßßßßßßßßßßßßßßßßß
				;
				;         Called from:   2926:2E87

2926:2EAE			sub_90:
2926:2EAE  B8 FFFF				mov	ax,0FFFFh
2926:2EB1  50					push	ax
2926:2EB2  B8 FFFF				mov	ax,0FFFFh
2926:2EB5  50					push	ax
2926:2EB6  E8 4104				call	sub_272			; (6FBD)
2926:2EB9  E8 31A8				call	sub_248			; (6064)
2926:2EBC  1E					push	ds
2926:2EBD  B8 82FD				mov	ax,82FDh
2926:2EC0  50					push	ax
2926:2EC1  E8 2354				call	sub_234			; (5218)
2926:2EC4  0E E8 0026				callf	sub_91			; (2EEE)
2926:2EC8  25 73 65 69 7A 65			db	'%seize the ring from the Rhinema'
2926:2ECE  20 74 68 65 20 72
2926:2ED4  69 6E 67 20 66 72
2926:2EDA  6F 6D 20 74 68 65
2926:2EE0  20 52 68 69 6E 65
2926:2EE6  6D 61
2926:2EE8  69 64 65 6E 73 2E			db	'idens.'

				;ßßßß External Entry into Subroutine ßßßßßßßßßßßßßßßßßßßßßßßßßßßßßßßßßßßßßß
				;
				;         Called from:   2926:2EC4

           ICON0.lst       ICON0.OVL		Sourcer	v8.01  20-Jul-2026 12:17 am   Page 105

2926:2EEE			sub_91:
2926:2EEE  B8 FFFF				mov	ax,0FFFFh
2926:2EF1  50					push	ax
2926:2EF2  B8 FFFF				mov	ax,0FFFFh
2926:2EF5  50					push	ax
2926:2EF6  E8 40C4				call	sub_272			; (6FBD)
2926:2EF9  E8 3168				call	sub_248			; (6064)
2926:2EFC  1E					push	ds
2926:2EFD  B8 82FD				mov	ax,82FDh
2926:2F00  50					push	ax
2926:2F01  E8 2314				call	sub_234			; (5218)
2926:2F04  E8 315D				call	sub_248			; (6064)
2926:2F07  1E					push	ds
2926:2F08  B8 82FD				mov	ax,82FDh
2926:2F0B  50					push	ax
2926:2F0C  E8 2309				call	sub_234			; (5218)
2926:2F0F  0E E8 0026				callf	sub_92			; (2F39)
2926:2F13  25 2D 2D 4E 6F 77			db	'%--Now there are rumors that Alb'
2926:2F19  20 74 68 65 72 65
2926:2F1F  20 61 72 65 20 72
2926:2F25  75 6D 6F 72 73 20
2926:2F2B  74 68 61 74 20 41
2926:2F31  6C 62
2926:2F33  65 72 69 63 68 2C			db	'erich,'

				;ßßßß External Entry into Subroutine ßßßßßßßßßßßßßßßßßßßßßßßßßßßßßßßßßßßßßß
				;
				;         Called from:   2926:2F0F

2926:2F39			sub_92:
2926:2F39  B8 FFFF				mov	ax,0FFFFh
2926:2F3C  50					push	ax
2926:2F3D  B8 FFFF				mov	ax,0FFFFh
2926:2F40  50					push	ax
2926:2F41  E8 4079				call	sub_272			; (6FBD)
2926:2F44  E8 311D				call	sub_248			; (6064)
2926:2F47  1E					push	ds
2926:2F48  B8 82FD				mov	ax,82FDh
2926:2F4B  50					push	ax
2926:2F4C  E8 22C9				call	sub_234			; (5218)
2926:2F4F  0E E8 0027				callf	sub_93			; (2F7A)
2926:2F53  26 6F 6E 65 20 6F			db	'&one of the Niebelungs, a race o'
2926:2F59  66 20 74 68 65 20
2926:2F5F  4E 69 65 62 65 6C
2926:2F65  75 6E 67 73 2C 20
2926:2F6B  61 20 72 61 63 65
2926:2F71  20 6F
2926:2F73  66 20 6D 69 6E 65			db	'f miner'
2926:2F79  72

				;ßßßß External Entry into Subroutine ßßßßßßßßßßßßßßßßßßßßßßßßßßßßßßßßßßßßßß
				;
				;         Called from:   2926:2F4F

2926:2F7A			sub_93:
2926:2F7A  B8 FFFF				mov	ax,0FFFFh
2926:2F7D  50					push	ax
           ICON0.lst       ICON0.OVL		Sourcer	v8.01  20-Jul-2026 12:17 am   Page 106

2926:2F7E  B8 FFFF				mov	ax,0FFFFh
2926:2F81  50					push	ax
2926:2F82  E8 4038				call	sub_272			; (6FBD)
2926:2F85  E8 30DC				call	sub_248			; (6064)
2926:2F88  1E					push	ds
2926:2F89  B8 82FD				mov	ax,82FDh
2926:2F8C  50					push	ax
2926:2F8D  E8 2288				call	sub_234			; (5218)
2926:2F90  0E E8 0021				callf	sub_94			; (2FB5)
2926:2F94  20 64 77 61 72 76			db	' dwarves who live underground, i'
2926:2F9A  65 73 20 77 68 6F
2926:2FA0  20 6C 69 76 65 20
2926:2FA6  75 6E 64 65 72 67
2926:2FAC  72 6F 75 6E 64 2C
2926:2FB2  20 69
2926:2FB4  73					db	's'

				;ßßßß External Entry into Subroutine ßßßßßßßßßßßßßßßßßßßßßßßßßßßßßßßßßßßßßß
				;
				;         Called from:   2926:2F90

2926:2FB5			sub_94:
2926:2FB5  B8 FFFF				mov	ax,0FFFFh
2926:2FB8  50					push	ax
2926:2FB9  B8 FFFF				mov	ax,0FFFFh
2926:2FBC  50					push	ax
2926:2FBD  E8 3FFD				call	sub_272			; (6FBD)
2926:2FC0  E8 30A1				call	sub_248			; (6064)
2926:2FC3  1E					push	ds
2926:2FC4  B8 82FD				mov	ax,82FDh
2926:2FC7  50					push	ax
2926:2FC8  E8 224D				call	sub_234			; (5218)
2926:2FCB  0E E8 0020				callf	sub_95			; (2FEF)
2926:2FCF  1F					pop	ds
2926:2FD0  70 72		;*		jo	loc_303			;*Jump if overflow=1
2926:2FD0  70 72				db	 70h, 72h
2926:2FD2  65 70 61 72 65 64			db	'epared to make this unnatural'
2926:2FD8  20 74 6F 20 6D 61
2926:2FDE  6B 65 20 74 68 69
2926:2FE4  73 20 75 6E 6E 61
2926:2FEA  74 75 72 61 6C

				;ßßßß External Entry into Subroutine ßßßßßßßßßßßßßßßßßßßßßßßßßßßßßßßßßßßßßß
				;
				;         Called from:   2926:2FCB

2926:2FEF			sub_95:
2926:2FEF  B8 FFFF				mov	ax,0FFFFh
2926:2FF2  50					push	ax
2926:2FF3  B8 FFFF				mov	ax,0FFFFh
2926:2FF6  50					push	ax
2926:2FF7  E8 3FC3				call	sub_272			; (6FBD)
2926:2FFA  E8 3067				call	sub_248			; (6064)
2926:2FFD  1E					push	ds
2926:2FFE  B8 82FD				mov	ax,82FDh
2926:3001  50					push	ax
2926:3002  E8 2213				call	sub_234			; (5218)
           ICON0.lst       ICON0.OVL		Sourcer	v8.01  20-Jul-2026 12:17 am   Page 107

2926:3005  0E E8 0022				callf	sub_96			; (302B)
2926:3009  21 73 61 63 72 69			db	'!sacrifice in order to enslave t'
2926:300F  66 69 63 65 20 69
2926:3015  6E 20 6F 72 64 65
2926:301B  72 20 74 6F 20 65
2926:3021  6E 73 6C 61 76 65
2926:3027  20 74
2926:3029  68 65				db	'he'

				;ßßßß External Entry into Subroutine ßßßßßßßßßßßßßßßßßßßßßßßßßßßßßßßßßßßßßß
				;
				;         Called from:   2926:3005

2926:302B			sub_96:
2926:302B  B8 FFFF				mov	ax,0FFFFh
2926:302E  50					push	ax
2926:302F  B8 FFFF				mov	ax,0FFFFh
2926:3032  50					push	ax
2926:3033  E8 3F87				call	sub_272			; (6FBD)
2926:3036  E8 302B				call	sub_248			; (6064)
2926:3039  1E					push	ds
2926:303A  B8 82FD				mov	ax,82FDh
2926:303D  50					push	ax
2926:303E  E8 21D7				call	sub_234			; (5218)
2926:3041  0E E8 000C				callf	sub_97			; (3051)
2926:3045  0B 4E 69				or	cx,[bp+69h]
2926:3048  65 62 65 6C 75 6E			db	'ebelungs.'
2926:304E  67 73 2E

				;ßßßß External Entry into Subroutine ßßßßßßßßßßßßßßßßßßßßßßßßßßßßßßßßßßßßßß
				;
				;         Called from:   2926:3041

2926:3051			sub_97:
2926:3051  B8 FFFF				mov	ax,0FFFFh
2926:3054  50					push	ax
2926:3055  B8 FFFF				mov	ax,0FFFFh
2926:3058  50					push	ax
2926:3059  E8 3F61				call	sub_272			; (6FBD)
2926:305C  E8 3005				call	sub_248			; (6064)
2926:305F  8B E5				mov	sp,bp
2926:3061  5D					pop	bp
2926:3062  C3					retn
				sub_75		endp

2926:3063			loc_304:					;  xref 2926:2C64
2926:3063  55					push	bp
2926:3064  8B C4				mov	ax,sp
2926:3066  FF 76 FE				push	word ptr [bp-2]
2926:3069  8B E8				mov	bp,ax
2926:306B  55					push	bp
2926:306C  81 EC 0004				sub	sp,4
2926:3070  1E					push	ds
2926:3071  B8 82FD				mov	ax,82FDh
2926:3074  50					push	ax
2926:3075  E8 21A0				call	sub_234			; (5218)
2926:3078  0E E8 001D				callf	sub_98			; (3099)
           ICON0.lst       ICON0.OVL		Sourcer	v8.01  20-Jul-2026 12:17 am   Page 108

2926:307C  1C 20				sbb	al,20h			; ' '
2926:307E  20					db	20h
2926:307F			loc_305:
2926:307F  20 20 20 20 20 20			db	'        LOVE AND THE SWORD'
2926:3085  20 20 4C 4F 56 45
2926:308B  20 41 4E 44 20 54
2926:3091  48 45 20 53 57 4F
2926:3097  52 44

				;ßßßßßßßßßßßßßßßßßßßßßßßßßßßßßßßßßßßßßßßßßßßßßßßßßßßßßßßßßßßßßßßßßßßßßßßßßß
				;                              SUBROUTINE
				;
				;         Called from:   2926:3078
				;ÜÜÜÜÜÜÜÜÜÜÜÜÜÜÜÜÜÜÜÜÜÜÜÜÜÜÜÜÜÜÜÜÜÜÜÜÜÜÜÜÜÜÜÜÜÜÜÜÜÜÜÜÜÜÜÜÜÜÜÜÜÜÜÜÜÜÜÜÜÜÜÜÜÜ

2926:3099			sub_98		proc	near
2926:3099  B8 FFFF				mov	ax,0FFFFh
2926:309C  50					push	ax
2926:309D  B8 FFFF				mov	ax,0FFFFh
2926:30A0  50					push	ax
2926:30A1  E8 3F19				call	sub_272			; (6FBD)
2926:30A4  E8 2FBD				call	sub_248			; (6064)
2926:30A7  1E					push	ds
2926:30A8  B8 82FD				mov	ax,82FDh
2926:30AB  50					push	ax
2926:30AC  E8 2169				call	sub_234			; (5218)
2926:30AF  E8 2FB2				call	sub_248			; (6064)
2926:30B2  1E					push	ds
2926:30B3  B8 82FD				mov	ax,82FDh
2926:30B6  50					push	ax
2926:30B7  E8 215E				call	sub_234			; (5218)
2926:30BA  0E E8 0022				callf	sub_99			; (30E0)
2926:30BE  21 2E 2E 2E 69 6E			db	'!...in pursuit of dreams of powe'
2926:30C4  20 70 75 72 73 75
2926:30CA  69 74 20 6F 66 20
2926:30D0  64 72 65 61 6D 73
2926:30D6  20 6F 66 20 70 6F
2926:30DC  77 65
2926:30DE  72 2C				db	'r,'

				;ßßßß External Entry into Subroutine ßßßßßßßßßßßßßßßßßßßßßßßßßßßßßßßßßßßßßß
				;
				;         Called from:   2926:30BA

2926:30E0			sub_99:
2926:30E0  B8 FFFF				mov	ax,0FFFFh
2926:30E3  50					push	ax
2926:30E4  B8 FFFF				mov	ax,0FFFFh
2926:30E7  50					push	ax
2926:30E8  E8 3ED2				call	sub_272			; (6FBD)
2926:30EB  E8 2F76				call	sub_248			; (6064)
2926:30EE  1E					push	ds
2926:30EF  B8 82FD				mov	ax,82FDh
2926:30F2  50					push	ax
2926:30F3  E8 2122				call	sub_234			; (5218)
2926:30F6  0E E8 0028				callf	sub_100			; (3122)
2926:30FA  27 41 6C 62 65 72			db	27h, 'Alberich gave up love forev'
           ICON0.lst       ICON0.OVL		Sourcer	v8.01  20-Jul-2026 12:17 am   Page 109

2926:3100  69 63 68 20 67 61
2926:3106  76 65 20 75 70 20
2926:310C  6C 6F 76 65 20 66
2926:3112  6F 72 65 76
2926:3116  65 72 20 61 6E 64			db	'er and stole'
2926:311C  20 73 74 6F 6C 65

				;ßßßß External Entry into Subroutine ßßßßßßßßßßßßßßßßßßßßßßßßßßßßßßßßßßßßßß
				;
				;         Called from:   2926:30F6

2926:3122			sub_100:
2926:3122  B8 FFFF				mov	ax,0FFFFh
2926:3125  50					push	ax
2926:3126  B8 FFFF				mov	ax,0FFFFh
2926:3129  50					push	ax
2926:312A  E8 3E90				call	sub_272			; (6FBD)
2926:312D  E8 2F34				call	sub_248			; (6064)
2926:3130  1E					push	ds
2926:3131  B8 82FD				mov	ax,82FDh
2926:3134  50					push	ax
2926:3135  E8 20E0				call	sub_234			; (5218)
2926:3138  0E E8 0026				callf	sub_101			; (3162)
2926:313C  25 74 68 65 20 52			db	'%the Ring.  But as he fled, the '
2926:3142  69 6E 67 2E 20 20
2926:3148  42 75 74 20 61 73
2926:314E  20 68 65 20 66 6C
2926:3154  65 64 2C 20 74 68
2926:315A  65 20
2926:315C  52 68 69 6E 65 2D			db	'Rhine-'

				;ßßßß External Entry into Subroutine ßßßßßßßßßßßßßßßßßßßßßßßßßßßßßßßßßßßßßß
				;
				;         Called from:   2926:3138

2926:3162			sub_101:
2926:3162  B8 FFFF				mov	ax,0FFFFh
2926:3165  50					push	ax
2926:3166  B8 FFFF				mov	ax,0FFFFh
2926:3169  50					push	ax
2926:316A  E8 3E50				call	sub_272			; (6FBD)
2926:316D  E8 2EF4				call	sub_248			; (6064)
2926:3170  1E					push	ds
2926:3171  B8 82FD				mov	ax,82FDh
2926:3174  50					push	ax
2926:3175  E8 20A0				call	sub_234			; (5218)
2926:3178  0E E8 0026				callf	sub_102			; (31A2)
2926:317C  25 6D 61 69 64 65			db	'%maidens placed a curse upon the'
2926:3182  6E 73 20 70 6C 61
2926:3188  63 65 64 20 61 20
2926:318E  63 75 72 73 65 20
2926:3194  75 70 6F 6E 20 74
2926:319A  68 65
2926:319C  20 52 69 6E 67 2E			db	' Ring.'

				;ßßßß External Entry into Subroutine ßßßßßßßßßßßßßßßßßßßßßßßßßßßßßßßßßßßßßß
				;
           ICON0.lst       ICON0.OVL				Sourcer	v8.01  20-Jul-2026 12:17 am   Page 110

				;         Called from:   2926:3178

2926:31A2			sub_102:
2926:31A2  B8 FFFF				mov	ax,0FFFFh
2926:31A5  50					push	ax
2926:31A6  B8 FFFF				mov	ax,0FFFFh
2926:31A9  50					push	ax
2926:31AA  E8 3E10				call	sub_272			; (6FBD)
2926:31AD  E8 2EB4				call	sub_248			; (6064)
2926:31B0  1E					push	ds
2926:31B1  B8 82FD				mov	ax,82FDh
2926:31B4  50					push	ax
2926:31B5  E8 2060				call	sub_234			; (5218)
2926:31B8  0E E8 0027				callf	sub_103			; (31E3)
2926:31BC  26 49				db	 26h, 49h
2926:31BE  7374			data_164	dw	7374h			;  xref 2926:0D1D, 0D32, 0D54, 0D77
2926:31C0  20 6F 77 6E 65 72			db	' owners will be pu'
2926:31C6  73 20 77 69 6C 6C
2926:31CC  20 62 65 20 70 75
2926:31D2  7372			data_166	dw	7372h			;  xref 2926:0DAA
2926:31D4  75 65 64 20 62 79			db	'ued by the envy'
2926:31DA  20 74 68 65 20 65
2926:31E0  6E 76 79

				;ßßßß External Entry into Subroutine ßßßßßßßßßßßßßßßßßßßßßßßßßßßßßßßßßßßßßß
				;
				;         Called from:   2926:31B8

2926:31E3			sub_103:
2926:31E3  B8 FFFF				mov	ax,0FFFFh
2926:31E6  50					push	ax
2926:31E7  B8 FFFF				mov	ax,0FFFFh
2926:31EA  50					push	ax
2926:31EB  E8 3DCF				call	sub_272			; (6FBD)
2926:31EE  E8 2E73				call	sub_248			; (6064)
2926:31F1  1E					push	ds
2926:31F2  B8 82FD				mov	ax,82FDh
2926:31F5  50					push	ax
2926:31F6  E8 201F				call	sub_234			; (5218)
2926:31F9  0E E8 0026				callf	sub_104			; (3223)
2926:31FD  25 6F 66 20 6F 74			db	'%of others, and all who come und'
2926:3203  68 65 72 73 2C 20
2926:3209  61 6E 64 20 61 6C
2926:320F  6C 20 77 68 6F 20
2926:3215  63 6F 6D 65 20 75
2926:321B  6E 64
2926:321D  65 72 20 69 74 73			db	'er its'

				;ßßßß External Entry into Subroutine ßßßßßßßßßßßßßßßßßßßßßßßßßßßßßßßßßßßßßß
				;
				;         Called from:   2926:31F9

2926:3223			sub_104:
2926:3223  B8 FFFF				mov	ax,0FFFFh
2926:3226  50					push	ax
2926:3227  B8 FFFF				mov	ax,0FFFFh
2926:322A  50					push	ax
           ICON0.lst       ICON0.OVL		Sourcer	v8.01  20-Jul-2026 12:17 am   Page 111

2926:322B  E8 3D8F				call	sub_272			; (6FBD)
2926:322E  E8 2E33				call	sub_248			; (6064)
2926:3231  1E					push	ds
2926:3232  B8 82FD				mov	ax,82FDh
2926:3235  50					push	ax
2926:3236  E8 1FDF				call	sub_234			; (5218)
2926:3239  0E E8 0025				callf	sub_105			; (3262)
2926:323D  24					db	'$'
2926:323E  69 6E 66 6C 75 65			db	'influence will know no peace or '
2926:3244  6E 63 65 20 77 69
2926:324A  6C 6C 20 6B 6E 6F
2926:3250  77 20 6E 6F 20 70
2926:3256  65 61 63 65 20 6F
2926:325C  72 20
2926:325E  6A 6F 79 2E				db	'joy.'

				;ßßßß External Entry into Subroutine ßßßßßßßßßßßßßßßßßßßßßßßßßßßßßßßßßßßßßß
				;
				;         Called from:   2926:3239

2926:3262			sub_105:
2926:3262  B8 FFFF				mov	ax,0FFFFh
2926:3265  50					push	ax
2926:3266  B8 FFFF				mov	ax,0FFFFh
2926:3269  50					push	ax
2926:326A  E8 3D50				call	sub_272			; (6FBD)
2926:326D  E8 2DF4				call	sub_248			; (6064)
2926:3270  1E					push	ds
2926:3271  B8 82FD				mov	ax,82FDh
2926:3274  50					push	ax
2926:3275  E8 1FA0				call	sub_234			; (5218)
2926:3278  0E E8 0029				callf	sub_106			; (32A5)
2926:327C  28 53 6F 6F 6E 20			db	'(Soon after, Alberich was murder'
2926:3282  61 66 74 65 72 2C
2926:3288  20 41 6C 62 65 72
2926:328E  69 63 68 20 77 61
2926:3294  73 20 6D 75 72 64
2926:329A  65 72
2926:329C  65 64 20 62 79 20			db	'ed by his'
2926:32A2  68 69 73

				;ßßßß External Entry into Subroutine ßßßßßßßßßßßßßßßßßßßßßßßßßßßßßßßßßßßßßß
				;
				;         Called from:   2926:3278

2926:32A5			sub_106:
2926:32A5  B8 FFFF				mov	ax,0FFFFh
2926:32A8  50					push	ax
2926:32A9  B8 FFFF				mov	ax,0FFFFh
2926:32AC  50					push	ax
2926:32AD  E8 3D0D				call	sub_272			; (6FBD)
2926:32B0  1E					push	ds
2926:32B1  B8 82FD				mov	ax,82FDh
2926:32B4  50					push	ax
2926:32B5  E8 1F60				call	sub_234			; (5218)
2926:32B8  0E E8 0029				callf	sub_107			; (32E5)
2926:32BC  28 61 6C 6C 79 2C			db	'(ally, the ice giant Fafner, who'
           ICON0.lst       ICON0.OVL		Sourcer	v8.01  20-Jul-2026 12:17 am   Page 112

2926:32C2  20 74 68 65 20 69
2926:32C8  63 65 20 67 69 61
2926:32CE  6E 74 20 46 61 66
2926:32D4  6E 65 72 2C 20 77
2926:32DA  68 6F
2926:32DC  20 75 73 65 64 20			db	' used the'
2926:32E2  74 68 65

				;ßßßß External Entry into Subroutine ßßßßßßßßßßßßßßßßßßßßßßßßßßßßßßßßßßßßßß
				;
				;         Called from:   2926:32B8

2926:32E5			sub_107:
2926:32E5  B8 FFFF				mov	ax,0FFFFh
2926:32E8  50					push	ax
2926:32E9  B8 FFFF				mov	ax,0FFFFh
2926:32EC  50					push	ax
2926:32ED  E8 3CCD				call	sub_272			; (6FBD)
2926:32F0  1E					push	ds
2926:32F1  B8 82FD				mov	ax,82FDh
2926:32F4  50					push	ax
2926:32F5  E8 1F20				call	sub_234			; (5218)
2926:32F8  0E E8 0029				callf	sub_108			; (3325)
2926:32FC  28 70 6F 77 65 72			db	'(power of the Ring to turn himse'
2926:3302  20 6F 66 20 74 68
2926:3308  65 20 52 69 6E 67
2926:330E  20 74 6F 20 74 75
2926:3314  72 6E 20 68 69 6D
2926:331A  73 65
2926:331C  6C 66 20 69 6E 74			db	'lf into a'
2926:3322  6F 20 61

				;ßßßß External Entry into Subroutine ßßßßßßßßßßßßßßßßßßßßßßßßßßßßßßßßßßßßßß
				;
				;         Called from:   2926:32F8

2926:3325			sub_108:
2926:3325  B8 FFFF				mov	ax,0FFFFh
2926:3328  50					push	ax
2926:3329  B8 FFFF				mov	ax,0FFFFh
2926:332C  50					push	ax
2926:332D  E8 3C8D				call	sub_272			; (6FBD)
2926:3330  1E					push	ds
2926:3331  B8 82FD				mov	ax,82FDh
2926:3334  50					push	ax
2926:3335  E8 1EE0				call	sub_234			; (5218)
2926:3338  0E E8 0029				callf	sub_109			; (3365)
2926:333C  28 44 72 61 67 6F			db	'(Dragon.  Jealously guarding a v'
2926:3342  6E 2E 20 20 4A 65
2926:3348  61 6C 6F 75 73 6C
2926:334E  79 20 67 75 61 72
2926:3354  64 69 6E 67 20 61
2926:335A  20 76
2926:335C  61 73 74 20 74 72			db	'ast trea-'
2926:3362  65 61 2D

				;ßßßß External Entry into Subroutine ßßßßßßßßßßßßßßßßßßßßßßßßßßßßßßßßßßßßßß
           ICON0.lst       ICON0.OVL		Sourcer	v8.01  20-Jul-2026 12:17 am   Page 113

				;
				;         Called from:   2926:3338

2926:3365			sub_109:
2926:3365  B8 FFFF				mov	ax,0FFFFh
2926:3368  50					push	ax
2926:3369  B8 FFFF				mov	ax,0FFFFh
2926:336C  50					push	ax
2926:336D  E8 3C4D				call	sub_272			; (6FBD)
2926:3370  1E					push	ds
2926:3371  B8 82FD				mov	ax,82FDh
2926:3374  50					push	ax
2926:3375  E8 1EA0				call	sub_234			; (5218)
2926:3378  0E E8 0028				callf	sub_110			; (33A4)
2926:337C  27 73 75 72 65 20			db	27h, 'sure extracted from the ens'
2926:3382  65 78 74 72 61 63
2926:3388  74 65 64 20 66 72
2926:338E  6F 6D 20 74 68 65
2926:3394  20 65 6E 73
2926:3398  6C 61 76 65 64 20			db	'laved Niebe-'
2926:339E  4E 69 65 62 65 2D

				;ßßßß External Entry into Subroutine ßßßßßßßßßßßßßßßßßßßßßßßßßßßßßßßßßßßßßß
				;
				;         Called from:   2926:3378

2926:33A4			sub_110:
2926:33A4  B8 FFFF				mov	ax,0FFFFh
2926:33A7  50					push	ax
2926:33A8  B8 FFFF				mov	ax,0FFFFh
2926:33AB  50					push	ax
2926:33AC  E8 3C0E				call	sub_272			; (6FBD)
2926:33AF  E8 2CB2				call	sub_248			; (6064)
2926:33B2  1E					push	ds
2926:33B3  B8 82FD				mov	ax,82FDh
2926:33B6  50					push	ax
2926:33B7  E8 1E5E				call	sub_234			; (5218)
2926:33BA  0E E8 0028				callf	sub_111			; (33E6)
2926:33BE  27 6C 75 6E 67 73			db	27h, 'lungs, Fafner presides over'
2926:33C4  2C 20 46 61 66 6E
2926:33CA  65 72 20 70 72 65
2926:33D0  73 69 64 65 73 20
2926:33D6  6F 76 65 72
2926:33DA  20 61 20 6D 75 72			db	' a murderous'
2926:33E0  64 65 72 6F 75 73

				;ßßßß External Entry into Subroutine ßßßßßßßßßßßßßßßßßßßßßßßßßßßßßßßßßßßßßß
				;
				;         Called from:   2926:33BA

2926:33E6			sub_111:
2926:33E6  B8 FFFF				mov	ax,0FFFFh
2926:33E9  50					push	ax
2926:33EA  B8 FFFF				mov	ax,0FFFFh
2926:33ED  50					push	ax
2926:33EE  E8 3BCC				call	sub_272			; (6FBD)
2926:33F1  E8 2C70				call	sub_248			; (6064)
           ICON0.lst       ICON0.OVL		Sourcer	v8.01  20-Jul-2026 12:17 am   Page 114

2926:33F4  1E					push	ds
2926:33F5  B8 82FD				mov	ax,82FDh
2926:33F8  50					push	ax
2926:33F9  E8 1E1C				call	sub_234			; (5218)
2926:33FC  0E E8 0027				callf	sub_112			; (3427)
2926:3400  26 64 75 6E 67 65			db	'&dungeon world.  The ruler of th'
2926:3406  6F 6E 20 77 6F 72
2926:340C  6C 64 2E 20 20 54
2926:3412  68 65 20 72 75 6C
2926:3418  65 72 20 6F 66 20
2926:341E  74 68
2926:3420  65 20 67 6F 64 73			db	'e gods,'
2926:3426  2C

				;ßßßß External Entry into Subroutine ßßßßßßßßßßßßßßßßßßßßßßßßßßßßßßßßßßßßßß
				;
				;         Called from:   2926:33FC

2926:3427			sub_112:
2926:3427  B8 FFFF				mov	ax,0FFFFh
2926:342A  50					push	ax
2926:342B  B8 FFFF				mov	ax,0FFFFh
2926:342E  50					push	ax
2926:342F  E8 3B8B				call	sub_272			; (6FBD)
2926:3432  E8 2C2F				call	sub_248			; (6064)
2926:3435  1E					push	ds
2926:3436  B8 82FD				mov	ax,82FDh
2926:3439  50					push	ax
2926:343A  E8 1DDB				call	sub_234			; (5218)
2926:343D  0E E8 0029				callf	sub_113			; (346A)
2926:3441  28 4F 64 69 6E 2C			db	'(Odin, himself fearing the effec'
2926:3447  20 68 69 6D 73 65
2926:344D  6C 66 20 66 65 61
2926:3453  72 69 6E 67 20 74
2926:3459  68 65 20 65 66 66
2926:345F  65 63
2926:3461  74 73 20 6F 66 20			db	'ts of the'
2926:3467  74 68 65

				;ßßßß External Entry into Subroutine ßßßßßßßßßßßßßßßßßßßßßßßßßßßßßßßßßßßßßß
				;
				;         Called from:   2926:343D

2926:346A			sub_113:
2926:346A  B8 FFFF				mov	ax,0FFFFh
2926:346D  50					push	ax
2926:346E  B8 FFFF				mov	ax,0FFFFh
2926:3471  50					push	ax
2926:3472  E8 3B48				call	sub_272			; (6FBD)
2926:3475  1E					push	ds
2926:3476  B8 82FD				mov	ax,82FDh
2926:3479  50					push	ax
2926:347A  E8 1D9B				call	sub_234			; (5218)
2926:347D  0E E8 0028				callf	sub_114			; (34A9)
2926:3481  27 72 69 6E 67 2C			db	27h, 'ring, has formed a plan.  H'
2926:3487  20 68 61 73 20 66
2926:348D  6F 72 6D 65 64 20
           ICON0.lst       ICON0.OVL		Sourcer	v8.01  20-Jul-2026 12:17 am   Page 115

2926:3493  61 20 70 6C 61 6E
2926:3499  2E 20 20 48
2926:349D  65 20 68 61 73 20			db	'e has caused'
2926:34A3  63 61 75 73 65 64

				;ßßßß External Entry into Subroutine ßßßßßßßßßßßßßßßßßßßßßßßßßßßßßßßßßßßßßß
				;
				;         Called from:   2926:347D

2926:34A9			sub_114:
2926:34A9  B8 FFFF				mov	ax,0FFFFh
2926:34AC  50					push	ax
2926:34AD  B8 FFFF				mov	ax,0FFFFh
2926:34B0  50					push	ax
2926:34B1  E8 3B09				call	sub_272			; (6FBD)
2926:34B4  E8 2BAD				call	sub_248			; (6064)
2926:34B7  1E					push	ds
2926:34B8  B8 82FD				mov	ax,82FDh
2926:34BB  50					push	ax
2926:34BC  E8 1D59				call	sub_234			; (5218)
2926:34BF  0E E8 0028				callf	sub_115			; (34EB)
2926:34C3  27 61 20 6D 69 72			db	27h, 'a miraculous sword impervio'
2926:34C9  61 63 75 6C 6F 75
2926:34CF  73 20 73 77 6F 72
2926:34D5  64 20 69 6D 70 65
2926:34DB  72 76 69 6F
2926:34DF  75 73 20 74 6F 20			db	'us to dragon'
2926:34E5  64 72 61 67 6F 6E

				;ßßßß External Entry into Subroutine ßßßßßßßßßßßßßßßßßßßßßßßßßßßßßßßßßßßßßß
				;
				;         Called from:   2926:34BF

2926:34EB			sub_115:
2926:34EB  B8 FFFF				mov	ax,0FFFFh
2926:34EE  50					push	ax
2926:34EF  B8 FFFF				mov	ax,0FFFFh
2926:34F2  50					push	ax
2926:34F3  E8 3AC7				call	sub_272			; (6FBD)
2926:34F6  E8 2B6B				call	sub_248			; (6064)
2926:34F9  1E					push	ds
2926:34FA  B8 82FD				mov	ax,82FDh
2926:34FD  50					push	ax
2926:34FE  E8 1D17				call	sub_234			; (5218)
2926:3501  0E E8 0027				callf	sub_116			; (352C)
2926:3505  26 62 6C 6F 6F 64			db	'&blood to be entrusted to the be'
2926:350B  20 74 6F 20 62 65
2926:3511  20 65 6E 74 72 75
2926:3517  73 74 65 64 20 74
2926:351D  6F 20 74 68 65 20
2926:3523  62 65
2926:3525  61 75 74 69 66 75			db	'autiful'
2926:352B  6C

				;ßßßß External Entry into Subroutine ßßßßßßßßßßßßßßßßßßßßßßßßßßßßßßßßßßßßßß
				;
				;         Called from:   2926:3501
           ICON0.lst       ICON0.OVL		Sourcer	v8.01  20-Jul-2026 12:17 am   Page 116


2926:352C			sub_116:
2926:352C  B8 FFFF				mov	ax,0FFFFh
2926:352F  50					push	ax
2926:3530  B8 FFFF				mov	ax,0FFFFh
2926:3533  50					push	ax
2926:3534  E8 3A86				call	sub_272			; (6FBD)
2926:3537  E8 2B2A				call	sub_248			; (6064)
2926:353A  1E					push	ds
2926:353B  B8 82FD				mov	ax,82FDh
2926:353E  50					push	ax
2926:353F  E8 1CD6				call	sub_234			; (5218)
2926:3542  0E E8 0025				callf	sub_117			; (356B)
2926:3546  24					db	'$'
2926:3547  53 69 67 6C 75 6E			db	'Siglund.  This sword can only be'
2926:354D  64 2E 20 20 54 68
2926:3553  69 73 20 73 77 6F
2926:3559  72 64 20 63 61 6E
2926:355F  20 6F 6E 6C 79 20
2926:3565  62 65
2926:3567  20 77 6F 6E				db	' won'

				;ßßßß External Entry into Subroutine ßßßßßßßßßßßßßßßßßßßßßßßßßßßßßßßßßßßßßß
				;
				;         Called from:   2926:3542

2926:356B			sub_117:
2926:356B  B8 FFFF				mov	ax,0FFFFh
2926:356E  50					push	ax
2926:356F  B8 FFFF				mov	ax,0FFFFh
2926:3572  50					push	ax
2926:3573  E8 3A47				call	sub_272			; (6FBD)
2926:3576  E8 2AEB				call	sub_248			; (6064)
2926:3579  1E					push	ds
2926:357A  B8 82FD				mov	ax,82FDh
2926:357D  50					push	ax
2926:357E  E8 1C97				call	sub_234			; (5218)
2926:3581  0E E8 0025				callf	sub_118			; (35AA)
2926:3585  24					db	'$'
2926:3586  62 79 20 61 20 68			db	'by a hero who, for the sake of l'
2926:358C  65 72 6F 20 77 68
2926:3592  6F 2C 20 66 6F 72
2926:3598  20 74 68 65 20 73
2926:359E  61 6B 65 20 6F 66
2926:35A4  20 6C
2926:35A6  6F 76 65 2C				db	'ove,'

				;ßßßß External Entry into Subroutine ßßßßßßßßßßßßßßßßßßßßßßßßßßßßßßßßßßßßßß
				;
				;         Called from:   2926:3581

2926:35AA			sub_118:
2926:35AA  B8 FFFF				mov	ax,0FFFFh
2926:35AD  50					push	ax
2926:35AE  B8 FFFF				mov	ax,0FFFFh
2926:35B1  50					push	ax
2926:35B2  E8 3A08				call	sub_272			; (6FBD)
           ICON0.lst       ICON0.OVL		Sourcer	v8.01  20-Jul-2026 12:17 am   Page 117

2926:35B5  E8 2AAC				call	sub_248			; (6064)
2926:35B8  1E					push	ds
2926:35B9  B8 82FD				mov	ax,82FDh
2926:35BC  50					push	ax
2926:35BD  E8 1C58				call	sub_234			; (5218)
2926:35C0  0E E8 0029				callf	sub_119			; (35ED)
2926:35C4  28 77 69 6C 6C 20			db	'(will brave a wall of fire to wi'
2926:35CA  62 72 61 76 65 20
2926:35D0  61 20 77 61 6C 6C
2926:35D6  20 6F 66 20 66 69
2926:35DC  72 65 20 74 6F 20
2926:35E2  77 69
2926:35E4  6E 20 53 69 67 6C			db	'n Siglund'
2926:35EA  75 6E 64

				;ßßßß External Entry into Subroutine ßßßßßßßßßßßßßßßßßßßßßßßßßßßßßßßßßßßßßß
				;
				;         Called from:   2926:35C0

2926:35ED			sub_119:
2926:35ED  B8 FFFF				mov	ax,0FFFFh
2926:35F0  50					push	ax
2926:35F1  B8 FFFF				mov	ax,0FFFFh
2926:35F4  50					push	ax
2926:35F5  E8 39C5				call	sub_272			; (6FBD)
2926:35F8  1E					push	ds
2926:35F9  B8 82FD				mov	ax,82FDh
2926:35FC  50					push	ax
2926:35FD  E8 1C18				call	sub_234			; (5218)
2926:3600  0E E8 001F				callf	sub_120			; (3623)
2926:3604  1E					push	ds
2926:3605  66 72 6F 6D 20 48			db	'from Hunding the Black Knight.'
2926:360B  75 6E 64 69 6E 67
2926:3611  20 74 68 65 20 42
2926:3617  6C 61 63 6B 20 4B
2926:361D  6E 69 67 68 74 2E

				;ßßßß External Entry into Subroutine ßßßßßßßßßßßßßßßßßßßßßßßßßßßßßßßßßßßßßß
				;
				;         Called from:   2926:3600

2926:3623			sub_120:
2926:3623  B8 FFFF				mov	ax,0FFFFh
2926:3626  50					push	ax
2926:3627  B8 FFFF				mov	ax,0FFFFh
2926:362A  50					push	ax
2926:362B  E8 398F				call	sub_272			; (6FBD)
2926:362E  E8 2A33				call	sub_248			; (6064)
2926:3631  8B E5				mov	sp,bp
2926:3633  5D					pop	bp
2926:3634  C3					retn
				sub_98		endp

2926:3635			loc_306:					;  xref 2926:2C67
2926:3635  55					push	bp
2926:3636  8B C4				mov	ax,sp
2926:3638  FF 76 FE				push	word ptr [bp-2]
           ICON0.lst       ICON0.OVL		Sourcer	v8.01  20-Jul-2026 12:17 am   Page 118

2926:363B  8B E8				mov	bp,ax
2926:363D  55					push	bp
2926:363E  81 EC 0004				sub	sp,4
2926:3642  1E					push	ds
2926:3643  B8 82FD				mov	ax,82FDh
2926:3646  50					push	ax
2926:3647  E8 1BCE				call	sub_234			; (5218)
2926:364A  0E E8 0020				callf	sub_121			; (366E)
2926:364E  1F					pop	ds
2926:364F  20 20 20 20 20 20			db	'        BRAVERY AND RETRIBUTION'
2926:3655  20 20 42 52 41 56
2926:365B  45 52 59 20 41 4E
2926:3661  44 20 52 45 54 52
2926:3667  49 42 55 54 49 4F
2926:366D  4E

				;ßßßßßßßßßßßßßßßßßßßßßßßßßßßßßßßßßßßßßßßßßßßßßßßßßßßßßßßßßßßßßßßßßßßßßßßßßß
				;                              SUBROUTINE
				;
				;         Called from:   2926:364A
				;ÜÜÜÜÜÜÜÜÜÜÜÜÜÜÜÜÜÜÜÜÜÜÜÜÜÜÜÜÜÜÜÜÜÜÜÜÜÜÜÜÜÜÜÜÜÜÜÜÜÜÜÜÜÜÜÜÜÜÜÜÜÜÜÜÜÜÜÜÜÜÜÜÜÜ

2926:366E			sub_121		proc	near
2926:366E  B8 FFFF				mov	ax,0FFFFh
2926:3671  50					push	ax
2926:3672  B8 FFFF				mov	ax,0FFFFh
2926:3675  50					push	ax
2926:3676  E8 3944				call	sub_272			; (6FBD)
2926:3679  E8 29E8				call	sub_248			; (6064)
2926:367C  1E					push	ds
2926:367D  B8 82FD				mov	ax,82FDh
2926:3680  50					push	ax
2926:3681  E8 1B94				call	sub_234			; (5218)
2926:3684  E8 29DD				call	sub_248			; (6064)
2926:3687  1E					push	ds
2926:3688  B8 82FD				mov	ax,82FDh
2926:368B  50					push	ax
2926:368C  E8 1B89				call	sub_234			; (5218)
2926:368F  0E E8 0029				callf	sub_122			; (36BC)
2926:3693  28 54 68 65 20 68			db	'(The hero Sigmund has become ent'
2926:3699  65 72 6F 20 53 69
2926:369F  67 6D 75 6E 64 20
2926:36A5  68 61 73 20 62 65
2926:36AB  63 6F 6D 65 20 65
2926:36B1  6E 74
2926:36B3  61 6E 67 6C 65 64			db	'angled in'
2926:36B9  20 69 6E

				;ßßßß External Entry into Subroutine ßßßßßßßßßßßßßßßßßßßßßßßßßßßßßßßßßßßßßß
				;
				;         Called from:   2926:368F

2926:36BC			sub_122:
2926:36BC  B8 FFFF				mov	ax,0FFFFh
2926:36BF  50					push	ax
2926:36C0  B8 FFFF				mov	ax,0FFFFh
2926:36C3  50					push	ax
           ICON0.lst       ICON0.OVL		Sourcer	v8.01  20-Jul-2026 12:17 am   Page 119

2926:36C4  E8 38F6				call	sub_272			; (6FBD)
2926:36C7  1E					push	ds
2926:36C8  B8 82FD				mov	ax,82FDh
2926:36CB  50					push	ax
2926:36CC  E8 1B49				call	sub_234			; (5218)
2926:36CF  0E E8 0023				callf	sub_123			; (36F6)
2926:36D3  22 74 68 65 20 74			db	'"the tragic complexity of life. '
2926:36D9  72 61 67 69 63 20
2926:36DF  63 6F 6D 70 6C 65
2926:36E5  78 69 74 79 20 6F
2926:36EB  66 20 6C 69 66 65
2926:36F1  2E 20
2926:36F3  20 49 6E				db	' In'

				;ßßßß External Entry into Subroutine ßßßßßßßßßßßßßßßßßßßßßßßßßßßßßßßßßßßßßß
				;
				;         Called from:   2926:36CF

2926:36F6			sub_123:
2926:36F6  B8 FFFF				mov	ax,0FFFFh
2926:36F9  50					push	ax
2926:36FA  B8 FFFF				mov	ax,0FFFFh
2926:36FD  50					push	ax
2926:36FE  E8 38BC				call	sub_272			; (6FBD)
2926:3701  E8 2960				call	sub_248			; (6064)
2926:3704  1E					push	ds
2926:3705  B8 82FD				mov	ax,82FDh
2926:3708  50					push	ax
2926:3709  E8 1B0C				call	sub_234			; (5218)
2926:370C  0E E8 0024				callf	sub_124			; (3734)
2926:3710  23 77 69 6E 6E 69			db	'#winning the sword, Sigmund has '
2926:3716  6E 67 20 74 68 65
2926:371C  20 73 77 6F 72 64
2926:3722  2C 20 53 69 67 6D
2926:3728  75 6E 64 20 68 61
2926:372E  73 20
2926:3730  6C 6F 73 74				db	'lost'

				;ßßßß External Entry into Subroutine ßßßßßßßßßßßßßßßßßßßßßßßßßßßßßßßßßßßßßß
				;
				;         Called from:   2926:370C

2926:3734			sub_124:
2926:3734  B8 FFFF				mov	ax,0FFFFh
2926:3737  50					push	ax
2926:3738  B8 FFFF				mov	ax,0FFFFh
2926:373B  50					push	ax
2926:373C  E8 387E				call	sub_272			; (6FBD)
2926:373F  E8 2922				call	sub_248			; (6064)
2926:3742  1E					push	ds
2926:3743  B8 82FD				mov	ax,82FDh
2926:3746  50					push	ax
2926:3747  E8 1ACE				call	sub_234			; (5218)
2926:374A  0E E8 0027				callf	sub_125			; (3775)
2926:374E  26 53 69 67 6C 75			db	'&Siglund.  After a brief encount'
2926:3754  6E 64 2E 20 20 41
2926:375A  66 74 65 72 20 61
           ICON0.lst       ICON0.OVL		Sourcer	v8.01  20-Jul-2026 12:17 am   Page 120

2926:3760  20 62 72 69 65 66
2926:3766  20 65 6E 63 6F 75
2926:376C  6E 74
2926:376E  65 72 20 77 69 74			db	'er with'
2926:3774  68

				;ßßßß External Entry into Subroutine ßßßßßßßßßßßßßßßßßßßßßßßßßßßßßßßßßßßßßß
				;
				;         Called from:   2926:374A

2926:3775			sub_125:
2926:3775  B8 FFFF				mov	ax,0FFFFh
2926:3778  50					push	ax
2926:3779  B8 FFFF				mov	ax,0FFFFh
2926:377C  50					push	ax
2926:377D  E8 383D				call	sub_272			; (6FBD)
2926:3780  E8 28E1				call	sub_248			; (6064)
2926:3783  1E					push	ds
2926:3784  B8 82FD				mov	ax,82FDh
2926:3787  50					push	ax
2926:3788  E8 1A8D				call	sub_234			; (5218)
2926:378B  0E E8 0023				callf	sub_126			; (37B2)
2926:378F  22 53 69 67 6D 75			db	'"Sigmund, Siglund has fled into '
2926:3795  6E 64 2C 20 53 69
2926:379B  67 6C 75 6E 64 20
2926:37A1  68 61 73 20 66 6C
2926:37A7  65 64 20 69 6E 74
2926:37AD  6F 20
2926:37AF  74 68 65				db	'the'

				;ßßßß External Entry into Subroutine ßßßßßßßßßßßßßßßßßßßßßßßßßßßßßßßßßßßßßß
				;
				;         Called from:   2926:378B

2926:37B2			sub_126:
2926:37B2  B8 FFFF				mov	ax,0FFFFh
2926:37B5  50					push	ax
2926:37B6  B8 FFFF				mov	ax,0FFFFh
2926:37B9  50					push	ax
2926:37BA  E8 3800				call	sub_272			; (6FBD)
2926:37BD  E8 28A4				call	sub_248			; (6064)
2926:37C0  1E					push	ds
2926:37C1  B8 82FD				mov	ax,82FDh
2926:37C4  50					push	ax
2926:37C5  E8 1A50				call	sub_234			; (5218)
2926:37C8  0E E8 0025				callf	sub_127			; (37F1)
2926:37CC  24					db	'$'
2926:37CD  77 69 6C 64 65 72			db	'wilderness leaving behind the sw'
2926:37D3  6E 65 73 73 20 6C
2926:37D9  65 61 76 69 6E 67
2926:37DF  20 62 65 68 69 6E
2926:37E5  64 20 74 68 65 20
2926:37EB  73 77
2926:37ED  6F 72 64 2E				db	'ord.'

				;ßßßß External Entry into Subroutine ßßßßßßßßßßßßßßßßßßßßßßßßßßßßßßßßßßßßßß
				;
           ICON0.lst       ICON0.OVL				Sourcer	v8.01  20-Jul-2026 12:17 am   Page 121

				;         Called from:   2926:37C8

2926:37F1			sub_127:
2926:37F1  B8 FFFF				mov	ax,0FFFFh
2926:37F4  50					push	ax
2926:37F5  B8 FFFF				mov	ax,0FFFFh
2926:37F8  50					push	ax
2926:37F9  E8 37C1				call	sub_272			; (6FBD)
2926:37FC  E8 2865				call	sub_248			; (6064)
2926:37FF  1E					push	ds
2926:3800  B8 82FD				mov	ax,82FDh
2926:3803  50					push	ax
2926:3804  E8 1A11				call	sub_234			; (5218)
2926:3807  0E E8 0027				callf	sub_128			; (3832)
2926:380B  26 4D 6F 72 65 6F			db	'&Moreover, to win the sword Sigm'
2926:3811  76 65 72 2C 20 74
2926:3817  6F 20 77 69 6E 20
2926:381D  74 68 65 20 73 77
2926:3823  6F 72 64 20 53 69
2926:3829  67 6D
2926:382B  75 6E 64 20 68 61			db	'und had'
2926:3831  64

				;ßßßß External Entry into Subroutine ßßßßßßßßßßßßßßßßßßßßßßßßßßßßßßßßßßßßßß
				;
				;         Called from:   2926:3807

2926:3832			sub_128:
2926:3832  B8 FFFF				mov	ax,0FFFFh
2926:3835  50					push	ax
2926:3836  B8 FFFF				mov	ax,0FFFFh
2926:3839  50					push	ax
2926:383A  E8 3780				call	sub_272			; (6FBD)
2926:383D  E8 2824				call	sub_248			; (6064)
2926:3840  1E					push	ds
2926:3841  B8 82FD				mov	ax,82FDh
2926:3844  50					push	ax
2926:3845  E8 19D0				call	sub_234			; (5218)
2926:3848  0E E8 0027				callf	sub_129			; (3873)
2926:384C  26 74 6F 20 63 6F			db	'&to commit a grievous error.  Th'
2926:3852  6D 6D 69 74 20 61
2926:3858  20 67 72 69 65 76
2926:385E  6F 75 73 20 65 72
2926:3864  72 6F 72 2E 20 20
2926:386A  54 68
2926:386C  65 20 42 6C 61 63			db	'e Black'
2926:3872  6B

				;ßßßß External Entry into Subroutine ßßßßßßßßßßßßßßßßßßßßßßßßßßßßßßßßßßßßßß
				;
				;         Called from:   2926:3848

2926:3873			sub_129:
2926:3873  B8 FFFF				mov	ax,0FFFFh
2926:3876  50					push	ax
2926:3877  B8 FFFF				mov	ax,0FFFFh
2926:387A  50					push	ax
           ICON0.lst       ICON0.OVL		Sourcer	v8.01  20-Jul-2026 12:17 am   Page 122

2926:387B  E8 373F				call	sub_272			; (6FBD)
2926:387E  E8 27E3				call	sub_248			; (6064)
2926:3881  1E					push	ds
2926:3882  B8 82FD				mov	ax,82FDh
2926:3885  50					push	ax
2926:3886  E8 198F				call	sub_234			; (5218)
2926:3889  0E E8 0028				callf	sub_130			; (38B5)
2926:388D  27 4B 6E 69 67 68			db	27h, 'Knight, Hunding, was the la'
2926:3893  74 2C 20 48 75 6E
2926:3899  64 69 6E 67 2C 20
2926:389F  77 61 73 20 74 68
2926:38A5  65 20 6C 61
2926:38A9  77 66 75 6C 20 68			db	'wful husband'
2926:38AF  75 73 62 61 6E 64

				;ßßßß External Entry into Subroutine ßßßßßßßßßßßßßßßßßßßßßßßßßßßßßßßßßßßßßß
				;
				;         Called from:   2926:3889

2926:38B5			sub_130:
2926:38B5  B8 FFFF				mov	ax,0FFFFh
2926:38B8  50					push	ax
2926:38B9  B8 FFFF				mov	ax,0FFFFh
2926:38BC  50					push	ax
2926:38BD  E8 36FD				call	sub_272			; (6FBD)
2926:38C0  E8 27A1				call	sub_248			; (6064)
2926:38C3  1E					push	ds
2926:38C4  B8 82FD				mov	ax,82FDh
2926:38C7  50					push	ax
2926:38C8  E8 194D				call	sub_234			; (5218)
2926:38CB  0E E8 0023				callf	sub_131			; (38F2)
2926:38CF  22 6F 66 20 53 69			db	'"of Sieglund.  And now, Odin', 27h
2926:38D5  65 67 6C 75 6E 64
2926:38DB  2E 20 20 41 6E 64
2926:38E1  20 6E 6F 77 2C 20
2926:38E7  4F 64 69 6E 27
2926:38EC  73 20 77 69 66 65			db	's wife'

				;ßßßß External Entry into Subroutine ßßßßßßßßßßßßßßßßßßßßßßßßßßßßßßßßßßßßßß
				;
				;         Called from:   2926:38CB

2926:38F2			sub_131:
2926:38F2  B8 FFFF				mov	ax,0FFFFh
2926:38F5  50					push	ax
2926:38F6  B8 FFFF				mov	ax,0FFFFh
2926:38F9  50					push	ax
2926:38FA  E8 36C0				call	sub_272			; (6FBD)
2926:38FD  E8 2764				call	sub_248			; (6064)
2926:3900  1E					push	ds
2926:3901  B8 82FD				mov	ax,82FDh
2926:3904  50					push	ax
2926:3905  E8 1910				call	sub_234			; (5218)
2926:3908  0E E8 0025				callf	sub_132			; (3931)
2926:390C  24					db	'$'
2926:390D  46 72 69 63 6B 61			db	'Fricka, the goddess of marriage,'
2926:3913  2C 20 74 68 65 20
           ICON0.lst       ICON0.OVL		Sourcer	v8.01  20-Jul-2026 12:17 am   Page 123

2926:3919  67 6F 64 64 65 73
2926:391F  73 20 6F 66 20 6D
2926:3925  61 72 72 69 61 67
2926:392B  65 2C
2926:392D  20 68 61 73				db	' has'

				;ßßßß External Entry into Subroutine ßßßßßßßßßßßßßßßßßßßßßßßßßßßßßßßßßßßßßß
				;
				;         Called from:   2926:3908

2926:3931			sub_132:
2926:3931  B8 FFFF				mov	ax,0FFFFh
2926:3934  50					push	ax
2926:3935  B8 FFFF				mov	ax,0FFFFh
2926:3938  50					push	ax
2926:3939  E8 3681				call	sub_272			; (6FBD)
2926:393C  E8 2725				call	sub_248			; (6064)
2926:393F  1E					push	ds
2926:3940  B8 82FD				mov	ax,82FDh
2926:3943  50					push	ax
2926:3944  E8 18D1				call	sub_234			; (5218)
2926:3947  0E E8 0026				callf	sub_133			; (3971)
2926:394B  25 64 65 6D 61 6E			db	'%demanded that Odin set aside hi'
2926:3951  64 65 64 20 74 68
2926:3957  61 74 20 4F 64 69
2926:395D  6E 20 73 65 74 20
2926:3963  61 73 69 64 65 20
2926:3969  68 69
2926:396B  73 20 70 6C 61 6E			db	's plan'

				;ßßßß External Entry into Subroutine ßßßßßßßßßßßßßßßßßßßßßßßßßßßßßßßßßßßßßß
				;
				;         Called from:   2926:3947

2926:3971			sub_133:
2926:3971  B8 FFFF				mov	ax,0FFFFh
2926:3974  50					push	ax
2926:3975  B8 FFFF				mov	ax,0FFFFh
2926:3978  50					push	ax
2926:3979  E8 3641				call	sub_272			; (6FBD)
2926:397C  E8 26E5				call	sub_248			; (6064)
2926:397F  1E					push	ds
2926:3980  B8 82FD				mov	ax,82FDh
2926:3983  50					push	ax
2926:3984  E8 1891				call	sub_234			; (5218)
2926:3987  0E E8 0025				callf	sub_134			; (39B0)
2926:398B  24					db	'$'
2926:398C  61 6E 64 20 6D 61			db	'and make Sigmund pay for his ill'
2926:3992  6B 65 20 53 69 67
2926:3998  6D 75 6E 64 20 70
2926:399E  61 79 20 66 6F 72
2926:39A4  20 68 69 73 20 69
2926:39AA  6C 6C
2926:39AC  69 63 69 74				db	'icit'

				;ßßßß External Entry into Subroutine ßßßßßßßßßßßßßßßßßßßßßßßßßßßßßßßßßßßßßß
				;
           ICON0.lst       ICON0.OVL				Sourcer	v8.01  20-Jul-2026 12:17 am   Page 124

				;         Called from:   2926:3987

2926:39B0			sub_134:
2926:39B0  B8 FFFF				mov	ax,0FFFFh
2926:39B3  50					push	ax
2926:39B4  B8 FFFF				mov	ax,0FFFFh
2926:39B7  50					push	ax
2926:39B8  E8 3602				call	sub_272			; (6FBD)
2926:39BB  E8 26A6				call	sub_248			; (6064)
2926:39BE  1E					push	ds
2926:39BF  B8 82FD				mov	ax,82FDh
2926:39C2  50					push	ax
2926:39C3  E8 1852				call	sub_234			; (5218)
2926:39C6  0E E8 0021				callf	sub_135			; (39EB)
2926:39CA  20 69 6E 76 6F 6C			db	' involvement with  Siglund.  Now'
2926:39D0  76 65 6D 65 6E 74
2926:39D6  20 77 69 74 68 20
2926:39DC  20 53 69 67 6C 75
2926:39E2  6E 64 2E 20 20 4E
2926:39E8  6F 77
2926:39EA  2C					db	','

				;ßßßß External Entry into Subroutine ßßßßßßßßßßßßßßßßßßßßßßßßßßßßßßßßßßßßßß
				;
				;         Called from:   2926:39C6

2926:39EB			sub_135:
2926:39EB  B8 FFFF				mov	ax,0FFFFh
2926:39EE  50					push	ax
2926:39EF  B8 FFFF				mov	ax,0FFFFh
2926:39F2  50					push	ax
2926:39F3  E8 35C7				call	sub_272			; (6FBD)
2926:39F6  E8 266B				call	sub_248			; (6064)
2926:39F9  1E					push	ds
2926:39FA  B8 82FD				mov	ax,82FDh
2926:39FD  50					push	ax
2926:39FE  E8 1817				call	sub_234			; (5218)
2926:3A01  0E E8 0026				callf	sub_136			; (3A2B)
2926:3A05  25 48 75 6E 64 69			db	'%Hunding', 27h, 's brother, Hage'
2926:3A0B  6E 67 27 73 20 62
2926:3A11  72 6F 74 68 65 72
2926:3A17  2C 20 48 61 67 65
2926:3A1D  6E 2C 20 74 68 65			db	'n, the invinc-'
2926:3A23  20 69 6E 76 69 6E
2926:3A29  63 2D

				;ßßßß External Entry into Subroutine ßßßßßßßßßßßßßßßßßßßßßßßßßßßßßßßßßßßßßß
				;
				;         Called from:   2926:3A01

2926:3A2B			sub_136:
2926:3A2B  B8 FFFF				mov	ax,0FFFFh
2926:3A2E  50					push	ax
2926:3A2F  B8 FFFF				mov	ax,0FFFFh
2926:3A32  50					push	ax
2926:3A33  E8 3587				call	sub_272			; (6FBD)
2926:3A36  E8 262B				call	sub_248			; (6064)
           ICON0.lst       ICON0.OVL		Sourcer	v8.01  20-Jul-2026 12:17 am   Page 125

2926:3A39  1E					push	ds
2926:3A3A  B8 82FD				mov	ax,82FDh
2926:3A3D  50					push	ax
2926:3A3E  E8 17D7				call	sub_234			; (5218)
2926:3A41  0E E8 0028				callf	sub_137			; (3A6D)
2926:3A45  27 69 62 6C 65 20			db	27h, 'ible seeks revenge.  Sigmun'
2926:3A4B  73 65 65 6B 73 20
2926:3A51  72 65 76 65 6E 67
2926:3A57  65 2E 20 20 53 69
2926:3A5D  67 6D 75 6E
2926:3A61  64 20 6D 75 73 74			db	'd must go on'
2926:3A67  20 67 6F 20 6F 6E

				;ßßßß External Entry into Subroutine ßßßßßßßßßßßßßßßßßßßßßßßßßßßßßßßßßßßßßß
				;
				;         Called from:   2926:3A41

2926:3A6D			sub_137:
2926:3A6D  B8 FFFF				mov	ax,0FFFFh
2926:3A70  50					push	ax
2926:3A71  B8 FFFF				mov	ax,0FFFFh
2926:3A74  50					push	ax
2926:3A75  E8 3545				call	sub_272			; (6FBD)
2926:3A78  E8 25E9				call	sub_248			; (6064)
2926:3A7B  1E					push	ds
2926:3A7C  B8 82FD				mov	ax,82FDh
2926:3A7F  50					push	ax
2926:3A80  E8 1795				call	sub_234			; (5218)
2926:3A83  0E E8 0027				callf	sub_138			; (3AAE)
2926:3A87  26 61 6E 64 20 66			db	'&and face the implacable Hagen w'
2926:3A8D  61 63 65 20 74 68
2926:3A93  65 20 69 6D 70 6C
2926:3A99  61 63 61 62 6C 65
2926:3A9F  20 48 61 67 65 6E
2926:3AA5  20 77
2926:3AA7  69 74 68 20 74 68			db	'ith the'
2926:3AAD  65

				;ßßßß External Entry into Subroutine ßßßßßßßßßßßßßßßßßßßßßßßßßßßßßßßßßßßßßß
				;
				;         Called from:   2926:3A83

2926:3AAE			sub_138:
2926:3AAE  B8 FFFF				mov	ax,0FFFFh
2926:3AB1  50					push	ax
2926:3AB2  B8 FFFF				mov	ax,0FFFFh
2926:3AB5  50					push	ax
2926:3AB6  E8 3504				call	sub_272			; (6FBD)
2926:3AB9  E8 25A8				call	sub_248			; (6064)
2926:3ABC  1E					push	ds
2926:3ABD  B8 82FD				mov	ax,82FDh
2926:3AC0  50					push	ax
2926:3AC1  E8 1754				call	sub_234			; (5218)
2926:3AC4  0E E8 0028				callf	sub_139			; (3AF0)
2926:3AC8  27 69 6C 6C 2D 67			db	27h, 'ill-gotten gain of his earl'
2926:3ACE  6F 74 74 65 6E 20
2926:3AD4  67 61 69 6E 20 6F
           ICON0.lst       ICON0.OVL		Sourcer	v8.01  20-Jul-2026 12:17 am   Page 126

2926:3ADA  66 20 68 69 73 20
2926:3AE0  65 61 72 6C
2926:3AE4  69 65 72 20 76 69			db	'ier victory,'
2926:3AEA  63 74 6F 72 79 2C

				;ßßßß External Entry into Subroutine ßßßßßßßßßßßßßßßßßßßßßßßßßßßßßßßßßßßßßß
				;
				;         Called from:   2926:3AC4

2926:3AF0			sub_139:
2926:3AF0  B8 FFFF				mov	ax,0FFFFh
2926:3AF3  50					push	ax
2926:3AF4  B8 FFFF				mov	ax,0FFFFh
2926:3AF7  50					push	ax
2926:3AF8  E8 34C2				call	sub_272			; (6FBD)
2926:3AFB  E8 2566				call	sub_248			; (6064)
2926:3AFE  1E					push	ds
2926:3AFF  B8 82FD				mov	ax,82FDh
2926:3B02  50					push	ax
2926:3B03  E8 1712				call	sub_234			; (5218)
2926:3B06  0E E8 0011				callf	sub_140			; (3B1B)
2926:3B0A  10 74 68				adc	[si+68h],dh
2926:3B0D  65 20 6D 61 67 69			db	'e magic sword.'
2926:3B13  63 20 73 77 6F 72
2926:3B19  64 2E

				;ßßßß External Entry into Subroutine ßßßßßßßßßßßßßßßßßßßßßßßßßßßßßßßßßßßßßß
				;
				;         Called from:   2926:3B06

2926:3B1B			sub_140:
2926:3B1B  B8 FFFF				mov	ax,0FFFFh
2926:3B1E  50					push	ax
2926:3B1F  B8 FFFF				mov	ax,0FFFFh
2926:3B22  50					push	ax
2926:3B23  E8 3497				call	sub_272			; (6FBD)
2926:3B26  E8 253B				call	sub_248			; (6064)
2926:3B29  8B E5				mov	sp,bp
2926:3B2B  5D					pop	bp
2926:3B2C  C3					retn
				sub_121		endp

2926:3B2D			loc_307:					;  xref 2926:2C6A
2926:3B2D  55					push	bp
2926:3B2E  8B C4				mov	ax,sp
2926:3B30  FF 76 FE				push	word ptr [bp-2]
2926:3B33  8B E8				mov	bp,ax
2926:3B35  55					push	bp
2926:3B36  81 EC 0004				sub	sp,4
2926:3B3A  1E					push	ds
2926:3B3B  B8 82FD				mov	ax,82FDh
2926:3B3E  50					push	ax
2926:3B3F  E8 16D6				call	sub_234			; (5218)
2926:3B42  0E E8 0017				callf	sub_141			; (3B5D)
2926:3B46  16					push	ss
2926:3B47  20 20 20 20 20 20			db	'               REBIRTH'
2926:3B4D  20 20 20 20 20 20
           ICON0.lst       ICON0.OVL		Sourcer	v8.01  20-Jul-2026 12:17 am   Page 127

2926:3B53  20 20 20 52 45 42
2926:3B59  49 52 54 48

				;ßßßßßßßßßßßßßßßßßßßßßßßßßßßßßßßßßßßßßßßßßßßßßßßßßßßßßßßßßßßßßßßßßßßßßßßßßß
				;                              SUBROUTINE
				;
				;         Called from:   2926:3B42
				;ÜÜÜÜÜÜÜÜÜÜÜÜÜÜÜÜÜÜÜÜÜÜÜÜÜÜÜÜÜÜÜÜÜÜÜÜÜÜÜÜÜÜÜÜÜÜÜÜÜÜÜÜÜÜÜÜÜÜÜÜÜÜÜÜÜÜÜÜÜÜÜÜÜÜ

2926:3B5D			sub_141		proc	near
2926:3B5D  B8 FFFF				mov	ax,0FFFFh
2926:3B60  50					push	ax
2926:3B61  B8 FFFF				mov	ax,0FFFFh
2926:3B64  50					push	ax
2926:3B65  E8 3455				call	sub_272			; (6FBD)
2926:3B68  E8 24F9				call	sub_248			; (6064)
2926:3B6B  1E					push	ds
2926:3B6C  B8 82FD				mov	ax,82FDh
2926:3B6F  50					push	ax
2926:3B70  E8 16A5				call	sub_234			; (5218)
2926:3B73  E8 24EE				call	sub_248			; (6064)
2926:3B76  1E					push	ds
2926:3B77  B8 82FD				mov	ax,82FDh
2926:3B7A  50					push	ax
2926:3B7B  E8 169A				call	sub_234			; (5218)
2926:3B7E  0E E8 0027				callf	sub_142			; (3BA9)
2926:3B82  26 53 69 67 6D 75			db	'&Sigmund was not destined to suc'
2926:3B88  6E 64 20 77 61 73
2926:3B8E  20 6E 6F 74 20 64
2926:3B94  65 73 74 69 6E 65
2926:3B9A  64 20 74 6F 20 73
2926:3BA0  75 63
2926:3BA2  63 65 65 64 20 69			db	'ceed in'
2926:3BA8  6E

				;ßßßß External Entry into Subroutine ßßßßßßßßßßßßßßßßßßßßßßßßßßßßßßßßßßßßßß
				;
				;         Called from:   2926:3B7E

2926:3BA9			sub_142:
2926:3BA9  B8 FFFF				mov	ax,0FFFFh
2926:3BAC  50					push	ax
2926:3BAD  B8 FFFF				mov	ax,0FFFFh
2926:3BB0  50					push	ax
2926:3BB1  E8 3409				call	sub_272			; (6FBD)
2926:3BB4  E8 24AD				call	sub_248			; (6064)
2926:3BB7  1E					push	ds
2926:3BB8  B8 82FD				mov	ax,82FDh
2926:3BBB  50					push	ax
2926:3BBC  E8 1659				call	sub_234			; (5218)
2926:3BBF  0E E8 0023				callf	sub_143			; (3BE6)
2926:3BC3  22 74 68 65 20 71			db	'"the quest.  Because of the godd'
2926:3BC9  75 65 73 74 2E 20
2926:3BCF  20 42 65 63 61 75
2926:3BD5  73 65 20 6F 66 20
2926:3BDB  74 68 65 20 67 6F
2926:3BE1  64 64
           ICON0.lst       ICON0.OVL		Sourcer	v8.01  20-Jul-2026 12:17 am   Page 128

2926:3BE3  65 73 73				db	'ess'

				;ßßßß External Entry into Subroutine ßßßßßßßßßßßßßßßßßßßßßßßßßßßßßßßßßßßßßß
				;
				;         Called from:   2926:3BBF

2926:3BE6			sub_143:
2926:3BE6  B8 FFFF				mov	ax,0FFFFh
2926:3BE9  50					push	ax
2926:3BEA  B8 FFFF				mov	ax,0FFFFh
2926:3BED  50					push	ax
2926:3BEE  E8 33CC				call	sub_272			; (6FBD)
2926:3BF1  E8 2470				call	sub_248			; (6064)
2926:3BF4  1E					push	ds
2926:3BF5  B8 82FD				mov	ax,82FDh
2926:3BF8  50					push	ax
2926:3BF9  E8 161C				call	sub_234			; (5218)
2926:3BFC  0E E8 0025				callf	sub_144			; (3C25)
2926:3C00  24					db	'$'
2926:3C01  46 72 69 63 6B 61			db	'Fricka', 27h, 's opposition, he '
2926:3C07  27 73 20 6F 70 70
2926:3C0D  6F 73 69 74 69 6F
2926:3C13  6E 2C 20 68 65 20
2926:3C19  68 61 64 20 74 6F			db	'had to atone'
2926:3C1F  20 61 74 6F 6E 65

				;ßßßß External Entry into Subroutine ßßßßßßßßßßßßßßßßßßßßßßßßßßßßßßßßßßßßßß
				;
				;         Called from:   2926:3BFC

2926:3C25			sub_144:
2926:3C25  B8 FFFF				mov	ax,0FFFFh
2926:3C28  50					push	ax
2926:3C29  B8 FFFF				mov	ax,0FFFFh
2926:3C2C  50					push	ax
2926:3C2D  E8 338D				call	sub_272			; (6FBD)
2926:3C30  E8 2431				call	sub_248			; (6064)
2926:3C33  1E					push	ds
2926:3C34  B8 82FD				mov	ax,82FDh
2926:3C37  50					push	ax
2926:3C38  E8 15DD				call	sub_234			; (5218)
2926:3C3B  0E E8 0027				callf	sub_145			; (3C66)
2926:3C3F  26 77 69 74 68 20			db	'&with his life for killing Hundi'
2926:3C45  68 69 73 20 6C 69
2926:3C4B  66 65 20 66 6F 72
2926:3C51  20 6B 69 6C 6C 69
2926:3C57  6E 67 20 48 75 6E
2926:3C5D  64 69
2926:3C5F  6E 67 2C 20 61 6E			db	'ng, and'
2926:3C65  64

				;ßßßß External Entry into Subroutine ßßßßßßßßßßßßßßßßßßßßßßßßßßßßßßßßßßßßßß
				;
				;         Called from:   2926:3C3B

2926:3C66			sub_145:
2926:3C66  B8 FFFF				mov	ax,0FFFFh
           ICON0.lst       ICON0.OVL		Sourcer	v8.01  20-Jul-2026 12:17 am   Page 129

2926:3C69  50					push	ax
2926:3C6A  B8 FFFF				mov	ax,0FFFFh
2926:3C6D  50					push	ax
2926:3C6E  E8 334C				call	sub_272			; (6FBD)
2926:3C71  E8 23F0				call	sub_248			; (6064)
2926:3C74  1E					push	ds
2926:3C75  B8 82FD				mov	ax,82FDh
2926:3C78  50					push	ax
2926:3C79  E8 159C				call	sub_234			; (5218)
2926:3C7C  0E E8 0028				callf	sub_146			; (3CA8)
2926:3C80  27 74 68 65 20 69			db	27h, 'the ill-gotten gain of his '
2926:3C86  6C 6C 2D 67 6F 74
2926:3C8C  74 65 6E 20 67 61
2926:3C92  69 6E 20 6F 66 20
2926:3C98  68 69 73 20
2926:3C9C  65 61 72 6C 69 65			db	'earlier vic-'
2926:3CA2  72 20 76 69 63 2D

				;ßßßß External Entry into Subroutine ßßßßßßßßßßßßßßßßßßßßßßßßßßßßßßßßßßßßßß
				;
				;         Called from:   2926:3C7C

2926:3CA8			sub_146:
2926:3CA8  B8 FFFF				mov	ax,0FFFFh
2926:3CAB  50					push	ax
2926:3CAC  B8 FFFF				mov	ax,0FFFFh
2926:3CAF  50					push	ax
2926:3CB0  E8 330A				call	sub_272			; (6FBD)
2926:3CB3  E8 23AE				call	sub_248			; (6064)
2926:3CB6  1E					push	ds
2926:3CB7  B8 82FD				mov	ax,82FDh
2926:3CBA  50					push	ax
2926:3CBB  E8 155A				call	sub_234			; (5218)
2926:3CBE  0E E8 0028				callf	sub_147			; (3CEA)
2926:3CC2  27 74 6F 72 79 2C			db	27h, 'tory, the magic sword, was '
2926:3CC8  20 74 68 65 20 6D
2926:3CCE  61 67 69 63 20 73
2926:3CD4  77 6F 72 64 2C 20
2926:3CDA  77 61 73 20
2926:3CDE  62 72 6F 6B 65 6E			db	'broken.  But'
2926:3CE4  2E 20 20 42 75 74

				;ßßßß External Entry into Subroutine ßßßßßßßßßßßßßßßßßßßßßßßßßßßßßßßßßßßßßß
				;
				;         Called from:   2926:3CBE

2926:3CEA			sub_147:
2926:3CEA  B8 FFFF				mov	ax,0FFFFh
2926:3CED  50					push	ax
2926:3CEE  B8 FFFF				mov	ax,0FFFFh
2926:3CF1  50					push	ax
2926:3CF2  E8 32C8				call	sub_272			; (6FBD)
2926:3CF5  E8 236C				call	sub_248			; (6064)
2926:3CF8  1E					push	ds
2926:3CF9  B8 82FD				mov	ax,82FDh
2926:3CFC  50					push	ax
2926:3CFD  E8 1518				call	sub_234			; (5218)
           ICON0.lst       ICON0.OVL		Sourcer	v8.01  20-Jul-2026 12:17 am   Page 130

2926:3D00  0E E8 0026				callf	sub_148			; (3D2A)
2926:3D04  25 74 68 65 20 74			db	'%the tapestry of life, though to'
2926:3D0A  61 70 65 73 74 72
2926:3D10  79 20 6F 66 20 6C
2926:3D16  69 66 65 2C 20 74
2926:3D1C  68 6F 75 67 68 20
2926:3D22  74 6F
2926:3D24  72 6E 2C 20 69 73			db	'rn, is'

				;ßßßß External Entry into Subroutine ßßßßßßßßßßßßßßßßßßßßßßßßßßßßßßßßßßßßßß
				;
				;         Called from:   2926:3D00

2926:3D2A			sub_148:
2926:3D2A  B8 FFFF				mov	ax,0FFFFh
2926:3D2D  50					push	ax
2926:3D2E  B8 FFFF				mov	ax,0FFFFh
2926:3D31  50					push	ax
2926:3D32  E8 3288				call	sub_272			; (6FBD)
2926:3D35  E8 232C				call	sub_248			; (6064)
2926:3D38  1E					push	ds
2926:3D39  B8 82FD				mov	ax,82FDh
2926:3D3C  50					push	ax
2926:3D3D  E8 14D8				call	sub_234			; (5218)
2926:3D40  0E E8 0028				callf	sub_149			; (3D6C)
2926:3D44  27 63 65 61 73 65			db	27h, 'ceaselessly being rewoven. '
2926:3D4A  6C 65 73 73 6C 79
2926:3D50  20 62 65 69 6E 67
2926:3D56  20 72 65 77 6F 76
2926:3D5C  65 6E 2E 20
2926:3D60  20 53 69 67 6C 75			db	' Siglund has'
2926:3D66  6E 64 20 68 61 73

				;ßßßß External Entry into Subroutine ßßßßßßßßßßßßßßßßßßßßßßßßßßßßßßßßßßßßßß
				;
				;         Called from:   2926:3D40

2926:3D6C			sub_149:
2926:3D6C  B8 FFFF				mov	ax,0FFFFh
2926:3D6F  50					push	ax
2926:3D70  B8 FFFF				mov	ax,0FFFFh
2926:3D73  50					push	ax
2926:3D74  E8 3246				call	sub_272			; (6FBD)
2926:3D77  E8 22EA				call	sub_248			; (6064)
2926:3D7A  1E					push	ds
2926:3D7B  B8 82FD				mov	ax,82FDh
2926:3D7E  50					push	ax
2926:3D7F  E8 1496				call	sub_234			; (5218)
2926:3D82  0E E8 0027				callf	sub_150			; (3DAD)
2926:3D86  26 68 61 64 20 61			db	'&had a child, Siegfried.  While '
2926:3D8C  20 63 68 69 6C 64
2926:3D92  2C 20 53 69 65 67
2926:3D98  66 72 69 65 64 2E
2926:3D9E  20 20 57 68 69 6C
2926:3DA4  65 20
2926:3DA6  74 68 65 20 73 6F			db	'the son'
2926:3DAC  6E
           ICON0.lst       ICON0.OVL		Sourcer	v8.01  20-Jul-2026 12:17 am   Page 131


				;ßßßß External Entry into Subroutine ßßßßßßßßßßßßßßßßßßßßßßßßßßßßßßßßßßßßßß
				;
				;         Called from:   2926:3D82

2926:3DAD			sub_150:
2926:3DAD  B8 FFFF				mov	ax,0FFFFh
2926:3DB0  50					push	ax
2926:3DB1  B8 FFFF				mov	ax,0FFFFh
2926:3DB4  50					push	ax
2926:3DB5  E8 3205				call	sub_272			; (6FBD)
2926:3DB8  E8 22A9				call	sub_248			; (6064)
2926:3DBB  1E					push	ds
2926:3DBC  B8 82FD				mov	ax,82FDh
2926:3DBF  50					push	ax
2926:3DC0  E8 1455				call	sub_234			; (5218)
2926:3DC3  0E E8 0027				callf	sub_151			; (3DEE)
2926:3DC7  26 6F 66 20 53 69			db	'&of Sigmund was still in his chi'
2926:3DCD  67 6D 75 6E 64 20
2926:3DD3  77 61 73 20 73 74
2926:3DD9  69 6C 6C 20 69 6E
2926:3DDF  20 68 69 73 20 63
2926:3DE5  68 69
2926:3DE7  6C 64 68 6F 6F 64			db	'ldhood,'
2926:3DED  2C

				;ßßßß External Entry into Subroutine ßßßßßßßßßßßßßßßßßßßßßßßßßßßßßßßßßßßßßß
				;
				;         Called from:   2926:3DC3

2926:3DEE			sub_151:
2926:3DEE  B8 FFFF				mov	ax,0FFFFh
2926:3DF1  50					push	ax
2926:3DF2  B8 FFFF				mov	ax,0FFFFh
2926:3DF5  50					push	ax
2926:3DF6  E8 31C4				call	sub_272			; (6FBD)
2926:3DF9  E8 2268				call	sub_248			; (6064)
2926:3DFC  1E					push	ds
2926:3DFD  B8 82FD				mov	ax,82FDh
2926:3E00  50					push	ax
2926:3E01  E8 1414				call	sub_234			; (5218)
2926:3E04  0E E8 0028				callf	sub_152			; (3E30)
2926:3E08  27 53 69 67 6C 75			db	27h, 'Siglund died.  Raised in th'
2926:3E0E  6E 64 20 64 69 65
2926:3E14  64 2E 20 20 52 61
2926:3E1A  69 73 65 64 20 69
2926:3E20  6E 20 74 68
2926:3E24  65 20 77 69 6C 64			db	'e wilderness'
2926:3E2A  65 72 6E 65 73 73

				;ßßßß External Entry into Subroutine ßßßßßßßßßßßßßßßßßßßßßßßßßßßßßßßßßßßßßß
				;
				;         Called from:   2926:3E04

2926:3E30			sub_152:
2926:3E30  B8 FFFF				mov	ax,0FFFFh
2926:3E33  50					push	ax
           ICON0.lst       ICON0.OVL		Sourcer	v8.01  20-Jul-2026 12:17 am   Page 132

2926:3E34  B8 FFFF				mov	ax,0FFFFh
2926:3E37  50					push	ax
2926:3E38  E8 3182				call	sub_272			; (6FBD)
2926:3E3B  E8 2226				call	sub_248			; (6064)
2926:3E3E  1E					push	ds
2926:3E3F  B8 82FD				mov	ax,82FDh
2926:3E42  50					push	ax
2926:3E43  E8 13D2				call	sub_234			; (5218)
2926:3E46  0E E8 0028				callf	sub_153			; (3E72)
2926:3E4A  27 62 79 20 61 6E			db	27h, 'by an outcast dwarf, the or'
2926:3E50  20 6F 75 74 63 61
2926:3E56  73 74 20 64 77 61
2926:3E5C  72 66 2C 20 74 68
2926:3E62  65 20 6F 72
2926:3E66  70 68 61 6E 65 64			db	'phaned Sieg-'
2926:3E6C  20 53 69 65 67 2D

				;ßßßß External Entry into Subroutine ßßßßßßßßßßßßßßßßßßßßßßßßßßßßßßßßßßßßßß
				;
				;         Called from:   2926:3E46

2926:3E72			sub_153:
2926:3E72  B8 FFFF				mov	ax,0FFFFh
2926:3E75  50					push	ax
2926:3E76  B8 FFFF				mov	ax,0FFFFh
2926:3E79  50					push	ax
2926:3E7A  E8 3140				call	sub_272			; (6FBD)
2926:3E7D  E8 21E4				call	sub_248			; (6064)
2926:3E80  1E					push	ds
2926:3E81  B8 82FD				mov	ax,82FDh
2926:3E84  50					push	ax
2926:3E85  E8 1390				call	sub_234			; (5218)
2926:3E88  0E E8 0022				callf	sub_154			; (3EAE)
2926:3E8C  21 66 72 69 65 64			db	'!fried has reached manhood and h'
2926:3E92  20 68 61 73 20 72
2926:3E98  65 61 63 68 65 64
2926:3E9E  20 6D 61 6E 68 6F
2926:3EA4  6F 64 20 61 6E 64
2926:3EAA  20 68
2926:3EAC  61 73				db	'as'

				;ßßßß External Entry into Subroutine ßßßßßßßßßßßßßßßßßßßßßßßßßßßßßßßßßßßßßß
				;
				;         Called from:   2926:3E88

2926:3EAE			sub_154:
2926:3EAE  B8 FFFF				mov	ax,0FFFFh
2926:3EB1  50					push	ax
2926:3EB2  B8 FFFF				mov	ax,0FFFFh
2926:3EB5  50					push	ax
2926:3EB6  E8 3104				call	sub_272			; (6FBD)
2926:3EB9  E8 21A8				call	sub_248			; (6064)
2926:3EBC  1E					push	ds
2926:3EBD  B8 82FD				mov	ax,82FDh
2926:3EC0  50					push	ax
2926:3EC1  E8 1354				call	sub_234			; (5218)
2926:3EC4  0E E8 0028				callf	sub_155			; (3EF0)
           ICON0.lst       ICON0.OVL		Sourcer	v8.01  20-Jul-2026 12:17 am   Page 133

2926:3EC8  27 6C 65 61 72 6E			db	27h, 'learned from his mother and'
2926:3ECE  65 64 20 66 72 6F
2926:3ED4  6D 20 68 69 73 20
2926:3EDA  6D 6F 74 68 65 72
2926:3EE0  20 61 6E 64
2926:3EE4  20 64 77 61 72 66			db	' dwarf step-'
2926:3EEA  20 73 74 65 70 2D

				;ßßßß External Entry into Subroutine ßßßßßßßßßßßßßßßßßßßßßßßßßßßßßßßßßßßßßß
				;
				;         Called from:   2926:3EC4

2926:3EF0			sub_155:
2926:3EF0  B8 FFFF				mov	ax,0FFFFh
2926:3EF3  50					push	ax
2926:3EF4  B8 FFFF				mov	ax,0FFFFh
2926:3EF7  50					push	ax
2926:3EF8  E8 30C2				call	sub_272			; (6FBD)
2926:3EFB  E8 2166				call	sub_248			; (6064)
2926:3EFE  1E					push	ds
2926:3EFF  B8 82FD				mov	ax,82FDh
2926:3F02  50					push	ax
2926:3F03  E8 1312				call	sub_234			; (5218)
2926:3F06  0E E8 0027				callf	sub_156			; (3F31)
2926:3F0A  26 66 61 74 68 65			db	'&father some of his heritage: th'
2926:3F10  72 20 73 6F 6D 65
2926:3F16  20 6F 66 20 68 69
2926:3F1C  73 20 68 65 72 69
2926:3F22  74 61 67 65 3A 20
2926:3F28  74 68
2926:3F2A  65 20 73 74 6F 72			db	'e story'
2926:3F30  79

				;ßßßß External Entry into Subroutine ßßßßßßßßßßßßßßßßßßßßßßßßßßßßßßßßßßßßßß
				;
				;         Called from:   2926:3F06

2926:3F31			sub_156:
2926:3F31  B8 FFFF				mov	ax,0FFFFh
2926:3F34  50					push	ax
2926:3F35  B8 FFFF				mov	ax,0FFFFh
2926:3F38  50					push	ax
2926:3F39  E8 3081				call	sub_272			; (6FBD)
2926:3F3C  E8 2125				call	sub_248			; (6064)
2926:3F3F  1E					push	ds
2926:3F40  B8 82FD				mov	ax,82FDh
2926:3F43  50					push	ax
2926:3F44  E8 12D1				call	sub_234			; (5218)
2926:3F47  0E E8 0027				callf	sub_157			; (3F72)
2926:3F4B  26 6F 66 20 74 68			db	'&of the death of his father Sigm'
2926:3F51  65 20 64 65 61 74
2926:3F57  68 20 6F 66 20 68
2926:3F5D  69 73 20 66 61 74
2926:3F63  68 65 72 20 53 69
2926:3F69  67 6D
2926:3F6B  75 6E 64 20 61 6E			db	'und and'
2926:3F71  64
           ICON0.lst       ICON0.OVL		Sourcer	v8.01  20-Jul-2026 12:17 am   Page 134


				;ßßßß External Entry into Subroutine ßßßßßßßßßßßßßßßßßßßßßßßßßßßßßßßßßßßßßß
				;
				;         Called from:   2926:3F47

2926:3F72			sub_157:
2926:3F72  B8 FFFF				mov	ax,0FFFFh
2926:3F75  50					push	ax
2926:3F76  B8 FFFF				mov	ax,0FFFFh
2926:3F79  50					push	ax
2926:3F7A  E8 3040				call	sub_272			; (6FBD)
2926:3F7D  E8 20E4				call	sub_248			; (6064)
2926:3F80  1E					push	ds
2926:3F81  B8 82FD				mov	ax,82FDh
2926:3F84  50					push	ax
2926:3F85  E8 1290				call	sub_234			; (5218)
2926:3F88  0E E8 0027				callf	sub_158			; (3FB3)
2926:3F8C  26 68 6F 77 20 74			db	'&how the magic sword came to be '
2926:3F92  68 65 20 6D 61 67
2926:3F98  69 63 20 73 77 6F
2926:3F9E  72 64 20 63 61 6D
2926:3FA4  65 20 74 6F 20 62
2926:3FAA  65 20
2926:3FAC  62 72 6F 6B 65 6E			db	'broken,'
2926:3FB2  2C

				;ßßßß External Entry into Subroutine ßßßßßßßßßßßßßßßßßßßßßßßßßßßßßßßßßßßßßß
				;
				;         Called from:   2926:3F88

2926:3FB3			sub_158:
2926:3FB3  B8 FFFF				mov	ax,0FFFFh
2926:3FB6  50					push	ax
2926:3FB7  B8 FFFF				mov	ax,0FFFFh
2926:3FBA  50					push	ax
2926:3FBB  E8 2FFF				call	sub_272			; (6FBD)
2926:3FBE  E8 20A3				call	sub_248			; (6064)
2926:3FC1  1E					push	ds
2926:3FC2  B8 82FD				mov	ax,82FDh
2926:3FC5  50					push	ax
2926:3FC6  E8 124F				call	sub_234			; (5218)
2926:3FC9  0E E8 0029				callf	sub_159			; (3FF6)
2926:3FCD  28 74 68 65 20 6C			db	'(the legend of the theft of the '
2926:3FD3  65 67 65 6E 64 20
2926:3FD9  6F 66 20 74 68 65
2926:3FDF  20 74 68 65 66 74
2926:3FE5  20 6F 66 20 74 68
2926:3FEB  65 20
2926:3FED  72 69 6E 67 2C 20			db	'ring, and'
2926:3FF3  61 6E 64

				;ßßßß External Entry into Subroutine ßßßßßßßßßßßßßßßßßßßßßßßßßßßßßßßßßßßßßß
				;
				;         Called from:   2926:3FC9

2926:3FF6			sub_159:
2926:3FF6  B8 FFFF				mov	ax,0FFFFh
           ICON0.lst       ICON0.OVL		Sourcer	v8.01  20-Jul-2026 12:17 am   Page 135

2926:3FF9  50					push	ax
2926:3FFA  B8 FFFF				mov	ax,0FFFFh
2926:3FFD  50					push	ax
2926:3FFE  E8 2FBC				call	sub_272			; (6FBD)
2926:4001  1E					push	ds
2926:4002  B8 82FD				mov	ax,82FDh
2926:4005  50					push	ax
2926:4006  E8 120F				call	sub_234			; (5218)
2926:4009  0E E8 0029				callf	sub_160			; (4036)
2926:400D  28 74 61 6C 65 73			db	'(tales of the tyranny of the Gre'
2926:4013  20 6F 66 20 74 68
2926:4019  65 20 74 79 72 61
2926:401F  6E 6E 79 20 6F 66
2926:4025  20 74 68 65 20 47
2926:402B  72 65
2926:402D  61 74 20 44 72 61			db	'at Dragon'
2926:4033  67 6F 6E

				;ßßßß External Entry into Subroutine ßßßßßßßßßßßßßßßßßßßßßßßßßßßßßßßßßßßßßß
				;
				;         Called from:   2926:4009

2926:4036			sub_160:
2926:4036  B8 FFFF				mov	ax,0FFFFh
2926:4039  50					push	ax
2926:403A  B8 FFFF				mov	ax,0FFFFh
2926:403D  50					push	ax
2926:403E  E8 2F7C				call	sub_272			; (6FBD)
2926:4041  1E					push	ds
2926:4042  B8 82FD				mov	ax,82FDh
2926:4045  50					push	ax
2926:4046  E8 11CF				call	sub_234			; (5218)
2926:4049  0E E8 0008				callf	sub_161			; (4055)
2926:404D  07					pop	es
2926:404E  46					inc	si
2926:404F  61 66 6E 65 72 2E			db	 61h, 66h, 6Eh, 65h, 72h, 2Eh

				;ßßßß External Entry into Subroutine ßßßßßßßßßßßßßßßßßßßßßßßßßßßßßßßßßßßßßß
				;
				;         Called from:   2926:4049

2926:4055			sub_161:
2926:4055  B8 FFFF				mov	ax,0FFFFh
2926:4058  50					push	ax
2926:4059  B8 FFFF				mov	ax,0FFFFh
2926:405C  50					push	ax
2926:405D  E8 2F5D				call	sub_272			; (6FBD)
2926:4060  E8 2001				call	sub_248			; (6064)
2926:4063  8B E5				mov	sp,bp
2926:4065  5D					pop	bp
2926:4066  C3					retn
				sub_141		endp

2926:4067			loc_308:					;  xref 2926:2C6D
2926:4067  55					push	bp
2926:4068  8B C4				mov	ax,sp
2926:406A  FF 76 FE				push	word ptr [bp-2]
           ICON0.lst       ICON0.OVL		Sourcer	v8.01  20-Jul-2026 12:17 am   Page 136

2926:406D  8B E8				mov	bp,ax
2926:406F  55					push	bp
2926:4070  81 EC 0004				sub	sp,4
2926:4074  1E					push	ds
2926:4075  B8 82FD				mov	ax,82FDh
2926:4078  50					push	ax
2926:4079  E8 119C				call	sub_234			; (5218)
2926:407C  0E E8 001A				callf	sub_162			; (409A)
2926:4080  19 20				sbb	[bx+si],sp
2926:4082  20 20 20 20 20 20			db	'           PERSERVERENCE'
2926:4088  20 20 20 20 20 50
2926:408E  45 52 53 45 52 56
2926:4094  45 52 45 4E 43 45

				;ßßßßßßßßßßßßßßßßßßßßßßßßßßßßßßßßßßßßßßßßßßßßßßßßßßßßßßßßßßßßßßßßßßßßßßßßßß
				;                              SUBROUTINE
				;
				;         Called from:   2926:407C
				;ÜÜÜÜÜÜÜÜÜÜÜÜÜÜÜÜÜÜÜÜÜÜÜÜÜÜÜÜÜÜÜÜÜÜÜÜÜÜÜÜÜÜÜÜÜÜÜÜÜÜÜÜÜÜÜÜÜÜÜÜÜÜÜÜÜÜÜÜÜÜÜÜÜÜ

2926:409A			sub_162		proc	near
2926:409A  B8 FFFF				mov	ax,0FFFFh
2926:409D  50					push	ax
2926:409E  B8 FFFF				mov	ax,0FFFFh
2926:40A1  50					push	ax
2926:40A2  E8 2F18				call	sub_272			; (6FBD)
2926:40A5  E8 1FBC				call	sub_248			; (6064)
2926:40A8  1E					push	ds
2926:40A9  B8 82FD				mov	ax,82FDh
2926:40AC  50					push	ax
2926:40AD  E8 1168				call	sub_234			; (5218)
2926:40B0  E8 1FB1				call	sub_248			; (6064)
2926:40B3  1E					push	ds
2926:40B4  B8 82FD				mov	ax,82FDh
2926:40B7  50					push	ax
2926:40B8  E8 115D				call	sub_234			; (5218)
2926:40BB  0E E8 0023				callf	sub_163			; (40E2)
2926:40BF  22 48 61 76 69 6E			db	'"Having recovered the pieces of '
2926:40C5  67 20 72 65 63 6F
2926:40CB  76 65 72 65 64 20
2926:40D1  74 68 65 20 70 69
2926:40D7  65 63 65 73 20 6F
2926:40DD  66 20
2926:40DF  74 68 65				db	'the'

				;ßßßß External Entry into Subroutine ßßßßßßßßßßßßßßßßßßßßßßßßßßßßßßßßßßßßßß
				;
				;         Called from:   2926:40BB

2926:40E2			sub_163:
2926:40E2  B8 FFFF				mov	ax,0FFFFh
2926:40E5  50					push	ax
2926:40E6  B8 FFFF				mov	ax,0FFFFh
2926:40E9  50					push	ax
2926:40EA  E8 2ED0				call	sub_272			; (6FBD)
2926:40ED  E8 1F74				call	sub_248			; (6064)
2926:40F0  1E					push	ds
           ICON0.lst       ICON0.OVL		Sourcer	v8.01  20-Jul-2026 12:17 am   Page 137

2926:40F1  B8 82FD				mov	ax,82FDh
2926:40F4  50					push	ax
2926:40F5  E8 1120				call	sub_234			; (5218)
2926:40F8  0E E8 0022				callf	sub_164			; (411E)
2926:40FC  21 62 72 6F 6B 65			db	'!broken sword, Siegfried dreams '
2926:4102  6E 20 73 77 6F 72
2926:4108  64 2C 20 53 69 65
2926:410E  67 66 72 69 65 64
2926:4114  20 64 72 65 61 6D
2926:411A  73 20
2926:411C  6F 66				db	'of'

				;ßßßß External Entry into Subroutine ßßßßßßßßßßßßßßßßßßßßßßßßßßßßßßßßßßßßßß
				;
				;         Called from:   2926:40F8

2926:411E			sub_164:
2926:411E  B8 FFFF				mov	ax,0FFFFh
2926:4121  50					push	ax
2926:4122  B8 FFFF				mov	ax,0FFFFh
2926:4125  50					push	ax
2926:4126  E8 2E94				call	sub_272			; (6FBD)
2926:4129  E8 1F38				call	sub_248			; (6064)
2926:412C  1E					push	ds
2926:412D  B8 82FD				mov	ax,82FDh
2926:4130  50					push	ax
2926:4131  E8 10E4				call	sub_234			; (5218)
2926:4134  0E E8 0027				callf	sub_165			; (415F)
2926:4138  26 68 61 76 69 6E			db	'&having a sword equal to his val'
2926:413E  67 20 61 20 73 77
2926:4144  6F 72 64 20 65 71
2926:414A  75 61 6C 20 74 6F
2926:4150  20 68 69 73 20 76
2926:4156  61 6C
2926:4158  6F 72 2E 20 42 75			db	'or. But'
2926:415E  74

				;ßßßß External Entry into Subroutine ßßßßßßßßßßßßßßßßßßßßßßßßßßßßßßßßßßßßßß
				;
				;         Called from:   2926:4134

2926:415F			sub_165:
2926:415F  B8 FFFF				mov	ax,0FFFFh
2926:4162  50					push	ax
2926:4163  B8 FFFF				mov	ax,0FFFFh
2926:4166  50					push	ax
2926:4167  E8 2E53				call	sub_272			; (6FBD)
2926:416A  E8 1EF7				call	sub_248			; (6064)
2926:416D  1E					push	ds
2926:416E  B8 82FD				mov	ax,82FDh
2926:4171  50					push	ax
2926:4172  E8 10A3				call	sub_234			; (5218)
2926:4175  0E E8 0029				callf	sub_166			; (41A2)
2926:4179  28 66 69 72 73 74			db	'(first he must reforge the broke'
2926:417F  20 68 65 20 6D 75
2926:4185  73 74 20 72 65 66
2926:418B  6F 72 67 65 20 74
           ICON0.lst       ICON0.OVL		Sourcer	v8.01  20-Jul-2026 12:17 am   Page 138

2926:4191  68 65 20 62 72 6F
2926:4197  6B 65
2926:4199  6E 20 70 69 65 63			db	'n pieces.'
2926:419F  65 73 2E

				;ßßßß External Entry into Subroutine ßßßßßßßßßßßßßßßßßßßßßßßßßßßßßßßßßßßßßß
				;
				;         Called from:   2926:4175

2926:41A2			sub_166:
2926:41A2  B8 FFFF				mov	ax,0FFFFh
2926:41A5  50					push	ax
2926:41A6  B8 FFFF				mov	ax,0FFFFh
2926:41A9  50					push	ax
2926:41AA  E8 2E10				call	sub_272			; (6FBD)
2926:41AD  1E					push	ds
2926:41AE  B8 82FD				mov	ax,82FDh
2926:41B1  50					push	ax
2926:41B2  E8 1063				call	sub_234			; (5218)
2926:41B5  0E E8 0028				callf	sub_167			; (41E1)
2926:41B9  27 48 65 20 68 61			db	27h, 'He has heard from his stepf'
2926:41BF  73 20 68 65 61 72
2926:41C5  64 20 66 72 6F 6D
2926:41CB  20 68 69 73 20 73
2926:41D1  74 65 70 66
2926:41D5  61 74 68 65 72 20			db	'ather of the'
2926:41DB  6F 66 20 74 68 65

				;ßßßß External Entry into Subroutine ßßßßßßßßßßßßßßßßßßßßßßßßßßßßßßßßßßßßßß
				;
				;         Called from:   2926:41B5

2926:41E1			sub_167:
2926:41E1  B8 FFFF				mov	ax,0FFFFh
2926:41E4  50					push	ax
2926:41E5  B8 FFFF				mov	ax,0FFFFh
2926:41E8  50					push	ax
2926:41E9  E8 2DD1				call	sub_272			; (6FBD)
2926:41EC  E8 1E75				call	sub_248			; (6064)
2926:41EF  1E					push	ds
2926:41F0  B8 82FD				mov	ax,82FDh
2926:41F3  50					push	ax
2926:41F4  E8 1021				call	sub_234			; (5218)
2926:41F7  0E E8 0021				callf	sub_168			; (421C)
2926:41FB  20 6C 65 67 65 6E			db	' legendary smithshop of the meta'
2926:4201  64 61 72 79 20 73
2926:4207  6D 69 74 68 73 68
2926:420D  6F 70 20 6F 66 20
2926:4213  74 68 65 20 6D 65
2926:4219  74 61
2926:421B  6C					db	'l'

				;ßßßß External Entry into Subroutine ßßßßßßßßßßßßßßßßßßßßßßßßßßßßßßßßßßßßßß
				;
				;         Called from:   2926:41F7

2926:421C			sub_168:
           ICON0.lst       ICON0.OVL		Sourcer	v8.01  20-Jul-2026 12:17 am   Page 139

2926:421C  B8 FFFF				mov	ax,0FFFFh
2926:421F  50					push	ax
2926:4220  B8 FFFF				mov	ax,0FFFFh
2926:4223  50					push	ax
2926:4224  E8 2D96				call	sub_272			; (6FBD)
2926:4227  E8 1E3A				call	sub_248			; (6064)
2926:422A  1E					push	ds
2926:422B  B8 82FD				mov	ax,82FDh
2926:422E  50					push	ax
2926:422F  E8 0FE6				call	sub_234			; (5218)
2926:4232  0E E8 0024				callf	sub_169			; (425A)
2926:4236  23 77 6F 72 6B 69			db	'#working Niebelungs.  There he m'
2926:423C  6E 67 20 4E 69 65
2926:4242  62 65 6C 75 6E 67
2926:4248  73 2E 20 20 54 68
2926:424E  65 72 65 20 68 65
2926:4254  20 6D
2926:4256  69 67 68 74				db	'ight'

				;ßßßß External Entry into Subroutine ßßßßßßßßßßßßßßßßßßßßßßßßßßßßßßßßßßßßßß
				;
				;         Called from:   2926:4232

2926:425A			sub_169:
2926:425A  B8 FFFF				mov	ax,0FFFFh
2926:425D  50					push	ax
2926:425E  B8 FFFF				mov	ax,0FFFFh
2926:4261  50					push	ax
2926:4262  E8 2D58				call	sub_272			; (6FBD)
2926:4265  E8 1DFC				call	sub_248			; (6064)
2926:4268  1E					push	ds
2926:4269  B8 82FD				mov	ax,82FDh
2926:426C  50					push	ax
2926:426D  E8 0FA8				call	sub_234			; (5218)
2926:4270  0E E8 0026				callf	sub_170			; (429A)
2926:4274  25 66 69 6E 64 20			db	'%find the tools he needs to rema'
2926:427A  74 68 65 20 74 6F
2926:4280  6F 6C 73 20 68 65
2926:4286  20 6E 65 65 64 73
2926:428C  20 74 6F 20 72 65
2926:4292  6D 61
2926:4294  6B 65 20 68 69 73			db	'ke his'

				;ßßßß External Entry into Subroutine ßßßßßßßßßßßßßßßßßßßßßßßßßßßßßßßßßßßßßß
				;
				;         Called from:   2926:4270

2926:429A			sub_170:
2926:429A  B8 FFFF				mov	ax,0FFFFh
2926:429D  50					push	ax
2926:429E  B8 FFFF				mov	ax,0FFFFh
2926:42A1  50					push	ax
2926:42A2  E8 2D18				call	sub_272			; (6FBD)
2926:42A5  E8 1DBC				call	sub_248			; (6064)
2926:42A8  1E					push	ds
2926:42A9  B8 82FD				mov	ax,82FDh
2926:42AC  50					push	ax
           ICON0.lst       ICON0.OVL		Sourcer	v8.01  20-Jul-2026 12:17 am   Page 140

2926:42AD  E8 0F68				call	sub_234			; (5218)
2926:42B0  0E E8 0023				callf	sub_171			; (42D7)
2926:42B4  22 66 61 74 68 65			db	'"father', 27h, 's sword.  But fi'
2926:42BA  72 27 73 20 73 77
2926:42C0  6F 72 64 2E 20 20
2926:42C6  42 75 74 20 66 69
2926:42CC  72 73 74 20 68 65			db	'rst he must'
2926:42D2  20 6D 75 73 74

				;ßßßß External Entry into Subroutine ßßßßßßßßßßßßßßßßßßßßßßßßßßßßßßßßßßßßßß
				;
				;         Called from:   2926:42B0

2926:42D7			sub_171:
2926:42D7  B8 FFFF				mov	ax,0FFFFh
2926:42DA  50					push	ax
2926:42DB  B8 FFFF				mov	ax,0FFFFh
2926:42DE  50					push	ax
2926:42DF  E8 2CDB				call	sub_272			; (6FBD)
2926:42E2  E8 1D7F				call	sub_248			; (6064)
2926:42E5  1E					push	ds
2926:42E6  B8 82FD				mov	ax,82FDh
2926:42E9  50					push	ax
2926:42EA  E8 0F2B				call	sub_234			; (5218)
2926:42ED  0E E8 0026				callf	sub_172			; (4317)
2926:42F1  25 66 69 6E 64 20			db	'%find his way through the labyri'
2926:42F7  68 69 73 20 77 61
2926:42FD  79 20 74 68 72 6F
2926:4303  75 67 68 20 74 68
2926:4309  65 20 6C 61 62 79
2926:430F  72 69
2926:4311  6E 74 68 20 6F 66			db	'nth of'

				;ßßßß External Entry into Subroutine ßßßßßßßßßßßßßßßßßßßßßßßßßßßßßßßßßßßßßß
				;
				;         Called from:   2926:42ED

2926:4317			sub_172:
2926:4317  B8 FFFF				mov	ax,0FFFFh
2926:431A  50					push	ax
2926:431B  B8 FFFF				mov	ax,0FFFFh
2926:431E  50					push	ax
2926:431F  E8 2C9B				call	sub_272			; (6FBD)
2926:4322  E8 1D3F				call	sub_248			; (6064)
2926:4325  1E					push	ds
2926:4326  B8 82FD				mov	ax,82FDh
2926:4329  50					push	ax
2926:432A  E8 0EEB				call	sub_234			; (5218)
2926:432D  0E E8 0023				callf	sub_173			; (4354)
2926:4331  22 70 61 73 73 61			db	'"passages of the Niebelung', 27h
2926:4337  67 65 73 20 6F 66
2926:433D  20 74 68 65 20 4E
2926:4343  69 65 62 65 6C 75
2926:4349  6E 67 27
2926:434C  73 20 75 6E 64 65			db	's under-'
2926:4352  72 2D

           ICON0.lst       ICON0.OVL		Sourcer	v8.01  20-Jul-2026 12:17 am   Page 141

				;ßßßß External Entry into Subroutine ßßßßßßßßßßßßßßßßßßßßßßßßßßßßßßßßßßßßßß
				;
				;         Called from:   2926:432D

2926:4354			sub_173:
2926:4354  B8 FFFF				mov	ax,0FFFFh
2926:4357  50					push	ax
2926:4358  B8 FFFF				mov	ax,0FFFFh
2926:435B  50					push	ax
2926:435C  E8 2C5E				call	sub_272			; (6FBD)
2926:435F  E8 1D02				call	sub_248			; (6064)
2926:4362  1E					push	ds
2926:4363  B8 82FD				mov	ax,82FDh
2926:4366  50					push	ax
2926:4367  E8 0EAE				call	sub_234			; (5218)
2926:436A  0E E8 0010				callf	sub_174			; (437E)
2926:436E  0F			;*		pop	cs			; Dangerous-8088 only
2926:436E  0F					db	0Fh
2926:436F  67 72 6F 75 6E 64			db	'ground kingdom.'
2926:4375  20 6B 69 6E 67 64
2926:437B  6F 6D 2E

				;ßßßß External Entry into Subroutine ßßßßßßßßßßßßßßßßßßßßßßßßßßßßßßßßßßßßßß
				;
				;         Called from:   2926:436A

2926:437E			sub_174:
2926:437E  B8 FFFF				mov	ax,0FFFFh
2926:4381  50					push	ax
2926:4382  B8 FFFF				mov	ax,0FFFFh
2926:4385  50					push	ax
2926:4386  E8 2C34				call	sub_272			; (6FBD)
2926:4389  E8 1CD8				call	sub_248			; (6064)
2926:438C  8B E5				mov	sp,bp
2926:438E  5D					pop	bp
2926:438F  C3					retn
				sub_162		endp

2926:4390			loc_309:					;  xref 2926:2C70
2926:4390  55					push	bp
2926:4391  8B C4				mov	ax,sp
2926:4393  FF 76 FE				push	word ptr [bp-2]
2926:4396  8B E8				mov	bp,ax
2926:4398  55					push	bp
2926:4399  81 EC 0004				sub	sp,4
2926:439D  1E					push	ds
2926:439E  B8 82FD				mov	ax,82FDh
2926:43A1  50					push	ax
2926:43A2  E8 0E73				call	sub_234			; (5218)
2926:43A5  0E E8 001B				callf	sub_175			; (43C4)
2926:43A9  1A 20				sbb	ah,[bx+si]
2926:43AB  20 20 20 20 20 20			db	'      THE GREAT CHALLENGE'
2926:43B1  54 48 45 20 47 52
2926:43B7  45 41 54 20 43 48
2926:43BD  41 4C 4C 45 4E 47
2926:43C3  45

           ICON0.lst       ICON0.OVL		Sourcer	v8.01  20-Jul-2026 12:17 am   Page 142

				;ßßßßßßßßßßßßßßßßßßßßßßßßßßßßßßßßßßßßßßßßßßßßßßßßßßßßßßßßßßßßßßßßßßßßßßßßßß
				;                              SUBROUTINE
				;
				;         Called from:   2926:43A5
				;ÜÜÜÜÜÜÜÜÜÜÜÜÜÜÜÜÜÜÜÜÜÜÜÜÜÜÜÜÜÜÜÜÜÜÜÜÜÜÜÜÜÜÜÜÜÜÜÜÜÜÜÜÜÜÜÜÜÜÜÜÜÜÜÜÜÜÜÜÜÜÜÜÜÜ

2926:43C4			sub_175		proc	near
2926:43C4  B8 FFFF				mov	ax,0FFFFh
2926:43C7  50					push	ax
2926:43C8  B8 FFFF				mov	ax,0FFFFh
2926:43CB  50					push	ax
2926:43CC  E8 2BEE				call	sub_272			; (6FBD)
2926:43CF  E8 1C92				call	sub_248			; (6064)
2926:43D2  1E					push	ds
2926:43D3  B8 82FD				mov	ax,82FDh
2926:43D6  50					push	ax
2926:43D7  E8 0E3E				call	sub_234			; (5218)
2926:43DA  E8 1C87				call	sub_248			; (6064)
2926:43DD  1E					push	ds
2926:43DE  B8 82FD				mov	ax,82FDh
2926:43E1  50					push	ax
2926:43E2  E8 0E33				call	sub_234			; (5218)
2926:43E5  0E E8 0028				callf	sub_176			; (4411)
2926:43E9  27 49 6E 20 74 68			db	27h, 'In the scheme of things Odi'
2926:43EF  65 20 73 63 68 65
2926:43F5  6D 65 20 6F 66 20
2926:43FB  74 68 69 6E 67 73
2926:4401  20 4F 64 69
2926:4405  6E 27 73 20 70 6C			db	'n', 27h, 's plan has'
2926:440B  61 6E 20 68 61 73

				;ßßßß External Entry into Subroutine ßßßßßßßßßßßßßßßßßßßßßßßßßßßßßßßßßßßßßß
				;
				;         Called from:   2926:43E5

2926:4411			sub_176:
2926:4411  B8 FFFF				mov	ax,0FFFFh
2926:4414  50					push	ax
2926:4415  B8 FFFF				mov	ax,0FFFFh
2926:4418  50					push	ax
2926:4419  E8 2BA1				call	sub_272			; (6FBD)
2926:441C  E8 1C45				call	sub_248			; (6064)
2926:441F  1E					push	ds
2926:4420  B8 82FD				mov	ax,82FDh
2926:4423  50					push	ax
2926:4424  E8 0DF1				call	sub_234			; (5218)
2926:4427  0E E8 0024				callf	sub_177			; (444F)
2926:442B  23 65 76 6F 6C 76			db	'#evolved to the point that there'
2926:4431  65 64 20 74 6F 20
2926:4437  74 68 65 20 70 6F
2926:443D  69 6E 74 20 74 68
2926:4443  61 74 20 74 68 65
2926:4449  72 65
2926:444B  20 6E 6F 77				db	' now'

				;ßßßß External Entry into Subroutine ßßßßßßßßßßßßßßßßßßßßßßßßßßßßßßßßßßßßßß
				;
           ICON0.lst       ICON0.OVL				Sourcer	v8.01  20-Jul-2026 12:17 am   Page 143

				;         Called from:   2926:4427

2926:444F			sub_177:
2926:444F  B8 FFFF				mov	ax,0FFFFh
2926:4452  50					push	ax
2926:4453  B8 FFFF				mov	ax,0FFFFh
2926:4456  50					push	ax
2926:4457  E8 2B63				call	sub_272			; (6FBD)
2926:445A  E8 1C07				call	sub_248			; (6064)
2926:445D  1E					push	ds
2926:445E  B8 82FD				mov	ax,82FDh
2926:4461  50					push	ax
2926:4462  E8 0DB3				call	sub_234			; (5218)
2926:4465  0E E8 0028				callf	sub_178			; (4491)
2926:4469  27 65 78 69 73 74			db	27h, 'exists a mortal hero with t'
2926:446F  73 20 61 20 6D 6F
2926:4475  72 74 61 6C 20 68
2926:447B  65 72 6F 20 77 69
2926:4481  74 68 20 74
2926:4485  68 65 20 71 75 61			db	'he qualities'
2926:448B  6C 69 74 69 65 73

				;ßßßß External Entry into Subroutine ßßßßßßßßßßßßßßßßßßßßßßßßßßßßßßßßßßßßßß
				;
				;         Called from:   2926:4465

2926:4491			sub_178:
2926:4491  B8 FFFF				mov	ax,0FFFFh
2926:4494  50					push	ax
2926:4495  B8 FFFF				mov	ax,0FFFFh
2926:4498  50					push	ax
2926:4499  E8 2B21				call	sub_272			; (6FBD)
2926:449C  E8 1BC5				call	sub_248			; (6064)
2926:449F  1E					push	ds
2926:44A0  B8 82FD				mov	ax,82FDh
2926:44A3  50					push	ax
2926:44A4  E8 0D71				call	sub_234			; (5218)
2926:44A7  0E E8 0029				callf	sub_179			; (44D4)
2926:44AB  28 61 6E 64 20 68			db	'(and heritage necessary to achie'
2926:44B1  65 72 69 74 61 67
2926:44B7  65 20 6E 65 63 65
2926:44BD  73 73 61 72 79 20
2926:44C3  74 6F 20 61 63 68
2926:44C9  69 65
2926:44CB  76 65 20 4F 64 69			db	've Odin', 27h, 's'
2926:44D1  6E 27 73

				;ßßßß External Entry into Subroutine ßßßßßßßßßßßßßßßßßßßßßßßßßßßßßßßßßßßßßß
				;
				;         Called from:   2926:44A7

2926:44D4			sub_179:
2926:44D4  B8 FFFF				mov	ax,0FFFFh
2926:44D7  50					push	ax
2926:44D8  B8 FFFF				mov	ax,0FFFFh
2926:44DB  50					push	ax
2926:44DC  E8 2ADE				call	sub_272			; (6FBD)
           ICON0.lst       ICON0.OVL		Sourcer	v8.01  20-Jul-2026 12:17 am   Page 144

2926:44DF  1E					push	ds
2926:44E0  B8 82FD				mov	ax,82FDh
2926:44E3  50					push	ax
2926:44E4  E8 0D31				call	sub_234			; (5218)
2926:44E7  0E E8 0028				callf	sub_180			; (4513)
2926:44EB  27 6F 62 6A 65 63			db	27h, 'objective.  Siegfried has i'
2926:44F1  74 69 76 65 2E 20
2926:44F7  20 53 69 65 67 66
2926:44FD  72 69 65 64 20 68
2926:4503  61 73 20 69
2926:4507  6E 68 65 72 69 74			db	'nherited his'
2926:450D  65 64 20 68 69 73

				;ßßßß External Entry into Subroutine ßßßßßßßßßßßßßßßßßßßßßßßßßßßßßßßßßßßßßß
				;
				;         Called from:   2926:44E7

2926:4513			sub_180:
2926:4513  B8 FFFF				mov	ax,0FFFFh
2926:4516  50					push	ax
2926:4517  B8 FFFF				mov	ax,0FFFFh
2926:451A  50					push	ax
2926:451B  E8 2A9F				call	sub_272			; (6FBD)
2926:451E  E8 1B43				call	sub_248			; (6064)
2926:4521  1E					push	ds
2926:4522  B8 82FD				mov	ax,82FDh
2926:4525  50					push	ax
2926:4526  E8 0CEF				call	sub_234			; (5218)
2926:4529  0E E8 0028				callf	sub_181			; (4555)
2926:452D  27 6D 6F 74 68 65			db	27h, 'mother and father', 27h, 's'
2926:4533  72 20 61 6E 64 20
2926:4539  66 61 74 68 65 72
2926:453F  27 73
2926:4541  20 70 61 73 73 69			db	' passion, and it has'
2926:4547  6F 6E 2C 20 61 6E
2926:454D  64 20 69 74 20 68
2926:4553  61 73

				;ßßßß External Entry into Subroutine ßßßßßßßßßßßßßßßßßßßßßßßßßßßßßßßßßßßßßß
				;
				;         Called from:   2926:4529

2926:4555			sub_181:
2926:4555  B8 FFFF				mov	ax,0FFFFh
2926:4558  50					push	ax
2926:4559  B8 FFFF				mov	ax,0FFFFh
2926:455C  50					push	ax
2926:455D  E8 2A5D				call	sub_272			; (6FBD)
2926:4560  E8 1B01				call	sub_248			; (6064)
2926:4563  1E					push	ds
2926:4564  B8 82FD				mov	ax,82FDh
2926:4567  50					push	ax
2926:4568  E8 0CAD				call	sub_234			; (5218)
2926:456B  0E E8 0029				callf	sub_182			; (4598)
2926:456F  28 62 65 65 6E 20			db	'(been united with the cunning au'
2926:4575  75 6E 69 74 65 64
2926:457B  20 77 69 74 68 20
           ICON0.lst       ICON0.OVL		Sourcer	v8.01  20-Jul-2026 12:17 am   Page 145

2926:4581  74 68 65 20 63 75
2926:4587  6E 6E 69 6E 67 20
2926:458D  61 75
2926:458F  64 61 63 69 74 79			db	'dacity of'
2926:4595  20 6F 66

				;ßßßß External Entry into Subroutine ßßßßßßßßßßßßßßßßßßßßßßßßßßßßßßßßßßßßßß
				;
				;         Called from:   2926:456B

2926:4598			sub_182:
2926:4598  B8 FFFF				mov	ax,0FFFFh
2926:459B  50					push	ax
2926:459C  B8 FFFF				mov	ax,0FFFFh
2926:459F  50					push	ax
2926:45A0  E8 2A1A				call	sub_272			; (6FBD)
2926:45A3  1E					push	ds
2926:45A4  B8 82FD				mov	ax,82FDh
2926:45A7  50					push	ax
2926:45A8  E8 0C6D				call	sub_234			; (5218)
2926:45AB  0E E8 0028				callf	sub_183			; (45D7)
2926:45AF  27 68 69 73 20 73			db	27h, 'his stepfather', 27h, 's ra'
2926:45B5  74 65 70 66 61 74
2926:45BB  68 65 72 27 73 20
2926:45C1  72 61
2926:45C3  63 65 2E 20 48 65			db	'ce. He has recovered'
2926:45C9  20 68 61 73 20 72
2926:45CF  65 63 6F 76 65 72
2926:45D5  65 64

				;ßßßß External Entry into Subroutine ßßßßßßßßßßßßßßßßßßßßßßßßßßßßßßßßßßßßßß
				;
				;         Called from:   2926:45AB

2926:45D7			sub_183:
2926:45D7  B8 FFFF				mov	ax,0FFFFh
2926:45DA  50					push	ax
2926:45DB  B8 FFFF				mov	ax,0FFFFh
2926:45DE  50					push	ax
2926:45DF  E8 29DB				call	sub_272			; (6FBD)
2926:45E2  E8 1A7F				call	sub_248			; (6064)
2926:45E5  1E					push	ds
2926:45E6  B8 82FD				mov	ax,82FDh
2926:45E9  50					push	ax
2926:45EA  E8 0C2B				call	sub_234			; (5218)
2926:45ED  0E E8 0026				callf	sub_184			; (4617)
2926:45F1  25 68 69 73 20 61			db	'%his ancestral heritage by findi'
2926:45F7  6E 63 65 73 74 72
2926:45FD  61 6C 20 68 65 72
2926:4603  69 74 61 67 65 20
2926:4609  62 79 20 66 69 6E
2926:460F  64 69
2926:4611  6E 67 20 74 68 65			db	'ng the'

				;ßßßß External Entry into Subroutine ßßßßßßßßßßßßßßßßßßßßßßßßßßßßßßßßßßßßßß
				;
				;         Called from:   2926:45ED
           ICON0.lst       ICON0.OVL		Sourcer	v8.01  20-Jul-2026 12:17 am   Page 146


2926:4617			sub_184:
2926:4617  B8 FFFF				mov	ax,0FFFFh
2926:461A  50					push	ax
2926:461B  B8 FFFF				mov	ax,0FFFFh
2926:461E  50					push	ax
2926:461F  E8 299B				call	sub_272			; (6FBD)
2926:4622  E8 1A3F				call	sub_248			; (6064)
2926:4625  1E					push	ds
2926:4626  B8 82FD				mov	ax,82FDh
2926:4629  50					push	ax
2926:462A  E8 0BEB				call	sub_234			; (5218)
2926:462D  0E E8 001F				callf	sub_185			; (4650)
2926:4631  1E					push	ds
2926:4632  66 72 61 67 6D 65			db	'fragments of the broken sword.'
2926:4638  6E 74 73 20 6F 66
2926:463E  20 74 68 65 20 62
2926:4644  72 6F 6B 65 6E 20
2926:464A  73 77 6F 72 64 2E

				;ßßßß External Entry into Subroutine ßßßßßßßßßßßßßßßßßßßßßßßßßßßßßßßßßßßßßß
				;
				;         Called from:   2926:462D

2926:4650			sub_185:
2926:4650  B8 FFFF				mov	ax,0FFFFh
2926:4653  50					push	ax
2926:4654  B8 FFFF				mov	ax,0FFFFh
2926:4657  50					push	ax
2926:4658  E8 2962				call	sub_272			; (6FBD)
2926:465B  E8 1A06				call	sub_248			; (6064)
2926:465E  1E					push	ds
2926:465F  B8 82FD				mov	ax,82FDh
2926:4662  50					push	ax
2926:4663  E8 0BB2				call	sub_234			; (5218)
2926:4666  0E E8 0024				callf	sub_186			; (468E)
2926:466A  23 48 65 20 68 61			db	'#He has mended what fate had bro'
2926:4670  73 20 6D 65 6E 64
2926:4676  65 64 20 77 68 61
2926:467C  74 20 66 61 74 65
2926:4682  20 68 61 64 20 62
2926:4688  72 6F
2926:468A  6B 65 6E 2E				db	'ken.'

				;ßßßß External Entry into Subroutine ßßßßßßßßßßßßßßßßßßßßßßßßßßßßßßßßßßßßßß
				;
				;         Called from:   2926:4666

2926:468E			sub_186:
2926:468E  B8 FFFF				mov	ax,0FFFFh
2926:4691  50					push	ax
2926:4692  B8 FFFF				mov	ax,0FFFFh
2926:4695  50					push	ax
2926:4696  E8 2924				call	sub_272			; (6FBD)
2926:4699  E8 19C8				call	sub_248			; (6064)
2926:469C  1E					push	ds
2926:469D  B8 82FD				mov	ax,82FDh
           ICON0.lst       ICON0.OVL		Sourcer	v8.01  20-Jul-2026 12:17 am   Page 147

2926:46A0  50					push	ax
2926:46A1  E8 0B74				call	sub_234			; (5218)
2926:46A4  0E E8 0027				callf	sub_187			; (46CF)
2926:46A8  26 48 65 20 68 61			db	 26h, 48h, 65h, 20h, 68h, 61h
2926:46AE  73 20 62 65 65			db	's bee'
2926:46B3  6E 20 74 65 73 74			db	'n tested in the labyrinth of'
2926:46B9  65 64 20 69 6E 20
2926:46BF  74 68 65 20 6C 61
2926:46C5  62 79 72 69 6E 74
2926:46CB  68 20 6F 66

				;ßßßß External Entry into Subroutine ßßßßßßßßßßßßßßßßßßßßßßßßßßßßßßßßßßßßßß
				;
				;         Called from:   2926:46A4

2926:46CF			sub_187:
2926:46CF  B8 FFFF				mov	ax,0FFFFh
2926:46D2  50					push	ax
2926:46D3  B8 FFFF				mov	ax,0FFFFh
2926:46D6  50					push	ax
2926:46D7  E8 28E3				call	sub_272			; (6FBD)
2926:46DA  E8 1987				call	sub_248			; (6064)
2926:46DD  1E					push	ds
2926:46DE  B8 82FD				mov	ax,82FDh
2926:46E1  50					push	ax
2926:46E2  E8 0B33				call	sub_234			; (5218)
2926:46E5  0E E8 0026				callf	sub_188			; (470F)
2926:46E9  25 74 68 65 20 4E			db	'%the Niebelungs.  Now he stands '
2926:46EF  69 65 62 65 6C 75
2926:46F5  6E 67 73 2E 20 20
2926:46FB  4E 6F 77 20 68 65
2926:4701  20 73 74 61 6E 64
2926:4707  73 20
2926:4709  61 74 20 74 68 65			db	'at the'

				;ßßßß External Entry into Subroutine ßßßßßßßßßßßßßßßßßßßßßßßßßßßßßßßßßßßßßß
				;
				;         Called from:   2926:46E5

2926:470F			sub_188:
2926:470F  B8 FFFF				mov	ax,0FFFFh
2926:4712  50					push	ax
2926:4713  B8 FFFF				mov	ax,0FFFFh
2926:4716  50					push	ax
2926:4717  E8 28A3				call	sub_272			; (6FBD)
2926:471A  E8 1947				call	sub_248			; (6064)
2926:471D  1E					push	ds
2926:471E  B8 82FD				mov	ax,82FDh
2926:4721  50					push	ax
2926:4722  E8 0AF3				call	sub_234			; (5218)
2926:4725  0E E8 0024				callf	sub_189			; (474D)
2926:4729  23 63 72				and	sp,[bp+di+72h]
2926:472C  6F 73 73 72 6F 61			db	'ossroads of his destiny.  Braver'
2926:4732  64 73 20 6F 66 20
2926:4738  68 69 73 20 64 65
2926:473E  73 74 69 6E 79 2E
2926:4744  20 20 42 72 61 76
           ICON0.lst       ICON0.OVL		Sourcer	v8.01  20-Jul-2026 12:17 am   Page 148

2926:474A  65 72
2926:474C  79					db	'y'

				;ßßßß External Entry into Subroutine ßßßßßßßßßßßßßßßßßßßßßßßßßßßßßßßßßßßßßß
				;
				;         Called from:   2926:4725

2926:474D			sub_189:
2926:474D  B8 FFFF				mov	ax,0FFFFh
2926:4750  50					push	ax
2926:4751  B8 FFFF				mov	ax,0FFFFh
2926:4754  50					push	ax
2926:4755  E8 2865				call	sub_272			; (6FBD)
2926:4758  E8 1909				call	sub_248			; (6064)
2926:475B  1E					push	ds
2926:475C  B8 82FD				mov	ax,82FDh
2926:475F  50					push	ax
2926:4760  E8 0AB5				call	sub_234			; (5218)
2926:4763  0E E8 0027				callf	sub_190			; (478E)
2926:4767  26 77 69 6C 6C 20			db	'&will not be enough to overcome '
2926:476D  6E 6F 74 20 62 65
2926:4773  20 65 6E 6F 75 67
2926:4779  68 20 74 6F 20 6F
2926:477F  76 65 72 63 6F 6D
2926:4785  65 20
2926:4787  46 61 66 6E 65 72			db	'Fafner.'
2926:478D  2E

				;ßßßß External Entry into Subroutine ßßßßßßßßßßßßßßßßßßßßßßßßßßßßßßßßßßßßßß
				;
				;         Called from:   2926:4763

2926:478E			sub_190:
2926:478E  B8 FFFF				mov	ax,0FFFFh
2926:4791  50					push	ax
2926:4792  B8 FFFF				mov	ax,0FFFFh
2926:4795  50					push	ax
2926:4796  E8 2824				call	sub_272			; (6FBD)
2926:4799  E8 18C8				call	sub_248			; (6064)
2926:479C  1E					push	ds
2926:479D  B8 82FD				mov	ax,82FDh
2926:47A0  50					push	ax
2926:47A1  E8 0A74				call	sub_234			; (5218)
2926:47A4  0E E8 0026				callf	sub_191			; (47CE)
2926:47A8  25 6953				and	ax,6953h
2926:47AB  65 67 66 72 69 65			db	'egfried must exercise both care '
2926:47B1  64 20 6D 75 73 74
2926:47B7  20 65 78 65 72 63
2926:47BD  69 73 65 20 62 6F
2926:47C3  74 68 20 63 61 72
2926:47C9  65 20
2926:47CB  61 6E 64				db	'and'

				;ßßßß External Entry into Subroutine ßßßßßßßßßßßßßßßßßßßßßßßßßßßßßßßßßßßßßß
				;
				;         Called from:   2926:47A4

           ICON0.lst       ICON0.OVL		Sourcer	v8.01  20-Jul-2026 12:17 am   Page 149

2926:47CE			sub_191:
2926:47CE  B8 FFFF				mov	ax,0FFFFh
2926:47D1  50					push	ax
2926:47D2  B8 FFFF				mov	ax,0FFFFh
2926:47D5  50					push	ax
2926:47D6  E8 27E4				call	sub_272			; (6FBD)
2926:47D9  E8 1888				call	sub_248			; (6064)
2926:47DC  1E					push	ds
2926:47DD  B8 82FD				mov	ax,82FDh
2926:47E0  50					push	ax
2926:47E1  E8 0A34				call	sub_234			; (5218)
2926:47E4  0E E8 0023				callf	sub_192			; (480B)
2926:47E8  22 69 6E 74 65 6C			db	'"intellegence to discover the Gr'
2926:47EE  6C 65 67 65 6E 63
2926:47F4  65 20 74 6F 20 64
2926:47FA  69 73 63 6F 76 65
2926:4800  72 20 74 68 65 20
2926:4806  47 72
2926:4808  65 61 74				db	'eat'

				;ßßßß External Entry into Subroutine ßßßßßßßßßßßßßßßßßßßßßßßßßßßßßßßßßßßßßß
				;
				;         Called from:   2926:47E4

2926:480B			sub_192:
2926:480B  B8 FFFF				mov	ax,0FFFFh
2926:480E  50					push	ax
2926:480F  B8 FFFF				mov	ax,0FFFFh
2926:4812  50					push	ax
2926:4813  E8 27A7				call	sub_272			; (6FBD)
2926:4816  E8 184B				call	sub_248			; (6064)
2926:4819  1E					push	ds
2926:481A  B8 82FD				mov	ax,82FDh
2926:481D  50					push	ax
2926:481E  E8 09F7				call	sub_234			; (5218)
2926:4821  0E E8 0013				callf	sub_193			; (4838)
2926:4825  12 44 72				adc	al,[si+72h]
2926:4828  61 67 6F 6E 27 73			db	'agon', 27h, 's weakness.'
2926:482E  20 77 65 61 6B 6E
2926:4834  65 73 73 2E

				;ßßßß External Entry into Subroutine ßßßßßßßßßßßßßßßßßßßßßßßßßßßßßßßßßßßßßß
				;
				;         Called from:   2926:4821

2926:4838			sub_193:
2926:4838  B8 FFFF				mov	ax,0FFFFh
2926:483B  50					push	ax
2926:483C  B8 FFFF				mov	ax,0FFFFh
2926:483F  50					push	ax
2926:4840  E8 277A				call	sub_272			; (6FBD)
2926:4843  E8 181E				call	sub_248			; (6064)
2926:4846  8B E5				mov	sp,bp
2926:4848  5D					pop	bp
2926:4849  C3					retn
				sub_175		endp

           ICON0.lst       ICON0.OVL		Sourcer	v8.01  20-Jul-2026 12:17 am   Page 150

2926:484A			loc_310:					;  xref 2926:2C73
2926:484A  55					push	bp
2926:484B  8B C4				mov	ax,sp
2926:484D  FF 76 FE				push	word ptr [bp-2]
2926:4850  8B E8				mov	bp,ax
2926:4852  55					push	bp
2926:4853  81 EC 0004				sub	sp,4
2926:4857  1E					push	ds
2926:4858  B8 82FD				mov	ax,82FDh
2926:485B  50					push	ax
2926:485C  E8 09B9				call	sub_234			; (5218)
2926:485F  0E E8 001D				callf	sub_194			; (4880)
2926:4863  1C 20				sbb	al,20h			; ' '
2926:4865  20 20 20 20 20 20			db	'        CHARITY AND JUSTICE'
2926:486B  20 20 43 48 41 52
2926:4871  49 54 59 20 41 4E
2926:4877  44 20 4A 55 53 54
2926:487D  49 43 45

				;ßßßßßßßßßßßßßßßßßßßßßßßßßßßßßßßßßßßßßßßßßßßßßßßßßßßßßßßßßßßßßßßßßßßßßßßßßß
				;                              SUBROUTINE
				;
				;         Called from:   2926:485F
				;ÜÜÜÜÜÜÜÜÜÜÜÜÜÜÜÜÜÜÜÜÜÜÜÜÜÜÜÜÜÜÜÜÜÜÜÜÜÜÜÜÜÜÜÜÜÜÜÜÜÜÜÜÜÜÜÜÜÜÜÜÜÜÜÜÜÜÜÜÜÜÜÜÜÜ

2926:4880			sub_194		proc	near
2926:4880  B8 FFFF				mov	ax,0FFFFh
2926:4883  50					push	ax
2926:4884  B8 FFFF				mov	ax,0FFFFh
2926:4887  50					push	ax
2926:4888  E8 2732				call	sub_272			; (6FBD)
2926:488B  E8 17D6				call	sub_248			; (6064)
2926:488E  1E					push	ds
2926:488F  B8 82FD				mov	ax,82FDh
2926:4892  50					push	ax
2926:4893  E8 0982				call	sub_234			; (5218)
2926:4896  E8 17CB				call	sub_248			; (6064)
2926:4899  1E					push	ds
2926:489A  B8 82FD				mov	ax,82FDh
2926:489D  50					push	ax
2926:489E  E8 0977				call	sub_234			; (5218)
2926:48A1  0E E8 0022				callf	sub_195			; (48C7)
2926:48A5  21 56 69				and	[bp+69h],dx
2926:48A8  63 74 6F 72 69 6F			db	'ctorious over the Great Dragon,'
2926:48AE  75 73 20 6F 76 65
2926:48B4  72 20 74 68 65 20
2926:48BA  47 72 65 61 74 20
2926:48C0  44 72 61 67 6F 6E
2926:48C6  2C

				;ßßßß External Entry into Subroutine ßßßßßßßßßßßßßßßßßßßßßßßßßßßßßßßßßßßßßß
				;
				;         Called from:   2926:48A1

2926:48C7			sub_195:
2926:48C7  B8 FFFF				mov	ax,0FFFFh
2926:48CA  50					push	ax
           ICON0.lst       ICON0.OVL		Sourcer	v8.01  20-Jul-2026 12:17 am   Page 151

2926:48CB  B8 FFFF				mov	ax,0FFFFh
2926:48CE  50					push	ax
2926:48CF  E8 26EB				call	sub_272			; (6FBD)
2926:48D2  E8 178F				call	sub_248			; (6064)
2926:48D5  1E					push	ds
2926:48D6  B8 82FD				mov	ax,82FDh
2926:48D9  50					push	ax
2926:48DA  E8 093B				call	sub_234			; (5218)
2926:48DD  0E E8 0028				callf	sub_196			; (4909)
2926:48E1  27					daa				; Decimal adjust
2926:48E2  53					push	bx
2926:48E3  69 65 67 66 72 69			db	'iegfried has discovered the prot'
2926:48E9  65 64 20 68 61 73
2926:48EF  20 64 69 73 63 6F
2926:48F5  76 65 72 65 64 20
2926:48FB  74 68 65 20 70 72
2926:4901  6F 74
2926:4903  65 63 74 69 76 65			db	'ective'

				;ßßßß External Entry into Subroutine ßßßßßßßßßßßßßßßßßßßßßßßßßßßßßßßßßßßßßß
				;
				;         Called from:   2926:48DD

2926:4909			sub_196:
2926:4909  B8 FFFF				mov	ax,0FFFFh
2926:490C  50					push	ax
2926:490D  B8 FFFF				mov	ax,0FFFFh
2926:4910  50					push	ax
2926:4911  E8 26A9				call	sub_272			; (6FBD)
2926:4914  E8 174D				call	sub_248			; (6064)
2926:4917  1E					push	ds
2926:4918  B8 82FD				mov	ax,82FDh
2926:491B  50					push	ax
2926:491C  E8 08F9				call	sub_234			; (5218)
2926:491F  0E E8 0026				callf	sub_197			; (4949)
2926:4923  25 6F70				and	ax,6F70h
2926:4926  77 65				ja	loc_312			; Jump if above
2926:4928  72 73				jc	loc_313			; Jump if carry Set
2926:492A  20 6F 66				and	[bx+66h],ch
2926:492D  20 74 68				and	[si+68h],dh
2926:4930  65 20 72 69 6E 67			db	'e ring.  Yet the curse of'
2926:4936  2E 20 20 59 65 74
2926:493C  20 74 68 65 20 63
2926:4942  75 72 73 65 20 6F
2926:4948  66

				;ßßßß External Entry into Subroutine ßßßßßßßßßßßßßßßßßßßßßßßßßßßßßßßßßßßßßß
				;
				;         Called from:   2926:491F

2926:4949			sub_197:
2926:4949  B8 FFFF				mov	ax,0FFFFh
2926:494C  50					push	ax
2926:494D  B8 FFFF				mov	ax,0FFFFh
2926:4950  50					push	ax
2926:4951  E8 2669				call	sub_272			; (6FBD)
2926:4954  E8 170D				call	sub_248			; (6064)
           ICON0.lst       ICON0.OVL		Sourcer	v8.01  20-Jul-2026 12:17 am   Page 152

2926:4957  1E					push	ds
2926:4958  B8 82FD				mov	ax,82FDh
2926:495B  50					push	ax
2926:495C  E8 08B9				call	sub_234			; (5218)
2926:495F  0E E8 0027				callf	sub_198			; (498A)
2926:4963  26 74 68 65 20 72			db	 26h, 74h, 68h, 65h, 20h, 72h
2926:4969  69 6E 67 20 72			db	'ing r'
2926:496E  65 6D 61 69 6E 73			db	'emains in force.  Surrounded'
2926:4974  20 69 6E 20 66 6F
2926:497A  72 63 65 2E 20 20
2926:4980  53 75 72 72 6F 75
2926:4986  6E 64 65 64

				;ßßßß External Entry into Subroutine ßßßßßßßßßßßßßßßßßßßßßßßßßßßßßßßßßßßßßß
				;
				;         Called from:   2926:495F

2926:498A			sub_198:
2926:498A  B8 FFFF				mov	ax,0FFFFh
2926:498D			loc_312:					;  xref 2926:4926
2926:498D  50					push	ax
2926:498E  B8 FFFF				mov	ax,0FFFFh
2926:4991  50					push	ax
2926:4992  E8 2628				call	sub_272			; (6FBD)
2926:4995  E8 16CC				call	sub_248			; (6064)
2926:4998  1E					push	ds
2926:4999  B8 82FD				mov	ax,82FDh
2926:499C  50					push	ax
2926:499D			loc_313:					;  xref 2926:4928
2926:499D  E8 0878				call	sub_234			; (5218)
2926:49A0  0E E8 0021				callf	sub_199			; (49C5)
2926:49A4  20 62 79 20 66 69			db	' by fierce beasts maddened by th'
2926:49AA  65 72 63 65 20 62
2926:49B0  65 61 73 74 73 20
2926:49B6  6D 61 64 64 65 6E
2926:49BC  65 64 20 62 79 20
2926:49C2  74 68
2926:49C4  65					db	'e'

				;ßßßß External Entry into Subroutine ßßßßßßßßßßßßßßßßßßßßßßßßßßßßßßßßßßßßßß
				;
				;         Called from:   2926:49A0

2926:49C5			sub_199:
2926:49C5  B8 FFFF				mov	ax,0FFFFh
2926:49C8  50					push	ax
2926:49C9  B8 FFFF				mov	ax,0FFFFh
2926:49CC  50					push	ax
2926:49CD  E8 25ED				call	sub_272			; (6FBD)
2926:49D0  E8 1691				call	sub_248			; (6064)
2926:49D3  1E					push	ds
2926:49D4  B8 82FD				mov	ax,82FDh
2926:49D7  50					push	ax
2926:49D8  E8 083D				call	sub_234			; (5218)
2926:49DB  0E E8 0026				callf	sub_200			; (4A05)
2926:49DF  25 6E69				and	ax,6E69h
2926:49E2  66 6C 75 65 6E 63			db	'fluence of the ring, Siegfried m'
           ICON0.lst       ICON0.OVL		Sourcer	v8.01  20-Jul-2026 12:17 am   Page 153

2926:49E8  65 20 6F 66 20 74
2926:49EE  68 65 20 72 69 6E
2926:49F4  67 2C 20 53 69 65
2926:49FA  67 66 72 69 65 64
2926:4A00  20 6D
2926:4A02  75 73 74				db	'ust'

				;ßßßß External Entry into Subroutine ßßßßßßßßßßßßßßßßßßßßßßßßßßßßßßßßßßßßßß
				;
				;         Called from:   2926:49DB

2926:4A05			sub_200:
2926:4A05  B8 FFFF				mov	ax,0FFFFh
2926:4A08  50					push	ax
2926:4A09  B8 FFFF				mov	ax,0FFFFh
2926:4A0C  50					push	ax
2926:4A0D  E8 25AD				call	sub_272			; (6FBD)
2926:4A10  E8 1651				call	sub_248			; (6064)
2926:4A13  1E					push	ds
2926:4A14  B8 82FD				mov	ax,82FDh
2926:4A17  50					push	ax
2926:4A18  E8 07FD				call	sub_234			; (5218)
2926:4A1B  0E E8 0022				callf	sub_201			; (4A41)
2926:4A1F  21 73 74 72 75 67			db	'!struggle on.  Only  one  questi'
2926:4A25  67 6C 65 20 6F 6E
2926:4A2B  2E 20 20 4F 6E 6C
2926:4A31  79 20 20 6F 6E 65
2926:4A37  20 20 71 75 65 73
2926:4A3D  74 69
2926:4A3F  6F 6E				db	'on'

				;ßßßß External Entry into Subroutine ßßßßßßßßßßßßßßßßßßßßßßßßßßßßßßßßßßßßßß
				;
				;         Called from:   2926:4A1B

2926:4A41			sub_201:
2926:4A41  B8 FFFF				mov	ax,0FFFFh
2926:4A44  50					push	ax
2926:4A45  B8 FFFF				mov	ax,0FFFFh
2926:4A48  50					push	ax
2926:4A49  E8 2571				call	sub_272			; (6FBD)
2926:4A4C  E8 1615				call	sub_248			; (6064)
2926:4A4F  1E					push	ds
2926:4A50  B8 82FD				mov	ax,82FDh
2926:4A53  50					push	ax
2926:4A54  E8 07C1				call	sub_234			; (5218)
2926:4A57  0E E8 0023				callf	sub_202			; (4A7E)
2926:4A5B  22 72 65				and	dh,[bp+si+65h]
2926:4A5E  6D 61 69 6E 73 2E			db	'mains.  Does  Siegfried  possess'
2926:4A64  20 20 44 6F 65 73
2926:4A6A  20 20 53 69 65 67
2926:4A70  66 72 69 65 64 20
2926:4A76  20 70 6F 73 73 65
2926:4A7C  73 73

				;ßßßß External Entry into Subroutine ßßßßßßßßßßßßßßßßßßßßßßßßßßßßßßßßßßßßßß
				;
           ICON0.lst       ICON0.OVL				Sourcer	v8.01  20-Jul-2026 12:17 am   Page 154

				;         Called from:   2926:4A57

2926:4A7E			sub_202:
2926:4A7E  B8 FFFF				mov	ax,0FFFFh
2926:4A81  50					push	ax
2926:4A82  B8 FFFF				mov	ax,0FFFFh
2926:4A85  50					push	ax
2926:4A86  E8 2534				call	sub_272			; (6FBD)
2926:4A89  E8 15D8				call	sub_248			; (6064)
2926:4A8C  1E					push	ds
2926:4A8D  B8 82FD				mov	ax,82FDh
2926:4A90  50					push	ax
2926:4A91  E8 0784				call	sub_234			; (5218)
2926:4A94  0E E8 0024				callf	sub_203			; (4ABC)
2926:4A98  23 73 75 66 66 69			db	'#sufficient virtues  and  insigh'
2926:4A9E  63 69 65 6E 74 20
2926:4AA4  76 69 72 74 75 65
2926:4AAA  73 20 20 61 6E 64
2926:4AB0  20 20 69 6E 73 69
2926:4AB6  67 68
2926:4AB8  74 20 74 6F				db	't to'

				;ßßßß External Entry into Subroutine ßßßßßßßßßßßßßßßßßßßßßßßßßßßßßßßßßßßßßß
				;
				;         Called from:   2926:4A94

2926:4ABC			sub_203:
2926:4ABC  B8 FFFF				mov	ax,0FFFFh
2926:4ABF  50					push	ax
2926:4AC0  B8 FFFF				mov	ax,0FFFFh
2926:4AC3  50					push	ax
2926:4AC4  E8 24F6				call	sub_272			; (6FBD)
2926:4AC7  E8 159A				call	sub_248			; (6064)
2926:4ACA  1E					push	ds
2926:4ACB  B8 82FD				mov	ax,82FDh
2926:4ACE  50					push	ax
2926:4ACF  E8 0746				call	sub_234			; (5218)
2926:4AD2  0E E8 0029				callf	sub_204			; (4AFF)
2926:4AD6  28 6F 76				sub	[bx+76h],ch
2926:4AD9  65 72 63				db	 65h, 72h, 63h
2926:4ADC  6F 6D 65 20 74 68			db	'ome the mali'
2926:4AE2  65 20 6D 61 6C 69
2926:4AE8  67 6E 20 65 66 66			db	'gn effects of the ring?'
2926:4AEE  65 63 74 73 20 6F
2926:4AF4  66 20 74 68 65 20
2926:4AFA  72 69 6E 67 3F

				;ßßßß External Entry into Subroutine ßßßßßßßßßßßßßßßßßßßßßßßßßßßßßßßßßßßßßß
				;
				;         Called from:   2926:4AD2

2926:4AFF			sub_204:
2926:4AFF  B8 FFFF				mov	ax,0FFFFh
2926:4B02  50					push	ax
2926:4B03  B8 FFFF				mov	ax,0FFFFh
2926:4B06  50					push	ax
2926:4B07  E8 24B3				call	sub_272			; (6FBD)
           ICON0.lst       ICON0.OVL		Sourcer	v8.01  20-Jul-2026 12:17 am   Page 155

2926:4B0A  1E					push	ds
2926:4B0B  B8 82FD				mov	ax,82FDh
2926:4B0E  50					push	ax
2926:4B0F  E8 0706				call	sub_234			; (5218)
2926:4B12  0E E8 0026				callf	sub_205			; (4B3C)
2926:4B16  25 4B 6E 6F 77 69			db	'%Knowing the history of the ring'
2926:4B1C  6E 67 20 74 68 65
2926:4B22  20 68 69 73 74 6F
2926:4B28  72 79 20 6F 66 20
2926:4B2E  74 68 65 20 72 69
2926:4B34  6E 67
2926:4B36  2C 20 77 69 6C 6C			db	', will'

				;ßßßß External Entry into Subroutine ßßßßßßßßßßßßßßßßßßßßßßßßßßßßßßßßßßßßßß
				;
				;         Called from:   2926:4B12

2926:4B3C			sub_205:
2926:4B3C  B8 FFFF				mov	ax,0FFFFh
2926:4B3F  50					push	ax
2926:4B40  B8 FFFF				mov	ax,0FFFFh
2926:4B43  50					push	ax
2926:4B44  E8 2476				call	sub_272			; (6FBD)
2926:4B47  E8 151A				call	sub_248			; (6064)
2926:4B4A  1E					push	ds
2926:4B4B  B8 82FD				mov	ax,82FDh
2926:4B4E  50					push	ax
2926:4B4F  E8 06C6				call	sub_234			; (5218)
2926:4B52  0E E8 0026				callf	sub_206			; (4B7C)
2926:4B56  25 6953				and	ax,6953h
2926:4B59  65 67 66 72 69 65			db	'egfried have the wisdom to disco'
2926:4B5F  64 20 68 61 76 65
2926:4B65  20 74 68 65 20 77
2926:4B6B  69 73 64 6F 6D 20
2926:4B71  74 6F 20 64 69 73
2926:4B77  63 6F
2926:4B79  76 65 72				db	'ver'

				;ßßßß External Entry into Subroutine ßßßßßßßßßßßßßßßßßßßßßßßßßßßßßßßßßßßßßß
				;
				;         Called from:   2926:4B52

2926:4B7C			sub_206:
2926:4B7C  B8 FFFF				mov	ax,0FFFFh
2926:4B7F  50					push	ax
2926:4B80  B8 FFFF				mov	ax,0FFFFh
2926:4B83  50					push	ax
2926:4B84  E8 2436				call	sub_272			; (6FBD)
2926:4B87  E8 14DA				call	sub_248			; (6064)
2926:4B8A  1E					push	ds
2926:4B8B  B8 82FD				mov	ax,82FDh
2926:4B8E  50					push	ax
2926:4B8F  E8 0686				call	sub_234			; (5218)
2926:4B92  0E E8 0024				callf	sub_207			; (4BBA)
2926:4B96  23 77 68 61 74 20			db	'#what must be done to fulfill Od'
2926:4B9C  6D 75 73 74 20 62
2926:4BA2  65 20 64 6F 6E 65
           ICON0.lst       ICON0.OVL		Sourcer	v8.01  20-Jul-2026 12:17 am   Page 156

2926:4BA8  20 74 6F 20 66 75
2926:4BAE  6C 66 69 6C 6C 20
2926:4BB4  4F 64
2926:4BB6  69 6E 27 73				db	'in', 27h, 's'

				;ßßßß External Entry into Subroutine ßßßßßßßßßßßßßßßßßßßßßßßßßßßßßßßßßßßßßß
				;
				;         Called from:   2926:4B92

2926:4BBA			sub_207:
2926:4BBA  B8 FFFF				mov	ax,0FFFFh
2926:4BBD  50					push	ax
2926:4BBE  B8 FFFF				mov	ax,0FFFFh
2926:4BC1  50					push	ax
2926:4BC2  E8 23F8				call	sub_272			; (6FBD)
2926:4BC5  E8 149C				call	sub_248			; (6064)
2926:4BC8  1E					push	ds
2926:4BC9  B8 82FD				mov	ax,82FDh
2926:4BCC  50					push	ax
2926:4BCD  E8 0648				call	sub_234			; (5218)
2926:4BD0  0E E8 0006				callf	sub_208			; (4BDA)
2926:4BD4  05 6C70				add	ax,6C70h
2926:4BD7  61 6E 3F				db	 61h, 6Eh, 3Fh

				;ßßßß External Entry into Subroutine ßßßßßßßßßßßßßßßßßßßßßßßßßßßßßßßßßßßßßß
				;
				;         Called from:   2926:4BD0

2926:4BDA			sub_208:
2926:4BDA  B8 FFFF				mov	ax,0FFFFh
2926:4BDD  50					push	ax
2926:4BDE  B8 FFFF				mov	ax,0FFFFh
2926:4BE1  50					push	ax
2926:4BE2  E8 23D8				call	sub_272			; (6FBD)
2926:4BE5  E8 147C				call	sub_248			; (6064)
2926:4BE8  8B E5				mov	sp,bp
2926:4BEA  5D					pop	bp
2926:4BEB  C3					retn
				sub_194		endp

2926:4BEC			loc_314:					;  xref 2926:2C5E
2926:4BEC  55					push	bp
2926:4BED  8B EC				mov	bp,sp
2926:4BEF  55					push	bp
2926:4BF0  81 EC 002D				sub	sp,2Dh
2926:4BF4  B8 B800				mov	ax,0B800h
2926:4BF7  50					push	ax
2926:4BF8  B8 0000				mov	ax,0
2926:4BFB  50					push	ax
2926:4BFC  B8 00A0				mov	ax,0A0h
2926:4BFF  50					push	ax
2926:4C00  B8 1F20				mov	ax,1F20h
2926:4C03  50					push	ax
2926:4C04  E8 D351				call	sub_57			; (1F58)
2926:4C07  B8 0001				mov	ax,1
2926:4C0A  50					push	ax
2926:4C0B  B8 000F				mov	ax,0Fh
           ICON0.lst       ICON0.OVL		Sourcer	v8.01  20-Jul-2026 12:17 am   Page 157

2926:4C0E  50					push	ax
2926:4C0F  E8 D64F				call	sub_61			; (2261)
2926:4C12  B8 0000				mov	ax,0
2926:4C15  50					push	ax
2926:4C16  B8 0000				mov	ax,0
2926:4C19  50					push	ax
2926:4C1A  E8 DAF8				call	sub_68			; (2715)
2926:4C1D  A0 2DA8				mov	al,data_147		; (2926:2DA8=6Eh)
2926:4C20  32 E4				xor	ah,ah			; Zero register
2926:4C22  50					push	ax
2926:4C23  E9 002A				jmp	loc_315			; (4C50)
							                        ;* No entry point to code
2926:4C26  E8 E038				call	sub_75			; (2C61)
2926:4C29  E9 003B				jmp	loc_316			; (4C67)
							                        ;* No entry point to code
2926:4C2C  E8 E035				call	sub_76			; (2C64)
2926:4C2F  E9 0035				jmp	loc_316			; (4C67)
							                        ;* No entry point to code
2926:4C32  E8 E032				call	sub_77			; (2C67)
2926:4C35  E9 002F				jmp	loc_316			; (4C67)
							                        ;* No entry point to code
2926:4C38  E8 E02F				call	sub_78			; (2C6A)
2926:4C3B  E9 0029				jmp	loc_316			; (4C67)
							                        ;* No entry point to code
2926:4C3E  E8 E02C				call	sub_79			; (2C6D)
2926:4C41  E9 0023				jmp	loc_316			; (4C67)
							                        ;* No entry point to code
2926:4C44  E8 E029				call	sub_80			; (2C70)
2926:4C47  E9 001D				jmp	loc_316			; (4C67)
							                        ;* No entry point to code
2926:4C4A  E8 E026				call	sub_81			; (2C73)
2926:4C4D  E9 0017				jmp	loc_316			; (4C67)
2926:4C50			loc_315:					;  xref 2926:4C23
2926:4C50  E8 27EB				call	sub_291			; (743E)
2926:4C53  61 00 06 00 CD FF			db	 61h, 00h, 06h, 00h,0CDh,0FFh
2926:4C59  D1 FF D5 FF D9 FF			db	0D1h,0FFh,0D5h,0FFh,0D9h,0FFh
2926:4C5F  DD FF E1 FF E5 FF			db	0DDh,0FFh,0E1h,0FFh,0E5h,0FFh
2926:4C65  00 00				db	 00h, 00h
2926:4C67			loc_316:					;  xref 2926:4C29, 4C2F, 4C35, 4C3B
										;            4C41, 4C47, 4C4D
2926:4C67  8B E5				mov	sp,bp
2926:4C69  5D					pop	bp
2926:4C6A  C2 0002				retn	2

				;ßßßßßßßßßßßßßßßßßßßßßßßßßßßßßßßßßßßßßßßßßßßßßßßßßßßßßßßßßßßßßßßßßßßßßßßßßß
				;                              SUBROUTINE
				;
				;         Called from:   2926:0000
				;ÜÜÜÜÜÜÜÜÜÜÜÜÜÜÜÜÜÜÜÜÜÜÜÜÜÜÜÜÜÜÜÜÜÜÜÜÜÜÜÜÜÜÜÜÜÜÜÜÜÜÜÜÜÜÜÜÜÜÜÜÜÜÜÜÜÜÜÜÜÜÜÜÜÜ

2926:4C6D			sub_209		proc	near
2926:4C6D  8C C8				mov	ax,cs
2926:4C6F  2E: 03 06 0003			add	ax,word ptr cs:[3]	; (2926:0003=0C80h)
2926:4C74  2E: 03 06 0005			add	ax,word ptr cs:[5]	; (2926:0005=8B0h)
2926:4C79  2E: 03 06 0007			add	ax,word ptr cs:[7]	; (2926:0007=90h)
2926:4C7E  2E: 03 06 0009			add	ax,word ptr cs:[9]	; (2926:0009=0)
2926:4C83  3B 06 0002				cmp	ax,ds:data_17e		; (2916:0002=0)
           ICON0.lst       ICON0.OVL		Sourcer	v8.01  20-Jul-2026 12:17 am   Page 158

2926:4C87  76 21				jbe	loc_317			; Jump if below or =
2926:4C89  1E					push	ds
2926:4C8A  E8 0010		;*		call	sub_210			;*(4C9D)
2926:4C8A  E8 10 00				db	0E8h, 10h, 00h
2926:4C8D  4F					dec	di
2926:4C8E  55					push	bp
2926:4C8F  54					push	sp
2926:4C90  20 4F 46				and	[bx+46h],cl
2926:4C93  20 4D 45				and	[di+45h],cl
2926:4C96  4D					dec	bp
2926:4C97  4F					dec	di
2926:4C98  52					push	dx
2926:4C99  59					pop	cx
2926:4C9A  0A 0D				or	cl,[di]
2926:4C9C  24 8C				and	al,8Ch
2926:4C9E  C8 8E D8 5A B4 09			db	0C8h, 8Eh,0D8h, 5Ah,0B4h, 09h
2926:4CA4  CD 21 33 C0 50 CB			db	0CDh, 21h, 33h,0C0h, 50h,0CBh
2926:4CAA			loc_317:					;  xref 2926:4C87
2926:4CAA  8C C8				mov	ax,cs
2926:4CAC  2E: 03 06 0003			add	ax,word ptr cs:[3]	; (2926:0003=0C80h)
2926:4CB1  8E C0				mov	es,ax
2926:4CB3 úBF 0000				mov	di,data_350e		; (35A6:0000=0)
2926:4CB6  8B F7				mov	si,di
2926:4CB8  FC					cld				; Clear direction
2926:4CB9  B9 0100				mov	cx,100h
2926:4CBC  F3/ A4				rep	movsb			; Rep when cx >0 Mov [si] to es:[di]
2926:4CBE  26: 8C 1E 0040			mov	es:data_358e,ds		; (35A6:0040=2916h)
2926:4CC3  8E D8				mov	ds,ax
2926:4CC5  8C 1E 0009				mov	ds:data_352e,ds		; (35A6:0009=35A6h)
2926:4CC9  2E: 03 06 0005			add	ax,word ptr cs:[5]	; (2926:0005=8B0h)
2926:4CCE  A3 000F				mov	ds:data_355e,ax		; (35A6:000F=0)
2926:4CD1  2E: 03 06 0009			add	ax,word ptr cs:[9]	; (2926:0009=0)
2926:4CD6  A3 0015				mov	ds:data_357e,ax		; (35A6:0015=0)
2926:4CD9  B9 0004				mov	cx,4
2926:4CDC  2E: 8B 1E 0007			mov	bx,word ptr cs:[7]	; (2926:0007=90h)
2926:4CE1  D3 E3				shl	bx,cl			; Shift w/zeros fill
2926:4CE3  89 1E 0012				mov	ds:data_356e,bx		; (35A6:0012=0)
2926:4CE7  9C					pushf				; Push flags
2926:4CE8  5A					pop	dx
2926:4CE9  FA					cli				; Disable interrupts
2926:4CEA  8E D0				mov	ss,ax
2926:4CEC  8B E3				mov	sp,bx
2926:4CEE  FB					sti				; Enable interrupts
2926:4CEF  52					push	dx
2926:4CF0  9D					popf				; Pop flags
2926:4CF1  2E: A1 0005				mov	ax,word ptr cs:[5]	; (2926:0005=8B0h)
2926:4CF5  B1 04				mov	cl,4
2926:4CF7  D3 E0				shl	ax,cl			; Shift w/zeros fill
2926:4CF9  A3 0006				mov	ds:data_351e,ax		; (35A6:0006=0)
2926:4CFC  2E: A1 0009				mov	ax,word ptr cs:[9]	; (2926:0009=0)
2926:4D00  8B D8				mov	bx,ax
2926:4D02  B1 04				mov	cl,4
2926:4D04  D3 E0				shl	ax,cl			; Shift w/zeros fill
2926:4D06  A3 000C				mov	ds:data_353e,ax		; (35A6:000C=0)
2926:4D09  8B C3				mov	ax,bx
2926:4D0B  B1 0C				mov	cl,0Ch
2926:4D0D  D3 E8				shr	ax,cl			; Shift w/zeros fill
           ICON0.lst       ICON0.OVL		Sourcer	v8.01  20-Jul-2026 12:17 am   Page 159

2926:4D0F  A2 000E				mov	ds:data_354e,al		; (35A6:000E=0)
2926:4D12  8C C8				mov	ax,cs
2926:4D14  05 0008				add	ax,8
2926:4D17  50					push	ax
2926:4D18  33 C0				xor	ax,ax			; Zero register
2926:4D1A  50					push	ax
2926:4D1B  CB					retf				; Return far
				sub_209		endp


				;ßßßßßßßßßßßßßßßßßßßßßßßßßßßßßßßßßßßßßßßßßßßßßßßßßßßßßßßßßßßßßßßßßßßßßßßßßß
				;                              SUBROUTINE
				;
				;         Called from:   2926:4D4D
				;ÜÜÜÜÜÜÜÜÜÜÜÜÜÜÜÜÜÜÜÜÜÜÜÜÜÜÜÜÜÜÜÜÜÜÜÜÜÜÜÜÜÜÜÜÜÜÜÜÜÜÜÜÜÜÜÜÜÜÜÜÜÜÜÜÜÜÜÜÜÜÜÜÜÜ

2926:4D1C			sub_211		proc	near
2926:4D1C  8C C8				mov	ax,cs
2926:4D1E  8E C0				mov	es,ax
2926:4D20 úBF 000C				mov	di,offset data_75	; (2926:000C=0)
2926:4D23  26: 8B 05				mov	ax,es:[di]
2926:4D26  26: 8B 5D 02				mov	bx,es:[di+2]
2926:4D2A  3B C3				cmp	ax,bx
2926:4D2C  74 10				je	loc_ret_319		; Jump if equal
2926:4D2E  8B FB				mov	di,bx
2926:4D30  B9 0010				mov	cx,10h

2926:4D33			locloop_318:					;  xref 2926:4D3C
2926:4D33  26: 8B 35				mov	si,es:[di]
2926:4D36  26: C6 04 00				mov	byte ptr es:[si],0
2926:4D3A  47					inc	di
2926:4D3B  47					inc	di
2926:4D3C  E2 F5				loop	locloop_318		; Loop if cx > 0


2926:4D3E			loc_ret_319:					;  xref 2926:4D2C
2926:4D3E  C3					retn
				sub_211		endp

2926:4D3F  E9 00 00				db	0E9h, 00h, 00h

				;ßßßßßßßßßßßßßßßßßßßßßßßßßßßßßßßßßßßßßßßßßßßßßßßßßßßßßßßßßßßßßßßßßßßßßßßßßß
				;                              SUBROUTINE
				;
				;         Called from:   2926:1E14
				;ÜÜÜÜÜÜÜÜÜÜÜÜÜÜÜÜÜÜÜÜÜÜÜÜÜÜÜÜÜÜÜÜÜÜÜÜÜÜÜÜÜÜÜÜÜÜÜÜÜÜÜÜÜÜÜÜÜÜÜÜÜÜÜÜÜÜÜÜÜÜÜÜÜÜ

2926:4D42			sub_212		proc	near
2926:4D42  E9 0000				jmp	loc_320			; (4D45)
2926:4D45			loc_320:					;  xref 2926:4D42
2926:4D45  55					push	bp
2926:4D46  8B EC				mov	bp,sp
2926:4D48  55					push	bp
2926:4D49  81 EC 0002				sub	sp,2
2926:4D4D  E8 FFCC				call	sub_211			; (4D1C)
2926:4D50  1E					push	ds
2926:4D51  B8 8BA9				mov	ax,8BA9h
           ICON0.lst       ICON0.OVL		Sourcer	v8.01  20-Jul-2026 12:17 am   Page 160

2926:4D54  A3 8383				mov	ds:data_320e,ax		; (2926:8383=0)
2926:4D57  58					pop	ax
2926:4D58  A3 8385				mov	word ptr ds:data_320e+2,ax	; (2926:8385=0)
2926:4D5B  E8 2948				call	sub_302			; (76A6)
2926:4D5E  A3 838D				mov	word ptr ds:data_324e+2,ax	; (2926:838D=0)
2926:4D61  E8 2942				call	sub_302			; (76A6)
2926:4D64  A3 8391				mov	word ptr ds:data_326e+2,ax	; (2926:8391=0)
2926:4D67  C7 06 838B 000F			mov	word ptr ds:data_324e,0Fh	; (2926:838B=0)
2926:4D6D  C7 06 838F 000C			mov	word ptr ds:data_326e,0Ch	; (2926:838F=0)
2926:4D73  B8 0000				mov	ax,0
2926:4D76  50					push	ax
2926:4D77  B8 0001				mov	ax,1
2926:4D7A  A3 8397				mov	ds:data_330e,ax		; (2926:8397=0)
2926:4D7D  58					pop	ax
2926:4D7E  A3 8399				mov	ds:data_331e,ax		; (2926:8399=0)
2926:4D81  B8 0000				mov	ax,0
2926:4D84  50					push	ax
2926:4D85  B8 0000				mov	ax,0
2926:4D88  A3 839B				mov	ds:data_332e,ax		; (2926:839B=0)
2926:4D8B  58					pop	ax
2926:4D8C  A3 839D				mov	ds:data_333e,ax		; (2926:839D=0)
2926:4D8F  C4 3E 838B				les	di,dword ptr ds:data_324e	; (2926:838B=0) Load seg:offset ptr
2926:4D93  06					push	es
2926:4D94  57					push	di
2926:4D95  1E					push	ds
2926:4D96  B8 83AD				mov	ax,83ADh
2926:4D99 ú50					push	ax
2926:4D9A  B8 0002				mov	ax,2
2926:4D9D  50					push	ax
2926:4D9E  E8 258F				call	sub_284			; (7330)
2926:4DA1  C7 06 83AB 0000			mov	word ptr ds:data_340e,0	; (2926:83AB=0)
2926:4DA7  A1 83AD				mov	ax,ds:data_341e		; (2926:83AD=0)
2926:4DAA  50					push	ax
2926:4DAB  A1 83AB				mov	ax,ds:data_340e		; (2926:83AB=0)
2926:4DAE  A3 8393				mov	ds:data_328e,ax		; (2926:8393=0)
2926:4DB1  58					pop	ax
2926:4DB2  A3 8395				mov	word ptr ds:data_328e+2,ax	; (2926:8395=0)
2926:4DB5  C4 3E 8393				les	di,dword ptr ds:data_328e	; (2926:8393=0) Load seg:offset ptr
2926:4DB9  83 C7 04				add	di,4
2926:4DBC  06					push	es
2926:4DBD  57					push	di
2926:4DBE  1E					push	ds
2926:4DBF  B8 8393				mov	ax,8393h
2926:4DC2  50					push	ax
2926:4DC3  E8 28CA				call	sub_299			; (7690)
2926:4DC6  C4 3E 8393				les	di,dword ptr ds:data_328e	; (2926:8393=0) Load seg:offset ptr
2926:4DCA  06					push	es
2926:4DCB  57					push	di
2926:4DCC  1E					push	ds
2926:4DCD  B8 839F				mov	ax,839Fh
2926:4DD0  50					push	ax
2926:4DD1  E8 28BC				call	sub_299			; (7690)
2926:4DD4  C4 3E 8393				les	di,dword ptr ds:data_328e	; (2926:8393=0) Load seg:offset ptr
2926:4DD8  83 C7 08				add	di,8
2926:4DDB  06					push	es
2926:4DDC  57					push	di
2926:4DDD  B8 0000				mov	ax,0
           ICON0.lst       ICON0.OVL		Sourcer	v8.01  20-Jul-2026 12:17 am   Page 161

2926:4DE0  50					push	ax
2926:4DE1  B8 0000				mov	ax,0
2926:4DE4  50					push	ax
2926:4DE5  E8 28A8				call	sub_299			; (7690)
2926:4DE8  C4 3E 838F				les	di,dword ptr ds:data_326e	; (2926:838F=0) Load seg:offset ptr
2926:4DEC  06					push	es
2926:4DED  57					push	di
2926:4DEE  C4 3E 8393				les	di,dword ptr ds:data_328e	; (2926:8393=0) Load seg:offset ptr
2926:4DF2  83 C7 08				add	di,8
2926:4DF5  06					push	es
2926:4DF6 ú57					push	di
2926:4DF7  B8 0003				mov	ax,3
2926:4DFA  50					push	ax
2926:4DFB  E8 2532				call	sub_284			; (7330)
2926:4DFE  B8 0000				mov	ax,0
2926:4E01  50					push	ax
2926:4E02  B8 0001				mov	ax,1
2926:4E05  A3 839F				mov	ds:data_334e,ax		; (2926:839F=0)
2926:4E08  58					pop	ax
2926:4E09  A3 83A1				mov	ds:data_335e,ax		; (2926:83A1=0)
2926:4E0C  B8 0000				mov	ax,0
2926:4E0F  50					push	ax
2926:4E10  B8 0000				mov	ax,0
2926:4E13  A3 83A7				mov	ds:data_338e,ax		; (2926:83A7=0)
2926:4E16  58					pop	ax
2926:4E17  A3 83A9				mov	ds:data_339e,ax		; (2926:83A9=0)
2926:4E1A  A1 83AD				mov	ax,ds:data_341e		; (2926:83AD=0)
2926:4E1D  50					push	ax
2926:4E1E  A1 83AB				mov	ax,ds:data_340e		; (2926:83AB=0)
2926:4E21  A3 83A3				mov	ds:data_336e,ax		; (2926:83A3=0)
2926:4E24  58					pop	ax
2926:4E25  A3 83A5				mov	ds:data_337e,ax		; (2926:83A5=0)
2926:4E28  1E					push	ds
2926:4E29  B8 8393				mov	ax,8393h
2926:4E2C  A3 82F9				mov	ds:data_317e,ax		; (2926:82F9=0)
2926:4E2F  58					pop	ax
2926:4E30  A3 82FB				mov	ds:data_318e,ax		; (2926:82FB=0)
2926:4E33  1E					push	ds
2926:4E34  B8 837F				mov	ax,837Fh
2926:4E37  50					push	ax
2926:4E38  0E E8 0003		;*		callf	sub_213			;*(4E3F)
2926:4E38  0E E8 03 00				db	 0Eh,0E8h, 03h, 00h
2926:4E3C  02 30				add	dh,[bx+si]
2926:4E3E  30 B8 0002				xor	byte ptr ds:[2][bx+si],bh	; (2926:0002=4Ch)
2926:4E42  50					push	ax
2926:4E43  E8 0068				call	sub_215			; (4EAE)
2926:4E46  0E					push	cs
2926:4E47  B8 132E				mov	ax,132Eh
2926:4E4A  93					xchg	bx,ax
2926:4E4B  B8 4DCA				mov	ax,4DCAh
2926:4E4E  03 C3				add	ax,bx
2926:4E50  A3 8383				mov	ds:data_320e,ax		; (2926:8383=0)
2926:4E53  58					pop	ax
2926:4E54  A3 8385				mov	word ptr ds:data_320e+2,ax	; (2926:8385=0)
2926:4E57  0E					push	cs
2926:4E58  B8 22B5				mov	ax,22B5h
2926:4E5B  93					xchg	bx,ax
           ICON0.lst       ICON0.OVL		Sourcer	v8.01  20-Jul-2026 12:17 am   Page 162

2926:4E5C  B8 4DDB				mov	ax,4DDBh
2926:4E5F  03 C3				add	ax,bx
2926:4E61  A3 8387				mov	ds:data_322e,ax		; (2926:8387=0)
2926:4E64  58					pop	ax
2926:4E65  A3 8389				mov	word ptr ds:data_322e+2,ax	; (2926:8389=0)
2926:4E68  1E					push	ds
2926:4E69  B8 833E				mov	ax,833Eh
2926:4E6C  50					push	ax
2926:4E6D  B8 0001				mov	ax,1
2926:4E70  50					push	ax
2926:4E71  0E E8 0005		;*		callf	sub_214			;*(4E7A)
2926:4E71  0E E8 05 00				db	 0Eh,0E8h, 05h, 00h
2926:4E75  04 43				add	al,43h			; 'C'
2926:4E77  4F					dec	di
2926:4E78  4E					dec	si
2926:4E79  3A E8				cmp	ch,al
2926:4E7B  43					inc	bx
2926:4E7C  26 1E B8 3E 83 50			db	 26h, 1Eh,0B8h, 3Eh, 83h, 50h
2926:4E82  B8 FF FF 50 E8 5E			db	0B8h,0FFh,0FFh, 50h,0E8h, 5Eh
2926:4E88  00 1E B8 FD 82 50			db	 00h, 1Eh,0B8h,0FDh, 82h, 50h
2926:4E8E  B8 01 00 50 0E E8			db	0B8h, 01h, 00h, 50h, 0Eh,0E8h
2926:4E94  05 00 04 43 4F 4E			db	 05h, 00h, 04h, 43h, 4Fh, 4Eh
2926:4E9A  3A E8 22 26 1E B8			db	 3Ah,0E8h, 22h, 26h, 1Eh,0B8h
2926:4EA0  FD 82 50 B8 FF FF			db	0FDh, 82h, 50h,0B8h,0FFh,0FFh
2926:4EA6  50 E8 4C 15 8B E5			db	 50h,0E8h, 4Ch, 15h, 8Bh,0E5h
2926:4EAC  5D C3				db	 5Dh,0C3h

				;ßßßß External Entry into Subroutine ßßßßßßßßßßßßßßßßßßßßßßßßßßßßßßßßßßßßßß
				;
				;         Called from:   2926:02D7, 0346, 04D4, 0528, 0564, 0590, 0AE6
				;                             0BCB, 0C3D, 1530, 1A9E, 4E43, 642A, 688A
				;                             690B, 6A2A, 6A77, 71D6, 74E9

2926:4EAE			sub_215:
2926:4EAE  FC					cld				; Clear direction
2926:4EAF  55					push	bp
2926:4EB0  8B EC				mov	bp,sp
2926:4EB2  83 C5 04				add	bp,4
2926:4EB5  1E					push	ds
2926:4EB6  8B 4E 00				mov	cx,[bp]
2926:4EB9  C4 7E 06				les	di,dword ptr [bp+6]	; Load seg:offset ptr
2926:4EBC  C5 76 02				lds	si,dword ptr [bp+2]	; Load seg:offset ptr
2926:4EBF  8C D8				mov	ax,ds
2926:4EC1  3D FFFF				cmp	ax,0FFFFh
2926:4EC4  74 15				je	loc_323			; Jump if equal
2926:4EC6  8A 04				mov	al,[si]
2926:4EC8  32 E4				xor	ah,ah			; Zero register
2926:4ECA  3B C1				cmp	ax,cx
2926:4ECC  7E 02				jle	loc_321			; Jump if < or =
2926:4ECE  8B C1				mov	ax,cx
2926:4ED0			loc_321:					;  xref 2926:4ECC
2926:4ED0  AA					stosb				; Store al to es:[di]
2926:4ED1  46					inc	si
2926:4ED2  8B C8				mov	cx,ax
2926:4ED4  F3/ A4				rep	movsb			; Rep when cx >0 Mov [si] to es:[di]
2926:4ED6			loc_322:					;  xref 2926:4EE1
2926:4ED6 ú1F					pop	ds
           ICON0.lst       ICON0.OVL		Sourcer	v8.01  20-Jul-2026 12:17 am   Page 163

2926:4ED7  5D					pop	bp
2926:4ED8  C2 000A				retn	0Ah
2926:4EDB			loc_323:					;  xref 2926:4EC4
2926:4EDB  B0 01				mov	al,1
2926:4EDD  AA					stosb				; Store al to es:[di]
2926:4EDE  8B C6				mov	ax,si
2926:4EE0  AA					stosb				; Store al to es:[di]
2926:4EE1  E9 FFF2				jmp	loc_322			; (4ED6)
						nop	                                        ;*jump fixup
				sub_212		endp

2926:4EE4  E9 0000				jmp	loc_324			; (4EE7)

				;ßßßßßßßßßßßßßßßßßßßßßßßßßßßßßßßßßßßßßßßßßßßßßßßßßßßßßßßßßßßßßßßßßßßßßßßßßß
				;                              SUBROUTINE
				;
				;         Called from:   2926:0B03, 0C5A, 11FD, 158B, 1ABB, 1EFB
				;ÜÜÜÜÜÜÜÜÜÜÜÜÜÜÜÜÜÜÜÜÜÜÜÜÜÜÜÜÜÜÜÜÜÜÜÜÜÜÜÜÜÜÜÜÜÜÜÜÜÜÜÜÜÜÜÜÜÜÜÜÜÜÜÜÜÜÜÜÜÜÜÜÜÜ

2926:4EE7			sub_216		proc	near
2926:4EE7			loc_324:					;  xref 2926:4EE4
2926:4EE7  E9 0000				jmp	loc_325			; (4EEA)
2926:4EEA			loc_325:					;  xref 2926:4EE7
2926:4EEA  55					push	bp
2926:4EEB  8B EC				mov	bp,sp
2926:4EED  55					push	bp
2926:4EEE  81 EC 003D				sub	sp,3Dh
2926:4EF2  16					push	ss
2926:4EF3  8D 46 C3				lea	ax,[bp-3Dh]		; Load effective addr
2926:4EF6  50					push	ax
2926:4EF7  C4 7E 06				les	di,dword ptr [bp+6]	; Load seg:offset ptr
2926:4EFA  06					push	es
2926:4EFB ú57					push	di			; PARAMETER_2
2926:4EFC  B8 0039				mov	ax,39h
2926:4EFF  50					push	ax			; PARAMETER_1
2926:4F00  E8 2415				call	sub_283			; (7318)
2926:4F03  82 7E E9 01				cmp	byte ptr [bp-17h],1
2926:4F07  74 03				je	loc_326			; Jump if equal
2926:4F09  E9 00B4				jmp	loc_328			; (4FC0)
2926:4F0C			loc_326:					;  xref 2926:4F07
2926:4F0C  C4 7E 06				les	di,dword ptr [bp+6]	; Load seg:offset ptr
2926:4F0F  06					push	es
2926:4F10 ú57					push	di
2926:4F11  FF 76 04				push	word ptr [bp+4]
2926:4F14  16					push	ss
2926:4F15  8D 46 FC				lea	ax,[bp-4]		; Load effective addr
2926:4F18  50					push	ax
2926:4F19  E8 01AA				call	sub_220			; (50C6)
2926:4F1C  16					push	ss
2926:4F1D  8D 46 C3				lea	ax,[bp-3Dh]		; Load effective addr
2926:4F20  50					push	ax
2926:4F21  C4 7E 06				les	di,dword ptr [bp+6]	; Load seg:offset ptr
2926:4F24  06					push	es
2926:4F25 ú57					push	di			; PARAMETER_2
2926:4F26  B8 0039				mov	ax,39h
2926:4F29  50					push	ax			; PARAMETER_1
2926:4F2A  E8 23EB				call	sub_283			; (7318)
           ICON0.lst       ICON0.OVL		Sourcer	v8.01  20-Jul-2026 12:17 am   Page 164

2926:4F2D  81 7E FC 00FF			cmp	word ptr [bp-4],0FFh
2926:4F32  74 03				je	loc_327			; Jump if equal
2926:4F34  E9 0089				jmp	loc_328			; (4FC0)
2926:4F37			loc_327:					;  xref 2926:4F32
2926:4F37  1E					push	ds
2926:4F38  B8 82FD				mov	ax,82FDh
2926:4F3B  50					push	ax
2926:4F3C  E8 02D9				call	sub_234			; (5218)
2926:4F3F  E8 1122				call	sub_248			; (6064)
2926:4F42  1E					push	ds
2926:4F43  B8 82FD				mov	ax,82FDh
2926:4F46  50					push	ax
2926:4F47  E8 02CE				call	sub_234			; (5218)
2926:4F4A  0E E8 000E				callf	sub_217			; (4F5C)
2926:4F4E  0D 6143				or	ax,6143h
2926:4F51  6E 27 74 20 63 6C			db	'n', 27h, 't close: '
2926:4F57  6F 73 65 3A 20

				;ßßßß External Entry into Subroutine ßßßßßßßßßßßßßßßßßßßßßßßßßßßßßßßßßßßßßß
				;
				;         Called from:   2926:4F4A

2926:4F5C			sub_217:
2926:4F5C  B8 FFFF				mov	ax,0FFFFh
2926:4F5F  50					push	ax
2926:4F60  B8 FFFF				mov	ax,0FFFFh
2926:4F63  50					push	ax
2926:4F64  E8 2056				call	sub_272			; (6FBD)
2926:4F67  16					push	ss
2926:4F68  8D 46 C3				lea	ax,[bp-3Dh]		; Load effective addr
2926:4F6B ú50					push	ax
2926:4F6C  B8 FFFF				mov	ax,0FFFFh
2926:4F6F  50					push	ax
2926:4F70  B8 FFFF				mov	ax,0FFFFh
2926:4F73  50					push	ax
2926:4F74  E8 2046				call	sub_272			; (6FBD)
2926:4F77  0E E8 000A				callf	sub_218			; (4F85)
2926:4F7B  09 20				or	[bx+si],sp
2926:4F7D  69 6E 20 52 45 53			db	'in RESET'
2926:4F83  45 54

				;ßßßß External Entry into Subroutine ßßßßßßßßßßßßßßßßßßßßßßßßßßßßßßßßßßßßßß
				;
				;         Called from:   2926:4F77

2926:4F85			sub_218:
2926:4F85  B8 FFFF				mov	ax,0FFFFh
2926:4F88  50					push	ax
2926:4F89  B8 FFFF				mov	ax,0FFFFh
2926:4F8C  50					push	ax
2926:4F8D  E8 202D				call	sub_272			; (6FBD)
2926:4F90  E8 10D1				call	sub_248			; (6064)
2926:4F93  1E					push	ds
2926:4F94  B8 82FD				mov	ax,82FDh
2926:4F97  50					push	ax
2926:4F98  E8 027D				call	sub_234			; (5218)
2926:4F9B  0E E8 0010				callf	sub_219			; (4FAF)
           ICON0.lst       ICON0.OVL		Sourcer	v8.01  20-Jul-2026 12:17 am   Page 165

2926:4F9F  0F			;*		pop	cs			; Dangerous-8088 only
2926:4F9F  0F					db	0Fh
2926:4FA0  50					push	ax
2926:4FA1  72 6F		;*		jc	loc_333			;*Jump if carry Set
2926:4FA1  72 6F				db	 72h, 6Fh
2926:4FA3  67 72 61 6D 20 61			db	'gram aborted'
2926:4FA9  62 6F 72 74 65 64

				;ßßßß External Entry into Subroutine ßßßßßßßßßßßßßßßßßßßßßßßßßßßßßßßßßßßßßß
				;
				;         Called from:   2926:4F9B

2926:4FAF			sub_219:
2926:4FAF  B8 FFFF				mov	ax,0FFFFh
2926:4FB2  50					push	ax
2926:4FB3  B8 FFFF				mov	ax,0FFFFh
2926:4FB6  50					push	ax
2926:4FB7  E8 2003				call	sub_272			; (6FBD)
2926:4FBA  E8 10A7				call	sub_248			; (6064)
2926:4FBD  E8 24BC				call	sub_292			; (747C)
2926:4FC0			loc_328:					;  xref 2926:4F09, 4F34
2926:4FC0  C6 46 E9 00				mov	byte ptr [bp-17h],0
2926:4FC4  81 7E 04 FFFF			cmp	word ptr [bp+4],0FFFFh
2926:4FC9  74 03				je	loc_329			; Jump if equal
2926:4FCB  E9 000C				jmp	loc_330			; (4FDA)
2926:4FCE			loc_329:					;  xref 2926:4FC9
2926:4FCE  C7 46 04 0001			mov	word ptr [bp+4],1
2926:4FD3  C6 46 F7 01				mov	byte ptr [bp-9],1
2926:4FD7  E9 0004				jmp	loc_331			; (4FDE)
2926:4FDA			loc_330:					;  xref 2926:4FCB
2926:4FDA  C6 46 F7 00				mov	byte ptr [bp-9],0
2926:4FDE			loc_331:					;  xref 2926:4FD7
2926:4FDE  C6 46 F1 00				mov	byte ptr [bp-0Fh],0
2926:4FE2  C6 46 F2 00				mov	byte ptr [bp-0Eh],0
2926:4FE6  C4 7E 06				les	di,dword ptr [bp+6]	; Load seg:offset ptr
2926:4FE9  06					push	es
2926:4FEA  57					push	di
2926:4FEB  58					pop	ax
2926:4FEC  A3 83AF				mov	ds:data_65e,ax		; (2916:83AF=0)
2926:4FEF  58					pop	ax
2926:4FF0  A3 83B1				mov	word ptr ds:data_65e+2,ax	; (2916:83B1=0)
2926:4FF3  C6 46 E9 02				mov	byte ptr [bp-17h],2
2926:4FF7  8B 46 04				mov	ax,[bp+4]
2926:4FFA  89 46 EF				mov	[bp-11h],ax
2926:4FFD  8B 46 04				mov	ax,[bp+4]
2926:5000  89 46 EB				mov	[bp-15h],ax
2926:5003  C4 7E 06				les	di,dword ptr [bp+6]	; Load seg:offset ptr
2926:5006  83 C7 38				add	di,38h
2926:5009  06					push	es
2926:500A  57					push	di
2926:500B  58					pop	ax
2926:500C  89 46 F3				mov	[bp-0Dh],ax
2926:500F  58					pop	ax
2926:5010  89 46 F5				mov	[bp-0Bh],ax
2926:5013  16					push	ss
2926:5014  8D 46 C3				lea	ax,[bp-3Dh]		; Load effective addr
2926:5017  50					push	ax
           ICON0.lst       ICON0.OVL		Sourcer	v8.01  20-Jul-2026 12:17 am   Page 166

2926:5018  B8 0002				mov	ax,2
2926:501B  50					push	ax
2926:501C  E8 01ED				call	sub_230			; (520C)
2926:501F  89 46 F9				mov	[bp-7],ax
2926:5022  81 7E F9 FFFF			cmp	word ptr [bp-7],0FFFFh
2926:5027  75 03				jne	loc_334			; Jump if not equal
2926:5029  E9 0078				jmp	loc_341			; (50A4)
2926:502C			loc_334:					;  xref 2926:5027
2926:502C  C7 06 83B3 0000			mov	word ptr ds:data_67e,0	; (2916:83B3=0)
2926:5032  C6 46 F1 00				mov	byte ptr [bp-0Fh],0
2926:5036  C6 46 F2 00				mov	byte ptr [bp-0Eh],0
2926:503A  8B 46 04				mov	ax,[bp+4]
2926:503D  89 46 EB				mov	[bp-15h],ax
2926:5040  C7 46 ED 0000			mov	word ptr [bp-13h],0
2926:5045  C4 7E 06				les	di,dword ptr [bp+6]	; Load seg:offset ptr
2926:5048  06					push	es
2926:5049  57					push	di
2926:504A  16					push	ss
2926:504B  8D 46 C3				lea	ax,[bp-3Dh]		; Load effective addr
2926:504E ú50					push	ax			; PARAMETER_2
2926:504F  B8 0039				mov	ax,39h
2926:5052  50					push	ax			; PARAMETER_1
2926:5053  E8 22C2				call	sub_283			; (7318)
2926:5056  81 7E 04 0000			cmp	word ptr [bp+4],0
2926:505B  75 03				jne	loc_335			; Jump if not equal
2926:505D  E9 0041				jmp	loc_340			; (50A1)
2926:5060			loc_335:					;  xref 2926:505B
2926:5060  82 7E E9 04				cmp	byte ptr [bp-17h],4
2926:5064  74 03				je	loc_336			; Jump if equal
2926:5066  E9 0015				jmp	loc_337			; (507E)
2926:5069			loc_336:					;  xref 2926:5064
2926:5069  C4 7E 06				les	di,dword ptr [bp+6]	; Load seg:offset ptr
2926:506C  83 C7 38				add	di,38h
2926:506F  06					push	es
2926:5070  57					push	di
2926:5071  58					pop	ax
2926:5072  05 0000				add	ax,0
2926:5075  97					xchg	di,ax
2926:5076  07					pop	es
2926:5077  26: C6 05 20				mov	byte ptr es:[di],20h	; ' '
2926:507B  E9 003F				jmp	loc_342			; (50BD)
2926:507E			loc_337:					;  xref 2926:5066
2926:507E  F6 46 F7 01				test	byte ptr [bp-9],1
2926:5082  75 03				jnz	loc_338			; Jump if not zero
2926:5084  E9 0017				jmp	loc_339			; (509E)
2926:5087			loc_338:					;  xref 2926:5082
2926:5087  C4 3E 83AF				les	di,dword ptr ds:data_65e	; (2916:83AF=0) Load seg:offset ptr
2926:508B  06					push	es
2926:508C ú57					push	di
2926:508D  C4 3E 83AF				les	di,dword ptr ds:data_65e	; (2916:83AF=0) Load seg:offset ptr
2926:5091  83 C7 28				add	di,28h
2926:5094  26: 8B 05				mov	ax,es:[di]
2926:5097  50					push	ax
2926:5098  E8 10DD				call	sub_252			; (6178)
2926:509B  E9 0003				jmp	loc_340			; (50A1)
2926:509E			loc_339:					;  xref 2926:5084
2926:509E  E8 0180				call	sub_237			; (5221)
           ICON0.lst       ICON0.OVL		Sourcer	v8.01  20-Jul-2026 12:17 am   Page 167

2926:50A1			loc_340:					;  xref 2926:505D, 509B
2926:50A1  E9 0019				jmp	loc_342			; (50BD)
2926:50A4			loc_341:					;  xref 2926:5029
2926:50A4  C6 46 F1 01				mov	byte ptr [bp-0Fh],1
2926:50A8  C6 46 FA 01				mov	byte ptr [bp-6],1
2926:50AC  C4 7E 06				les	di,dword ptr [bp+6]	; Load seg:offset ptr
2926:50AF  06					push	es
2926:50B0  57					push	di
2926:50B1  16					push	ss
2926:50B2  8D 46 C3				lea	ax,[bp-3Dh]		; Load effective addr
2926:50B5 ú50					push	ax			; PARAMETER_2
2926:50B6  B8 0039				mov	ax,39h
2926:50B9  50					push	ax			; PARAMETER_1
2926:50BA  E8 225B				call	sub_283			; (7318)
2926:50BD			loc_342:					;  xref 2926:507B, 50A1
2926:50BD  8B E5				mov	sp,bp
2926:50BF  5D					pop	bp
2926:50C0  C2 0006				retn	6
				sub_216		endp

2926:50C3  E9 00 00				db	0E9h, 00h, 00h

				;ßßßßßßßßßßßßßßßßßßßßßßßßßßßßßßßßßßßßßßßßßßßßßßßßßßßßßßßßßßßßßßßßßßßßßßßßßß
				;                              SUBROUTINE
				;
				;         Called from:   2926:0BA9, 10A8, 1316, 15E7, 1A7E, 1D0F, 1E2A
				;                             1F1D, 1F2E, 4F19
				;ÜÜÜÜÜÜÜÜÜÜÜÜÜÜÜÜÜÜÜÜÜÜÜÜÜÜÜÜÜÜÜÜÜÜÜÜÜÜÜÜÜÜÜÜÜÜÜÜÜÜÜÜÜÜÜÜÜÜÜÜÜÜÜÜÜÜÜÜÜÜÜÜÜÜ

2926:50C6			sub_220		proc	near
2926:50C6  E9 0003				jmp	loc_343			; (50CC)

				;ßßßß External Entry into Subroutine ßßßßßßßßßßßßßßßßßßßßßßßßßßßßßßßßßßßßßß
				;
				;         Called from:   2926:01F1

2926:50C9			sub_221:
2926:50C9  E9 00DE				jmp	loc_352			; (51AA)
2926:50CC			loc_343:					;  xref 2926:50C6
2926:50CC  55					push	bp
2926:50CD  8B EC				mov	bp,sp
2926:50CF  55					push	bp
2926:50D0  81 EC 0002				sub	sp,2
2926:50D4  C4 7E 0A				les	di,dword ptr [bp+0Ah]	; Load seg:offset ptr
2926:50D7  06					push	es
2926:50D8  57					push	di
2926:50D9  58					pop	ax
2926:50DA  A3 83AF				mov	ds:data_65e,ax		; (2916:83AF=0)
2926:50DD  58					pop	ax
2926:50DE  A3 83B1				mov	word ptr ds:data_65e+2,ax	; (2916:83B1=0)
2926:50E1  C4 7E 0A				les	di,dword ptr [bp+0Ah]	; Load seg:offset ptr
2926:50E4  83 C7 26				add	di,26h
2926:50E7  26: 8A 05				mov	al,es:[di]
2926:50EA  3C 00				cmp	al,0
2926:50EC  75 03				jne	loc_344			; Jump if not equal
2926:50EE  E9 00A1				jmp	loc_350			; (5192)
2926:50F1			loc_344:					;  xref 2926:50EC
           ICON0.lst       ICON0.OVL		Sourcer	v8.01  20-Jul-2026 12:17 am   Page 168

2926:50F1  C4 7E 0A				les	di,dword ptr [bp+0Ah]	; Load seg:offset ptr
2926:50F4  83 C7 26				add	di,26h
2926:50F7  26: 8A 05				mov	al,es:[di]
2926:50FA  3C 01				cmp	al,1
2926:50FC  74 03				je	loc_345			; Jump if equal
2926:50FE  E9 003E				jmp	loc_348			; (513F)
2926:5101			loc_345:					;  xref 2926:50FC
2926:5101  C4 7E 0A				les	di,dword ptr [bp+0Ah]	; Load seg:offset ptr
2926:5104  83 C7 2A				add	di,2Ah
2926:5107  26: 8B 05				mov	ax,es:[di]
2926:510A  3D 0000				cmp	ax,0
2926:510D  75 03				jne	loc_346			; Jump if not equal
2926:510F  E9 0019				jmp	loc_347			; (512B)
2926:5112			loc_346:					;  xref 2926:510D
2926:5112  C4 7E 0A				les	di,dword ptr [bp+0Ah]	; Load seg:offset ptr
2926:5115  83 C7 2C				add	di,2Ch
2926:5118  06					push	es
2926:5119  57					push	di
2926:511A  C4 7E 0A				les	di,dword ptr [bp+0Ah]	; Load seg:offset ptr
2926:511D  83 C7 2A				add	di,2Ah
2926:5120  26: 8B 05				mov	ax,es:[di]
2926:5123  5F					pop	di
2926:5124  07					pop	es
2926:5125  26: 89 05				mov	es:[di],ax
2926:5128  E8 00F9				call	sub_238			; (5224)
2926:512B			loc_347:					;  xref 2926:510F
2926:512B  C4 7E 0A				les	di,dword ptr [bp+0Ah]	; Load seg:offset ptr
2926:512E  83 C7 36				add	di,36h
2926:5131  26: 8B 05				mov	ax,es:[di]
2926:5134  50					push	ax
2926:5135  B8 0000				mov	ax,0
2926:5138  50					push	ax
2926:5139  E8 00D9				call	sub_233			; (5215)
2926:513C  E9 0042				jmp	loc_349			; (5181)
2926:513F			loc_348:					;  xref 2926:50FE
2926:513F  C4 7E 0A				les	di,dword ptr [bp+0Ah]	; Load seg:offset ptr
2926:5142  83 C7 36				add	di,36h
2926:5145  26: 8B 05				mov	ax,es:[di]
2926:5148  50					push	ax
2926:5149  C4 7E 0A				les	di,dword ptr [bp+0Ah]	; Load seg:offset ptr
2926:514C  83 C7 26				add	di,26h
2926:514F  26: 8A 05				mov	al,es:[di]
2926:5152  32 E4				xor	ah,ah			; Zero register
2926:5154  50					push	ax
2926:5155  B8 0002				mov	ax,2
2926:5158  50					push	ax
2926:5159  E8 22B7				call	sub_290			; (7413)
2926:515C  B8 0004				mov	ax,4
2926:515F  50					push	ax
2926:5160  E8 22B0				call	sub_290			; (7413)
2926:5163  E8 2191				call	sub_282			; (72F7)
2926:5166  B8 0005				mov	ax,5
2926:5169  50					push	ax
2926:516A  E8 22A6				call	sub_290			; (7413)
2926:516D  E8 2187				call	sub_282			; (72F7)
2926:5170  B8 0006				mov	ax,6
2926:5173  50					push	ax
           ICON0.lst       ICON0.OVL		Sourcer	v8.01  20-Jul-2026 12:17 am   Page 169

2926:5174  E8 229C				call	sub_290			; (7413)
2926:5177  E8 217D				call	sub_282			; (72F7)
2926:517A  E8 1B9E				call	sub_268			; (6D1B)
2926:517D  50					push	ax
2926:517E  E8 0094				call	sub_233			; (5215)
2926:5181			loc_349:					;  xref 2926:513C
2926:5181  C7 06 83B3 0000			mov	word ptr ds:data_67e,0	; (2916:83B3=0)
2926:5187  C4 7E 04				les	di,dword ptr [bp+4]	; Load seg:offset ptr
2926:518A  26: C7 05 0000			mov	word ptr es:[di],0
2926:518F  E9 0008				jmp	loc_351			; (519A)
2926:5192			loc_350:					;  xref 2926:50EE
2926:5192  C4 7E 04				les	di,dword ptr [bp+4]	; Load seg:offset ptr
2926:5195  26: C7 05 0000			mov	word ptr es:[di],0
2926:519A			loc_351:					;  xref 2926:518F
2926:519A  C4 7E 0A				les	di,dword ptr [bp+0Ah]	; Load seg:offset ptr
2926:519D  83 C7 26				add	di,26h
2926:51A0  26: C6 05 00				mov	byte ptr es:[di],0
2926:51A4  8B E5				mov	sp,bp
2926:51A6  5D					pop	bp
2926:51A7  C2 000A				retn	0Ah
2926:51AA			loc_352:					;  xref 2926:50C9
2926:51AA  55					push	bp
2926:51AB  8B EC				mov	bp,sp
2926:51AD  55					push	bp
2926:51AE  81 EC 0002				sub	sp,2
2926:51B2  C4 7E 0A				les	di,dword ptr [bp+0Ah]	; Load seg:offset ptr
2926:51B5  83 C7 26				add	di,26h
2926:51B8  26: 8A 05				mov	al,es:[di]
2926:51BB  3C 03				cmp	al,3
2926:51BD  7F 03				jg	loc_353			; Jump if >
2926:51BF  E9 0003				jmp	loc_354			; (51C5)
2926:51C2			loc_353:					;  xref 2926:51BD
2926:51C2  E9 0023				jmp	loc_355			; (51E8)
2926:51C5			loc_354:					;  xref 2926:51BF
2926:51C5  C4 7E 0A				les	di,dword ptr [bp+0Ah]	; Load seg:offset ptr
2926:51C8  06					push	es
2926:51C9 ú57					push	di
2926:51CA  FF 76 08				push	word ptr [bp+8]
2926:51CD  E8 118E				call	sub_254			; (635E)
2926:51D0  C7 06 83B3 0000			mov	word ptr ds:data_67e,0	; (2916:83B3=0)
2926:51D6  C4 7E 04				les	di,dword ptr [bp+4]	; Load seg:offset ptr
2926:51D9  26: C7 05 0000			mov	word ptr es:[di],0
2926:51DE  C4 7E 0A				les	di,dword ptr [bp+0Ah]	; Load seg:offset ptr
2926:51E1  83 C7 26				add	di,26h
2926:51E4  26: C6 05 00				mov	byte ptr es:[di],0
2926:51E8			loc_355:					;  xref 2926:51C2
2926:51E8  8B E5				mov	sp,bp
2926:51EA  5D					pop	bp
2926:51EB  C2 000A				retn	0Ah
				sub_220		endp

2926:51EE  E9 00 00				db	0E9h, 00h, 00h

				;ßßßßßßßßßßßßßßßßßßßßßßßßßßßßßßßßßßßßßßßßßßßßßßßßßßßßßßßßßßßßßßßßßßßßßßßßßß
				;                              SUBROUTINE
				;
				;         Called from:   2926:581B, 5941
           ICON0.lst       ICON0.OVL		Sourcer	v8.01  20-Jul-2026 12:17 am   Page 170

				;ÜÜÜÜÜÜÜÜÜÜÜÜÜÜÜÜÜÜÜÜÜÜÜÜÜÜÜÜÜÜÜÜÜÜÜÜÜÜÜÜÜÜÜÜÜÜÜÜÜÜÜÜÜÜÜÜÜÜÜÜÜÜÜÜÜÜÜÜÜÜÜÜÜÜ

2926:51F1			sub_222		proc	near
2926:51F1  E9 0036				jmp	loc_356			; (522A)

				;ßßßß External Entry into Subroutine ßßßßßßßßßßßßßßßßßßßßßßßßßßßßßßßßßßßßßß
				;
				;         Called from:   2926:5887, 58EE, 59AD, 5A30, 5AE6, 5BD9

2926:51F4			sub_223:
2926:51F4  E9 00D3				jmp	loc_364			; (52CA)

				;ßßßß External Entry into Subroutine ßßßßßßßßßßßßßßßßßßßßßßßßßßßßßßßßßßßßßß
				;
				;         Called from:   2926:5BB7, 5CBC

2926:51F7			sub_224:
2926:51F7  E9 00F4				jmp	loc_365			; (52EE)

				;ßßßß External Entry into Subroutine ßßßßßßßßßßßßßßßßßßßßßßßßßßßßßßßßßßßßßß
				;
				;         Called from:   2926:5C36

2926:51FA			sub_225:
2926:51FA  E9 0139				jmp	loc_366			; (5336)

				;ßßßß External Entry into Subroutine ßßßßßßßßßßßßßßßßßßßßßßßßßßßßßßßßßßßßßß
				;
				;         Called from:   2926:5892, 59B8

2926:51FD			sub_226:
2926:51FD  E9 0196				jmp	loc_369			; (5396)

				;ßßßß External Entry into Subroutine ßßßßßßßßßßßßßßßßßßßßßßßßßßßßßßßßßßßßßß
				;
				;         Called from:   2926:586D, 5993

2926:5200			sub_227:
2926:5200  E9 0275				jmp	loc_376			; (5478)

				;ßßßß External Entry into Subroutine ßßßßßßßßßßßßßßßßßßßßßßßßßßßßßßßßßßßßßß
				;
				;         Called from:   2926:563C, 56D4, 577F

2926:5203			sub_228:
2926:5203  E9 0322				jmp	loc_387			; (5528)

				;ßßßß External Entry into Subroutine ßßßßßßßßßßßßßßßßßßßßßßßßßßßßßßßßßßßßßß
				;
				;         Called from:   2926:5865, 598B

2926:5206			sub_229:
2926:5206  E9 036F				jmp	loc_392			; (5578)
2926:5209  E9 05EB				jmp	loc_416			; (57F7)

				;ßßßß External Entry into Subroutine ßßßßßßßßßßßßßßßßßßßßßßßßßßßßßßßßßßßßßß
				;
           ICON0.lst       ICON0.OVL				Sourcer	v8.01  20-Jul-2026 12:17 am   Page 171

				;         Called from:   2926:501C, 5A89

2926:520C			sub_230:
2926:520C  E9 0604				jmp	loc_417			; (5813)

				;ßßßß External Entry into Subroutine ßßßßßßßßßßßßßßßßßßßßßßßßßßßßßßßßßßßßßß
				;
				;         Called from:   2926:6589

2926:520F			sub_231:
2926:520F  E9 0727				jmp	loc_428			; (5939)

				;ßßßß External Entry into Subroutine ßßßßßßßßßßßßßßßßßßßßßßßßßßßßßßßßßßßßßß
				;
				;         Called from:   2926:636E

2926:5212			sub_232:
2926:5212  E9 084A				jmp	loc_438			; (5A5F)

				;ßßßß External Entry into Subroutine ßßßßßßßßßßßßßßßßßßßßßßßßßßßßßßßßßßßßßß
				;
				;         Called from:   2926:5139, 517E

2926:5215			sub_233:
2926:5215  E9 08DA				jmp	loc_445			; (5AF2)

				;ßßßß External Entry into Subroutine ßßßßßßßßßßßßßßßßßßßßßßßßßßßßßßßßßßßßßß
				;
				;         Called from:   2926:01F9, 0204, 0260, 02E5, 030A, 0785, 079B
				;                             08C4, 091C, 0932, 0948, 095E, 0974, 098A
				;                             09A0, 09B6, 09CC, 0A00, 0A90, 0C6A, 0CA3
				;                             0CDC, 0D15, 0D94, 0DB6, 0E17, 0E4D, 0E75
				;                             0E96, 0EF3, 10DA, 2C88, 2CC1, 2CCC, 2D0E
				;                             2D4E, 2D8E, 2DCA, 2E06, 2E44, 2E84, 2EC1
				;                             2F01, 2F0C, 2F4C, 2F8D, 2FC8, 3002, 303E
				;                             3075, 30AC, 30B7, 30F3, 3135, 3175, 31B5
				;                             31F6, 3236, 3275, 32B5, 32F5, 3335, 3375
				;                             33B7, 33F9, 343A, 347A, 34BC, 34FE, 353F
				;                             357E, 35BD, 35FD, 3647, 3681, 368C, 36CC
				;                             3709, 3747, 3788, 37C5, 3804, 3845, 3886
				;                             38C8, 3905, 3944, 3984, 39C3, 39FE, 3A3E
				;                             3A80, 3AC1, 3B03, 3B3F, 3B70, 3B7B, 3BBC
				;                             3BF9, 3C38, 3C79, 3CBB, 3CFD, 3D3D, 3D7F
				;                             3DC0, 3E01, 3E43, 3E85, 3EC1, 3F03, 3F44
				;                             3F85, 3FC6, 4006, 4046, 4079, 40AD, 40B8
				;                             40F5, 4131, 4172, 41B2, 41F4, 422F, 426D
				;                             42AD, 42EA, 432A, 4367, 43A2, 43D7, 43E2
				;                             4424, 4462, 44A4, 44E4, 4526, 4568, 45A8
				;                             45EA, 462A, 4663, 46A1, 46E2, 4722, 4760
				;                             47A1, 47E1, 481E, 485C, 4893, 489E, 48DA
				;                             491C, 495C, 499D, 49D8, 4A18, 4A54, 4A91
				;                             4ACF, 4B0F, 4B4F, 4B8F, 4BCD, 4F3C, 4F47
				;                             4F98, 5296, 699F, 69AA

2926:5218			sub_234:
2926:5218  E9 09C7				jmp	loc_453			; (5BE2)

           ICON0.lst       ICON0.OVL		Sourcer	v8.01  20-Jul-2026 12:17 am   Page 172

				;ßßßß External Entry into Subroutine ßßßßßßßßßßßßßßßßßßßßßßßßßßßßßßßßßßßßßß
				;
				;         Called from:   2926:5EB6

2926:521B			sub_235:
2926:521B  E9 09E0				jmp	loc_454			; (5BFE)

				;ßßßß External Entry into Subroutine ßßßßßßßßßßßßßßßßßßßßßßßßßßßßßßßßßßßßßß
				;
				;         Called from:   2926:6023

2926:521E			sub_236:
2926:521E  E9 0A68				jmp	loc_457			; (5C89)

				;ßßßß External Entry into Subroutine ßßßßßßßßßßßßßßßßßßßßßßßßßßßßßßßßßßßßßß
				;
				;         Called from:   2926:509E, 61B6, 625F, 62DE

2926:5221			sub_237:
2926:5221  E9 0ADF				jmp	loc_460			; (5D03)

				;ßßßß External Entry into Subroutine ßßßßßßßßßßßßßßßßßßßßßßßßßßßßßßßßßßßßßß
				;
				;         Called from:   2926:5128, 7128

2926:5224			sub_238:
2926:5224  E9 0CC5				jmp	loc_481			; (5EEC)

				;ßßßß External Entry into Subroutine ßßßßßßßßßßßßßßßßßßßßßßßßßßßßßßßßßßßßßß
				;
				;         Called from:   2926:1F3A

2926:5227			sub_239:
2926:5227  E9 0E0E				jmp	loc_494			; (6038)
2926:522A			loc_356:					;  xref 2926:51F1
2926:522A  55					push	bp
2926:522B  8B EC				mov	bp,sp
2926:522D  55					push	bp
2926:522E  81 EC 000E				sub	sp,0Eh
2926:5232  C7 46 F2 0000			mov	word ptr [bp-0Eh],0
2926:5237			loc_357:					;  xref 2926:528A
2926:5237 ú81 7E F2 000A			cmp	word ptr [bp-0Eh],0Ah
2926:523C  7E 03				jle	loc_358			; Jump if < or =
2926:523E  E9 004B				jmp	loc_362			; (528C)
2926:5241			loc_358:					;  xref 2926:523C
2926:5241  1E					push	ds
2926:5242  B8 83B5				mov	ax,83B5h
2926:5245  50					push	ax
2926:5246  8B 46 F2				mov	ax,[bp-0Eh]
2926:5249  BB 00A9				mov	bx,0A9h
2926:524C  F7 E3				mul	bx			; dx:ax = reg * ax
2926:524E  5B					pop	bx
2926:524F  03 C3				add	ax,bx
2926:5251  97					xchg	di,ax
2926:5252  07					pop	es
2926:5253  26: 8A 05				mov	al,es:[di]
2926:5256  32 E4				xor	ah,ah			; Zero register
           ICON0.lst       ICON0.OVL		Sourcer	v8.01  20-Jul-2026 12:17 am   Page 173

2926:5258  F7 D0				not	ax
2926:525A  D0 D8				rcr	al,1			; Rotate thru carry
2926:525C  72 03				jc	loc_359			; Jump if carry Set
2926:525E  E9 0022				jmp	loc_360			; (5283)
2926:5261			loc_359:					;  xref 2926:525C
2926:5261  8B 46 F2				mov	ax,[bp-0Eh]
2926:5264  89 46 F4				mov	[bp-0Ch],ax
2926:5267  1E					push	ds
2926:5268  B8 83B5				mov	ax,83B5h
2926:526B  50					push	ax
2926:526C  8B 46 F2				mov	ax,[bp-0Eh]
2926:526F  BB 00A9				mov	bx,0A9h
2926:5272  F7 E3				mul	bx			; dx:ax = reg * ax
2926:5274  5B					pop	bx
2926:5275  03 C3				add	ax,bx
2926:5277  97					xchg	di,ax
2926:5278  07					pop	es
2926:5279  26: C6 05 01				mov	byte ptr es:[di],1
2926:527D  E9 0043				jmp	loc_363			; (52C3)
2926:5280  E9 0007				jmp	loc_361			; (528A)
2926:5283			loc_360:					;  xref 2926:525E
2926:5283  8B 46 F2				mov	ax,[bp-0Eh]
2926:5286  40					inc	ax
2926:5287  89 46 F2				mov	[bp-0Eh],ax
2926:528A			loc_361:					;  xref 2926:5280
2926:528A  EB AB				jmp	short loc_357		; (5237)
2926:528C			loc_362:					;  xref 2926:523E
2926:528C  C7 46 F2 FFFF			mov	word ptr [bp-0Eh],0FFFFh
2926:5291  1E					push	ds
2926:5292  B8 82FD				mov	ax,82FDh
2926:5295  50					push	ax
2926:5296  E8 FF7F				call	sub_234			; (5218)
2926:5299  0E E8 0015				callf	sub_240			; (52B2)
2926:529D  14 46				adc	al,46h			; 'F'
2926:529F  43					inc	bx
2926:52A0  42					inc	dx
2926:52A1  20 54 61				and	[si+61h],dl
2926:52A4  62 6C 65 20 45 78			db	'ble Exhausted!'
2926:52AA  68 61 75 73 74 65
2926:52B0  64 21

				;ßßßß External Entry into Subroutine ßßßßßßßßßßßßßßßßßßßßßßßßßßßßßßßßßßßßßß
				;
				;         Called from:   2926:5299

2926:52B2			sub_240:
2926:52B2  B8 FFFF				mov	ax,0FFFFh
2926:52B5  50					push	ax
2926:52B6  B8 FFFF				mov	ax,0FFFFh
2926:52B9  50					push	ax
2926:52BA  E8 1D00				call	sub_272			; (6FBD)
2926:52BD  E8 0DA4				call	sub_248			; (6064)
2926:52C0  E8 21B9				call	sub_292			; (747C)
2926:52C3			loc_363:					;  xref 2926:527D
2926:52C3  8B 46 F4				mov	ax,[bp-0Ch]
2926:52C6  8B E5				mov	sp,bp
2926:52C8  5D					pop	bp
           ICON0.lst       ICON0.OVL		Sourcer	v8.01  20-Jul-2026 12:17 am   Page 174

2926:52C9  C3					retn
2926:52CA			loc_364:					;  xref 2926:51F4
2926:52CA  55					push	bp
2926:52CB  8B EC				mov	bp,sp
2926:52CD  55					push	bp
2926:52CE  81 EC 0002				sub	sp,2
2926:52D2  1E					push	ds
2926:52D3  B8 83B5				mov	ax,83B5h
2926:52D6  50					push	ax
2926:52D7  8B 46 04				mov	ax,[bp+4]
2926:52DA  BB 00A9				mov	bx,0A9h
2926:52DD  F7 E3				mul	bx			; dx:ax = reg * ax
2926:52DF  5B					pop	bx
2926:52E0  03 C3				add	ax,bx
2926:52E2  97					xchg	di,ax
2926:52E3  07					pop	es
2926:52E4  26: C6 05 00				mov	byte ptr es:[di],0
2926:52E8  8B E5				mov	sp,bp
2926:52EA  5D					pop	bp
2926:52EB  C2 0002				retn	2
2926:52EE			loc_365:					;  xref 2926:51F7
2926:52EE  55					push	bp
2926:52EF  8B EC				mov	bp,sp
2926:52F1  55					push	bp
2926:52F2  81 EC 0002				sub	sp,2
2926:52F6  B8 001A				mov	ax,1Ah
2926:52F9  50					push	ax
2926:52FA  1E					push	ds
2926:52FB  B8 83B5				mov	ax,83B5h
2926:52FE  50					push	ax
2926:52FF  8B 46 04				mov	ax,[bp+4]
2926:5302  BB 00A9				mov	bx,0A9h
2926:5305  F7 E3				mul	bx			; dx:ax = reg * ax
2926:5307  5B					pop	bx
2926:5308  03 C3				add	ax,bx
2926:530A  05 0028				add	ax,28h
2926:530D  50					push	ax
2926:530E  E8 2398				call	sub_303			; (76A9)
2926:5311  A3 83B3				mov	ds:data_344e,ax		; (2926:83B3=0)
2926:5314  B8 0015				mov	ax,15h
2926:5317  50					push	ax
2926:5318  1E					push	ds
2926:5319  B8 83B5				mov	ax,83B5h
2926:531C  50					push	ax
2926:531D  8B 46 04				mov	ax,[bp+4]
2926:5320  BB 00A9				mov	bx,0A9h
2926:5323  F7 E3				mul	bx			; dx:ax = reg * ax
2926:5325  5B					pop	bx
2926:5326  03 C3				add	ax,bx
2926:5328  40					inc	ax
2926:5329  50					push	ax
2926:532A  E8 237C				call	sub_303			; (76A9)
2926:532D  A3 83B3				mov	ds:data_344e,ax		; (2926:83B3=0)
2926:5330  8B E5				mov	sp,bp
2926:5332  5D					pop	bp
2926:5333  C2 0002				retn	2
2926:5336			loc_366:					;  xref 2926:51FA
           ICON0.lst       ICON0.OVL		Sourcer	v8.01  20-Jul-2026 12:17 am   Page 175

2926:5336  55					push	bp
2926:5337  8B EC				mov	bp,sp
2926:5339  55					push	bp
2926:533A  81 EC 000C				sub	sp,0Ch
2926:533E  C6 46 F4 01				mov	byte ptr [bp-0Ch],1
2926:5342  B8 001A				mov	ax,1Ah
2926:5345  50					push	ax
2926:5346  1E					push	ds
2926:5347  B8 83B5				mov	ax,83B5h
2926:534A  50					push	ax
2926:534B  8B 46 04				mov	ax,[bp+4]
2926:534E  BB 00A9				mov	bx,0A9h
2926:5351  F7 E3				mul	bx			; dx:ax = reg * ax
2926:5353  5B					pop	bx
2926:5354  03 C3				add	ax,bx
2926:5356  05 0028				add	ax,28h
2926:5359  50					push	ax
2926:535A  E8 234C				call	sub_303			; (76A9)
2926:535D  A3 83B3				mov	ds:data_344e,ax		; (2926:83B3=0)
2926:5360  B8 0014				mov	ax,14h
2926:5363  50					push	ax
2926:5364  1E					push	ds
2926:5365  B8 83B5				mov	ax,83B5h
2926:5368  50					push	ax
2926:5369  8B 46 04				mov	ax,[bp+4]
2926:536C  BB 00A9				mov	bx,0A9h
2926:536F  F7 E3				mul	bx			; dx:ax = reg * ax
2926:5371  5B					pop	bx
2926:5372  03 C3				add	ax,bx
2926:5374  40					inc	ax
2926:5375  50					push	ax
2926:5376  E8 2330				call	sub_303			; (76A9)
2926:5379  A3 83B3				mov	ds:data_344e,ax		; (2926:83B3=0)
2926:537C  81 3E 83B3 0000			cmp	word ptr ds:data_344e,0	; (2926:83B3=0)
2926:5382  75 03				jne	loc_367			; Jump if not equal
2926:5384  E9 0004				jmp	loc_368			; (538B)
2926:5387			loc_367:					;  xref 2926:5382
2926:5387  C6 46 F4 00				mov	byte ptr [bp-0Ch],0
2926:538B			loc_368:					;  xref 2926:5384
2926:538B  8A 46 F4				mov	al,[bp-0Ch]
2926:538E  32 E4				xor	ah,ah			; Zero register
2926:5390  8B E5				mov	sp,bp
2926:5392  5D					pop	bp
2926:5393  C2 0002				retn	2
2926:5396			loc_369:					;  xref 2926:51FD
2926:5396  55					push	bp
2926:5397  8B EC				mov	bp,sp
2926:5399  55					push	bp
2926:539A  81 EC 000C				sub	sp,0Ch
2926:539E  C6 46 F4 00				mov	byte ptr [bp-0Ch],0
2926:53A2  C4 7E 04				les	di,dword ptr [bp+4]	; Load seg:offset ptr
2926:53A5  06					push	es
2926:53A6  57					push	di
2926:53A7  0E E8 0005		;*		callf	sub_241			;*(53B0)
2926:53A7  0E E8 05 00				db	 0Eh,0E8h, 05h, 00h
2926:53AB  04 43				add	al,43h			; 'C'
2926:53AD  4F					dec	di
           ICON0.lst       ICON0.OVL		Sourcer	v8.01  20-Jul-2026 12:17 am   Page 176

2926:53AE  4E					dec	si
2926:53AF  3A E8				cmp	ch,al
2926:53B1  C1 19 D0 D8 72 03			db	0C1h, 19h,0D0h,0D8h, 72h, 03h
2926:53B7  E9 11 00 C4 7E 04			db	0E9h, 11h, 00h,0C4h, 7Eh, 04h
2926:53BD  83 C7 26 26 C6 05			db	 83h,0C7h, 26h, 26h,0C6h, 05h
2926:53C3  04 C6 46 F4 01 E9			db	 04h,0C6h, 46h,0F4h, 01h,0E9h
2926:53C9  A2 00 C4 7E 04 06			db	0A2h, 00h,0C4h, 7Eh, 04h, 06h
2926:53CF  57 0E E8 05 00 04			db	 57h, 0Eh,0E8h, 05h, 00h, 04h
2926:53D5  4C 53 54 3A				db	 4Ch, 53h, 54h, 3Ah

				;ßßßß External Entry into Subroutine ßßßßßßßßßßßßßßßßßßßßßßßßßßßßßßßßßßßßßß

2926:53D9			sub_242:
2926:53D9  E8 1998				call	sub_271			; (6D74)
2926:53DC  D0 D8				rcr	al,1			; Rotate thru carry
2926:53DE  72 03				jc	loc_370			; Jump if carry Set
2926:53E0  E9 0011				jmp	loc_371			; (53F4)
2926:53E3			loc_370:					;  xref 2926:53DE
2926:53E3  C4 7E 04				les	di,dword ptr [bp+4]	; Load seg:offset ptr
2926:53E6  83 C7 26				add	di,26h
2926:53E9  26: C6 05 06				mov	byte ptr es:[di],6
2926:53ED  C6 46 F4 01				mov	byte ptr [bp-0Ch],1
2926:53F1  E9 0079				jmp	loc_375			; (546D)
2926:53F4			loc_371:					;  xref 2926:53E0
2926:53F4  C4 7E 04				les	di,dword ptr [bp+4]	; Load seg:offset ptr
2926:53F7  06					push	es
2926:53F8  57					push	di
2926:53F9  0E E8 0005		;*		callf	sub_243			;*(5402)
2926:53F9  0E E8 05 00				db	 0Eh,0E8h, 05h, 00h
2926:53FD  04 4B				add	al,4Bh			; 'K'
2926:53FF  42					inc	dx
2926:5400  44					inc	sp
2926:5401  3A E8				cmp	ch,al
2926:5403  6F 19 50 C4 7E 04			db	 6Fh, 19h, 50h,0C4h, 7Eh, 04h
2926:5409  06 57 0E E8 05 00			db	 06h, 57h, 0Eh,0E8h, 05h, 00h
2926:540F  04 54 52 4D 3A E8			db	 04h, 54h, 52h, 4Dh, 3Ah,0E8h
2926:5415  5D 19 5B 0B C3 D0			db	 5Dh, 19h, 5Bh, 0Bh,0C3h,0D0h
2926:541B  D8 72 03 E9 11 00			db	0D8h, 72h, 03h,0E9h, 11h, 00h
2926:5421			loc_372:
2926:5421  C4 7E 04				les	di,dword ptr [bp+4]	; Load seg:offset ptr
2926:5424  83 C7 26				add	di,26h
2926:5427  26: C6 05 05				mov	byte ptr es:[di],5
2926:542B  C6 46 F4 01				mov	byte ptr [bp-0Ch],1
2926:542F  E9 003B				jmp	loc_375			; (546D)
2926:5432			loc_373:
2926:5432  C4 7E 04				les	di,dword ptr [bp+4]	; Load seg:offset ptr
2926:5435  06					push	es
2926:5436  57					push	di
2926:5437  0E E8 0005		;*		callf	sub_244			;*(5440)
2926:5437  0E E8 05 00				db	 0Eh,0E8h, 05h, 00h
2926:543B  04 52				add	al,52h			; 'R'
2926:543D  44					inc	sp
2926:543E  52					push	dx
2926:543F  3A E8				cmp	ch,al
2926:5441  31 19				xor	[bx+di],bx
2926:5443  50					push	ax
2926:5444  C4 7E 04				les	di,dword ptr [bp+4]	; Load seg:offset ptr
           ICON0.lst       ICON0.OVL		Sourcer	v8.01  20-Jul-2026 12:17 am   Page 177

2926:5447  06					push	es
2926:5448  57					push	di
2926:5449  0E E8 0005		;*		callf	sub_245			;*(5452)
2926:5449  0E E8 05 00				db	 0Eh,0E8h, 05h, 00h
2926:544D  04 50				add	al,50h			; 'P'
2926:544F  55					push	bp
2926:5450  4E					dec	si
2926:5451  3A E8				cmp	ch,al
2926:5453  1F					pop	ds
2926:5454  19 5B 0B				sbb	[bp+di+0Bh],bx
2926:5457  C3					retn
							                        ;* No entry point to code
2926:5458  D0 D8				rcr	al,1			; Rotate thru carry
2926:545A  72 03				jc	loc_374			; Jump if carry Set
2926:545C  E9 000E				jmp	loc_375			; (546D)
2926:545F			loc_374:					;  xref 2926:545A
2926:545F  C4 7E 04				les	di,dword ptr [bp+4]	; Load seg:offset ptr
2926:5462  83 C7 26				add	di,26h
2926:5465  26: C6 05 07				mov	byte ptr es:[di],7
2926:5469  C6 46 F4 01				mov	byte ptr [bp-0Ch],1
2926:546D			loc_375:					;  xref 2926:53F1, 542F, 545C
2926:546D  8A 46 F4				mov	al,[bp-0Ch]
2926:5470  32 E4				xor	ah,ah			; Zero register
2926:5472  8B E5				mov	sp,bp
2926:5474  5D					pop	bp
2926:5475  C2 0004				retn	4
2926:5478			loc_376:					;  xref 2926:5200
2926:5478  55					push	bp
2926:5479  8B EC				mov	bp,sp
2926:547B  55					push	bp
2926:547C  81 EC 0030				sub	sp,30h
2926:5480  C6 46 F4 00				mov	byte ptr [bp-0Ch],0
2926:5484  16					push	ss
2926:5485  8D 46 D2				lea	ax,[bp-2Eh]		; Load effective addr
2926:5488  50					push	ax
2926:5489  B8 0020				mov	ax,20h
2926:548C ú50					push	ax
2926:548D  B8 007E				mov	ax,7Eh
2926:5490  50					push	ax
2926:5491  E8 1EF5				call	sub_285			; (7389)
2926:5494  E8 1F46				call	sub_288			; (73DD)
2926:5497  C4 7E 04				les	di,dword ptr [bp+4]	; Load seg:offset ptr
2926:549A  26: 8A 05				mov	al,es:[di]
2926:549D  32 E4				xor	ah,ah			; Zero register
2926:549F  3D 000E				cmp	ax,0Eh
2926:54A2  B8 0000				mov	ax,0
2926:54A5  7E 01				jle	loc_377			; Jump if < or =
2926:54A7  40					inc	ax
2926:54A8			loc_377:					;  xref 2926:54A5
2926:54A8  50					push	ax
2926:54A9  C4 7E 04				les	di,dword ptr [bp+4]	; Load seg:offset ptr
2926:54AC  26: 8A 05				mov	al,es:[di]
2926:54AF  32 E4				xor	ah,ah			; Zero register
2926:54B1  3D 0001				cmp	ax,1
2926:54B4  B8 0000				mov	ax,0
2926:54B7  7D 01				jge	loc_378			; Jump if > or =
2926:54B9  40					inc	ax
           ICON0.lst       ICON0.OVL		Sourcer	v8.01  20-Jul-2026 12:17 am   Page 178

2926:54BA			loc_378:					;  xref 2926:54B7
2926:54BA  5B					pop	bx
2926:54BB  0B C3				or	ax,bx
2926:54BD  D0 D8				rcr	al,1			; Rotate thru carry
2926:54BF  72 03				jc	loc_379			; Jump if carry Set
2926:54C1  E9 0003				jmp	loc_380			; (54C7)
2926:54C4			loc_379:					;  xref 2926:54BF
2926:54C4  E9 0056				jmp	loc_386			; (551D)
2926:54C7			loc_380:					;  xref 2926:54C1
2926:54C7  B8 0001				mov	ax,1
2926:54CA  50					push	ax
2926:54CB  C4 7E 04				les	di,dword ptr [bp+4]	; Load seg:offset ptr
2926:54CE  26: 8A 05				mov	al,es:[di]
2926:54D1  32 E4				xor	ah,ah			; Zero register
2926:54D3  5B					pop	bx
2926:54D4  93					xchg	bx,ax
2926:54D5  89 46 F2				mov	[bp-0Eh],ax
2926:54D8  93					xchg	bx,ax
2926:54D9  FF 4E F2				dec	word ptr [bp-0Eh]
2926:54DC  2B C3				sub	ax,bx
2926:54DE  40					inc	ax
2926:54DF  89 46 D0				mov	[bp-30h],ax
2926:54E2			loc_381:					;  xref 2926:5517
2926:54E2 úFF 46 F2				inc	word ptr [bp-0Eh]
2926:54E5  FF 4E D0				dec	word ptr [bp-30h]
2926:54E8  7D 03				jge	loc_382			; Jump if > or =
2926:54EA  E9 002C				jmp	loc_385			; (5519)
2926:54ED			loc_382:					;  xref 2926:54E8
2926:54ED  C4 7E 04				les	di,dword ptr [bp+4]	; Load seg:offset ptr
2926:54F0  06					push	es
2926:54F1  57					push	di
2926:54F2  8B 46 F2				mov	ax,[bp-0Eh]
2926:54F5  5B					pop	bx
2926:54F6  03 C3				add	ax,bx
2926:54F8  97					xchg	di,ax
2926:54F9  07					pop	es
2926:54FA  26: 8A 05				mov	al,es:[di]
2926:54FD  32 E4				xor	ah,ah			; Zero register
2926:54FF  50					push	ax
2926:5500  16					push	ss
2926:5501  8D 46 D2				lea	ax,[bp-2Eh]		; Load effective addr
2926:5504  50					push	ax
2926:5505  E8 1EF3				call	sub_289			; (73FB)
2926:5508  E8 1810				call	sub_268			; (6D1B)
2926:550B  F7 D0				not	ax
2926:550D  D0 D8				rcr	al,1			; Rotate thru carry
2926:550F  72 03				jc	loc_383			; Jump if carry Set
2926:5511  E9 0003				jmp	loc_384			; (5517)
2926:5514			loc_383:					;  xref 2926:550F
2926:5514  E9 0006				jmp	loc_386			; (551D)
2926:5517			loc_384:					;  xref 2926:5511
2926:5517  EB C9				jmp	short loc_381		; (54E2)
2926:5519			loc_385:					;  xref 2926:54EA
2926:5519  C6 46 F4 01				mov	byte ptr [bp-0Ch],1
2926:551D			loc_386:					;  xref 2926:54C4, 5514
2926:551D  8A 46 F4				mov	al,[bp-0Ch]
2926:5520  32 E4				xor	ah,ah			; Zero register
           ICON0.lst       ICON0.OVL		Sourcer	v8.01  20-Jul-2026 12:17 am   Page 179

2926:5522  8B E5				mov	sp,bp
2926:5524  5D					pop	bp
2926:5525  C2 0004				retn	4
				sub_222		endp

2926:5528			loc_387:					;  xref 2926:5203
2926:5528  55					push	bp
2926:5529  8B EC				mov	bp,sp
2926:552B  55					push	bp
2926:552C  81 EC 000C				sub	sp,0Ch
2926:5530  8A 46 04				mov	al,[bp+4]
2926:5533  32 E4				xor	ah,ah			; Zero register
2926:5535  81 F8 0061				cmp	ax,61h
						nop	                        ;*ASM fixup - short reg form
2926:5539  B8 0000				mov	ax,0
2926:553C  7C 01				jl	loc_388			; Jump if <
2926:553E  40					inc	ax
2926:553F			loc_388:					;  xref 2926:553C
2926:553F  50					push	ax
2926:5540  8A 46 04				mov	al,[bp+4]
2926:5543  32 E4				xor	ah,ah			; Zero register
2926:5545  81 F8 007A				cmp	ax,7Ah
						nop	                        ;*ASM fixup - short reg form
2926:5549  B8 0000				mov	ax,0
2926:554C  7F 01				jg	loc_389			; Jump if >
2926:554E  40					inc	ax
2926:554F			loc_389:					;  xref 2926:554C
2926:554F  5B					pop	bx
2926:5550  23 C3				and	ax,bx
2926:5552  D0 D8				rcr	al,1			; Rotate thru carry
2926:5554  72 03				jc	loc_390			; Jump if carry Set
2926:5556  E9 000E				jmp	loc_391			; (5567)
2926:5559			loc_390:					;  xref 2926:5554
2926:5559  8A 46 04				mov	al,[bp+4]
2926:555C  32 E4				xor	ah,ah			; Zero register
2926:555E  93					xchg	bx,ax
2926:555F  B8 00DF				mov	ax,0DFh
2926:5562  23 C3				and	ax,bx
2926:5564  88 46 04				mov	[bp+4],al
2926:5567			loc_391:					;  xref 2926:5556
2926:5567  8A 46 04				mov	al,[bp+4]
2926:556A  88 46 F4				mov	[bp-0Ch],al
2926:556D  8A 46 F4				mov	al,[bp-0Ch]
2926:5570  32 E4				xor	ah,ah			; Zero register
2926:5572  8B E5				mov	sp,bp
2926:5574  5D					pop	bp
2926:5575  C2 0002				retn	2
2926:5578			loc_392:					;  xref 2926:5206
2926:5578  55					push	bp
2926:5579  8B EC				mov	bp,sp
2926:557B  55					push	bp
2926:557C  81 EC 0014				sub	sp,14h
2926:5580			loc_393:					;  xref 2926:55C5
2926:5580 úC4 7E 04				les	di,dword ptr [bp+4]	; Load seg:offset ptr
2926:5583  26: 8A 05				mov	al,es:[di]
2926:5586  32 E4				xor	ah,ah			; Zero register
2926:5588  3D 0000				cmp	ax,0
           ICON0.lst       ICON0.OVL		Sourcer	v8.01  20-Jul-2026 12:17 am   Page 180

2926:558B  B8 0000				mov	ax,0
2926:558E  74 01				jz	loc_394			; Jump if zero
2926:5590  40					inc	ax
2926:5591			loc_394:					;  xref 2926:558E
2926:5591  50					push	ax
2926:5592  C4 7E 04				les	di,dword ptr [bp+4]	; Load seg:offset ptr
2926:5595  06					push	es
2926:5596  57					push	di
2926:5597  58					pop	ax
2926:5598  05 0001				add	ax,1
2926:559B  97					xchg	di,ax
2926:559C  07					pop	es
2926:559D  26: 8A 05				mov	al,es:[di]
2926:55A0  32 E4				xor	ah,ah			; Zero register
2926:55A2  3D 0020				cmp	ax,20h
2926:55A5  B8 0000				mov	ax,0
2926:55A8  75 01				jnz	loc_395			; Jump if not zero
2926:55AA  40					inc	ax
2926:55AB			loc_395:					;  xref 2926:55A8
2926:55AB  5B					pop	bx
2926:55AC  23 C3				and	ax,bx
2926:55AE  D0 D8				rcr	al,1			; Rotate thru carry
2926:55B0  72 03				jc	loc_396			; Jump if carry Set
2926:55B2  E9 0012				jmp	loc_397			; (55C7)
2926:55B5			loc_396:					;  xref 2926:55B0
2926:55B5  C4 7E 04				les	di,dword ptr [bp+4]	; Load seg:offset ptr
2926:55B8  06					push	es
2926:55B9 ú57					push	di
2926:55BA  B8 0001				mov	ax,1
2926:55BD  50					push	ax
2926:55BE  B8 0001				mov	ax,1
2926:55C1  50					push	ax
2926:55C2  E8 0B10				call	sub_250			; (60D5)
2926:55C5  EB B9				jmp	short loc_393		; (5580)
2926:55C7			loc_397:					;  xref 2926:55B2
2926:55C7  C4 7E 04				les	di,dword ptr [bp+4]	; Load seg:offset ptr
2926:55CA  26: 8A 05				mov	al,es:[di]
2926:55CD  32 E4				xor	ah,ah			; Zero register
2926:55CF  3D 0000				cmp	ax,0
2926:55D2  75 03				jne	loc_398			; Jump if not equal
2926:55D4  E9 021A				jmp	loc_415			; (57F1)
2926:55D7			loc_398:					;  xref 2926:55D2
2926:55D7  C6 46 FD 40				mov	byte ptr [bp-3],40h	; '@'
2926:55DB  16					push	ss
2926:55DC  8D 46 F5				lea	ax,[bp-0Bh]		; Load effective addr
2926:55DF  50					push	ax
2926:55E0  0E E8 0009				callf	sub_246			; (55ED)
2926:55E4  08 20				or	[bx+si],ah
2926:55E6  20 20 20 20 20 20			db	 20h, 20h, 20h, 20h, 20h, 20h
2926:55EC  20					db	 20h

				;ßßßßßßßßßßßßßßßßßßßßßßßßßßßßßßßßßßßßßßßßßßßßßßßßßßßßßßßßßßßßßßßßßßßßßßßßßß
				;                              SUBROUTINE
				;
				;         Called from:   2926:55E0
				;ÜÜÜÜÜÜÜÜÜÜÜÜÜÜÜÜÜÜÜÜÜÜÜÜÜÜÜÜÜÜÜÜÜÜÜÜÜÜÜÜÜÜÜÜÜÜÜÜÜÜÜÜÜÜÜÜÜÜÜÜÜÜÜÜÜÜÜÜÜÜÜÜÜÜ

           ICON0.lst       ICON0.OVL		Sourcer	v8.01  20-Jul-2026 12:17 am   Page 181

2926:55ED			sub_246		proc	near
2926:55ED  58					pop	ax
2926:55EE  40					inc	ax
2926:55EF ú50					push	ax			; PARAMETER_2
2926:55F0  B8 0008				mov	ax,8
2926:55F3  50					push	ax			; PARAMETER_1
2926:55F4  E8 1D21				call	sub_283			; (7318)
2926:55F7  16					push	ss
2926:55F8  8D 46 F2				lea	ax,[bp-0Eh]		; Load effective addr
2926:55FB  50					push	ax
2926:55FC  0E E8 0004				callf	sub_247			; (5604)
2926:5600  03 20				add	sp,[bx+si]
2926:5602  20 20				and	[bx+si],ah

				;ßßßß External Entry into Subroutine ßßßßßßßßßßßßßßßßßßßßßßßßßßßßßßßßßßßßßß
				;
				;         Called from:   2926:55FC

2926:5604			sub_247:
2926:5604  58					pop	ax
2926:5605  40					inc	ax
2926:5606 ú50					push	ax			; PARAMETER_2
2926:5607  B8 0003				mov	ax,3
2926:560A  50					push	ax			; PARAMETER_1
2926:560B  E8 1D0A				call	sub_283			; (7318)
2926:560E  C4 7E 04				les	di,dword ptr [bp+4]	; Load seg:offset ptr
2926:5611  06					push	es
2926:5612  57					push	di
2926:5613  58					pop	ax
2926:5614  05 0002				add	ax,2
2926:5617  97					xchg	di,ax
2926:5618  07					pop	es
2926:5619  26: 8A 05				mov	al,es:[di]
2926:561C  32 E4				xor	ah,ah			; Zero register
2926:561E  3D 003A				cmp	ax,3Ah
2926:5621  74 03				je	loc_399			; Jump if equal
2926:5623  E9 001F				jmp	loc_400			; (5645)
2926:5626			loc_399:					;  xref 2926:5621
2926:5626  C7 46 EC 0003			mov	word ptr [bp-14h],3
2926:562B  C4 7E 04				les	di,dword ptr [bp+4]	; Load seg:offset ptr
2926:562E  06					push	es
2926:562F  57					push	di
2926:5630  58					pop	ax
2926:5631  05 0001				add	ax,1
2926:5634  97					xchg	di,ax
2926:5635  07					pop	es
2926:5636  26: 8A 05				mov	al,es:[di]
2926:5639  32 E4				xor	ah,ah			; Zero register
2926:563B  50					push	ax
2926:563C  E8 FBC4				call	sub_228			; (5203)
2926:563F  88 46 FD				mov	[bp-3],al
2926:5642  E9 0005				jmp	loc_401			; (564A)
2926:5645			loc_400:					;  xref 2926:5623
2926:5645  C7 46 EC 0001			mov	word ptr [bp-14h],1
2926:564A			loc_401:					;  xref 2926:5642
2926:564A  8B 46 EC				mov	ax,[bp-14h]
2926:564D  05 0008				add	ax,8
           ICON0.lst       ICON0.OVL		Sourcer	v8.01  20-Jul-2026 12:17 am   Page 182

2926:5650  89 46 F0				mov	[bp-10h],ax
2926:5653  C7 46 EE 0001			mov	word ptr [bp-12h],1
2926:5658			loc_402:					;  xref 2926:56EA
2926:5658 úC4 7E 04				les	di,dword ptr [bp+4]	; Load seg:offset ptr
2926:565B  06					push	es
2926:565C  57					push	di
2926:565D  8B 46 EC				mov	ax,[bp-14h]
2926:5660  5B					pop	bx
2926:5661  03 C3				add	ax,bx
2926:5663  97					xchg	di,ax
2926:5664  07					pop	es
2926:5665  26: 8A 05				mov	al,es:[di]
2926:5668  32 E4				xor	ah,ah			; Zero register
2926:566A  50					push	ax
2926:566B  B8 002E				mov	ax,2Eh
2926:566E  50					push	ax
2926:566F  E8 1DA1				call	sub_290			; (7413)
2926:5672  B8 003A				mov	ax,3Ah
2926:5675  50					push	ax
2926:5676  E8 1D9A				call	sub_290			; (7413)
2926:5679  E8 1C7B				call	sub_282			; (72F7)
2926:567C  E8 169C				call	sub_268			; (6D1B)
2926:567F  F7 D0				not	ax
2926:5681  50					push	ax
2926:5682  8B 46 EC				mov	ax,[bp-14h]
2926:5685  93					xchg	bx,ax
2926:5686  8B 46 F0				mov	ax,[bp-10h]
2926:5689  3B D8				cmp	bx,ax
2926:568B  B8 0000				mov	ax,0
2926:568E  7D 01				jge	loc_403			; Jump if > or =
2926:5690  40					inc	ax
2926:5691			loc_403:					;  xref 2926:568E
2926:5691  5B					pop	bx
2926:5692  23 C3				and	ax,bx
2926:5694  50					push	ax
2926:5695  8B 46 EC				mov	ax,[bp-14h]
2926:5698  50					push	ax
2926:5699  C4 7E 04				les	di,dword ptr [bp+4]	; Load seg:offset ptr
2926:569C  26: 8A 05				mov	al,es:[di]
2926:569F  32 E4				xor	ah,ah			; Zero register
2926:56A1  5B					pop	bx
2926:56A2  3B D8				cmp	bx,ax
2926:56A4  B8 0000				mov	ax,0
2926:56A7  7F 01				jg	loc_404			; Jump if >
2926:56A9  40					inc	ax
2926:56AA			loc_404:					;  xref 2926:56A7
2926:56AA  5B					pop	bx
2926:56AB  23 C3				and	ax,bx
2926:56AD  D0 D8				rcr	al,1			; Rotate thru carry
2926:56AF  72 03				jc	loc_405			; Jump if carry Set
2926:56B1  E9 0039				jmp	loc_406			; (56ED)
2926:56B4			loc_405:					;  xref 2926:56AF
2926:56B4  16					push	ss
2926:56B5  8D 46 F5				lea	ax,[bp-0Bh]		; Load effective addr
2926:56B8  50					push	ax
2926:56B9  8B 46 EE				mov	ax,[bp-12h]
2926:56BC  48					dec	ax
           ICON0.lst       ICON0.OVL		Sourcer	v8.01  20-Jul-2026 12:17 am   Page 183

2926:56BD  5B					pop	bx
2926:56BE  03 C3				add	ax,bx
2926:56C0  50					push	ax
2926:56C1  C4 7E 04				les	di,dword ptr [bp+4]	; Load seg:offset ptr
2926:56C4  06					push	es
2926:56C5  57					push	di
2926:56C6  8B 46 EC				mov	ax,[bp-14h]
2926:56C9  5B					pop	bx
2926:56CA  03 C3				add	ax,bx
2926:56CC  97					xchg	di,ax
2926:56CD  07					pop	es
2926:56CE  26: 8A 05				mov	al,es:[di]
2926:56D1  32 E4				xor	ah,ah			; Zero register
2926:56D3  50					push	ax
2926:56D4  E8 FB2C				call	sub_228			; (5203)
2926:56D7  5F					pop	di
2926:56D8  07					pop	es
2926:56D9  26: 88 05				mov	es:[di],al
2926:56DC  8B 46 EE				mov	ax,[bp-12h]
2926:56DF  40					inc	ax
2926:56E0  89 46 EE				mov	[bp-12h],ax
2926:56E3  8B 46 EC				mov	ax,[bp-14h]
2926:56E6  40					inc	ax
2926:56E7  89 46 EC				mov	[bp-14h],ax
2926:56EA  E9 FF6B				jmp	loc_402			; (5658)
2926:56ED			loc_406:					;  xref 2926:56B1
2926:56ED  C4 7E 04				les	di,dword ptr [bp+4]	; Load seg:offset ptr
2926:56F0  06					push	es
2926:56F1  57					push	di
2926:56F2  8B 46 EC				mov	ax,[bp-14h]
2926:56F5  5B					pop	bx
2926:56F6  03 C3				add	ax,bx
2926:56F8  97					xchg	di,ax
2926:56F9  07					pop	es
2926:56FA  26: 8A 05				mov	al,es:[di]
2926:56FD  32 E4				xor	ah,ah			; Zero register
2926:56FF  3D 002E				cmp	ax,2Eh
2926:5702  B8 0000				mov	ax,0
2926:5705  75 01				jnz	loc_407			; Jump if not zero
2926:5707  40					inc	ax
2926:5708			loc_407:					;  xref 2926:5705
2926:5708  50					push	ax
2926:5709  8B 46 EC				mov	ax,[bp-14h]
2926:570C  50					push	ax
2926:570D  C4 7E 04				les	di,dword ptr [bp+4]	; Load seg:offset ptr
2926:5710  26: 8A 05				mov	al,es:[di]
2926:5713  32 E4				xor	ah,ah			; Zero register
2926:5715  5B					pop	bx
2926:5716  3B D8				cmp	bx,ax
2926:5718  B8 0000				mov	ax,0
2926:571B  7F 01				jg	loc_408			; Jump if >
2926:571D  40					inc	ax
2926:571E			loc_408:					;  xref 2926:571B
2926:571E  5B					pop	bx
2926:571F  23 C3				and	ax,bx
2926:5721  D0 D8				rcr	al,1			; Rotate thru carry
2926:5723  72 03				jc	loc_409			; Jump if carry Set
           ICON0.lst       ICON0.OVL		Sourcer	v8.01  20-Jul-2026 12:17 am   Page 184

2926:5725  E9 006F				jmp	loc_414			; (5797)
2926:5728			loc_409:					;  xref 2926:5723
2926:5728  8B 46 EC				mov	ax,[bp-14h]
2926:572B  40					inc	ax
2926:572C  89 46 EC				mov	[bp-14h],ax
2926:572F  C7 46 EE 0001			mov	word ptr [bp-12h],1
2926:5734			loc_410:					;  xref 2926:5795
2926:5734 ú81 7E EE 0004			cmp	word ptr [bp-12h],4
2926:5739  B8 0000				mov	ax,0
2926:573C  7D 01				jge	loc_411			; Jump if > or =
2926:573E  40					inc	ax
2926:573F			loc_411:					;  xref 2926:573C
2926:573F  50					push	ax
2926:5740  8B 46 EC				mov	ax,[bp-14h]
2926:5743  50					push	ax
2926:5744  C4 7E 04				les	di,dword ptr [bp+4]	; Load seg:offset ptr
2926:5747  26: 8A 05				mov	al,es:[di]
2926:574A  32 E4				xor	ah,ah			; Zero register
2926:574C  5B					pop	bx
2926:574D  3B D8				cmp	bx,ax
2926:574F  B8 0000				mov	ax,0
2926:5752  7F 01				jg	loc_412			; Jump if >
2926:5754  40					inc	ax
2926:5755			loc_412:					;  xref 2926:5752
2926:5755  5B					pop	bx
2926:5756  23 C3				and	ax,bx
2926:5758  D0 D8				rcr	al,1			; Rotate thru carry
2926:575A  72 03				jc	loc_413			; Jump if carry Set
2926:575C  E9 0038				jmp	loc_414			; (5797)
2926:575F			loc_413:					;  xref 2926:575A
2926:575F  16					push	ss
2926:5760  8D 46 F2				lea	ax,[bp-0Eh]		; Load effective addr
2926:5763  50					push	ax
2926:5764  8B 46 EE				mov	ax,[bp-12h]
2926:5767  48					dec	ax
2926:5768  5B					pop	bx
2926:5769  03 C3				add	ax,bx
2926:576B  50					push	ax
2926:576C  C4 7E 04				les	di,dword ptr [bp+4]	; Load seg:offset ptr
2926:576F  06					push	es
2926:5770  57					push	di
2926:5771  8B 46 EC				mov	ax,[bp-14h]
2926:5774  5B					pop	bx
2926:5775  03 C3				add	ax,bx
2926:5777  97					xchg	di,ax
2926:5778  07					pop	es
2926:5779  26: 8A 05				mov	al,es:[di]
2926:577C  32 E4				xor	ah,ah			; Zero register
2926:577E  50					push	ax
2926:577F  E8 FA81				call	sub_228			; (5203)
2926:5782  5F					pop	di
2926:5783  07					pop	es
2926:5784  26: 88 05				mov	es:[di],al
2926:5787  8B 46 EE				mov	ax,[bp-12h]
2926:578A  40					inc	ax
2926:578B  89 46 EE				mov	[bp-12h],ax
2926:578E  8B 46 EC				mov	ax,[bp-14h]
           ICON0.lst       ICON0.OVL		Sourcer	v8.01  20-Jul-2026 12:17 am   Page 185

2926:5791  40					inc	ax
2926:5792  89 46 EC				mov	[bp-14h],ax
2926:5795  EB 9D				jmp	short loc_410		; (5734)
2926:5797			loc_414:					;  xref 2926:5725, 575C
2926:5797  C4 7E 08				les	di,dword ptr [bp+8]	; Load seg:offset ptr
2926:579A  06					push	es
2926:579B  57					push	di
2926:579C  B8 0025				mov	ax,25h
2926:579F  2D 0012				sub	ax,12h
2926:57A2  50					push	ax
2926:57A3  B8 0000				mov	ax,0
2926:57A6  50					push	ax
2926:57A7  E8 1CFC				call	sub_294			; (74A6)
2926:57AA  C4 7E 08				les	di,dword ptr [bp+8]	; Load seg:offset ptr
2926:57AD  06					push	es
2926:57AE  57					push	di
2926:57AF  58					pop	ax
2926:57B0  05 0000				add	ax,0
2926:57B3  50					push	ax
2926:57B4  8A 46 FD				mov	al,[bp-3]
2926:57B7  32 E4				xor	ah,ah			; Zero register
2926:57B9  93					xchg	bx,ax
2926:57BA  B8 0040				mov	ax,40h
2926:57BD  2B D8				sub	bx,ax
2926:57BF  93					xchg	bx,ax
2926:57C0  5F					pop	di
2926:57C1  07					pop	es
2926:57C2  26: 88 05				mov	es:[di],al
2926:57C5  16					push	ss
2926:57C6  8D 46 F5				lea	ax,[bp-0Bh]		; Load effective addr
2926:57C9  50					push	ax
2926:57CA  C4 7E 08				les	di,dword ptr [bp+8]	; Load seg:offset ptr
2926:57CD  06					push	es
2926:57CE  57					push	di
2926:57CF  58					pop	ax
2926:57D0  05 0001				add	ax,1
2926:57D3 ú50					push	ax
2926:57D4  B8 0008				mov	ax,8
2926:57D7  50					push	ax
2926:57D8  E8 1B55				call	sub_284			; (7330)
2926:57DB  16					push	ss
2926:57DC  8D 46 F2				lea	ax,[bp-0Eh]		; Load effective addr
2926:57DF  50					push	ax
2926:57E0  C4 7E 08				les	di,dword ptr [bp+8]	; Load seg:offset ptr
2926:57E3  06					push	es
2926:57E4  57					push	di
2926:57E5  58					pop	ax
2926:57E6  05 0009				add	ax,9
2926:57E9 ú50					push	ax
2926:57EA  B8 0003				mov	ax,3
2926:57ED  50					push	ax
2926:57EE  E8 1B3F				call	sub_284			; (7330)
2926:57F1			loc_415:					;  xref 2926:55D4
2926:57F1  8B E5				mov	sp,bp
2926:57F3  5D					pop	bp
2926:57F4  C2 0008				retn	8
				sub_246		endp
           ICON0.lst       ICON0.OVL		Sourcer	v8.01  20-Jul-2026 12:17 am   Page 186


2926:57F7			loc_416:					;  xref 2926:5209
2926:57F7  55					push	bp
2926:57F8  8B EC				mov	bp,sp
2926:57FA  55					push	bp
2926:57FB  81 EC 0002				sub	sp,2
2926:57FF  1E					push	ds
2926:5800  B8 83B5				mov	ax,83B5h
2926:5803  50					push	ax
2926:5804  B8 069A				mov	ax,69Ah
2926:5807  50					push	ax
2926:5808  B8 0000				mov	ax,0
2926:580B  50					push	ax
2926:580C  E8 1C97				call	sub_294			; (74A6)
2926:580F  8B E5				mov	sp,bp
2926:5811  5D					pop	bp
2926:5812  C3					retn
2926:5813			loc_417:					;  xref 2926:520C
2926:5813  55					push	bp
2926:5814  8B EC				mov	bp,sp
2926:5816 ú55					push	bp
2926:5817  81 EC 000E				sub	sp,0Eh
2926:581B  E8 F9D3				call	sub_222			; (51F1)
2926:581E  89 46 F2				mov	[bp-0Eh],ax
2926:5821  8B 46 F2				mov	ax,[bp-0Eh]
2926:5824  89 46 F4				mov	[bp-0Ch],ax
2926:5827  81 7E F2 FFFF			cmp	word ptr [bp-0Eh],0FFFFh
2926:582C  75 03				jne	loc_418			; Jump if not equal
2926:582E  E9 00F9				jmp	loc_426			; (592A)
2926:5831			loc_418:					;  xref 2926:582C
2926:5831  1E					push	ds
2926:5832  B8 83B5				mov	ax,83B5h
2926:5835  50					push	ax
2926:5836  8B 46 F2				mov	ax,[bp-0Eh]
2926:5839  BB 00A9				mov	bx,0A9h
2926:583C  F7 E3				mul	bx			; dx:ax = reg * ax
2926:583E  5B					pop	bx
2926:583F  03 C3				add	ax,bx
2926:5841  40					inc	ax
2926:5842  50					push	ax
2926:5843  B8 0024				mov	ax,24h
2926:5846  50					push	ax
2926:5847  B8 0000				mov	ax,0
2926:584A  50					push	ax
2926:584B  E8 1C58				call	sub_294			; (74A6)
2926:584E  1E					push	ds
2926:584F  B8 83B5				mov	ax,83B5h
2926:5852  50					push	ax
2926:5853  8B 46 F2				mov	ax,[bp-0Eh]
2926:5856  BB 00A9				mov	bx,0A9h
2926:5859  F7 E3				mul	bx			; dx:ax = reg * ax
2926:585B  5B					pop	bx
2926:585C  03 C3				add	ax,bx
2926:585E  40					inc	ax
2926:585F  50					push	ax
2926:5860  C4 7E 06				les	di,dword ptr [bp+6]	; Load seg:offset ptr
2926:5863  06					push	es
           ICON0.lst       ICON0.OVL		Sourcer	v8.01  20-Jul-2026 12:17 am   Page 187

2926:5864  57					push	di
2926:5865  E8 F99E				call	sub_229			; (5206)
2926:5868  C4 7E 06				les	di,dword ptr [bp+6]	; Load seg:offset ptr
2926:586B  06					push	es
2926:586C  57					push	di
2926:586D  E8 F990				call	sub_227			; (5200)
2926:5870  F7 D0				not	ax
2926:5872  D0 D8				rcr	al,1			; Rotate thru carry
2926:5874  72 03				jc	loc_419			; Jump if carry Set
2926:5876  E9 0014				jmp	loc_420			; (588D)
2926:5879			loc_419:					;  xref 2926:5874
2926:5879  C7 46 F4 FFFF			mov	word ptr [bp-0Ch],0FFFFh
2926:587E  C7 06 83B3 00FF			mov	word ptr ds:data_344e,0FFh	; (2926:83B3=0)
2926:5884  FF 76 F2				push	word ptr [bp-0Eh]
2926:5887  E8 F96A				call	sub_223			; (51F4)
2926:588A  E9 00A3				jmp	loc_427			; (5930)
2926:588D			loc_420:					;  xref 2926:5876
2926:588D  C4 7E 06				les	di,dword ptr [bp+6]	; Load seg:offset ptr
2926:5890  06					push	es
2926:5891  57					push	di
2926:5892  E8 F968				call	sub_226			; (51FD)
2926:5895  D0 D8				rcr	al,1			; Rotate thru carry
2926:5897  72 03				jc	loc_421			; Jump if carry Set
2926:5899  E9 0023				jmp	loc_422			; (58BF)
2926:589C			loc_421:					;  xref 2926:5897
2926:589C  C7 06 83B3 0000			mov	word ptr ds:data_344e,0	; (2926:83B3=0)
2926:58A2  1E					push	ds
2926:58A3  B8 83B5				mov	ax,83B5h
2926:58A6  50					push	ax
2926:58A7  8B 46 F2				mov	ax,[bp-0Eh]
2926:58AA  BB 00A9				mov	bx,0A9h
2926:58AD  F7 E3				mul	bx			; dx:ax = reg * ax
2926:58AF  5B					pop	bx
2926:58B0  03 C3				add	ax,bx
2926:58B2  40					inc	ax
2926:58B3  05 0000				add	ax,0
2926:58B6  97					xchg	di,ax
2926:58B7  07					pop	es
2926:58B8  26: C6 05 FF				mov	byte ptr es:[di],0FFh
2926:58BC  E9 0071				jmp	loc_427			; (5930)
2926:58BF			loc_422:					;  xref 2926:5899
2926:58BF  B8 000F				mov	ax,0Fh
2926:58C2  50					push	ax
2926:58C3  1E					push	ds
2926:58C4  B8 83B5				mov	ax,83B5h
2926:58C7  50					push	ax
2926:58C8  8B 46 F2				mov	ax,[bp-0Eh]
2926:58CB  BB 00A9				mov	bx,0A9h
2926:58CE  F7 E3				mul	bx			; dx:ax = reg * ax
2926:58D0  5B					pop	bx
2926:58D1  03 C3				add	ax,bx
2926:58D3  40					inc	ax
2926:58D4  50					push	ax
2926:58D5  E8 1DD1				call	sub_303			; (76A9)
2926:58D8  A3 83B3				mov	ds:data_344e,ax		; (2926:83B3=0)
2926:58DB  81 3E 83B3 00FF			cmp	word ptr ds:data_344e,0FFh	; (2926:83B3=0)
2926:58E1  74 03				je	loc_423			; Jump if equal
           ICON0.lst       ICON0.OVL		Sourcer	v8.01  20-Jul-2026 12:17 am   Page 188

2926:58E3  E9 000E				jmp	loc_424			; (58F4)
2926:58E6			loc_423:					;  xref 2926:58E1
2926:58E6  C7 46 F4 FFFF			mov	word ptr [bp-0Ch],0FFFFh
2926:58EB  FF 76 F2				push	word ptr [bp-0Eh]
2926:58EE  E8 F903				call	sub_223			; (51F4)
2926:58F1  E9 0033				jmp	loc_425			; (5927)
2926:58F4			loc_424:					;  xref 2926:58E3
2926:58F4  1E					push	ds
2926:58F5  B8 83B5				mov	ax,83B5h
2926:58F8  50					push	ax
2926:58F9  8B 46 F2				mov	ax,[bp-0Eh]
2926:58FC  BB 00A9				mov	bx,0A9h
2926:58FF  F7 E3				mul	bx			; dx:ax = reg * ax
2926:5901  5B					pop	bx
2926:5902  03 C3				add	ax,bx
2926:5904  05 0026				add	ax,26h
2926:5907  97					xchg	di,ax
2926:5908  07					pop	es
2926:5909  26: C7 05 0080			mov	word ptr es:[di],80h
2926:590E  1E					push	ds
2926:590F  B8 83B5				mov	ax,83B5h
2926:5912  50					push	ax
2926:5913  8B 46 F2				mov	ax,[bp-0Eh]
2926:5916  BB 00A9				mov	bx,0A9h
2926:5919  F7 E3				mul	bx			; dx:ax = reg * ax
2926:591B  5B					pop	bx
2926:591C  03 C3				add	ax,bx
2926:591E  05 00A8				add	ax,0A8h
2926:5921  97					xchg	di,ax
2926:5922  07					pop	es
2926:5923  26: C6 05 00				mov	byte ptr es:[di],0
2926:5927			loc_425:					;  xref 2926:58F1
2926:5927  E9 0006				jmp	loc_427			; (5930)
2926:592A			loc_426:					;  xref 2926:582E
2926:592A  C7 06 83B3 00FF			mov	word ptr ds:data_344e,0FFh	; (2926:83B3=0)
2926:5930			loc_427:					;  xref 2926:588A, 58BC, 5927
2926:5930  8B 46 F4				mov	ax,[bp-0Ch]
2926:5933  8B E5				mov	sp,bp
2926:5935  5D					pop	bp
2926:5936  C2 0006				retn	6
2926:5939			loc_428:					;  xref 2926:520F
2926:5939  55					push	bp
2926:593A  8B EC				mov	bp,sp
2926:593C ú55					push	bp
2926:593D  81 EC 000E				sub	sp,0Eh
2926:5941  E8 F8AD				call	sub_222			; (51F1)
2926:5944  89 46 F2				mov	[bp-0Eh],ax
2926:5947  8B 46 F2				mov	ax,[bp-0Eh]
2926:594A  89 46 F4				mov	[bp-0Ch],ax
2926:594D  81 7E F2 FFFF			cmp	word ptr [bp-0Eh],0FFFFh
2926:5952  75 03				jne	loc_429			; Jump if not equal
2926:5954  E9 00F9				jmp	loc_436			; (5A50)
2926:5957			loc_429:					;  xref 2926:5952
2926:5957  1E					push	ds
2926:5958  B8 83B5				mov	ax,83B5h
2926:595B  50					push	ax
2926:595C  8B 46 F2				mov	ax,[bp-0Eh]
           ICON0.lst       ICON0.OVL		Sourcer	v8.01  20-Jul-2026 12:17 am   Page 189

2926:595F  BB 00A9				mov	bx,0A9h
2926:5962  F7 E3				mul	bx			; dx:ax = reg * ax
2926:5964  5B					pop	bx
2926:5965  03 C3				add	ax,bx
2926:5967  40					inc	ax
2926:5968  50					push	ax
2926:5969  B8 0024				mov	ax,24h
2926:596C  50					push	ax
2926:596D  B8 0000				mov	ax,0
2926:5970  50					push	ax
2926:5971  E8 1B32				call	sub_294			; (74A6)
2926:5974  1E					push	ds
2926:5975  B8 83B5				mov	ax,83B5h
2926:5978  50					push	ax
2926:5979  8B 46 F2				mov	ax,[bp-0Eh]
2926:597C  BB 00A9				mov	bx,0A9h
2926:597F  F7 E3				mul	bx			; dx:ax = reg * ax
2926:5981  5B					pop	bx
2926:5982  03 C3				add	ax,bx
2926:5984  40					inc	ax
2926:5985  50					push	ax
2926:5986  C4 7E 06				les	di,dword ptr [bp+6]	; Load seg:offset ptr
2926:5989  06					push	es
2926:598A  57					push	di
2926:598B  E8 F878				call	sub_229			; (5206)
2926:598E  C4 7E 06				les	di,dword ptr [bp+6]	; Load seg:offset ptr
2926:5991  06					push	es
2926:5992  57					push	di
2926:5993  E8 F86A				call	sub_227			; (5200)
2926:5996  F7 D0				not	ax
2926:5998  D0 D8				rcr	al,1			; Rotate thru carry
2926:599A  72 03				jc	loc_430			; Jump if carry Set
2926:599C  E9 0014				jmp	loc_431			; (59B3)
2926:599F			loc_430:					;  xref 2926:599A
2926:599F  C7 46 F4 FFFF			mov	word ptr [bp-0Ch],0FFFFh
2926:59A4  C7 06 83B3 00FF			mov	word ptr ds:data_344e,0FFh	; (2926:83B3=0)
2926:59AA  FF 76 F2				push	word ptr [bp-0Eh]
2926:59AD  E8 F844				call	sub_223			; (51F4)
2926:59B0  E9 00A3				jmp	loc_437			; (5A56)
2926:59B3			loc_431:					;  xref 2926:599C
2926:59B3  C4 7E 06				les	di,dword ptr [bp+6]	; Load seg:offset ptr
2926:59B6  06					push	es
2926:59B7  57					push	di
2926:59B8  E8 F842				call	sub_226			; (51FD)
2926:59BB  D0 D8				rcr	al,1			; Rotate thru carry
2926:59BD  72 03				jc	loc_432			; Jump if carry Set
2926:59BF  E9 0023				jmp	loc_433			; (59E5)
2926:59C2			loc_432:					;  xref 2926:59BD
2926:59C2  C7 06 83B3 0000			mov	word ptr ds:data_344e,0	; (2926:83B3=0)
2926:59C8  1E					push	ds
2926:59C9  B8 83B5				mov	ax,83B5h
2926:59CC  50					push	ax
2926:59CD  8B 46 F2				mov	ax,[bp-0Eh]
2926:59D0  BB 00A9				mov	bx,0A9h
2926:59D3  F7 E3				mul	bx			; dx:ax = reg * ax
2926:59D5  5B					pop	bx
2926:59D6  03 C3				add	ax,bx
           ICON0.lst       ICON0.OVL		Sourcer	v8.01  20-Jul-2026 12:17 am   Page 190

2926:59D8  40					inc	ax
2926:59D9  05 0000				add	ax,0
2926:59DC  97					xchg	di,ax
2926:59DD  07					pop	es
2926:59DE  26: C6 05 FF				mov	byte ptr es:[di],0FFh
2926:59E2  E9 0071				jmp	loc_437			; (5A56)
2926:59E5			loc_433:					;  xref 2926:59BF
2926:59E5  B8 0013				mov	ax,13h
2926:59E8  50					push	ax
2926:59E9  1E					push	ds
2926:59EA  B8 83B5				mov	ax,83B5h
2926:59ED  50					push	ax
2926:59EE  8B 46 F2				mov	ax,[bp-0Eh]
2926:59F1  BB 00A9				mov	bx,0A9h
2926:59F4  F7 E3				mul	bx			; dx:ax = reg * ax
2926:59F6  5B					pop	bx
2926:59F7  03 C3				add	ax,bx
2926:59F9  40					inc	ax
2926:59FA  50					push	ax
2926:59FB  E8 1CAB				call	sub_303			; (76A9)
2926:59FE  A3 83B3				mov	ds:data_344e,ax		; (2926:83B3=0)
2926:5A01  B8 0016				mov	ax,16h
2926:5A04  50					push	ax
2926:5A05  1E					push	ds
2926:5A06  B8 83B5				mov	ax,83B5h
2926:5A09  50					push	ax
2926:5A0A  8B 46 F2				mov	ax,[bp-0Eh]
2926:5A0D  BB 00A9				mov	bx,0A9h
2926:5A10  F7 E3				mul	bx			; dx:ax = reg * ax
2926:5A12  5B					pop	bx
2926:5A13  03 C3				add	ax,bx
2926:5A15  40					inc	ax
2926:5A16  50					push	ax
2926:5A17  E8 1C8F				call	sub_303			; (76A9)
2926:5A1A  A3 83B3				mov	ds:data_344e,ax		; (2926:83B3=0)
2926:5A1D  81 3E 83B3 00FF			cmp	word ptr ds:data_344e,0FFh	; (2926:83B3=0)
2926:5A23  74 03				je	loc_434			; Jump if equal
2926:5A25  E9 000B				jmp	loc_435			; (5A33)
2926:5A28			loc_434:					;  xref 2926:5A23
2926:5A28  C7 46 F4 FFFF			mov	word ptr [bp-0Ch],0FFFFh
2926:5A2D  FF 76 F2				push	word ptr [bp-0Eh]
2926:5A30  E8 F7C1				call	sub_223			; (51F4)
2926:5A33			loc_435:					;  xref 2926:5A25
2926:5A33  1E					push	ds
2926:5A34  B8 83B5				mov	ax,83B5h
2926:5A37  50					push	ax
2926:5A38  8B 46 F2				mov	ax,[bp-0Eh]
2926:5A3B  BB 00A9				mov	bx,0A9h
2926:5A3E  F7 E3				mul	bx			; dx:ax = reg * ax
2926:5A40  5B					pop	bx
2926:5A41  03 C3				add	ax,bx
2926:5A43  05 0026				add	ax,26h
2926:5A46  97					xchg	di,ax
2926:5A47  07					pop	es
2926:5A48  26: C7 05 0000			mov	word ptr es:[di],0
2926:5A4D  E9 0006				jmp	loc_437			; (5A56)
2926:5A50			loc_436:					;  xref 2926:5954
           ICON0.lst       ICON0.OVL		Sourcer	v8.01  20-Jul-2026 12:17 am   Page 191

2926:5A50  C7 06 83B3 00FF			mov	word ptr ds:data_344e,0FFh	; (2926:83B3=0)
2926:5A56			loc_437:					;  xref 2926:59B0, 59E2, 5A4D
2926:5A56  8B 46 F4				mov	ax,[bp-0Ch]
2926:5A59  8B E5				mov	sp,bp
2926:5A5B  5D					pop	bp
2926:5A5C  C2 0006				retn	6
2926:5A5F			loc_438:					;  xref 2926:5212
2926:5A5F  55					push	bp
2926:5A60  8B EC				mov	bp,sp
2926:5A62  55					push	bp
2926:5A63  81 EC 000C				sub	sp,0Ch
2926:5A67  C4 7E 04				les	di,dword ptr [bp+4]	; Load seg:offset ptr
2926:5A6A  83 C7 36				add	di,36h
2926:5A6D  26: 8B 05				mov	ax,es:[di]
2926:5A70  3D 0000				cmp	ax,0
2926:5A73  74 03				je	loc_439			; Jump if equal
2926:5A75  E9 0019				jmp	loc_440			; (5A91)
2926:5A78			loc_439:					;  xref 2926:5A73
2926:5A78  C4 7E 04				les	di,dword ptr [bp+4]	; Load seg:offset ptr
2926:5A7B  83 C7 36				add	di,36h
2926:5A7E  06					push	es
2926:5A7F  57					push	di
2926:5A80  C4 7E 04				les	di,dword ptr [bp+4]	; Load seg:offset ptr
2926:5A83  06					push	es
2926:5A84  57					push	di
2926:5A85  B8 0002				mov	ax,2
2926:5A88  50					push	ax
2926:5A89  E8 F780				call	sub_230			; (520C)
2926:5A8C  5F					pop	di
2926:5A8D  07					pop	es
2926:5A8E  26: 89 05				mov	es:[di],ax
2926:5A91			loc_440:					;  xref 2926:5A75
2926:5A91  C4 7E 04				les	di,dword ptr [bp+4]	; Load seg:offset ptr
2926:5A94  83 C7 36				add	di,36h
2926:5A97  26: 8B 05				mov	ax,es:[di]
2926:5A9A  3D FFFF				cmp	ax,0FFFFh
2926:5A9D  75 03				jne	loc_441			; Jump if not equal
2926:5A9F  E9 0047				jmp	loc_444			; (5AE9)
2926:5AA2			loc_441:					;  xref 2926:5A9D
2926:5AA2  C4 7E 04				les	di,dword ptr [bp+4]	; Load seg:offset ptr
2926:5AA5  83 C7 26				add	di,26h
2926:5AA8  26: 8A 05				mov	al,es:[di]
2926:5AAB  32 E4				xor	ah,ah			; Zero register
2926:5AAD  3D 0003				cmp	ax,3
2926:5AB0  7E 03				jle	loc_442			; Jump if < or =
2926:5AB2  E9 0022				jmp	loc_443			; (5AD7)
2926:5AB5			loc_442:					;  xref 2926:5AB0
2926:5AB5  B8 0013				mov	ax,13h
2926:5AB8  50					push	ax
2926:5AB9  1E					push	ds
2926:5ABA  B8 83B5				mov	ax,83B5h
2926:5ABD  50					push	ax
2926:5ABE  C4 7E 04				les	di,dword ptr [bp+4]	; Load seg:offset ptr
2926:5AC1  83 C7 36				add	di,36h
2926:5AC4  26: 8B 05				mov	ax,es:[di]
2926:5AC7  BB 00A9				mov	bx,0A9h
2926:5ACA  F7 E3				mul	bx			; dx:ax = reg * ax
           ICON0.lst       ICON0.OVL		Sourcer	v8.01  20-Jul-2026 12:17 am   Page 192

2926:5ACC  5B					pop	bx
2926:5ACD  03 C3				add	ax,bx
2926:5ACF  40					inc	ax
2926:5AD0  50					push	ax
2926:5AD1  E8 1BD5				call	sub_303			; (76A9)
2926:5AD4  A3 83B3				mov	ds:data_344e,ax		; (2926:83B3=0)
2926:5AD7			loc_443:					;  xref 2926:5AB2
2926:5AD7  C7 46 F4 0000			mov	word ptr [bp-0Ch],0
2926:5ADC  C4 7E 04				les	di,dword ptr [bp+4]	; Load seg:offset ptr
2926:5ADF  83 C7 36				add	di,36h
2926:5AE2  26: 8B 05				mov	ax,es:[di]
2926:5AE5  50					push	ax
2926:5AE6  E8 F70B				call	sub_223			; (51F4)
2926:5AE9			loc_444:					;  xref 2926:5A9F
2926:5AE9  8B 46 F4				mov	ax,[bp-0Ch]
2926:5AEC  8B E5				mov	sp,bp
2926:5AEE  5D					pop	bp
2926:5AEF  C2 0004				retn	4
2926:5AF2			loc_445:					;  xref 2926:5215
2926:5AF2  55					push	bp
2926:5AF3  8B EC				mov	bp,sp
2926:5AF5  55					push	bp
2926:5AF6  81 EC 0008				sub	sp,8
2926:5AFA  8A 46 04				mov	al,[bp+4]
2926:5AFD  32 E4				xor	ah,ah			; Zero register
2926:5AFF  F7 D0				not	ax
2926:5B01  50					push	ax
2926:5B02  1E					push	ds
2926:5B03  B8 83B5				mov	ax,83B5h
2926:5B06  50					push	ax
2926:5B07  8B 46 06				mov	ax,[bp+6]
2926:5B0A  BB 00A9				mov	bx,0A9h
2926:5B0D  F7 E3				mul	bx			; dx:ax = reg * ax
2926:5B0F  5B					pop	bx
2926:5B10  03 C3				add	ax,bx
2926:5B12  40					inc	ax
2926:5B13  05 0000				add	ax,0
2926:5B16  97					xchg	di,ax
2926:5B17  07					pop	es
2926:5B18  26: 8A 05				mov	al,es:[di]
2926:5B1B  32 E4				xor	ah,ah			; Zero register
2926:5B1D  3D 00FF				cmp	ax,0FFh
2926:5B20  B8 0000				mov	ax,0
2926:5B23  74 01				jz	loc_446			; Jump if zero
2926:5B25  40					inc	ax
2926:5B26			loc_446:					;  xref 2926:5B23
2926:5B26  5B					pop	bx
2926:5B27  23 C3				and	ax,bx
2926:5B29  D0 D8				rcr	al,1			; Rotate thru carry
2926:5B2B  72 03				jc	loc_447			; Jump if carry Set
2926:5B2D  E9 00A6				jmp	loc_452			; (5BD6)
2926:5B30			loc_447:					;  xref 2926:5B2B
2926:5B30  1E					push	ds
2926:5B31  B8 83B5				mov	ax,83B5h
2926:5B34  50					push	ax
2926:5B35  8B 46 06				mov	ax,[bp+6]
2926:5B38  BB 00A9				mov	bx,0A9h
           ICON0.lst       ICON0.OVL		Sourcer	v8.01  20-Jul-2026 12:17 am   Page 193

2926:5B3B  F7 E3				mul	bx			; dx:ax = reg * ax
2926:5B3D  5B					pop	bx
2926:5B3E  03 C3				add	ax,bx
2926:5B40  05 0026				add	ax,26h
2926:5B43  97					xchg	di,ax
2926:5B44  07					pop	es
2926:5B45  26: 8B 05				mov	ax,es:[di]
2926:5B48  3D 0000				cmp	ax,0
2926:5B4B  75 03				jne	loc_448			; Jump if not equal
2926:5B4D  E9 006A				jmp	loc_451			; (5BBA)
2926:5B50			loc_448:					;  xref 2926:5B4B
2926:5B50  1E					push	ds
2926:5B51  B8 83B5				mov	ax,83B5h
2926:5B54  50					push	ax
2926:5B55  8B 46 06				mov	ax,[bp+6]
2926:5B58  BB 00A9				mov	bx,0A9h
2926:5B5B  F7 E3				mul	bx			; dx:ax = reg * ax
2926:5B5D  5B					pop	bx
2926:5B5E  03 C3				add	ax,bx
2926:5B60  05 0026				add	ax,26h
2926:5B63  97					xchg	di,ax
2926:5B64  07					pop	es
2926:5B65  26: 8B 05				mov	ax,es:[di]
2926:5B68  3D 0080				cmp	ax,80h
2926:5B6B  75 03				jne	loc_449			; Jump if not equal
2926:5B6D  E9 0044				jmp	loc_450			; (5BB4)
2926:5B70			loc_449:					;  xref 2926:5B6B
2926:5B70  1E					push	ds
2926:5B71  B8 83B5				mov	ax,83B5h
2926:5B74  50					push	ax
2926:5B75  8B 46 06				mov	ax,[bp+6]
2926:5B78  BB 00A9				mov	bx,0A9h
2926:5B7B  F7 E3				mul	bx			; dx:ax = reg * ax
2926:5B7D  5B					pop	bx
2926:5B7E  03 C3				add	ax,bx
2926:5B80  89 46 F8				mov	[bp-8],ax
2926:5B83  58					pop	ax
2926:5B84  89 46 FA				mov	[bp-6],ax
2926:5B87  C4 7E F8				les	di,dword ptr [bp-8]	; Load seg:offset ptr
2926:5B8A  83 C7 28				add	di,28h
2926:5B8D  06					push	es
2926:5B8E  57					push	di
2926:5B8F  C4 7E F8				les	di,dword ptr [bp-8]	; Load seg:offset ptr
2926:5B92  83 C7 26				add	di,26h
2926:5B95  26: 8B 05				mov	ax,es:[di]
2926:5B98  5B					pop	bx
2926:5B99  03 C3				add	ax,bx
2926:5B9B  50					push	ax
2926:5B9C  B8 0080				mov	ax,80h
2926:5B9F  50					push	ax
2926:5BA0  C4 7E F8				les	di,dword ptr [bp-8]	; Load seg:offset ptr
2926:5BA3  83 C7 26				add	di,26h
2926:5BA6  26: 8B 05				mov	ax,es:[di]
2926:5BA9  5B					pop	bx
2926:5BAA  2B D8				sub	bx,ax
2926:5BAC  53					push	bx
2926:5BAD  B8 001A				mov	ax,1Ah
           ICON0.lst       ICON0.OVL		Sourcer	v8.01  20-Jul-2026 12:17 am   Page 194

2926:5BB0  50					push	ax
2926:5BB1  E8 18F2				call	sub_294			; (74A6)
2926:5BB4			loc_450:					;  xref 2926:5B6D
2926:5BB4  FF 76 06				push	word ptr [bp+6]
2926:5BB7  E8 F63D				call	sub_224			; (51F7)
2926:5BBA			loc_451:					;  xref 2926:5B4D
2926:5BBA  B8 0010				mov	ax,10h
2926:5BBD  50					push	ax
2926:5BBE  1E					push	ds
2926:5BBF  B8 83B5				mov	ax,83B5h
2926:5BC2  50					push	ax
2926:5BC3  8B 46 06				mov	ax,[bp+6]
2926:5BC6  BB 00A9				mov	bx,0A9h
2926:5BC9  F7 E3				mul	bx			; dx:ax = reg * ax
2926:5BCB  5B					pop	bx
2926:5BCC  03 C3				add	ax,bx
2926:5BCE  40					inc	ax
2926:5BCF  50					push	ax
2926:5BD0  E8 1AD6				call	sub_303			; (76A9)
2926:5BD3  A3 83B3				mov	ds:data_344e,ax		; (2926:83B3=0)
2926:5BD6			loc_452:					;  xref 2926:5B2D
2926:5BD6  FF 76 06				push	word ptr [bp+6]
2926:5BD9  E8 F618				call	sub_223			; (51F4)
2926:5BDC  8B E5				mov	sp,bp
2926:5BDE  5D					pop	bp
2926:5BDF  C2 0004				retn	4
2926:5BE2			loc_453:					;  xref 2926:5218
2926:5BE2  55					push	bp
2926:5BE3  8B EC				mov	bp,sp
2926:5BE5  55					push	bp
2926:5BE6  81 EC 0002				sub	sp,2
2926:5BEA  8B 46 06				mov	ax,[bp+6]
2926:5BED  50					push	ax
2926:5BEE  8B 46 04				mov	ax,[bp+4]
2926:5BF1  A3 83AF				mov	ds:data_342e,ax		; (2926:83AF=0)
2926:5BF4  58					pop	ax
2926:5BF5  A3 83B1				mov	word ptr ds:data_342e+2,ax	; (2926:83B1=0)
2926:5BF8  8B E5				mov	sp,bp
2926:5BFA  5D					pop	bp
2926:5BFB  C2 0004				retn	4
2926:5BFE			loc_454:					;  xref 2926:521B
2926:5BFE  55					push	bp
2926:5BFF  8B EC				mov	bp,sp
2926:5C01  55					push	bp
2926:5C02  81 EC 0010				sub	sp,10h
2926:5C06  1E					push	ds
2926:5C07  B8 83B5				mov	ax,83B5h
2926:5C0A  50					push	ax
2926:5C0B  8B 46 08				mov	ax,[bp+8]
2926:5C0E  BB 00A9				mov	bx,0A9h
2926:5C11  F7 E3				mul	bx			; dx:ax = reg * ax
2926:5C13  5B					pop	bx
2926:5C14  03 C3				add	ax,bx
2926:5C16  89 46 F0				mov	[bp-10h],ax
2926:5C19  58					pop	ax
2926:5C1A  89 46 F2				mov	[bp-0Eh],ax
2926:5C1D  C4 7E F0				les	di,dword ptr [bp-10h]	; Load seg:offset ptr
           ICON0.lst       ICON0.OVL		Sourcer	v8.01  20-Jul-2026 12:17 am   Page 195

2926:5C20  83 C7 26				add	di,26h
2926:5C23  26: 8B 05				mov	ax,es:[di]
2926:5C26  3D 0080				cmp	ax,80h
2926:5C29  7D 03				jge	loc_455			; Jump if > or =
2926:5C2B  E9 001D				jmp	loc_456			; (5C4B)
2926:5C2E			loc_455:					;  xref 2926:5C29
2926:5C2E  C4 7E 04				les	di,dword ptr [bp+4]	; Load seg:offset ptr
2926:5C31  06					push	es
2926:5C32  57					push	di
2926:5C33  FF 76 08				push	word ptr [bp+8]
2926:5C36  E8 F5C1				call	sub_225			; (51FA)
2926:5C39  F7 D0				not	ax
2926:5C3B  5F					pop	di
2926:5C3C  07					pop	es
2926:5C3D  26: 88 05				mov	es:[di],al
2926:5C40  C4 7E F0				les	di,dword ptr [bp-10h]	; Load seg:offset ptr
2926:5C43  83 C7 26				add	di,26h
2926:5C46  26: C7 05 0000			mov	word ptr es:[di],0
2926:5C4B			loc_456:					;  xref 2926:5C2B
2926:5C4B  C4 7E F0				les	di,dword ptr [bp-10h]	; Load seg:offset ptr
2926:5C4E  83 C7 28				add	di,28h
2926:5C51  06					push	es
2926:5C52  57					push	di
2926:5C53  C4 7E F0				les	di,dword ptr [bp-10h]	; Load seg:offset ptr
2926:5C56  83 C7 26				add	di,26h
2926:5C59  26: 8B 05				mov	ax,es:[di]
2926:5C5C  5B					pop	bx
2926:5C5D  03 C3				add	ax,bx
2926:5C5F  97					xchg	di,ax
2926:5C60  07					pop	es
2926:5C61  26: 8A 05				mov	al,es:[di]
2926:5C64  88 46 F4				mov	[bp-0Ch],al
2926:5C67  C4 7E F0				les	di,dword ptr [bp-10h]	; Load seg:offset ptr
2926:5C6A  83 C7 26				add	di,26h
2926:5C6D  06					push	es
2926:5C6E  57					push	di
2926:5C6F  C4 7E F0				les	di,dword ptr [bp-10h]	; Load seg:offset ptr
2926:5C72  83 C7 26				add	di,26h
2926:5C75  26: 8B 05				mov	ax,es:[di]
2926:5C78  40					inc	ax
2926:5C79  5F					pop	di
2926:5C7A  07					pop	es
2926:5C7B  26: 89 05				mov	es:[di],ax
2926:5C7E  8A 46 F4				mov	al,[bp-0Ch]
2926:5C81  32 E4				xor	ah,ah			; Zero register
2926:5C83  8B E5				mov	sp,bp
2926:5C85  5D					pop	bp
2926:5C86  C2 0006				retn	6
2926:5C89			loc_457:					;  xref 2926:521E
2926:5C89  55					push	bp
2926:5C8A  8B EC				mov	bp,sp
2926:5C8C  55					push	bp
2926:5C8D  81 EC 0006				sub	sp,6
2926:5C91  1E					push	ds
2926:5C92  B8 83B5				mov	ax,83B5h
2926:5C95  50					push	ax
2926:5C96  8B 46 04				mov	ax,[bp+4]
           ICON0.lst       ICON0.OVL		Sourcer	v8.01  20-Jul-2026 12:17 am   Page 196

2926:5C99  BB 00A9				mov	bx,0A9h
2926:5C9C  F7 E3				mul	bx			; dx:ax = reg * ax
2926:5C9E  5B					pop	bx
2926:5C9F  03 C3				add	ax,bx
2926:5CA1  89 46 FA				mov	[bp-6],ax
2926:5CA4  58					pop	ax
2926:5CA5  89 46 FC				mov	[bp-4],ax
2926:5CA8  C4 7E FA				les	di,dword ptr [bp-6]	; Load seg:offset ptr
2926:5CAB  83 C7 26				add	di,26h
2926:5CAE  26: 8B 05				mov	ax,es:[di]
2926:5CB1  3D 0080				cmp	ax,80h
2926:5CB4  7D 03				jge	loc_458			; Jump if > or =
2926:5CB6  E9 0011				jmp	loc_459			; (5CCA)
2926:5CB9			loc_458:					;  xref 2926:5CB4
2926:5CB9  FF 76 04				push	word ptr [bp+4]
2926:5CBC  E8 F538				call	sub_224			; (51F7)
2926:5CBF  C4 7E FA				les	di,dword ptr [bp-6]	; Load seg:offset ptr
2926:5CC2  83 C7 26				add	di,26h
2926:5CC5  26: C7 05 0000			mov	word ptr es:[di],0
2926:5CCA			loc_459:					;  xref 2926:5CB6
2926:5CCA  C4 7E FA				les	di,dword ptr [bp-6]	; Load seg:offset ptr
2926:5CCD  83 C7 28				add	di,28h
2926:5CD0  06					push	es
2926:5CD1  57					push	di
2926:5CD2  C4 7E FA				les	di,dword ptr [bp-6]	; Load seg:offset ptr
2926:5CD5  83 C7 26				add	di,26h
2926:5CD8  26: 8B 05				mov	ax,es:[di]
2926:5CDB  5B					pop	bx
2926:5CDC  03 C3				add	ax,bx
2926:5CDE  97					xchg	di,ax
2926:5CDF  8A 46 06				mov	al,[bp+6]
2926:5CE2  07					pop	es
2926:5CE3  26: 88 05				mov	es:[di],al
2926:5CE6  C4 7E FA				les	di,dword ptr [bp-6]	; Load seg:offset ptr
2926:5CE9  83 C7 26				add	di,26h
2926:5CEC  06					push	es
2926:5CED  57					push	di
2926:5CEE  C4 7E FA				les	di,dword ptr [bp-6]	; Load seg:offset ptr
2926:5CF1  83 C7 26				add	di,26h
2926:5CF4  26: 8B 05				mov	ax,es:[di]
2926:5CF7  40					inc	ax
2926:5CF8  5F					pop	di
2926:5CF9  07					pop	es
2926:5CFA  26: 89 05				mov	es:[di],ax
2926:5CFD  8B E5				mov	sp,bp
2926:5CFF  5D					pop	bp
2926:5D00  C2 0004				retn	4
2926:5D03			loc_460:					;  xref 2926:5221
2926:5D03  55					push	bp
2926:5D04  8B EC				mov	bp,sp
2926:5D06  55					push	bp
2926:5D07  81 EC 000C				sub	sp,0Ch
2926:5D0B  C7 06 83B3 0000			mov	word ptr ds:data_344e,0	; (2926:83B3=0)
2926:5D11  C4 3E 83AF				les	di,dword ptr ds:data_342e	; (2926:83AF=0) Load seg:offset ptr
2926:5D15  83 C7 26				add	di,26h
2926:5D18  26: 8A 05				mov	al,es:[di]
2926:5D1B  32 E4				xor	ah,ah			; Zero register
           ICON0.lst       ICON0.OVL		Sourcer	v8.01  20-Jul-2026 12:17 am   Page 197

2926:5D1D  3D 0004				cmp	ax,4
2926:5D20  74 03				je	loc_461			; Jump if equal
2926:5D22  E9 0094				jmp	loc_469			; (5DB9)
2926:5D25			loc_461:					;  xref 2926:5D20
2926:5D25  B8 0001				mov	ax,1
2926:5D28  50					push	ax
2926:5D29  16					push	ss
2926:5D2A  8D 46 FC				lea	ax,[bp-4]		; Load effective addr
2926:5D2D  50					push	ax
2926:5D2E  E8 1978				call	sub_303			; (76A9)
2926:5D31  88 46 F9				mov	[bp-7],al
2926:5D34  8A 46 F9				mov	al,[bp-7]
2926:5D37  32 E4				xor	ah,ah			; Zero register
2926:5D39  81 F8 0008				cmp	ax,8
						nop	                        ;*ASM fixup - short reg form
2926:5D3D  B8 0000				mov	ax,0
2926:5D40  75 01				jnz	loc_462			; Jump if not zero
2926:5D42  40					inc	ax
2926:5D43			loc_462:					;  xref 2926:5D40
2926:5D43  D0 D8				rcr	al,1			; Rotate thru carry
2926:5D45  72 03				jc	loc_463			; Jump if carry Set
2926:5D47  E9 0019				jmp	loc_464			; (5D63)
2926:5D4A			loc_463:					;  xref 2926:5D45
2926:5D4A  B8 0002				mov	ax,2
2926:5D4D  50					push	ax
2926:5D4E  B8 0020				mov	ax,20h
2926:5D51  50					push	ax
2926:5D52  E8 1975				call	sub_304			; (76CA)
2926:5D55  B8 0002				mov	ax,2
2926:5D58  50					push	ax
2926:5D59  B8 0008				mov	ax,8
2926:5D5C  50					push	ax
2926:5D5D  E8 196A				call	sub_304			; (76CA)
2926:5D60  E9 0021				jmp	loc_467			; (5D84)
2926:5D63			loc_464:					;  xref 2926:5D47
2926:5D63  8A 46 F9				mov	al,[bp-7]
2926:5D66  32 E4				xor	ah,ah			; Zero register
2926:5D68  81 F8 000D				cmp	ax,0Dh
						nop	                        ;*ASM fixup - short reg form
2926:5D6C  B8 0000				mov	ax,0
2926:5D6F  75 01				jnz	loc_465			; Jump if not zero
2926:5D71  40					inc	ax
2926:5D72			loc_465:					;  xref 2926:5D6F
2926:5D72  D0 D8				rcr	al,1			; Rotate thru carry
2926:5D74  72 03				jc	loc_466			; Jump if carry Set
2926:5D76  E9 000B				jmp	loc_467			; (5D84)
2926:5D79			loc_466:					;  xref 2926:5D74
2926:5D79  B8 0002				mov	ax,2
2926:5D7C  50					push	ax
2926:5D7D  B8 000A				mov	ax,0Ah
2926:5D80  50					push	ax
2926:5D81  E8 1946				call	sub_304			; (76CA)
2926:5D84			loc_467:					;  xref 2926:5D60, 5D76
2926:5D84  C4 3E 83AF				les	di,dword ptr ds:data_342e	; (2926:83AF=0) Load seg:offset ptr
2926:5D88  83 C7 38				add	di,38h
2926:5D8B  06					push	es
2926:5D8C  57					push	di
           ICON0.lst       ICON0.OVL		Sourcer	v8.01  20-Jul-2026 12:17 am   Page 198

2926:5D8D  58					pop	ax
2926:5D8E  05 0000				add	ax,0
2926:5D91  97					xchg	di,ax
2926:5D92  8A 46 F9				mov	al,[bp-7]
2926:5D95  07					pop	es
2926:5D96  26: 88 05				mov	es:[di],al
2926:5D99  C4 3E 83AF				les	di,dword ptr ds:data_342e	; (2926:83AF=0) Load seg:offset ptr
2926:5D9D  83 C7 2E				add	di,2Eh
2926:5DA0  06					push	es
2926:5DA1  57					push	di
2926:5DA2  8A 46 F9				mov	al,[bp-7]
2926:5DA5  32 E4				xor	ah,ah			; Zero register
2926:5DA7  81 F8 001A				cmp	ax,1Ah
						nop	                        ;*ASM fixup - short reg form
2926:5DAB  B8 0000				mov	ax,0
2926:5DAE  75 01				jnz	loc_468			; Jump if not zero
2926:5DB0  40					inc	ax
2926:5DB1			loc_468:					;  xref 2926:5DAE
2926:5DB1  5F					pop	di
2926:5DB2  07					pop	es
2926:5DB3  26: 88 05				mov	es:[di],al
2926:5DB6  E9 012F				jmp	loc_480			; (5EE8)
2926:5DB9			loc_469:					;  xref 2926:5D22
2926:5DB9  C4 3E 83AF				les	di,dword ptr ds:data_342e	; (2926:83AF=0) Load seg:offset ptr
2926:5DBD  83 C7 26				add	di,26h
2926:5DC0  26: 8A 05				mov	al,es:[di]
2926:5DC3  32 E4				xor	ah,ah			; Zero register
2926:5DC5  3D 0005				cmp	ax,5
2926:5DC8  74 03				je	loc_470			; Jump if equal
2926:5DCA  E9 0040				jmp	loc_473			; (5E0D)
2926:5DCD			loc_470:					;  xref 2926:5DC8, 5DF2
2926:5DCD úB8 0006				mov	ax,6
2926:5DD0  50					push	ax
2926:5DD1  B8 FFFF				mov	ax,0FFFFh
2926:5DD4  50					push	ax
2926:5DD5  B8 FFFF				mov	ax,0FFFFh
2926:5DD8  50					push	ax
2926:5DD9  E8 18CD				call	sub_303			; (76A9)
2926:5DDC  88 46 F9				mov	[bp-7],al
2926:5DDF  8A 46 F9				mov	al,[bp-7]
2926:5DE2  32 E4				xor	ah,ah			; Zero register
2926:5DE4  81 F8 0000				cmp	ax,0
						nop	                        ;*ASM fixup - short reg form
2926:5DE8  B8 0000				mov	ax,0
2926:5DEB  74 01				jz	loc_471			; Jump if zero
2926:5DED  40					inc	ax
2926:5DEE			loc_471:					;  xref 2926:5DEB
2926:5DEE  D0 D8				rcr	al,1			; Rotate thru carry
2926:5DF0  72 03				jc	loc_472			; Jump if carry Set
2926:5DF2  E9 FFD8				jmp	loc_470			; (5DCD)
						nop	                                        ;*jump fixup
2926:5DF5			loc_472:					;  xref 2926:5DF0
2926:5DF5  C4 3E 83AF				les	di,dword ptr ds:data_342e	; (2926:83AF=0) Load seg:offset ptr
2926:5DF9  83 C7 38				add	di,38h
2926:5DFC  06					push	es
2926:5DFD  57					push	di
2926:5DFE  58					pop	ax
           ICON0.lst       ICON0.OVL		Sourcer	v8.01  20-Jul-2026 12:17 am   Page 199

2926:5DFF  05 0000				add	ax,0
2926:5E02  97					xchg	di,ax
2926:5E03  8A 46 F9				mov	al,[bp-7]
2926:5E06  07					pop	es
2926:5E07  26: 88 05				mov	es:[di],al
2926:5E0A  E9 00DB				jmp	loc_480			; (5EE8)
2926:5E0D			loc_473:					;  xref 2926:5DCA
2926:5E0D  C4 3E 83AF				les	di,dword ptr ds:data_342e	; (2926:83AF=0) Load seg:offset ptr
2926:5E11  83 C7 26				add	di,26h
2926:5E14  26: 8A 05				mov	al,es:[di]
2926:5E17  32 E4				xor	ah,ah			; Zero register
2926:5E19  3D 0007				cmp	ax,7
2926:5E1C  74 03				je	loc_474			; Jump if equal
2926:5E1E  E9 0027				jmp	loc_475			; (5E48)
2926:5E21			loc_474:					;  xref 2926:5E1C
2926:5E21  B8 0003				mov	ax,3
2926:5E24  50					push	ax
2926:5E25  16					push	ss
2926:5E26  8D 46 FC				lea	ax,[bp-4]		; Load effective addr
2926:5E29  50					push	ax
2926:5E2A  E8 187C				call	sub_303			; (76A9)
2926:5E2D  88 46 F9				mov	[bp-7],al
2926:5E30  C4 3E 83AF				les	di,dword ptr ds:data_342e	; (2926:83AF=0) Load seg:offset ptr
2926:5E34  83 C7 38				add	di,38h
2926:5E37  06					push	es
2926:5E38  57					push	di
2926:5E39  58					pop	ax
2926:5E3A  05 0000				add	ax,0
2926:5E3D  97					xchg	di,ax
2926:5E3E  8A 46 F9				mov	al,[bp-7]
2926:5E41  07					pop	es
2926:5E42  26: 88 05				mov	es:[di],al
2926:5E45  E9 00A0				jmp	loc_480			; (5EE8)
2926:5E48			loc_475:					;  xref 2926:5E1E
2926:5E48  C4 3E 83AF				les	di,dword ptr ds:data_342e	; (2926:83AF=0) Load seg:offset ptr
2926:5E4C  83 C7 36				add	di,36h
2926:5E4F  26: 8B 05				mov	ax,es:[di]
2926:5E52  89 46 FC				mov	[bp-4],ax
2926:5E55  C4 3E 83AF				les	di,dword ptr ds:data_342e	; (2926:83AF=0) Load seg:offset ptr
2926:5E59  83 C7 2E				add	di,2Eh
2926:5E5C  26: 8A 05				mov	al,es:[di]
2926:5E5F  88 46 F8				mov	[bp-8],al
2926:5E62  C7 46 FA 0001			mov	word ptr [bp-6],1
2926:5E67			loc_476:					;  xref 2926:5EC5
2926:5E67 ú8B 46 FA				mov	ax,[bp-6]
2926:5E6A  50					push	ax
2926:5E6B  C4 3E 83AF				les	di,dword ptr ds:data_342e	; (2926:83AF=0) Load seg:offset ptr
2926:5E6F  83 C7 28				add	di,28h
2926:5E72  26: 8B 05				mov	ax,es:[di]
2926:5E75  5B					pop	bx
2926:5E76  3B D8				cmp	bx,ax
2926:5E78  B8 0000				mov	ax,0
2926:5E7B  7F 01				jg	loc_477			; Jump if >
2926:5E7D  40					inc	ax
2926:5E7E			loc_477:					;  xref 2926:5E7B
2926:5E7E  50					push	ax
2926:5E7F  8A 46 F8				mov	al,[bp-8]
           ICON0.lst       ICON0.OVL		Sourcer	v8.01  20-Jul-2026 12:17 am   Page 200

2926:5E82  32 E4				xor	ah,ah			; Zero register
2926:5E84  F7 D0				not	ax
2926:5E86  5B					pop	bx
2926:5E87  23 C3				and	ax,bx
2926:5E89  D0 D8				rcr	al,1			; Rotate thru carry
2926:5E8B  72 03				jc	loc_478			; Jump if carry Set
2926:5E8D  E9 0037				jmp	loc_479			; (5EC7)
2926:5E90			loc_478:					;  xref 2926:5E8B
2926:5E90  C4 3E 83AF				les	di,dword ptr ds:data_342e	; (2926:83AF=0) Load seg:offset ptr
2926:5E94  06					push	es
2926:5E95  57					push	di
2926:5E96  58					pop	ax
2926:5E97  89 46 F4				mov	[bp-0Ch],ax
2926:5E9A  58					pop	ax
2926:5E9B  89 46 F6				mov	[bp-0Ah],ax
2926:5E9E  C4 7E F4				les	di,dword ptr [bp-0Ch]	; Load seg:offset ptr
2926:5EA1  83 C7 38				add	di,38h
2926:5EA4  06					push	es
2926:5EA5  57					push	di
2926:5EA6  8B 46 FA				mov	ax,[bp-6]
2926:5EA9  48					dec	ax
2926:5EAA  5B					pop	bx
2926:5EAB  03 C3				add	ax,bx
2926:5EAD  50					push	ax
2926:5EAE  FF 76 FC				push	word ptr [bp-4]
2926:5EB1  16					push	ss
2926:5EB2  8D 46 F8				lea	ax,[bp-8]		; Load effective addr
2926:5EB5  50					push	ax
2926:5EB6  E8 F362				call	sub_235			; (521B)
2926:5EB9  5F					pop	di
2926:5EBA  07					pop	es
2926:5EBB  26: 88 05				mov	es:[di],al
2926:5EBE  8B 46 FA				mov	ax,[bp-6]
2926:5EC1  40					inc	ax
2926:5EC2  89 46 FA				mov	[bp-6],ax
2926:5EC5  EB A0				jmp	short loc_476		; (5E67)
2926:5EC7			loc_479:					;  xref 2926:5E8D
2926:5EC7  C4 3E 83AF				les	di,dword ptr ds:data_342e	; (2926:83AF=0) Load seg:offset ptr
2926:5ECB  83 C7 2E				add	di,2Eh
2926:5ECE  90					nop
2926:5ECF  90					nop
2926:5ED0  8A 46 F8				mov	al,[bp-8]
2926:5ED3  26: 88 05				mov	es:[di],al
2926:5ED6  C4 3E 83AF				les	di,dword ptr ds:data_342e	; (2926:83AF=0) Load seg:offset ptr
2926:5EDA  83 C7 2C				add	di,2Ch
2926:5EDD  06					push	es
2926:5EDE  57					push	di
2926:5EDF  8B 46 FA				mov	ax,[bp-6]
2926:5EE2  48					dec	ax
2926:5EE3  5F					pop	di
2926:5EE4  07					pop	es
2926:5EE5  26: 89 05				mov	es:[di],ax
2926:5EE8			loc_480:					;  xref 2926:5DB6, 5E0A, 5E45
2926:5EE8  8B E5				mov	sp,bp
2926:5EEA  5D					pop	bp
2926:5EEB  C3					retn
2926:5EEC			loc_481:					;  xref 2926:5224
           ICON0.lst       ICON0.OVL		Sourcer	v8.01  20-Jul-2026 12:17 am   Page 201

2926:5EEC  55					push	bp
2926:5EED  8B EC				mov	bp,sp
2926:5EEF  55					push	bp
2926:5EF0  81 EC 000D				sub	sp,0Dh
2926:5EF4  C7 06 83B3 0000			mov	word ptr ds:data_344e,0	; (2926:83B3=0)
2926:5EFA  C4 3E 83AF				les	di,dword ptr ds:data_342e	; (2926:83AF=0) Load seg:offset ptr
2926:5EFE  83 C7 26				add	di,26h
2926:5F01  26: 8A 05				mov	al,es:[di]
2926:5F04  32 E4				xor	ah,ah			; Zero register
2926:5F06  3D 0004				cmp	ax,4
2926:5F09  74 03				je	loc_482			; Jump if equal
2926:5F0B  E9 001F				jmp	loc_483			; (5F2D)
2926:5F0E			loc_482:					;  xref 2926:5F09
2926:5F0E  B8 0002				mov	ax,2
2926:5F11  50					push	ax
2926:5F12  C4 3E 83AF				les	di,dword ptr ds:data_342e	; (2926:83AF=0) Load seg:offset ptr
2926:5F16  83 C7 38				add	di,38h
2926:5F19  06					push	es
2926:5F1A  57					push	di
2926:5F1B  58					pop	ax
2926:5F1C  05 0000				add	ax,0
2926:5F1F  97					xchg	di,ax
2926:5F20  07					pop	es
2926:5F21  26: 8A 05				mov	al,es:[di]
2926:5F24  32 E4				xor	ah,ah			; Zero register
2926:5F26  50					push	ax
2926:5F27  E8 17A0				call	sub_304			; (76CA)
2926:5F2A  E9 0107				jmp	loc_493			; (6034)
2926:5F2D			loc_483:					;  xref 2926:5F0B
2926:5F2D  C4 3E 83AF				les	di,dword ptr ds:data_342e	; (2926:83AF=0) Load seg:offset ptr
2926:5F31  83 C7 26				add	di,26h
2926:5F34  26: 8A 05				mov	al,es:[di]
2926:5F37  32 E4				xor	ah,ah			; Zero register
2926:5F39  3D 0005				cmp	ax,5
2926:5F3C  74 03				je	loc_484			; Jump if equal
2926:5F3E  E9 001F				jmp	loc_485			; (5F60)
2926:5F41			loc_484:					;  xref 2926:5F3C
2926:5F41  B8 0006				mov	ax,6
2926:5F44  50					push	ax
2926:5F45  C4 3E 83AF				les	di,dword ptr ds:data_342e	; (2926:83AF=0) Load seg:offset ptr
2926:5F49  83 C7 38				add	di,38h
2926:5F4C  06					push	es
2926:5F4D  57					push	di
2926:5F4E  58					pop	ax
2926:5F4F  05 0000				add	ax,0
2926:5F52  97					xchg	di,ax
2926:5F53  07					pop	es
2926:5F54  26: 8A 05				mov	al,es:[di]
2926:5F57  32 E4				xor	ah,ah			; Zero register
2926:5F59  50					push	ax
2926:5F5A  E8 176D				call	sub_304			; (76CA)
2926:5F5D  E9 00D4				jmp	loc_493			; (6034)
2926:5F60			loc_485:					;  xref 2926:5F3E
2926:5F60  C4 3E 83AF				les	di,dword ptr ds:data_342e	; (2926:83AF=0) Load seg:offset ptr
2926:5F64  83 C7 26				add	di,26h
2926:5F67  26: 8A 05				mov	al,es:[di]
2926:5F6A  32 E4				xor	ah,ah			; Zero register
           ICON0.lst       ICON0.OVL		Sourcer	v8.01  20-Jul-2026 12:17 am   Page 202

2926:5F6C  3D 0006				cmp	ax,6
2926:5F6F  74 03				je	loc_486			; Jump if equal
2926:5F71  E9 001F				jmp	loc_487			; (5F93)
2926:5F74			loc_486:					;  xref 2926:5F6F
2926:5F74  B8 0005				mov	ax,5
2926:5F77  50					push	ax
2926:5F78  C4 3E 83AF				les	di,dword ptr ds:data_342e	; (2926:83AF=0) Load seg:offset ptr
2926:5F7C  83 C7 38				add	di,38h
2926:5F7F  06					push	es
2926:5F80  57					push	di
2926:5F81  58					pop	ax
2926:5F82  05 0000				add	ax,0
2926:5F85  97					xchg	di,ax
2926:5F86  07					pop	es
2926:5F87  26: 8A 05				mov	al,es:[di]
2926:5F8A  32 E4				xor	ah,ah			; Zero register
2926:5F8C  50					push	ax
2926:5F8D  E8 173A				call	sub_304			; (76CA)
2926:5F90  E9 00A1				jmp	loc_493			; (6034)
2926:5F93			loc_487:					;  xref 2926:5F71
2926:5F93  C4 3E 83AF				les	di,dword ptr ds:data_342e	; (2926:83AF=0) Load seg:offset ptr
2926:5F97  83 C7 26				add	di,26h
2926:5F9A  26: 8A 05				mov	al,es:[di]
2926:5F9D  32 E4				xor	ah,ah			; Zero register
2926:5F9F  3D 0007				cmp	ax,7
2926:5FA2  74 03				je	loc_488			; Jump if equal
2926:5FA4  E9 001F				jmp	loc_489			; (5FC6)
2926:5FA7			loc_488:					;  xref 2926:5FA2
2926:5FA7  B8 0004				mov	ax,4
2926:5FAA  50					push	ax
2926:5FAB  C4 3E 83AF				les	di,dword ptr ds:data_342e	; (2926:83AF=0) Load seg:offset ptr
2926:5FAF  83 C7 38				add	di,38h
2926:5FB2  06					push	es
2926:5FB3  57					push	di
2926:5FB4  58					pop	ax
2926:5FB5  05 0000				add	ax,0
2926:5FB8  97					xchg	di,ax
2926:5FB9  07					pop	es
2926:5FBA  26: 8A 05				mov	al,es:[di]
2926:5FBD  32 E4				xor	ah,ah			; Zero register
2926:5FBF  50					push	ax
2926:5FC0  E8 1707				call	sub_304			; (76CA)
2926:5FC3  E9 006E				jmp	loc_493			; (6034)
2926:5FC6			loc_489:					;  xref 2926:5FA4
2926:5FC6  C4 3E 83AF				les	di,dword ptr ds:data_342e	; (2926:83AF=0) Load seg:offset ptr
2926:5FCA  83 C7 36				add	di,36h
2926:5FCD  26: 8B 05				mov	ax,es:[di]
2926:5FD0  89 46 FC				mov	[bp-4],ax
2926:5FD3  B8 0001				mov	ax,1
2926:5FD6  50					push	ax
2926:5FD7  C4 3E 83AF				les	di,dword ptr ds:data_342e	; (2926:83AF=0) Load seg:offset ptr
2926:5FDB  83 C7 28				add	di,28h
2926:5FDE  26: 8B 05				mov	ax,es:[di]
2926:5FE1  5B					pop	bx
2926:5FE2  93					xchg	bx,ax
2926:5FE3  89 46 FA				mov	[bp-6],ax
2926:5FE6  93					xchg	bx,ax
           ICON0.lst       ICON0.OVL		Sourcer	v8.01  20-Jul-2026 12:17 am   Page 203

2926:5FE7  FF 4E FA				dec	word ptr [bp-6]
2926:5FEA  2B C3				sub	ax,bx
2926:5FEC  40					inc	ax
2926:5FED  89 46 F7				mov	[bp-9],ax
2926:5FF0			loc_490:					;  xref 2926:6026
2926:5FF0 úFF 46 FA				inc	word ptr [bp-6]
2926:5FF3  FF 4E F7				dec	word ptr [bp-9]
2926:5FF6  7D 03				jge	loc_491			; Jump if > or =
2926:5FF8  E9 002D				jmp	loc_492			; (6028)
2926:5FFB			loc_491:					;  xref 2926:5FF6
2926:5FFB  C4 3E 83AF				les	di,dword ptr ds:data_342e	; (2926:83AF=0) Load seg:offset ptr
2926:5FFF  06					push	es
2926:6000  57					push	di
2926:6001  58					pop	ax
2926:6002  89 46 F3				mov	[bp-0Dh],ax
2926:6005  58					pop	ax
2926:6006  89 46 F5				mov	[bp-0Bh],ax
2926:6009  C4 7E F3				les	di,dword ptr [bp-0Dh]	; Load seg:offset ptr
2926:600C  83 C7 38				add	di,38h
2926:600F  06					push	es
2926:6010  57					push	di
2926:6011  8B 46 FA				mov	ax,[bp-6]
2926:6014  48					dec	ax
2926:6015  5B					pop	bx
2926:6016  03 C3				add	ax,bx
2926:6018  97					xchg	di,ax
2926:6019  07					pop	es
2926:601A  26: 8A 05				mov	al,es:[di]
2926:601D  32 E4				xor	ah,ah			; Zero register
2926:601F  50					push	ax
2926:6020  FF 76 FC				push	word ptr [bp-4]
2926:6023  E8 F1F8				call	sub_236			; (521E)
2926:6026  EB C8				jmp	short loc_490		; (5FF0)
2926:6028			loc_492:					;  xref 2926:5FF8
2926:6028  C4 3E 83AF				les	di,dword ptr ds:data_342e	; (2926:83AF=0) Load seg:offset ptr
2926:602C  83 C7 2A				add	di,2Ah
2926:602F  26: C7 05 0000			mov	word ptr es:[di],0
2926:6034			loc_493:					;  xref 2926:5F2A, 5F5D, 5F90, 5FC3
2926:6034  8B E5				mov	sp,bp
2926:6036  5D					pop	bp
2926:6037  C3					retn
2926:6038			loc_494:					;  xref 2926:5227
2926:6038  55					push	bp
2926:6039  8B EC				mov	bp,sp
2926:603B  55					push	bp
2926:603C  81 EC 0002				sub	sp,2
2926:6040  1E					push	ds
2926:6041  B8 83B5				mov	ax,83B5h
2926:6044  50					push	ax
2926:6045  C4 7E 06				les	di,dword ptr [bp+6]	; Load seg:offset ptr
2926:6048  83 C7 36				add	di,36h
2926:604B  26: 8B 05				mov	ax,es:[di]
2926:604E  BB 00A9				mov	bx,0A9h
2926:6051  F7 E3				mul	bx			; dx:ax = reg * ax
2926:6053  5B					pop	bx
2926:6054  03 C3				add	ax,bx
2926:6056  40					inc	ax
           ICON0.lst       ICON0.OVL		Sourcer	v8.01  20-Jul-2026 12:17 am   Page 204

2926:6057  50					push	ax
2926:6058  E8 0353				call	sub_256			; (63AE)
2926:605B  8B E5				mov	sp,bp
2926:605D  5D					pop	bp
2926:605E  C2 0006				retn	6
2926:6061  E9 00 00				db	0E9h, 00h, 00h

				;ßßßßßßßßßßßßßßßßßßßßßßßßßßßßßßßßßßßßßßßßßßßßßßßßßßßßßßßßßßßßßßßßßßßßßßßßßß
				;                              SUBROUTINE
				;
				;         Called from:   2926:01FC, 0258, 02B4, 02FD, 0318, 2CB9, 2CC4
				;                             2D06, 2D46, 2D86, 2DC2, 2DFE, 2E3C, 2E7C
				;                             2EB9, 2EF9, 2F04, 2F44, 2F85, 2FC0, 2FFA
				;                             3036, 305C, 30A4, 30AF, 30EB, 312D, 316D
				;                             31AD, 31EE, 322E, 326D, 33AF, 33F1, 3432
				;                             34B4, 34F6, 3537, 3576, 35B5, 362E, 3679
				;                             3684, 3701, 373F, 3780, 37BD, 37FC, 383D
				;                             387E, 38C0, 38FD, 393C, 397C, 39BB, 39F6
				;                             3A36, 3A78, 3AB9, 3AFB, 3B26, 3B68, 3B73
				;                             3BB4, 3BF1, 3C30, 3C71, 3CB3, 3CF5, 3D35
				;                             3D77, 3DB8, 3DF9, 3E3B, 3E7D, 3EB9, 3EFB
				;                             3F3C, 3F7D, 3FBE, 4060, 40A5, 40B0, 40ED
				;                             4129, 416A, 41EC, 4227, 4265, 42A5, 42E2
				;                             4322, 435F, 4389, 43CF, 43DA, 441C, 445A
				;                             449C, 451E, 4560, 45E2, 4622, 465B, 4699
				;                             46DA, 471A, 4758, 4799, 47D9, 4816, 4843
				;                             488B, 4896, 48D2, 4914, 4954, 4995, 49D0
				;                             4A10, 4A4C, 4A89, 4AC7, 4B47, 4B87, 4BC5
				;                             4BE5, 4F3F, 4F90, 4FBA, 52BD, 69A2
				;ÜÜÜÜÜÜÜÜÜÜÜÜÜÜÜÜÜÜÜÜÜÜÜÜÜÜÜÜÜÜÜÜÜÜÜÜÜÜÜÜÜÜÜÜÜÜÜÜÜÜÜÜÜÜÜÜÜÜÜÜÜÜÜÜÜÜÜÜÜÜÜÜÜÜ

2926:6064			sub_248		proc	near
2926:6064  E9 0000				jmp	loc_495			; (6067)
2926:6067			loc_495:					;  xref 2926:6064
2926:6067  55					push	bp
2926:6068  8B EC				mov	bp,sp
2926:606A  55					push	bp
2926:606B  81 EC 0002				sub	sp,2
2926:606F  B8 000D				mov	ax,0Dh
2926:6072 ú50					push	ax
2926:6073  E8 1034				call	sub_275			; (70AA)
2926:6076  B8 000A				mov	ax,0Ah
2926:6079 ú50					push	ax
2926:607A  E8 102D				call	sub_275			; (70AA)
2926:607D  8B E5				mov	sp,bp
2926:607F  5D					pop	bp
2926:6080  C3					retn
				sub_248		endp

2926:6081  E9 00 00				db	0E9h, 00h, 00h

				;ßßßßßßßßßßßßßßßßßßßßßßßßßßßßßßßßßßßßßßßßßßßßßßßßßßßßßßßßßßßßßßßßßßßßßßßßßß
				;                              SUBROUTINE
				;
				;         Called from:   2926:0793, 07AA, 08D3, 092A, 0940, 0956, 096C
				;                             0982, 0998, 09AE, 09C4, 09D7, 0A0B, 0A9E
				;                             0C7D, 0CB6, 0CEF, 0D44, 0D9F, 0DC1, 0E50
           ICON0.lst       ICON0.OVL				Sourcer	v8.01  20-Jul-2026 12:17 am   Page 205

				;                             0E78, 0EA1, 0EFE
				;ÜÜÜÜÜÜÜÜÜÜÜÜÜÜÜÜÜÜÜÜÜÜÜÜÜÜÜÜÜÜÜÜÜÜÜÜÜÜÜÜÜÜÜÜÜÜÜÜÜÜÜÜÜÜÜÜÜÜÜÜÜÜÜÜÜÜÜÜÜÜÜÜÜÜ

2926:6084			sub_249		proc	near
2926:6084  E9 0000				jmp	loc_496			; (6087)
2926:6087			loc_496:					;  xref 2926:6084
2926:6087  55					push	bp
2926:6088  8B EC				mov	bp,sp
2926:608A  55					push	bp
2926:608B  81 EC 0003				sub	sp,3
2926:608F			loc_497:					;  xref 2926:60AA
2926:608F úC4 3E 83AF				les	di,dword ptr ds:data_342e	; (2926:83AF=0) Load seg:offset ptr
2926:6093  83 C7 2F				add	di,2Fh
2926:6096  26: 8A 05				mov	al,es:[di]
2926:6099  32 E4				xor	ah,ah			; Zero register
2926:609B  F7 D0				not	ax
2926:609D  D0 D8				rcr	al,1			; Rotate thru carry
2926:609F  72 03				jc	loc_498			; Jump if carry Set
2926:60A1  E9 0008				jmp	loc_499			; (60AC)
2926:60A4			loc_498:					;  xref 2926:609F
2926:60A4  E8 11B0				call	sub_281			; (7257)
2926:60A7  88 46 FD				mov	[bp-3],al
2926:60AA  EB E3				jmp	short loc_497		; (608F)
2926:60AC			loc_499:					;  xref 2926:60A1
2926:60AC  C4 3E 83AF				les	di,dword ptr ds:data_342e	; (2926:83AF=0) Load seg:offset ptr
2926:60B0  83 C7 2F				add	di,2Fh
2926:60B3  26: C6 05 00				mov	byte ptr es:[di],0
2926:60B7  C4 3E 83AF				les	di,dword ptr ds:data_342e	; (2926:83AF=0) Load seg:offset ptr
2926:60BB  83 C7 26				add	di,26h
2926:60BE  26: 8A 05				mov	al,es:[di]
2926:60C1  3C 04				cmp	al,4
2926:60C3  75 03				jne	loc_500			; Jump if not equal
2926:60C5  E9 0006				jmp	loc_501			; (60CE)
2926:60C8			loc_500:					;  xref 2926:60C3
2926:60C8  E8 118C				call	sub_281			; (7257)
2926:60CB  88 46 FD				mov	[bp-3],al
2926:60CE			loc_501:					;  xref 2926:60C5
2926:60CE  8B E5				mov	sp,bp
2926:60D0  5D					pop	bp
2926:60D1  C3					retn
				sub_249		endp

2926:60D2  E9 00 00				db	0E9h, 00h, 00h

				;ßßßßßßßßßßßßßßßßßßßßßßßßßßßßßßßßßßßßßßßßßßßßßßßßßßßßßßßßßßßßßßßßßßßßßßßßßß
				;                              SUBROUTINE
				;
				;         Called from:   2926:55C2
				;ÜÜÜÜÜÜÜÜÜÜÜÜÜÜÜÜÜÜÜÜÜÜÜÜÜÜÜÜÜÜÜÜÜÜÜÜÜÜÜÜÜÜÜÜÜÜÜÜÜÜÜÜÜÜÜÜÜÜÜÜÜÜÜÜÜÜÜÜÜÜÜÜÜÜ

2926:60D5			sub_250		proc	near
2926:60D5  E9 0000				jmp	loc_502			; (60D8)
2926:60D8			loc_502:					;  xref 2926:60D5
2926:60D8  55					push	bp
2926:60D9  8B EC				mov	bp,sp
2926:60DB  55					push	bp
2926:60DC  81 EC 0002				sub	sp,2
           ICON0.lst       ICON0.OVL		Sourcer	v8.01  20-Jul-2026 12:17 am   Page 206

2926:60E0  C4 7E 08				les	di,dword ptr [bp+8]	; Load seg:offset ptr
2926:60E3  06					push	es
2926:60E4  57					push	di
2926:60E5  8B 46 06				mov	ax,[bp+6]
2926:60E8  93					xchg	bx,ax
2926:60E9  8B 46 04				mov	ax,[bp+4]
2926:60EC  03 C3				add	ax,bx
2926:60EE  5B					pop	bx
2926:60EF  03 C3				add	ax,bx
2926:60F1  50					push	ax
2926:60F2  C4 7E 08				les	di,dword ptr [bp+8]	; Load seg:offset ptr
2926:60F5  06					push	es
2926:60F6  57					push	di
2926:60F7  8B 46 06				mov	ax,[bp+6]
2926:60FA  5B					pop	bx
2926:60FB  03 C3				add	ax,bx
2926:60FD ú50					push	ax
2926:60FE  C4 7E 08				les	di,dword ptr [bp+8]	; Load seg:offset ptr
2926:6101  26: 8A 05				mov	al,es:[di]
2926:6104  32 E4				xor	ah,ah			; Zero register
2926:6106  50					push	ax
2926:6107  8B 46 06				mov	ax,[bp+6]
2926:610A  93					xchg	bx,ax
2926:610B  8B 46 04				mov	ax,[bp+4]
2926:610E  03 C3				add	ax,bx
2926:6110  48					dec	ax
2926:6111  5B					pop	bx
2926:6112  2B D8				sub	bx,ax
2926:6114  53					push	bx
2926:6115  E8 1218				call	sub_284			; (7330)
2926:6118  C4 7E 08				les	di,dword ptr [bp+8]	; Load seg:offset ptr
2926:611B  06					push	es
2926:611C  57					push	di
2926:611D  58					pop	ax
2926:611E  05 0000				add	ax,0
2926:6121  50					push	ax
2926:6122  C4 7E 08				les	di,dword ptr [bp+8]	; Load seg:offset ptr
2926:6125  26: 8A 05				mov	al,es:[di]
2926:6128  32 E4				xor	ah,ah			; Zero register
2926:612A  50					push	ax
2926:612B  8B 46 04				mov	ax,[bp+4]
2926:612E  5B					pop	bx
2926:612F  2B D8				sub	bx,ax
2926:6131  93					xchg	bx,ax
2926:6132  5F					pop	di
2926:6133  07					pop	es
2926:6134  26: 88 05				mov	es:[di],al
2926:6137  8B E5				mov	sp,bp
2926:6139  5D					pop	bp
2926:613A  C2 0008				retn	8
				sub_250		endp

2926:613D  E9 00 00				db	0E9h, 00h, 00h

				;ßßßßßßßßßßßßßßßßßßßßßßßßßßßßßßßßßßßßßßßßßßßßßßßßßßßßßßßßßßßßßßßßßßßßßßßßßß
				;                              SUBROUTINE
				;
           ICON0.lst       ICON0.OVL				Sourcer	v8.01  20-Jul-2026 12:17 am   Page 207

				;         Called from:   2926:1238, 159F, 1AD9
				;ÜÜÜÜÜÜÜÜÜÜÜÜÜÜÜÜÜÜÜÜÜÜÜÜÜÜÜÜÜÜÜÜÜÜÜÜÜÜÜÜÜÜÜÜÜÜÜÜÜÜÜÜÜÜÜÜÜÜÜÜÜÜÜÜÜÜÜÜÜÜÜÜÜÜ

2926:6140			sub_251		proc	near
2926:6140  E9 0000				jmp	loc_503			; (6143)
2926:6143			loc_503:					;  xref 2926:6140
2926:6143  55					push	bp
2926:6144  8B EC				mov	bp,sp
2926:6146  55					push	bp
2926:6147  81 EC 000C				sub	sp,0Ch
2926:614B  81 7E 04 FFFF			cmp	word ptr [bp+4],0FFFFh
2926:6150  74 03				je	loc_504			; Jump if equal
2926:6152  E9 0009				jmp	loc_505			; (615E)
2926:6155			loc_504:					;  xref 2926:6150
2926:6155  A0 836C				mov	al,ds:data_319e		; (2926:836C=0)
2926:6158  88 46 F4				mov	[bp-0Ch],al
2926:615B  E9 000C				jmp	loc_506			; (616A)
2926:615E			loc_505:					;  xref 2926:6152
2926:615E  C4 7E 06				les	di,dword ptr [bp+6]	; Load seg:offset ptr
2926:6161  83 C7 2E				add	di,2Eh
2926:6164  26: 8A 05				mov	al,es:[di]
2926:6167  88 46 F4				mov	[bp-0Ch],al
2926:616A			loc_506:					;  xref 2926:615B
2926:616A  8A 46 F4				mov	al,[bp-0Ch]
2926:616D  32 E4				xor	ah,ah			; Zero register
2926:616F  8B E5				mov	sp,bp
2926:6171  5D					pop	bp
2926:6172  C2 0006				retn	6
				sub_251		endp

2926:6175  E9 00 00				db	0E9h, 00h, 00h

				;ßßßßßßßßßßßßßßßßßßßßßßßßßßßßßßßßßßßßßßßßßßßßßßßßßßßßßßßßßßßßßßßßßßßßßßßßßß
				;                              SUBROUTINE
				;
				;         Called from:   2926:5098, 66E0, 691F, 72AA, 72EB
				;ÜÜÜÜÜÜÜÜÜÜÜÜÜÜÜÜÜÜÜÜÜÜÜÜÜÜÜÜÜÜÜÜÜÜÜÜÜÜÜÜÜÜÜÜÜÜÜÜÜÜÜÜÜÜÜÜÜÜÜÜÜÜÜÜÜÜÜÜÜÜÜÜÜÜ

2926:6178			sub_252		proc	near
2926:6178  E9 0000				jmp	loc_507			; (617B)
2926:617B			loc_507:					;  xref 2926:6178
2926:617B  55					push	bp
2926:617C  8B EC				mov	bp,sp
2926:617E  55					push	bp
2926:617F  81 EC 0003				sub	sp,3
2926:6183  C4 7E 06				les	di,dword ptr [bp+6]	; Load seg:offset ptr
2926:6186  83 C7 2F				add	di,2Fh
2926:6189  26: C6 05 00				mov	byte ptr es:[di],0
2926:618D  C4 7E 06				les	di,dword ptr [bp+6]	; Load seg:offset ptr
2926:6190  06					push	es
2926:6191  57					push	di
2926:6192  58					pop	ax
2926:6193  A3 83AF				mov	ds:data_65e,ax		; (2916:83AF=0)
2926:6196  58					pop	ax
2926:6197  A3 83B1				mov	word ptr ds:data_65e+2,ax	; (2916:83B1=0)
2926:619A  C4 7E 06				les	di,dword ptr [bp+6]	; Load seg:offset ptr
2926:619D  83 C7 2E				add	di,2Eh
           ICON0.lst       ICON0.OVL		Sourcer	v8.01  20-Jul-2026 12:17 am   Page 208

2926:61A0  26: F6 05 01				test	byte ptr es:[di],1
2926:61A4  75 03				jnz	loc_508			; Jump if not zero
2926:61A6  E9 000D				jmp	loc_509			; (61B6)
2926:61A9			loc_508:					;  xref 2926:61A4
2926:61A9  C4 7E 06				les	di,dword ptr [bp+6]	; Load seg:offset ptr
2926:61AC  83 C7 2F				add	di,2Fh
2926:61AF  26: C6 05 01				mov	byte ptr es:[di],1
2926:61B3  E9 00DF				jmp	loc_519			; (6295)
2926:61B6			loc_509:					;  xref 2926:61A6
2926:61B6  E8 F068				call	sub_237			; (5221)
2926:61B9  C4 7E 06				les	di,dword ptr [bp+6]	; Load seg:offset ptr
2926:61BC  83 C7 34				add	di,34h
2926:61BF  26: F6 05 01				test	byte ptr es:[di],1
2926:61C3  75 03				jnz	loc_510			; Jump if not zero
2926:61C5  E9 00CD				jmp	loc_519			; (6295)
2926:61C8			loc_510:					;  xref 2926:61C3
2926:61C8  C4 7E 06				les	di,dword ptr [bp+6]	; Load seg:offset ptr
2926:61CB  83 C7 2E				add	di,2Eh
2926:61CE  06					push	es
2926:61CF  57					push	di
2926:61D0  C4 7E 06				les	di,dword ptr [bp+6]	; Load seg:offset ptr
2926:61D3  83 C7 38				add	di,38h
2926:61D6  06					push	es
2926:61D7  57					push	di
2926:61D8  58					pop	ax
2926:61D9  05 0000				add	ax,0
2926:61DC  97					xchg	di,ax
2926:61DD  07					pop	es
2926:61DE  26: 8A 05				mov	al,es:[di]
2926:61E1  3C 1A				cmp	al,1Ah
2926:61E3  B8 0000				mov	ax,0
2926:61E6  75 01				jnz	loc_511			; Jump if not zero
2926:61E8  40					inc	ax
2926:61E9			loc_511:					;  xref 2926:61E6
2926:61E9  50					push	ax
2926:61EA  C4 7E 06				les	di,dword ptr [bp+6]	; Load seg:offset ptr
2926:61ED  83 C7 2E				add	di,2Eh
2926:61F0  26: 8A 05				mov	al,es:[di]
2926:61F3  32 E4				xor	ah,ah			; Zero register
2926:61F5  5B					pop	bx
2926:61F6  0B C3				or	ax,bx
2926:61F8  5F					pop	di
2926:61F9  07					pop	es
2926:61FA  26: 88 05				mov	es:[di],al
2926:61FD  C4 7E 06				les	di,dword ptr [bp+6]	; Load seg:offset ptr
2926:6200  83 C7 38				add	di,38h
2926:6203  06					push	es
2926:6204  57					push	di
2926:6205  58					pop	ax
2926:6206  05 0000				add	ax,0
2926:6209  97					xchg	di,ax
2926:620A  07					pop	es
2926:620B  26: 8A 05				mov	al,es:[di]
2926:620E  3C 0D				cmp	al,0Dh
2926:6210  B8 0000				mov	ax,0
2926:6213  75 01				jnz	loc_512			; Jump if not zero
2926:6215  40					inc	ax
           ICON0.lst       ICON0.OVL		Sourcer	v8.01  20-Jul-2026 12:17 am   Page 209

2926:6216			loc_512:					;  xref 2926:6213
2926:6216  88 46 FD				mov	[bp-3],al
2926:6219  8A 46 FD				mov	al,[bp-3]
2926:621C  32 E4				xor	ah,ah			; Zero register
2926:621E  50					push	ax
2926:621F  C4 7E 06				les	di,dword ptr [bp+6]	; Load seg:offset ptr
2926:6222  83 C7 2E				add	di,2Eh
2926:6225  26: 8A 05				mov	al,es:[di]
2926:6228  32 E4				xor	ah,ah			; Zero register
2926:622A  5B					pop	bx
2926:622B  0B C3				or	ax,bx
2926:622D  D0 D8				rcr	al,1			; Rotate thru carry
2926:622F  72 03				jc	loc_513			; Jump if carry Set
2926:6231  E9 000A				jmp	loc_514			; (623E)
2926:6234			loc_513:					;  xref 2926:622F
2926:6234  C4 7E 06				les	di,dword ptr [bp+6]	; Load seg:offset ptr
2926:6237  83 C7 2F				add	di,2Fh
2926:623A  26: C6 05 01				mov	byte ptr es:[di],1
2926:623E			loc_514:					;  xref 2926:6231
2926:623E  8A 46 FD				mov	al,[bp-3]
2926:6241  32 E4				xor	ah,ah			; Zero register
2926:6243  50					push	ax
2926:6244  C4 7E 06				les	di,dword ptr [bp+6]	; Load seg:offset ptr
2926:6247  83 C7 26				add	di,26h
2926:624A  26: 8A 05				mov	al,es:[di]
2926:624D  3C 02				cmp	al,2
2926:624F  B8 0000				mov	ax,0
2926:6252  75 01				jnz	loc_515			; Jump if not zero
2926:6254  40					inc	ax
2926:6255			loc_515:					;  xref 2926:6252
2926:6255  5B					pop	bx
2926:6256  23 C3				and	ax,bx
2926:6258  D0 D8				rcr	al,1			; Rotate thru carry
2926:625A  72 03				jc	loc_516			; Jump if carry Set
2926:625C  E9 0003				jmp	loc_517			; (6262)
2926:625F			loc_516:					;  xref 2926:625A
2926:625F  E8 EFBF				call	sub_237			; (5221)
2926:6262			loc_517:					;  xref 2926:625C
2926:6262  C4 7E 06				les	di,dword ptr [bp+6]	; Load seg:offset ptr
2926:6265  83 C7 2E				add	di,2Eh
2926:6268  26: 8A 05				mov	al,es:[di]
2926:626B  32 E4				xor	ah,ah			; Zero register
2926:626D  50					push	ax
2926:626E  C4 7E 06				les	di,dword ptr [bp+6]	; Load seg:offset ptr
2926:6271  83 C7 2F				add	di,2Fh
2926:6274  26: 8A 05				mov	al,es:[di]
2926:6277  32 E4				xor	ah,ah			; Zero register
2926:6279  5B					pop	bx
2926:627A  0B C3				or	ax,bx
2926:627C  D0 D8				rcr	al,1			; Rotate thru carry
2926:627E  72 03				jc	loc_518			; Jump if carry Set
2926:6280  E9 0012				jmp	loc_519			; (6295)
2926:6283			loc_518:					;  xref 2926:627E
2926:6283  C4 7E 06				les	di,dword ptr [bp+6]	; Load seg:offset ptr
2926:6286  83 C7 38				add	di,38h
2926:6289  06					push	es
2926:628A  57					push	di
           ICON0.lst       ICON0.OVL		Sourcer	v8.01  20-Jul-2026 12:17 am   Page 210

2926:628B  58					pop	ax
2926:628C  05 0000				add	ax,0
2926:628F  97					xchg	di,ax
2926:6290  07					pop	es
2926:6291  26: C6 05 20				mov	byte ptr es:[di],20h	; ' '
2926:6295			loc_519:					;  xref 2926:61B3, 61C5, 6280
2926:6295  8B E5				mov	sp,bp
2926:6297  5D					pop	bp
2926:6298  C2 0006				retn	6
				sub_252		endp

2926:629B  E9 00 00				db	0E9h, 00h, 00h

				;ßßßßßßßßßßßßßßßßßßßßßßßßßßßßßßßßßßßßßßßßßßßßßßßßßßßßßßßßßßßßßßßßßßßßßßßßßß
				;                              SUBROUTINE
				;
				;         Called from:   2926:047E, 049B, 0B17, 0B77, 0B84, 1256, 1808
				;                             1B0D, 1B6F, 1B8A, 1BA3, 1BF8, 1C43, 1CAD
				;ÜÜÜÜÜÜÜÜÜÜÜÜÜÜÜÜÜÜÜÜÜÜÜÜÜÜÜÜÜÜÜÜÜÜÜÜÜÜÜÜÜÜÜÜÜÜÜÜÜÜÜÜÜÜÜÜÜÜÜÜÜÜÜÜÜÜÜÜÜÜÜÜÜÜ

2926:629E			sub_253		proc	near
2926:629E  E9 0000				jmp	loc_520			; (62A1)
2926:62A1			loc_520:					;  xref 2926:629E
2926:62A1  55					push	bp
2926:62A2  8B EC				mov	bp,sp
2926:62A4  55					push	bp
2926:62A5  81 EC 0010				sub	sp,10h
2926:62A9  C4 7E 06				les	di,dword ptr [bp+6]	; Load seg:offset ptr
2926:62AC  06					push	es
2926:62AD  57					push	di
2926:62AE  58					pop	ax
2926:62AF  A3 83AF				mov	ds:data_342e,ax		; (2926:83AF=0)
2926:62B2  58					pop	ax
2926:62B3  A3 83B1				mov	word ptr ds:data_342e+2,ax	; (2926:83B1=0)
2926:62B6  C4 7E 06				les	di,dword ptr [bp+6]	; Load seg:offset ptr
2926:62B9  06					push	es
2926:62BA  57					push	di
2926:62BB  58					pop	ax
2926:62BC  89 46 F0				mov	[bp-10h],ax
2926:62BF  58					pop	ax
2926:62C0  89 46 F2				mov	[bp-0Eh],ax
2926:62C3  C4 7E F0				les	di,dword ptr [bp-10h]	; Load seg:offset ptr
2926:62C6  83 C7 2A				add	di,2Ah
2926:62C9  26: 8B 05				mov	ax,es:[di]
2926:62CC  50					push	ax
2926:62CD  C4 7E F0				les	di,dword ptr [bp-10h]	; Load seg:offset ptr
2926:62D0  83 C7 2C				add	di,2Ch
2926:62D3  26: 8B 05				mov	ax,es:[di]
2926:62D6  5B					pop	bx
2926:62D7  3B D8				cmp	bx,ax
2926:62D9  74 03				je	loc_521			; Jump if equal
2926:62DB  E9 000E				jmp	loc_522			; (62EC)
2926:62DE			loc_521:					;  xref 2926:62D9
2926:62DE  E8 EF40				call	sub_237			; (5221)
2926:62E1  C4 7E F0				les	di,dword ptr [bp-10h]	; Load seg:offset ptr
2926:62E4  83 C7 2A				add	di,2Ah
2926:62E7  26: C7 05 0000			mov	word ptr es:[di],0
           ICON0.lst       ICON0.OVL		Sourcer	v8.01  20-Jul-2026 12:17 am   Page 211

2926:62EC			loc_522:					;  xref 2926:62DB
2926:62EC  C4 7E F0				les	di,dword ptr [bp-10h]	; Load seg:offset ptr
2926:62EF  83 C7 2E				add	di,2Eh
2926:62F2  26: 8A 05				mov	al,es:[di]
2926:62F5  32 E4				xor	ah,ah			; Zero register
2926:62F7  F7 D0				not	ax
2926:62F9  50					push	ax
2926:62FA  C4 7E F0				les	di,dword ptr [bp-10h]	; Load seg:offset ptr
2926:62FD  83 C7 2C				add	di,2Ch
2926:6300  26: 8B 05				mov	ax,es:[di]
2926:6303  3D 0000				cmp	ax,0
2926:6306  B8 0000				mov	ax,0
2926:6309  74 01				jz	loc_523			; Jump if zero
2926:630B  40					inc	ax
2926:630C			loc_523:					;  xref 2926:6309
2926:630C  5B					pop	bx
2926:630D  0B C3				or	ax,bx
2926:630F  D0 D8				rcr	al,1			; Rotate thru carry
2926:6311  72 03				jc	loc_524			; Jump if carry Set
2926:6313  E9 0036				jmp	loc_525			; (634C)
2926:6316			loc_524:					;  xref 2926:6311
2926:6316  C4 7E F0				les	di,dword ptr [bp-10h]	; Load seg:offset ptr
2926:6319  83 C7 38				add	di,38h
2926:631C  06					push	es
2926:631D  57					push	di
2926:631E  C4 7E F0				les	di,dword ptr [bp-10h]	; Load seg:offset ptr
2926:6321  83 C7 2A				add	di,2Ah
2926:6324  26: 8B 05				mov	ax,es:[di]
2926:6327  5B					pop	bx
2926:6328  03 C3				add	ax,bx
2926:632A  97					xchg	di,ax
2926:632B  07					pop	es
2926:632C  26: 8A 05				mov	al,es:[di]
2926:632F  88 46 F4				mov	[bp-0Ch],al
2926:6332  C4 7E F0				les	di,dword ptr [bp-10h]	; Load seg:offset ptr
2926:6335  83 C7 2A				add	di,2Ah
2926:6338  06					push	es
2926:6339  57					push	di
2926:633A  C4 7E F0				les	di,dword ptr [bp-10h]	; Load seg:offset ptr
2926:633D  83 C7 2A				add	di,2Ah
2926:6340  26: 8B 05				mov	ax,es:[di]
2926:6343  40					inc	ax
2926:6344  5F					pop	di
2926:6345  07					pop	es
2926:6346  26: 89 05				mov	es:[di],ax
2926:6349  E9 0004				jmp	loc_526			; (6350)
2926:634C			loc_525:					;  xref 2926:6313
2926:634C  C6 46 F4 FF				mov	byte ptr [bp-0Ch],0FFh
2926:6350			loc_526:					;  xref 2926:6349
2926:6350  8A 46 F4				mov	al,[bp-0Ch]
2926:6353  32 E4				xor	ah,ah			; Zero register
2926:6355  8B E5				mov	sp,bp
2926:6357  5D					pop	bp
2926:6358  C2 0006				retn	6
				sub_253		endp

2926:635B  E9 00 00				db	0E9h, 00h, 00h
           ICON0.lst       ICON0.OVL		Sourcer	v8.01  20-Jul-2026 12:17 am   Page 212


				;ßßßßßßßßßßßßßßßßßßßßßßßßßßßßßßßßßßßßßßßßßßßßßßßßßßßßßßßßßßßßßßßßßßßßßßßßßß
				;                              SUBROUTINE
				;
				;         Called from:   2926:51CD
				;ÜÜÜÜÜÜÜÜÜÜÜÜÜÜÜÜÜÜÜÜÜÜÜÜÜÜÜÜÜÜÜÜÜÜÜÜÜÜÜÜÜÜÜÜÜÜÜÜÜÜÜÜÜÜÜÜÜÜÜÜÜÜÜÜÜÜÜÜÜÜÜÜÜÜ

2926:635E			sub_254		proc	near
2926:635E  E9 0000				jmp	loc_527			; (6361)
2926:6361			loc_527:					;  xref 2926:635E
2926:6361  55					push	bp
2926:6362  8B EC				mov	bp,sp
2926:6364  55					push	bp
2926:6365  81 EC 0002				sub	sp,2
2926:6369  C4 7E 06				les	di,dword ptr [bp+6]	; Load seg:offset ptr
2926:636C  06					push	es
2926:636D  57					push	di
2926:636E  E8 EEA1				call	sub_232			; (5212)
2926:6371  A3 83B3				mov	ds:data_67e,ax		; (2916:83B3=0)
2926:6374  8B E5				mov	sp,bp
2926:6376  5D					pop	bp
2926:6377  C2 0006				retn	6
				sub_254		endp

2926:637A  E9 00 00				db	0E9h, 00h, 00h

				;ßßßßßßßßßßßßßßßßßßßßßßßßßßßßßßßßßßßßßßßßßßßßßßßßßßßßßßßßßßßßßßßßßßßßßßßßßß
				;                              SUBROUTINE
				;
				;         Called from:   2926:0BCE
				;ÜÜÜÜÜÜÜÜÜÜÜÜÜÜÜÜÜÜÜÜÜÜÜÜÜÜÜÜÜÜÜÜÜÜÜÜÜÜÜÜÜÜÜÜÜÜÜÜÜÜÜÜÜÜÜÜÜÜÜÜÜÜÜÜÜÜÜÜÜÜÜÜÜÜ

2926:637D			sub_255		proc	near
2926:637D  E9 0000				jmp	loc_528			; (6380)
2926:6380			loc_528:					;  xref 2926:637D
2926:6380  55					push	bp
2926:6381  8B EC				mov	bp,sp
2926:6383  55					push	bp
2926:6384  81 EC 000C				sub	sp,0Ch
2926:6388  A1 83B3				mov	ax,ds:data_344e		; (2926:83B3=0)
2926:638B  89 46 F4				mov	[bp-0Ch],ax
2926:638E  8B 46 F4				mov	ax,[bp-0Ch]
2926:6391  8B E5				mov	sp,bp
2926:6393  5D					pop	bp
2926:6394  C3					retn
				sub_255		endp

							                        ;* No entry point to code
2926:6395  8C DB				mov	bx,ds
2926:6397  5A					pop	dx
2926:6398  1F					pop	ds
2926:6399  B4 1A				mov	ah,1Ah
2926:639B  06					push	es
2926:639C  CD 21				int	21h			; DOS Services  ah=function 1Ah
										;  set DTA(disk xfer area) ds:dx
2926:639E  07					pop	es
2926:639F  8E DB				mov	ds,bx
           ICON0.lst       ICON0.OVL		Sourcer	v8.01  20-Jul-2026 12:17 am   Page 213

2926:63A1  59					pop	cx
2926:63A2 úBA 005C				mov	dx,offset data_80	; (2926:005C=0)
2926:63A5  55					push	bp
2926:63A6  B4 27				mov	ah,27h			; '''
2926:63A8  06					push	es
2926:63A9  CD 21				int	21h			; DOS Services  ah=function 27h
										;  random block read, FCB @ds:dx
										;   cx=#records to read, Returns
										;   al=0 ok, cx=actual rec read
2926:63AB  07					pop	es
2926:63AC  5D					pop	bp
2926:63AD  CB					retf				; Return far

				;ßßßßßßßßßßßßßßßßßßßßßßßßßßßßßßßßßßßßßßßßßßßßßßßßßßßßßßßßßßßßßßßßßßßßßßßßßß
				;                              SUBROUTINE
				;
				;         Called from:   2926:6058
				;ÜÜÜÜÜÜÜÜÜÜÜÜÜÜÜÜÜÜÜÜÜÜÜÜÜÜÜÜÜÜÜÜÜÜÜÜÜÜÜÜÜÜÜÜÜÜÜÜÜÜÜÜÜÜÜÜÜÜÜÜÜÜÜÜÜÜÜÜÜÜÜÜÜÜ

2926:63AE			sub_256		proc	near
2926:63AE  5B					pop	bx
2926:63AF  8C D8				mov	ax,ds
2926:63B1  5E					pop	si
2926:63B2  1F					pop	ds
2926:63B3  8E C0				mov	es,ax
2926:63B5 úBF 005C				mov	di,offset data_80	; (2926:005C=0)
2926:63B8  B9 0025				mov	cx,25h
2926:63BB  FC					cld				; Clear direction
2926:63BC  F3/ A4				rep	movsb			; Rep when cx >0 Mov [si] to es:[di]
2926:63BE  B3 05				mov	bl,5
2926:63C0  26: 88 1E 007D			mov	es:data_82,bl		; (2926:007D=0)
2926:63C5  8E C0				mov	es,ax
2926:63C7 úBF 0082				mov	di,offset data_84	; (2926:0082=90h)
2926:63CA  8C C9				mov	cx,cs
2926:63CC  8E D9				mov	ds,cx
2926:63CE úBE 6315				mov	si,6315h		; (2926:6315=0)
2926:63D1  B9 0019				mov	cx,19h
2926:63D4  F3/ A4				rep	movsb			; Rep when cx >0 Mov [si] to es:[di]
2926:63D6  8E D8				mov	ds,ax
2926:63D8  A1 006C				mov	ax,data_81		; (2926:006C=0)
2926:63DB  B1 07				mov	cl,7
2926:63DD  D3 E8				shr	ax,cl			; Shift w/zeros fill
2926:63DF  48					dec	ax
2926:63E0  48					dec	ax
2926:63E1  48					dec	ax
2926:63E2  48					dec	ax
2926:63E3  48					dec	ax
2926:63E4  0E					push	cs
2926:63E5  33 DB				xor	bx,bx			; Zero register
2926:63E7  53					push	bx
2926:63E8  50					push	ax
2926:63E9  0E					push	cs
2926:63EA  53					push	bx
2926:63EB  06					push	es
2926:63EC  B8 0082				mov	ax,82h
2926:63EF  50					push	ax
2926:63F0  8B EC				mov	bp,sp
           ICON0.lst       ICON0.OVL		Sourcer	v8.01  20-Jul-2026 12:17 am   Page 214

2926:63F2  CB					retf				; Return far
				sub_256		endp

2926:63F3  E9 00 00				db	0E9h, 00h, 00h

				;ßßßßßßßßßßßßßßßßßßßßßßßßßßßßßßßßßßßßßßßßßßßßßßßßßßßßßßßßßßßßßßßßßßßßßßßßßß
				;                              SUBROUTINE
				;ÜÜÜÜÜÜÜÜÜÜÜÜÜÜÜÜÜÜÜÜÜÜÜÜÜÜÜÜÜÜÜÜÜÜÜÜÜÜÜÜÜÜÜÜÜÜÜÜÜÜÜÜÜÜÜÜÜÜÜÜÜÜÜÜÜÜÜÜÜÜÜÜÜÜ

2926:63F6			sub_257		proc	near
2926:63F6  E9 0000				jmp	loc_529			; (63F9)
2926:63F9			loc_529:					;  xref 2926:63F6
2926:63F9  55					push	bp
2926:63FA  8B EC				mov	bp,sp
2926:63FC  55					push	bp
2926:63FD  81 EC 0053				sub	sp,53h
2926:6401  C4 7E 06				les	di,dword ptr [bp+6]	; Load seg:offset ptr
2926:6404  26: 8A 05				mov	al,es:[di]
2926:6407  3C 00				cmp	al,0
2926:6409  74 03				je	loc_530			; Jump if equal
2926:640B  E9 009E				jmp	loc_533			; (64AC)
2926:640E			loc_530:					;  xref 2926:6409
2926:640E  16					push	ss
2926:640F  8D 46 AD				lea	ax,[bp-53h]		; Load effective addr
2926:6412  50					push	ax
2926:6413  0E E8 000F				callf	sub_258			; (6426)
2926:6417  0E					push	cs
2926:6418  40					inc	ax
2926:6419  3A 50 41				cmp	dl,[bx+si+41h]
2926:641C  53					push	bx
2926:641D  54					push	sp
2926:641E  4D					dec	bp
2926:641F  50					push	ax
2926:6420  30 30				xor	[bx+si],dh
2926:6422  2E 24 24 24				db	 2Eh, 24h, 24h, 24h

				;ßßßß External Entry into Subroutine ßßßßßßßßßßßßßßßßßßßßßßßßßßßßßßßßßßßßßß
				;
				;         Called from:   2926:6413

2926:6426			sub_258:
2926:6426  B8 0050				mov	ax,50h
2926:6429  50					push	ax
2926:642A  E8 EA81				call	sub_215			; (4EAE)
2926:642D  1E					push	ds
2926:642E  B8 837F				mov	ax,837Fh
2926:6431  05 0001				add	ax,1
2926:6434  50					push	ax
2926:6435  16					push	ss
2926:6436  8D 46 AD				lea	ax,[bp-53h]		; Load effective addr
2926:6439  05 0009				add	ax,9
2926:643C ú50					push	ax
2926:643D  B8 0002				mov	ax,2
2926:6440  50					push	ax
2926:6441  E8 0EEC				call	sub_284			; (7330)
2926:6444  1E					push	ds
2926:6445  B8 837F				mov	ax,837Fh
           ICON0.lst       ICON0.OVL		Sourcer	v8.01  20-Jul-2026 12:17 am   Page 215

2926:6448  05 0002				add	ax,2
2926:644B  50					push	ax
2926:644C  1E					push	ds
2926:644D  B8 837F				mov	ax,837Fh
2926:6450  05 0002				add	ax,2
2926:6453  97					xchg	di,ax
2926:6454  07					pop	es
2926:6455  26: 8A 05				mov	al,es:[di]
2926:6458  32 E4				xor	ah,ah			; Zero register
2926:645A  40					inc	ax
2926:645B  5F					pop	di
2926:645C  07					pop	es
2926:645D  26: 88 05				mov	es:[di],al
2926:6460  1E					push	ds
2926:6461  B8 837F				mov	ax,837Fh
2926:6464  05 0002				add	ax,2
2926:6467  97					xchg	di,ax
2926:6468  07					pop	es
2926:6469  26: 8A 05				mov	al,es:[di]
2926:646C  3C 39				cmp	al,39h			; '9'
2926:646E  7F 03				jg	loc_531			; Jump if >
2926:6470  E9 0029				jmp	loc_532			; (649C)
2926:6473			loc_531:					;  xref 2926:646E
2926:6473  1E					push	ds
2926:6474  B8 837F				mov	ax,837Fh
2926:6477  05 0002				add	ax,2
2926:647A  97					xchg	di,ax
2926:647B  07					pop	es
2926:647C  26: C6 05 30				mov	byte ptr es:[di],30h	; '0'
2926:6480  1E					push	ds
2926:6481  B8 837F				mov	ax,837Fh
2926:6484  05 0001				add	ax,1
2926:6487  50					push	ax
2926:6488  1E					push	ds
2926:6489  B8 837F				mov	ax,837Fh
2926:648C  05 0001				add	ax,1
2926:648F  97					xchg	di,ax
2926:6490  07					pop	es
2926:6491  26: 8A 05				mov	al,es:[di]
2926:6494  32 E4				xor	ah,ah			; Zero register
2926:6496  40					inc	ax
2926:6497  5F					pop	di
2926:6498  07					pop	es
2926:6499  26: 88 05				mov	es:[di],al
2926:649C			loc_532:					;  xref 2926:6470
2926:649C  C4 7E 06				les	di,dword ptr [bp+6]	; Load seg:offset ptr
2926:649F  06					push	es
2926:64A0  57					push	di
2926:64A1  FF 76 04				push	word ptr [bp+4]
2926:64A4  16					push	ss
2926:64A5  8D 46 AD				lea	ax,[bp-53h]		; Load effective addr
2926:64A8  50					push	ax
2926:64A9  E8 1014				call	sub_295			; (74C0)
2926:64AC			loc_533:					;  xref 2926:640B
2926:64AC  81 7E 04 FFFF			cmp	word ptr [bp+4],0FFFFh
2926:64B1  74 03				je	loc_534			; Jump if equal
2926:64B3  E9 0012				jmp	loc_535			; (64C8)
           ICON0.lst       ICON0.OVL		Sourcer	v8.01  20-Jul-2026 12:17 am   Page 216

2926:64B6			loc_534:					;  xref 2926:64B1
2926:64B6  C4 7E 06				les	di,dword ptr [bp+6]	; Load seg:offset ptr
2926:64B9  83 C7 34				add	di,34h
2926:64BC  26: C6 05 01				mov	byte ptr es:[di],1
2926:64C0  C7 46 04 0001			mov	word ptr [bp+4],1
2926:64C5  E9 000A				jmp	loc_536			; (64D2)
2926:64C8			loc_535:					;  xref 2926:64B3
2926:64C8  C4 7E 06				les	di,dword ptr [bp+6]	; Load seg:offset ptr
2926:64CB  83 C7 34				add	di,34h
2926:64CE  26: C6 05 00				mov	byte ptr es:[di],0
2926:64D2			loc_536:					;  xref 2926:64C5
2926:64D2  C4 7E 06				les	di,dword ptr [bp+6]	; Load seg:offset ptr
2926:64D5  83 C7 2E				add	di,2Eh
2926:64D8  26: C6 05 01				mov	byte ptr es:[di],1
2926:64DC  C4 7E 06				les	di,dword ptr [bp+6]	; Load seg:offset ptr
2926:64DF  83 C7 2F				add	di,2Fh
2926:64E2  26: C6 05 01				mov	byte ptr es:[di],1
2926:64E6  C4 7E 06				les	di,dword ptr [bp+6]	; Load seg:offset ptr
2926:64E9  83 C7 26				add	di,26h
2926:64EC  26: C6 05 01				mov	byte ptr es:[di],1
2926:64F0  C4 7E 06				les	di,dword ptr [bp+6]	; Load seg:offset ptr
2926:64F3  06					push	es
2926:64F4  57					push	di
2926:64F5  58					pop	ax
2926:64F6  A3 83AF				mov	ds:data_342e,ax		; (2926:83AF=0)
2926:64F9  58					pop	ax
2926:64FA  A3 83B1				mov	word ptr ds:data_342e+2,ax	; (2926:83B1=0)
2926:64FD  C4 7E 06				les	di,dword ptr [bp+6]	; Load seg:offset ptr
2926:6500  83 C7 2A				add	di,2Ah
2926:6503  26: C7 05 0000			mov	word ptr es:[di],0
2926:6508  C4 7E 06				les	di,dword ptr [bp+6]	; Load seg:offset ptr
2926:650B  83 C7 2C				add	di,2Ch
2926:650E  90					nop
2926:650F  90					nop
2926:6510  8B 46 04				mov	ax,[bp+4]
2926:6513  26: 89 05				mov	es:[di],ax
2926:6516  C4 7E 06				les	di,dword ptr [bp+6]	; Load seg:offset ptr
2926:6519  83 C7 30				add	di,30h
2926:651C  06					push	es
2926:651D  57					push	di
2926:651E  C4 7E 06				les	di,dword ptr [bp+6]	; Load seg:offset ptr
2926:6521  83 C7 38				add	di,38h
2926:6524  06					push	es
2926:6525  57					push	di
2926:6526  E8 1167				call	sub_299			; (7690)
2926:6529  C4 7E 06				les	di,dword ptr [bp+6]	; Load seg:offset ptr
2926:652C  83 C7 28				add	di,28h
2926:652F  90					nop
2926:6530  90					nop
2926:6531  8B 46 04				mov	ax,[bp+4]
2926:6534  26: 89 05				mov	es:[di],ax
2926:6537  C4 7E 06				les	di,dword ptr [bp+6]	; Load seg:offset ptr
2926:653A  06					push	es
2926:653B  57					push	di
2926:653C  58					pop	ax
2926:653D  05 0001				add	ax,1
2926:6540  97					xchg	di,ax
           ICON0.lst       ICON0.OVL		Sourcer	v8.01  20-Jul-2026 12:17 am   Page 217

2926:6541  07					pop	es
2926:6542  26: 8A 05				mov	al,es:[di]
2926:6545  3C 3A				cmp	al,3Ah			; ':'
2926:6547  B8 0000				mov	ax,0
2926:654A  75 01				jnz	loc_537			; Jump if not zero
2926:654C  40					inc	ax
2926:654D			loc_537:					;  xref 2926:654A
2926:654D  50					push	ax
2926:654E  C4 7E 06				les	di,dword ptr [bp+6]	; Load seg:offset ptr
2926:6551  06					push	es
2926:6552  57					push	di
2926:6553  58					pop	ax
2926:6554  05 0002				add	ax,2
2926:6557  97					xchg	di,ax
2926:6558  07					pop	es
2926:6559  26: 8A 05				mov	al,es:[di]
2926:655C  3C 43				cmp	al,43h			; 'C'
2926:655E  B8 0000				mov	ax,0
2926:6561  75 01				jnz	loc_538			; Jump if not zero
2926:6563  40					inc	ax
2926:6564			loc_538:					;  xref 2926:6561
2926:6564  5B					pop	bx
2926:6565  23 C3				and	ax,bx
2926:6567  D0 D8				rcr	al,1			; Rotate thru carry
2926:6569  72 03				jc	loc_539			; Jump if carry Set
2926:656B  E9 000A				jmp	loc_540			; (6578)
2926:656E			loc_539:					;  xref 2926:6569
2926:656E  C4 7E 06				les	di,dword ptr [bp+6]	; Load seg:offset ptr
2926:6571  83 C7 26				add	di,26h
2926:6574  26: C6 05 04				mov	byte ptr es:[di],4
2926:6578			loc_540:					;  xref 2926:656B
2926:6578  C4 7E 06				les	di,dword ptr [bp+6]	; Load seg:offset ptr
2926:657B  83 C7 36				add	di,36h
2926:657E  06					push	es
2926:657F  57					push	di
2926:6580  C4 7E 06				les	di,dword ptr [bp+6]	; Load seg:offset ptr
2926:6583  06					push	es
2926:6584  57					push	di
2926:6585  B8 01B6				mov	ax,1B6h
2926:6588  50					push	ax
2926:6589  E8 EC83				call	sub_231			; (520F)
2926:658C  5F					pop	di
2926:658D  07					pop	es
2926:658E  26: 89 05				mov	es:[di],ax
2926:6591  C4 7E 06				les	di,dword ptr [bp+6]	; Load seg:offset ptr
2926:6594  83 C7 36				add	di,36h
2926:6597  26: 8B 05				mov	ax,es:[di]
2926:659A  3D FFFF				cmp	ax,0FFFFh
2926:659D  75 03				jne	loc_541			; Jump if not equal
2926:659F  E9 0009				jmp	loc_542			; (65AB)
2926:65A2			loc_541:					;  xref 2926:659D
2926:65A2  C7 06 83B3 0000			mov	word ptr ds:data_344e,0	; (2926:83B3=0)
2926:65A8  E9 0006				jmp	loc_543			; (65B1)
2926:65AB			loc_542:					;  xref 2926:659F
2926:65AB  C7 06 83B3 00FF			mov	word ptr ds:data_344e,0FFh	; (2926:83B3=0)
2926:65B1			loc_543:					;  xref 2926:65A8
2926:65B1  8B E5				mov	sp,bp
           ICON0.lst       ICON0.OVL		Sourcer	v8.01  20-Jul-2026 12:17 am   Page 218

2926:65B3  5D					pop	bp
2926:65B4  C2 0006				retn	6
				sub_257		endp

2926:65B7  E9 00 00				db	0E9h, 00h, 00h

				;ßßßßßßßßßßßßßßßßßßßßßßßßßßßßßßßßßßßßßßßßßßßßßßßßßßßßßßßßßßßßßßßßßßßßßßßßßß
				;                              SUBROUTINE
				;
				;         Called from:   2926:67C8, 6CB5
				;ÜÜÜÜÜÜÜÜÜÜÜÜÜÜÜÜÜÜÜÜÜÜÜÜÜÜÜÜÜÜÜÜÜÜÜÜÜÜÜÜÜÜÜÜÜÜÜÜÜÜÜÜÜÜÜÜÜÜÜÜÜÜÜÜÜÜÜÜÜÜÜÜÜÜ

2926:65BA			sub_259		proc	near
2926:65BA  E9 0009				jmp	loc_544			; (65C6)

				;ßßßß External Entry into Subroutine ßßßßßßßßßßßßßßßßßßßßßßßßßßßßßßßßßßßßßß
				;
				;         Called from:   2926:0790, 0927, 093D, 0953

2926:65BD			sub_260:
2926:65BD  E9 0043				jmp	loc_548			; (6603)

				;ßßßß External Entry into Subroutine ßßßßßßßßßßßßßßßßßßßßßßßßßßßßßßßßßßßßßß
				;
				;         Called from:   2926:0969, 097F, 0995, 09AB, 09C1, 09D4, 0A08
				;                             0A9B, 0C72, 0C7A, 0CAB, 0CB3, 0CE4, 0CEC
				;                             0D2A, 0D41, 0D9C, 0DBE, 0E1F, 0E9E, 0EFB
				;                             6610

2926:65C0			sub_261:
2926:65C0  E9 016B				jmp	loc_560			; (672E) Register jump

				;ßßßß External Entry into Subroutine ßßßßßßßßßßßßßßßßßßßßßßßßßßßßßßßßßßßßßß
				;
				;         Called from:   2926:6821

2926:65C3			sub_262:
2926:65C3  E9 005E				jmp	loc_549			; (6624)
2926:65C6			loc_544:					;  xref 2926:65BA
2926:65C6  55					push	bp
2926:65C7  8B EC				mov	bp,sp
2926:65C9  55					push	bp
2926:65CA  81 EC 000C				sub	sp,0Ch
2926:65CE  82 7E 04 39				cmp	byte ptr [bp+4],39h	; '9'
2926:65D2  7F 03				jg	loc_545			; Jump if >
2926:65D4  E9 0015				jmp	loc_546			; (65EC)
2926:65D7			loc_545:					;  xref 2926:65D2
2926:65D7  8A 46 04				mov	al,[bp+4]
2926:65DA  32 E4				xor	ah,ah			; Zero register
2926:65DC  93					xchg	bx,ax
2926:65DD  B8 0041				mov	ax,41h
2926:65E0  2B D8				sub	bx,ax
2926:65E2  93					xchg	bx,ax
2926:65E3  05 000A				add	ax,0Ah
2926:65E6  89 46 F4				mov	[bp-0Ch],ax
2926:65E9  E9 000E				jmp	loc_547			; (65FA)
2926:65EC			loc_546:					;  xref 2926:65D4
           ICON0.lst       ICON0.OVL		Sourcer	v8.01  20-Jul-2026 12:17 am   Page 219

2926:65EC  8A 46 04				mov	al,[bp+4]
2926:65EF  32 E4				xor	ah,ah			; Zero register
2926:65F1  93					xchg	bx,ax
2926:65F2  B8 000F				mov	ax,0Fh
2926:65F5  23 C3				and	ax,bx
2926:65F7  89 46 F4				mov	[bp-0Ch],ax
2926:65FA			loc_547:					;  xref 2926:65E9
2926:65FA  8B 46 F4				mov	ax,[bp-0Ch]
2926:65FD  8B E5				mov	sp,bp
2926:65FF  5D					pop	bp
2926:6600  C2 0002				retn	2
2926:6603			loc_548:					;  xref 2926:65BD
2926:6603  55					push	bp
2926:6604  8B EC				mov	bp,sp
2926:6606  55					push	bp
2926:6607  81 EC 0004				sub	sp,4
2926:660B  16					push	ss
2926:660C  8D 46 FC				lea	ax,[bp-4]		; Load effective addr
2926:660F  50					push	ax
2926:6610  E8 FFAD				call	sub_261			; (65C0)
2926:6613  C4 7E 04				les	di,dword ptr [bp+4]	; Load seg:offset ptr
2926:6616  90					nop
2926:6617  90					nop
2926:6618  8B 46 FC				mov	ax,[bp-4]
2926:661B  26: 88 05				mov	es:[di],al
2926:661E  8B E5				mov	sp,bp
2926:6620  5D					pop	bp
2926:6621  C2 0004				retn	4
2926:6624			loc_549:					;  xref 2926:65C3
2926:6624  55					push	bp
2926:6625  8B C4				mov	ax,sp
2926:6627  FF 76 FE				push	word ptr [bp-2]
2926:662A  8B E8				mov	bp,ax
2926:662C  55					push	bp
2926:662D  81 EC 0013				sub	sp,13h
2926:6631  8B 5E FE				mov	bx,[bp-2]
2926:6634  16					push	ss
2926:6635  8D 87 FF84				lea	ax,cs:[0FF84h][bx]	; Load effective addr
2926:6639  50					push	ax
2926:663A  B8 0030				mov	ax,30h
2926:663D ú50					push	ax
2926:663E  B8 0039				mov	ax,39h
2926:6641  50					push	ax
2926:6642  E8 0D44				call	sub_285			; (7389)
2926:6645  B8 002B				mov	ax,2Bh
2926:6648  50					push	ax
2926:6649  E8 0DC7				call	sub_290			; (7413)
2926:664C  E8 0CA8				call	sub_282			; (72F7)
2926:664F  B8 002D				mov	ax,2Dh
2926:6652  50					push	ax
2926:6653  E8 0DBD				call	sub_290			; (7413)
2926:6656  E8 0C9E				call	sub_282			; (72F7)
2926:6659  B8 0024				mov	ax,24h
2926:665C  50					push	ax
2926:665D  E8 0DB3				call	sub_290			; (7413)
2926:6660  E8 0C94				call	sub_282			; (72F7)
2926:6663  E8 0D77				call	sub_288			; (73DD)
           ICON0.lst       ICON0.OVL		Sourcer	v8.01  20-Jul-2026 12:17 am   Page 220

2926:6666  C4 3E 83AF				les	di,dword ptr ds:data_342e	; (2926:83AF=0) Load seg:offset ptr
2926:666A  83 C7 26				add	di,26h
2926:666D  26: 8A 05				mov	al,es:[di]
2926:6670  3C 04				cmp	al,4
2926:6672  74 03				je	loc_550			; Jump if equal
2926:6674  E9 0013				jmp	loc_551			; (668A)
2926:6677			loc_550:					;  xref 2926:6672
2926:6677  C4 3E 83AF				les	di,dword ptr ds:data_342e	; (2926:83AF=0) Load seg:offset ptr
2926:667B  83 C7 38				add	di,38h
2926:667E  06					push	es
2926:667F  57					push	di
2926:6680  58					pop	ax
2926:6681  05 0000				add	ax,0
2926:6684  97					xchg	di,ax
2926:6685  07					pop	es
2926:6686  26: C6 05 20				mov	byte ptr es:[di],20h	; ' '
2926:668A			loc_551:					;  xref 2926:6674
2926:668A  C4 3E 83AF				les	di,dword ptr ds:data_342e	; (2926:83AF=0) Load seg:offset ptr
2926:668E  83 C7 38				add	di,38h
2926:6691  06					push	es
2926:6692  57					push	di
2926:6693  58					pop	ax
2926:6694  05 0000				add	ax,0
2926:6697  97					xchg	di,ax
2926:6698  07					pop	es
2926:6699  26: 8A 05				mov	al,es:[di]
2926:669C  88 46 F1				mov	[bp-0Fh],al
2926:669F			loc_552:					;  xref 2926:66F8
2926:669F úC4 3E 83AF				les	di,dword ptr ds:data_342e	; (2926:83AF=0) Load seg:offset ptr
2926:66A3  83 C7 2E				add	di,2Eh
2926:66A6  26: 8A 05				mov	al,es:[di]
2926:66A9  32 E4				xor	ah,ah			; Zero register
2926:66AB  F7 D0				not	ax
2926:66AD  50					push	ax
2926:66AE  8A 46 F1				mov	al,[bp-0Fh]
2926:66B1  32 E4				xor	ah,ah			; Zero register
2926:66B3  50					push	ax
2926:66B4  8B 5E FE				mov	bx,[bp-2]
2926:66B7  16					push	ss
2926:66B8  8D 87 FF84				lea	ax,cs:[0FF84h][bx]	; Load effective addr
2926:66BC  50					push	ax
2926:66BD  E8 0D3B				call	sub_289			; (73FB)
2926:66C0  E8 0658				call	sub_268			; (6D1B)
2926:66C3  F7 D0				not	ax
2926:66C5  5B					pop	bx
2926:66C6  23 C3				and	ax,bx
2926:66C8  D0 D8				rcr	al,1			; Rotate thru carry
2926:66CA  72 03				jc	loc_553			; Jump if carry Set
2926:66CC  E9 002B				jmp	loc_554			; (66FA)
2926:66CF			loc_553:					;  xref 2926:66CA
2926:66CF  C4 3E 83AF				les	di,dword ptr ds:data_342e	; (2926:83AF=0) Load seg:offset ptr
2926:66D3  06					push	es
2926:66D4 ú57					push	di
2926:66D5  C4 3E 83AF				les	di,dword ptr ds:data_342e	; (2926:83AF=0) Load seg:offset ptr
2926:66D9  83 C7 28				add	di,28h
2926:66DC  26: 8B 05				mov	ax,es:[di]
2926:66DF  50					push	ax
           ICON0.lst       ICON0.OVL		Sourcer	v8.01  20-Jul-2026 12:17 am   Page 221

2926:66E0  E8 FA95				call	sub_252			; (6178)
2926:66E3  C4 3E 83AF				les	di,dword ptr ds:data_342e	; (2926:83AF=0) Load seg:offset ptr
2926:66E7  83 C7 38				add	di,38h
2926:66EA  06					push	es
2926:66EB  57					push	di
2926:66EC  58					pop	ax
2926:66ED  05 0000				add	ax,0
2926:66F0  97					xchg	di,ax
2926:66F1  07					pop	es
2926:66F2  26: 8A 05				mov	al,es:[di]
2926:66F5  88 46 F1				mov	[bp-0Fh],al
2926:66F8  EB A5				jmp	short loc_552		; (669F)
2926:66FA			loc_554:					;  xref 2926:66CC
2926:66FA  C4 3E 83AF				les	di,dword ptr ds:data_342e	; (2926:83AF=0) Load seg:offset ptr
2926:66FE  83 C7 2E				add	di,2Eh
2926:6701  26: F6 05 01				test	byte ptr es:[di],1
2926:6705  75 03				jnz	loc_555			; Jump if not zero
2926:6707  E9 0007				jmp	loc_556			; (6711)
2926:670A			loc_555:					;  xref 2926:6705
2926:670A  C6 46 F2 00				mov	byte ptr [bp-0Eh],0
2926:670E  E9 0014				jmp	loc_559			; (6725)
2926:6711			loc_556:					;  xref 2926:6707
2926:6711  82 7E F1 24				cmp	byte ptr [bp-0Fh],24h	; '$'
2926:6715  74 03				je	loc_557			; Jump if equal
2926:6717  E9 0007				jmp	loc_558			; (6721)
2926:671A			loc_557:					;  xref 2926:6715
2926:671A  C6 46 F2 01				mov	byte ptr [bp-0Eh],1
2926:671E  E9 0004				jmp	loc_559			; (6725)
2926:6721			loc_558:					;  xref 2926:6717
2926:6721  C6 46 F2 02				mov	byte ptr [bp-0Eh],2
2926:6725			loc_559:					;  xref 2926:670E, 671E
2926:6725  8A 46 F2				mov	al,[bp-0Eh]
2926:6728  32 E4				xor	ah,ah			; Zero register
2926:672A  8B E5				mov	sp,bp
2926:672C  5D					pop	bp
2926:672D  C3					retn
2926:672E			loc_560:					;  xref 2926:65C0
2926:672E  55					push	bp
2926:672F  8B EC				mov	bp,sp
2926:6731  55					push	bp
2926:6732  81 EC 009F				sub	sp,9Fh
2926:6736  A1 8385				mov	ax,word ptr ds:data_320e+2	; (2926:8385=0)
2926:6739  50					push	ax
2926:673A  A1 8383				mov	ax,ds:data_320e		; (2926:8383=0)
2926:673D  50					push	ax
2926:673E  0E					push	cs
2926:673F  B8 FA36				mov	ax,0FA36h
2926:6742  93					xchg	bx,ax
2926:6743  B8 66C2				mov	ax,66C2h
2926:6746  03 C3				add	ax,bx
2926:6748  50					push	ax
2926:6749  E8 0DBC				call	sub_296			; (7508)
2926:674C  D0 D8				rcr	al,1			; Rotate thru carry
2926:674E  72 03				jc	loc_561			; Jump if carry Set
2926:6750  E9 00CE				jmp	loc_575			; (6821)
2926:6753			loc_561:					;  xref 2926:674E
2926:6753  C6 46 A4 00				mov	byte ptr [bp-5Ch],0
           ICON0.lst       ICON0.OVL		Sourcer	v8.01  20-Jul-2026 12:17 am   Page 222

2926:6757  C4 7E 04				les	di,dword ptr [bp+4]	; Load seg:offset ptr
2926:675A  26: C7 05 0000			mov	word ptr es:[di],0
2926:675F  C6 46 A5 00				mov	byte ptr [bp-5Bh],0
2926:6763  E8 0AF1				call	sub_281			; (7257)
2926:6766  88 46 AC				mov	[bp-54h],al
2926:6769  82 7E AC 24				cmp	byte ptr [bp-54h],24h	; '$'
2926:676D  74 03				je	loc_562			; Jump if equal
2926:676F  E9 0007				jmp	loc_563			; (6779)
2926:6772			loc_562:					;  xref 2926:676D
2926:6772  C6 46 A4 01				mov	byte ptr [bp-5Ch],1
2926:6776  E9 0025				jmp	loc_567			; (679E)
2926:6779			loc_563:					;  xref 2926:676F
2926:6779  82 7E AC 2B				cmp	byte ptr [bp-54h],2Bh	; '+'
2926:677D  74 03				je	loc_564			; Jump if equal
2926:677F  E9 0009				jmp	loc_565			; (678B)
2926:6782			loc_564:					;  xref 2926:677D
2926:6782  E8 0AD2				call	sub_281			; (7257)
2926:6785  88 46 AC				mov	[bp-54h],al
2926:6788  E9 0013				jmp	loc_567			; (679E)
2926:678B			loc_565:					;  xref 2926:677F
2926:678B  82 7E AC 2D				cmp	byte ptr [bp-54h],2Dh	; '-'
2926:678F  74 03				je	loc_566			; Jump if equal
2926:6791  E9 000A				jmp	loc_567			; (679E)
2926:6794			loc_566:					;  xref 2926:678F
2926:6794  C6 46 A5 01				mov	byte ptr [bp-5Bh],1
2926:6798  E8 0ABC				call	sub_281			; (7257)
2926:679B  88 46 AC				mov	[bp-54h],al
2926:679E			loc_567:					;  xref 2926:6776, 6788, 6791, 6801
2926:679E ú82 7E AC 20				cmp	byte ptr [bp-54h],20h	; ' '
2926:67A2  75 03				jne	loc_568			; Jump if not equal
2926:67A4  E9 005C				jmp	loc_572			; (6803)
2926:67A7			loc_568:					;  xref 2926:67A2
2926:67A7  F6 46 A4 01				test	byte ptr [bp-5Ch],1
2926:67AB  75 03				jnz	loc_569			; Jump if not zero
2926:67AD  E9 0026				jmp	loc_570			; (67D6)
2926:67B0			loc_569:					;  xref 2926:67AB
2926:67B0  C4 7E 04				les	di,dword ptr [bp+4]	; Load seg:offset ptr
2926:67B3  06					push	es
2926:67B4  57					push	di
2926:67B5  C4 7E 04				les	di,dword ptr [bp+4]	; Load seg:offset ptr
2926:67B8  26: 8B 05				mov	ax,es:[di]
2926:67BB  93					xchg	bx,ax
2926:67BC  B8 0010				mov	ax,10h
2926:67BF  F7 EB				imul	bx			; dx:ax = reg * ax
2926:67C1  50					push	ax
2926:67C2  8A 46 AC				mov	al,[bp-54h]
2926:67C5  32 E4				xor	ah,ah			; Zero register
2926:67C7  50					push	ax
2926:67C8  E8 FDEF				call	sub_259			; (65BA)
2926:67CB  5B					pop	bx
2926:67CC  03 C3				add	ax,bx
2926:67CE  5F					pop	di
2926:67CF  07					pop	es
2926:67D0  26: 89 05				mov	es:[di],ax
2926:67D3  E9 0025				jmp	loc_571			; (67FB)
2926:67D6			loc_570:					;  xref 2926:67AD
2926:67D6  C4 7E 04				les	di,dword ptr [bp+4]	; Load seg:offset ptr
           ICON0.lst       ICON0.OVL		Sourcer	v8.01  20-Jul-2026 12:17 am   Page 223

2926:67D9  06					push	es
2926:67DA  57					push	di
2926:67DB  C4 7E 04				les	di,dword ptr [bp+4]	; Load seg:offset ptr
2926:67DE  26: 8B 05				mov	ax,es:[di]
2926:67E1  93					xchg	bx,ax
2926:67E2  B8 000A				mov	ax,0Ah
2926:67E5  F7 EB				imul	bx			; dx:ax = reg * ax
2926:67E7  50					push	ax
2926:67E8  8A 46 AC				mov	al,[bp-54h]
2926:67EB  32 E4				xor	ah,ah			; Zero register
2926:67ED  93					xchg	bx,ax
2926:67EE  B8 000F				mov	ax,0Fh
2926:67F1  23 C3				and	ax,bx
2926:67F3  5B					pop	bx
2926:67F4  03 C3				add	ax,bx
2926:67F6  5F					pop	di
2926:67F7  07					pop	es
2926:67F8  26: 89 05				mov	es:[di],ax
2926:67FB			loc_571:					;  xref 2926:67D3
2926:67FB  E8 0A59				call	sub_281			; (7257)
2926:67FE  88 46 AC				mov	[bp-54h],al
2926:6801  EB 9B				jmp	short loc_567		; (679E)
2926:6803			loc_572:					;  xref 2926:67A4
2926:6803  F6 46 A5 01				test	byte ptr [bp-5Bh],1
2926:6807  75 03				jnz	loc_573			; Jump if not zero
2926:6809  E9 0012				jmp	loc_574			; (681E)
2926:680C			loc_573:					;  xref 2926:6807
2926:680C  C4 7E 04				les	di,dword ptr [bp+4]	; Load seg:offset ptr
2926:680F  06					push	es
2926:6810  57					push	di
2926:6811  C4 7E 04				les	di,dword ptr [bp+4]	; Load seg:offset ptr
2926:6814  26: 8B 05				mov	ax,es:[di]
2926:6817  F7 D8				neg	ax
2926:6819  5F					pop	di
2926:681A  07					pop	es
2926:681B  26: 89 05				mov	es:[di],ax
2926:681E			loc_574:					;  xref 2926:6809
2926:681E  E9 01DF				jmp	loc_595			; (6A00)
2926:6821			loc_575:					;  xref 2926:6750, 6A06
2926:6821 úE8 FD9F				call	sub_262			; (65C3)
2926:6824  88 46 83				mov	[bp-7Dh],al
2926:6827  82 7E 83 00				cmp	byte ptr [bp-7Dh],0
2926:682B  74 03				je	loc_576			; Jump if equal
2926:682D  E9 000B				jmp	loc_577			; (683B)
2926:6830			loc_576:					;  xref 2926:682B
2926:6830  C4 7E 04				les	di,dword ptr [bp+4]	; Load seg:offset ptr
2926:6833  26: C7 05 0000			mov	word ptr es:[di],0
2926:6838  E9 01C5				jmp	loc_595			; (6A00)
2926:683B			loc_577:					;  xref 2926:682D
2926:683B  82 7E 83 01				cmp	byte ptr [bp-7Dh],1
2926:683F  74 03				je	loc_578			; Jump if equal
2926:6841  E9 001E				jmp	loc_579			; (6862)
2926:6844			loc_578:					;  xref 2926:683F
2926:6844  16					push	ss
2926:6845  8D 46 84				lea	ax,[bp-7Ch]		; Load effective addr
2926:6848  50					push	ax
2926:6849  16					push	ss
           ICON0.lst       ICON0.OVL		Sourcer	v8.01  20-Jul-2026 12:17 am   Page 224

2926:684A  8D 46 84				lea	ax,[bp-7Ch]		; Load effective addr
2926:684D  50					push	ax
2926:684E  E8 0BAA				call	sub_289			; (73FB)
2926:6851  B8 0041				mov	ax,41h
2926:6854 ú50					push	ax
2926:6855  B8 0046				mov	ax,46h
2926:6858  50					push	ax
2926:6859  E8 0B2D				call	sub_285			; (7389)
2926:685C  E8 0A98				call	sub_282			; (72F7)
2926:685F  E8 0B7B				call	sub_288			; (73DD)
2926:6862			loc_579:					;  xref 2926:6841
2926:6862  16					push	ss
2926:6863  8D 46 84				lea	ax,[bp-7Ch]		; Load effective addr
2926:6866  50					push	ax
2926:6867  16					push	ss
2926:6868  8D 46 84				lea	ax,[bp-7Ch]		; Load effective addr
2926:686B  50					push	ax
2926:686C  E8 0B8C				call	sub_289			; (73FB)
2926:686F  B8 0024				mov	ax,24h
2926:6872  50					push	ax
2926:6873  E8 0B9D				call	sub_290			; (7413)
2926:6876  E8 0C0A				call	sub_293			; (7483)
2926:6879  E8 0B61				call	sub_288			; (73DD)
2926:687C  16					push	ss
2926:687D  8D 46 AD				lea	ax,[bp-53h]		; Load effective addr
2926:6880  50					push	ax
2926:6881  0E E8 0001		;*		callf	sub_263			;*(6886)
2926:6881  0E E8 01 00				db	 0Eh,0E8h, 01h, 00h
2926:6885  00 B8 0050				add	data_78[bx+si],bh	; (2926:0050=0)
2926:6889  50					push	ax
2926:688A  E8 E621				call	sub_215			; (4EAE)
2926:688D  C4 3E 83AF				les	di,dword ptr ds:data_342e	; (2926:83AF=0) Load seg:offset ptr
2926:6891  83 C7 38				add	di,38h
2926:6894  06					push	es
2926:6895  57					push	di
2926:6896  58					pop	ax
2926:6897  05 0000				add	ax,0
2926:689A  97					xchg	di,ax
2926:689B  07					pop	es
2926:689C  26: 8A 05				mov	al,es:[di]
2926:689F  88 46 AC				mov	[bp-54h],al
2926:68A2			loc_580:					;  xref 2926:6937
2926:68A2 ú82 7E AC 20				cmp	byte ptr [bp-54h],20h	; ' '
2926:68A6  75 03				jne	loc_581			; Jump if not equal
2926:68A8  E9 008F				jmp	loc_588			; (693A)
2926:68AB			loc_581:					;  xref 2926:68A6
2926:68AB  82 7E AC 08				cmp	byte ptr [bp-54h],8
2926:68AF  74 03				je	loc_582			; Jump if equal
2926:68B1  E9 002C				jmp	loc_585			; (68E0)
2926:68B4			loc_582:					;  xref 2926:68AF
2926:68B4  16					push	ss
2926:68B5  8D 46 AD				lea	ax,[bp-53h]		; Load effective addr
2926:68B8  97					xchg	di,ax
2926:68B9  07					pop	es
2926:68BA  26: 8A 05				mov	al,es:[di]
2926:68BD  3C 00				cmp	al,0
2926:68BF  75 03				jne	loc_583			; Jump if not equal
           ICON0.lst       ICON0.OVL		Sourcer	v8.01  20-Jul-2026 12:17 am   Page 225

2926:68C1  E9 0019				jmp	loc_584			; (68DD)
2926:68C4			loc_583:					;  xref 2926:68BF
2926:68C4  16					push	ss
2926:68C5  8D 46 AD				lea	ax,[bp-53h]		; Load effective addr
2926:68C8  05 0000				add	ax,0
2926:68CB  50					push	ax
2926:68CC  16					push	ss
2926:68CD  8D 46 AD				lea	ax,[bp-53h]		; Load effective addr
2926:68D0  97					xchg	di,ax
2926:68D1  07					pop	es
2926:68D2  26: 8A 05				mov	al,es:[di]
2926:68D5  32 E4				xor	ah,ah			; Zero register
2926:68D7  48					dec	ax
2926:68D8  5F					pop	di
2926:68D9  07					pop	es
2926:68DA  26: 88 05				mov	es:[di],al
2926:68DD			loc_584:					;  xref 2926:68C1
2926:68DD  E9 002E				jmp	loc_587			; (690E)
2926:68E0			loc_585:					;  xref 2926:68B1
2926:68E0  82 7E AC 24				cmp	byte ptr [bp-54h],24h	; '$'
2926:68E4  75 03				jne	loc_586			; Jump if not equal
2926:68E6  E9 0025				jmp	loc_587			; (690E)
2926:68E9			loc_586:					;  xref 2926:68E4
2926:68E9  16					push	ss
2926:68EA  8D 46 AD				lea	ax,[bp-53h]		; Load effective addr
2926:68ED  50					push	ax
2926:68EE  E8 0846				call	sub_278			; (7137)
2926:68F1  16					push	ss
2926:68F2  8D 46 AD				lea	ax,[bp-53h]		; Load effective addr
2926:68F5  50					push	ax
2926:68F6  E8 0844				call	sub_280			; (713D)
2926:68F9  8A 46 AC				mov	al,[bp-54h]
2926:68FC  32 E4				xor	ah,ah			; Zero register
2926:68FE  50					push	ax
2926:68FF  E8 0838				call	sub_279			; (713A)
2926:6902  E8 082F				call	sub_277			; (7134)
2926:6905  53					push	bx
2926:6906  50					push	ax
2926:6907  B8 0050				mov	ax,50h
2926:690A  50					push	ax
2926:690B  E8 E5A0				call	sub_215			; (4EAE)
2926:690E			loc_587:					;  xref 2926:68DD, 68E6
2926:690E  C4 3E 83AF				les	di,dword ptr ds:data_342e	; (2926:83AF=0) Load seg:offset ptr
2926:6912  06					push	es
2926:6913 ú57					push	di
2926:6914  C4 3E 83AF				les	di,dword ptr ds:data_342e	; (2926:83AF=0) Load seg:offset ptr
2926:6918  83 C7 28				add	di,28h
2926:691B  26: 8B 05				mov	ax,es:[di]
2926:691E  50					push	ax
2926:691F  E8 F856				call	sub_252			; (6178)
2926:6922  C4 3E 83AF				les	di,dword ptr ds:data_342e	; (2926:83AF=0) Load seg:offset ptr
2926:6926  83 C7 38				add	di,38h
2926:6929  06					push	es
2926:692A  57					push	di
2926:692B  58					pop	ax
2926:692C  05 0000				add	ax,0
2926:692F  97					xchg	di,ax
           ICON0.lst       ICON0.OVL		Sourcer	v8.01  20-Jul-2026 12:17 am   Page 226

2926:6930  07					pop	es
2926:6931  26: 8A 05				mov	al,es:[di]
2926:6934  88 46 AC				mov	[bp-54h],al
2926:6937  E9 FF68				jmp	loc_580			; (68A2)
2926:693A			loc_588:					;  xref 2926:68A8
2926:693A  B8 0001				mov	ax,1
2926:693D  50					push	ax
2926:693E  16					push	ss
2926:693F  8D 46 AD				lea	ax,[bp-53h]		; Load effective addr
2926:6942  97					xchg	di,ax
2926:6943  07					pop	es
2926:6944  26: 8A 05				mov	al,es:[di]
2926:6947  32 E4				xor	ah,ah			; Zero register
2926:6949  5B					pop	bx
2926:694A  93					xchg	bx,ax
2926:694B  89 46 AA				mov	[bp-56h],ax
2926:694E  93					xchg	bx,ax
2926:694F  FF 4E AA				dec	word ptr [bp-56h]
2926:6952  2B C3				sub	ax,bx
2926:6954  40					inc	ax
2926:6955  89 86 FF61				mov	[bp-9Fh],ax
2926:6959			loc_589:					;  xref 2926:69E5
2926:6959 úFF 46 AA				inc	word ptr [bp-56h]
2926:695C  FF 8E FF61				dec	word ptr [bp-9Fh]
2926:6960  7D 03				jge	loc_590			; Jump if > or =
2926:6962  E9 0083				jmp	loc_593			; (69E8)
2926:6965			loc_590:					;  xref 2926:6960
2926:6965  16					push	ss
2926:6966  8D 46 AD				lea	ax,[bp-53h]		; Load effective addr
2926:6969  50					push	ax
2926:696A  8B 46 AA				mov	ax,[bp-56h]
2926:696D  5B					pop	bx
2926:696E  03 C3				add	ax,bx
2926:6970  97					xchg	di,ax
2926:6971  07					pop	es
2926:6972  26: 8A 05				mov	al,es:[di]
2926:6975  32 E4				xor	ah,ah			; Zero register
2926:6977  50					push	ax
2926:6978  16					push	ss
2926:6979  8D 46 84				lea	ax,[bp-7Ch]		; Load effective addr
2926:697C  50					push	ax
2926:697D  E8 0A7B				call	sub_289			; (73FB)
2926:6980  E8 0398				call	sub_268			; (6D1B)
2926:6983  F7 D0				not	ax
2926:6985  D0 D8				rcr	al,1			; Rotate thru carry
2926:6987  72 03				jc	loc_591			; Jump if carry Set
2926:6989  E9 0059				jmp	loc_592			; (69E5)
2926:698C			loc_591:					;  xref 2926:6987
2926:698C  A1 83B1				mov	ax,word ptr ds:data_342e+2	; (2926:83B1=0)
2926:698F  50					push	ax
2926:6990  A1 83AF				mov	ax,ds:data_342e		; (2926:83AF=0)
2926:6993  89 46 A6				mov	[bp-5Ah],ax
2926:6996  58					pop	ax
2926:6997  89 46 A8				mov	[bp-58h],ax
2926:699A  1E					push	ds
2926:699B  B8 82FD				mov	ax,82FDh
2926:699E  50					push	ax
           ICON0.lst       ICON0.OVL		Sourcer	v8.01  20-Jul-2026 12:17 am   Page 227

2926:699F  E8 E876				call	sub_234			; (5218)
2926:69A2  E8 F6BF				call	sub_248			; (6064)
2926:69A5  1E					push	ds
2926:69A6  B8 82FD				mov	ax,82FDh
2926:69A9  50					push	ax
2926:69AA  E8 E86B				call	sub_234			; (5218)
2926:69AD  0E E8 0018				callf	sub_264			; (69C9)
2926:69B1  17					pop	ss
2926:69B2  42					inc	dx
2926:69B3  61 64 20 49 6E 74			db	'ad Integer, Try again:'
2926:69B9  65 67 65 72 2C 20
2926:69BF  54 72 79 20 61 67
2926:69C5  61 69 6E 3A

				;ßßßß External Entry into Subroutine ßßßßßßßßßßßßßßßßßßßßßßßßßßßßßßßßßßßßßß
				;
				;         Called from:   2926:69AD

2926:69C9			sub_264:
2926:69C9  B8 FFFF				mov	ax,0FFFFh
2926:69CC  50					push	ax
2926:69CD  B8 FFFF				mov	ax,0FFFFh
2926:69D0  50					push	ax
2926:69D1  E8 05E9				call	sub_272			; (6FBD)
2926:69D4  8B 46 A8				mov	ax,[bp-58h]
2926:69D7  50					push	ax
2926:69D8  8B 46 A6				mov	ax,[bp-5Ah]
2926:69DB  A3 83AF				mov	ds:data_342e,ax		; (2926:83AF=0)
2926:69DE  58					pop	ax
2926:69DF  A3 83B1				mov	word ptr ds:data_342e+2,ax	; (2926:83B1=0)
2926:69E2  E9 0021				jmp	loc_596			; (6A06)
2926:69E5			loc_592:					;  xref 2926:6989
2926:69E5  E9 FF71				jmp	loc_589			; (6959)
2926:69E8			loc_593:					;  xref 2926:6962
2926:69E8  16					push	ss
2926:69E9  8D 46 AD				lea	ax,[bp-53h]		; Load effective addr
2926:69EC ú50					push	ax
2926:69ED  C4 7E 04				les	di,dword ptr [bp+4]	; Load seg:offset ptr
2926:69F0  06					push	es
2926:69F1  57					push	di
2926:69F2  82 7E 83 01				cmp	byte ptr [bp-7Dh],1
2926:69F6  B8 0000				mov	ax,0
2926:69F9  75 01				jnz	loc_594			; Jump if not zero
2926:69FB  40					inc	ax
2926:69FC			loc_594:					;  xref 2926:69F9
2926:69FC  50					push	ax
2926:69FD  E8 01F0				call	sub_267			; (6BF0)
2926:6A00			loc_595:					;  xref 2926:681E, 6838
2926:6A00  8B E5				mov	sp,bp
2926:6A02  5D					pop	bp
2926:6A03  C2 0004				retn	4
2926:6A06			loc_596:					;  xref 2926:69E2
2926:6A06  E9 FE18				jmp	loc_575			; (6821)
				sub_259		endp

2926:6A09  E9 0000				jmp	loc_597			; (6A0C)

           ICON0.lst       ICON0.OVL		Sourcer	v8.01  20-Jul-2026 12:17 am   Page 228

				;ßßßßßßßßßßßßßßßßßßßßßßßßßßßßßßßßßßßßßßßßßßßßßßßßßßßßßßßßßßßßßßßßßßßßßßßßßß
				;                              SUBROUTINE
				;
				;         Called from:   2926:07A7, 08D0
				;ÜÜÜÜÜÜÜÜÜÜÜÜÜÜÜÜÜÜÜÜÜÜÜÜÜÜÜÜÜÜÜÜÜÜÜÜÜÜÜÜÜÜÜÜÜÜÜÜÜÜÜÜÜÜÜÜÜÜÜÜÜÜÜÜÜÜÜÜÜÜÜÜÜÜ

2926:6A0C			sub_265		proc	near
2926:6A0C			loc_597:					;  xref 2926:6A09
2926:6A0C  E9 0000				jmp	loc_598			; (6A0F)
2926:6A0F			loc_598:					;  xref 2926:6A0C
2926:6A0F  55					push	bp
2926:6A10  8B EC				mov	bp,sp
2926:6A12  55					push	bp
2926:6A13  81 EC 0007				sub	sp,7
2926:6A17  C7 46 F9 0000			mov	word ptr [bp-7],0
2926:6A1C  C4 7E 06				les	di,dword ptr [bp+6]	; Load seg:offset ptr
2926:6A1F  06					push	es
2926:6A20  57					push	di
2926:6A21  0E E8 0001		;*		callf	sub_266			;*(6A26)
2926:6A21  0E E8 01 00				db	 0Eh,0E8h, 01h, 00h
2926:6A25  00 B8 0051				add	data_79[bx+si],bh	; (2926:0051=0)
2926:6A29  50					push	ax
2926:6A2A  E8 E481				call	sub_215			; (4EAE)
2926:6A2D  C7 46 FC 0000			mov	word ptr [bp-4],0
2926:6A32  C4 3E 83AF				les	di,dword ptr ds:data_342e	; (2926:83AF=0) Load seg:offset ptr
2926:6A36  83 C7 26				add	di,26h
2926:6A39  26: 8A 05				mov	al,es:[di]
2926:6A3C  3C 03				cmp	al,3
2926:6A3E  7F 03				jg	loc_599			; Jump if >
2926:6A40  E9 00F5				jmp	loc_613			; (6B38)
2926:6A43			loc_599:					;  xref 2926:6A3E
2926:6A43  C4 3E 83AF				les	di,dword ptr ds:data_342e	; (2926:83AF=0) Load seg:offset ptr
2926:6A47  83 C7 26				add	di,26h
2926:6A4A  26: 8A 05				mov	al,es:[di]
2926:6A4D  3C 04				cmp	al,4
2926:6A4F  74 03				je	loc_600			; Jump if equal
2926:6A51  E9 0084				jmp	loc_604			; (6AD8)
2926:6A54			loc_600:					;  xref 2926:6A4F
2926:6A54  8B 46 04				mov	ax,[bp+4]
2926:6A57  A2 8A4F				mov	ds:data_345e,al		; (2926:8A4F=0)
2926:6A5A  B8 000A				mov	ax,0Ah
2926:6A5D  50					push	ax
2926:6A5E  1E					push	ds
2926:6A5F  B8 8A4F				mov	ax,8A4Fh
2926:6A62  50					push	ax
2926:6A63  E8 0C43				call	sub_303			; (76A9)
2926:6A66  89 46 FC				mov	[bp-4],ax
2926:6A69  C4 7E 06				les	di,dword ptr [bp+6]	; Load seg:offset ptr
2926:6A6C  06					push	es
2926:6A6D  57					push	di
2926:6A6E  1E					push	ds
2926:6A6F  B8 8A50				mov	ax,8A50h
2926:6A72  50					push	ax
2926:6A73  B8 0051				mov	ax,51h
2926:6A76  50					push	ax
2926:6A77  E8 E434				call	sub_215			; (4EAE)
2926:6A7A  B8 0002				mov	ax,2
           ICON0.lst       ICON0.OVL		Sourcer	v8.01  20-Jul-2026 12:17 am   Page 229

2926:6A7D  50					push	ax
2926:6A7E  B8 000A				mov	ax,0Ah
2926:6A81  50					push	ax
2926:6A82  E8 0C45				call	sub_304			; (76CA)
2926:6A85  C4 3E 83AF				les	di,dword ptr ds:data_342e	; (2926:83AF=0) Load seg:offset ptr
2926:6A89  83 C7 2F				add	di,2Fh
2926:6A8C  26: C6 05 01				mov	byte ptr es:[di],1
2926:6A90  C4 3E 83AF				les	di,dword ptr ds:data_342e	; (2926:83AF=0) Load seg:offset ptr
2926:6A94  83 C7 38				add	di,38h
2926:6A97  06					push	es
2926:6A98  57					push	di
2926:6A99  58					pop	ax
2926:6A9A  05 0000				add	ax,0
2926:6A9D  97					xchg	di,ax
2926:6A9E  07					pop	es
2926:6A9F  26: C6 05 20				mov	byte ptr es:[di],20h	; ' '
2926:6AA3  1E					push	ds
2926:6AA4  B8 8A50				mov	ax,8A50h
2926:6AA7  97					xchg	di,ax
2926:6AA8  07					pop	es
2926:6AA9  26: 8A 05				mov	al,es:[di]
2926:6AAC  3C 01				cmp	al,1
2926:6AAE  74 03				je	loc_601			; Jump if equal
2926:6AB0  E9 001F				jmp	loc_603			; (6AD2)
2926:6AB3			loc_601:					;  xref 2926:6AAE
2926:6AB3  C4 3E 83AF				les	di,dword ptr ds:data_342e	; (2926:83AF=0) Load seg:offset ptr
2926:6AB7  83 C7 2E				add	di,2Eh
2926:6ABA  06					push	es
2926:6ABB  57					push	di
2926:6ABC  1E					push	ds
2926:6ABD  B8 8A51				mov	ax,8A51h
2926:6AC0  97					xchg	di,ax
2926:6AC1  07					pop	es
2926:6AC2  26: 8A 05				mov	al,es:[di]
2926:6AC5  3C 1A				cmp	al,1Ah
2926:6AC7  B8 0000				mov	ax,0
2926:6ACA  75 01				jnz	loc_602			; Jump if not zero
2926:6ACC  40					inc	ax
2926:6ACD			loc_602:					;  xref 2926:6ACA
2926:6ACD  5F					pop	di
2926:6ACE  07					pop	es
2926:6ACF  26: 88 05				mov	es:[di],al
2926:6AD2			loc_603:					;  xref 2926:6AB0
2926:6AD2  E9 0112				jmp	loc_622			; (6BE7)
2926:6AD5  E9 005D				jmp	loc_612			; (6B35)
2926:6AD8			loc_604:					;  xref 2926:6A51, 6B33
2926:6AD8 úC4 3E 83AF				les	di,dword ptr ds:data_342e	; (2926:83AF=0) Load seg:offset ptr
2926:6ADC  83 C7 2F				add	di,2Fh
2926:6ADF  26: 8A 05				mov	al,es:[di]
2926:6AE2  32 E4				xor	ah,ah			; Zero register
2926:6AE4  F7 D0				not	ax
2926:6AE6  D0 D8				rcr	al,1			; Rotate thru carry
2926:6AE8  72 03				jc	loc_605			; Jump if carry Set
2926:6AEA  E9 0048				jmp	loc_612			; (6B35)
2926:6AED			loc_605:					;  xref 2926:6AE8
2926:6AED  8B 46 FC				mov	ax,[bp-4]
2926:6AF0  40					inc	ax
           ICON0.lst       ICON0.OVL		Sourcer	v8.01  20-Jul-2026 12:17 am   Page 230

2926:6AF1  89 46 FC				mov	[bp-4],ax
2926:6AF4  E8 0760				call	sub_281			; (7257)
2926:6AF7  88 46 FB				mov	[bp-5],al
2926:6AFA  82 7E FB 08				cmp	byte ptr [bp-5],8
2926:6AFE  74 03				je	loc_606			; Jump if equal
2926:6B00  E9 001D				jmp	loc_610			; (6B20)
2926:6B03			loc_606:					;  xref 2926:6AFE
2926:6B03  81 7E FC 0001			cmp	word ptr [bp-4],1
2926:6B08  7F 03				jg	loc_607			; Jump if >
2926:6B0A  E9 000B				jmp	loc_608			; (6B18)
2926:6B0D			loc_607:					;  xref 2926:6B08
2926:6B0D  8B 46 FC				mov	ax,[bp-4]
2926:6B10  48					dec	ax
2926:6B11  48					dec	ax
2926:6B12  89 46 FC				mov	[bp-4],ax
2926:6B15  E9 0005				jmp	loc_609			; (6B1D)
2926:6B18			loc_608:					;  xref 2926:6B0A
2926:6B18  C7 46 FC 0000			mov	word ptr [bp-4],0
2926:6B1D			loc_609:					;  xref 2926:6B15
2926:6B1D  E9 0013				jmp	loc_611			; (6B33)
2926:6B20			loc_610:					;  xref 2926:6B00
2926:6B20  C4 7E 06				les	di,dword ptr [bp+6]	; Load seg:offset ptr
2926:6B23  06					push	es
2926:6B24  57					push	di
2926:6B25  8B 46 FC				mov	ax,[bp-4]
2926:6B28  5B					pop	bx
2926:6B29  03 C3				add	ax,bx
2926:6B2B  97					xchg	di,ax
2926:6B2C  8A 46 FB				mov	al,[bp-5]
2926:6B2F  07					pop	es
2926:6B30  26: 88 05				mov	es:[di],al
2926:6B33			loc_611:					;  xref 2926:6B1D
2926:6B33  EB A3				jmp	short loc_604		; (6AD8)
2926:6B35			loc_612:					;  xref 2926:6AD5, 6AEA
2926:6B35  E9 0086				jmp	loc_619			; (6BBE)
2926:6B38			loc_613:					;  xref 2926:6A40, 6BBB
2926:6B38 úC4 3E 83AF				les	di,dword ptr ds:data_342e	; (2926:83AF=0) Load seg:offset ptr
2926:6B3C  83 C7 2F				add	di,2Fh
2926:6B3F  26: 8A 05				mov	al,es:[di]
2926:6B42  32 E4				xor	ah,ah			; Zero register
2926:6B44  F7 D0				not	ax
2926:6B46  D0 D8				rcr	al,1			; Rotate thru carry
2926:6B48  72 03				jc	loc_614			; Jump if carry Set
2926:6B4A  E9 0071				jmp	loc_619			; (6BBE)
2926:6B4D			loc_614:					;  xref 2926:6B48
2926:6B4D  8B 46 FC				mov	ax,[bp-4]
2926:6B50  40					inc	ax
2926:6B51  89 46 FC				mov	[bp-4],ax
2926:6B54  E8 0700				call	sub_281			; (7257)
2926:6B57  88 46 FB				mov	[bp-5],al
2926:6B5A  82 7E FB 09				cmp	byte ptr [bp-5],9
2926:6B5E  75 03				jne	loc_615			; Jump if not equal
2926:6B60  E9 001D				jmp	loc_616			; (6B80)
2926:6B63			loc_615:					;  xref 2926:6B5E
2926:6B63  C4 7E 06				les	di,dword ptr [bp+6]	; Load seg:offset ptr
2926:6B66  06					push	es
2926:6B67  57					push	di
           ICON0.lst       ICON0.OVL		Sourcer	v8.01  20-Jul-2026 12:17 am   Page 231

2926:6B68  8B 46 FC				mov	ax,[bp-4]
2926:6B6B  5B					pop	bx
2926:6B6C  03 C3				add	ax,bx
2926:6B6E  97					xchg	di,ax
2926:6B6F  8A 46 FB				mov	al,[bp-5]
2926:6B72  07					pop	es
2926:6B73  26: 88 05				mov	es:[di],al
2926:6B76  8B 46 F9				mov	ax,[bp-7]
2926:6B79  40					inc	ax
2926:6B7A  89 46 F9				mov	[bp-7],ax
2926:6B7D  E9 003B				jmp	loc_618			; (6BBB)
2926:6B80			loc_616:					;  xref 2926:6B60, 6BB1
2926:6B80 úC4 7E 06				les	di,dword ptr [bp+6]	; Load seg:offset ptr
2926:6B83  06					push	es
2926:6B84  57					push	di
2926:6B85  8B 46 FC				mov	ax,[bp-4]
2926:6B88  5B					pop	bx
2926:6B89  03 C3				add	ax,bx
2926:6B8B  97					xchg	di,ax
2926:6B8C  07					pop	es
2926:6B8D  26: C6 05 20				mov	byte ptr es:[di],20h	; ' '
2926:6B91  8B 46 FC				mov	ax,[bp-4]
2926:6B94  40					inc	ax
2926:6B95  89 46 FC				mov	[bp-4],ax
2926:6B98  8B 46 F9				mov	ax,[bp-7]
2926:6B9B  40					inc	ax
2926:6B9C  89 46 F9				mov	[bp-7],ax
2926:6B9F  8B 46 F9				mov	ax,[bp-7]
2926:6BA2  93					xchg	bx,ax
2926:6BA3  B8 0008				mov	ax,8
2926:6BA6  93					xchg	bx,ax
2926:6BA7  99					cwd				; Word to double word
2926:6BA8  F7 FB				idiv	bx			; ax,dx rem=dx:ax/reg
2926:6BAA  8B C2				mov	ax,dx
2926:6BAC  3D 0000				cmp	ax,0
2926:6BAF  74 03				je	loc_617			; Jump if equal
2926:6BB1  E9 FFCC				jmp	loc_616			; (6B80)
						nop	                                        ;*jump fixup
2926:6BB4			loc_617:					;  xref 2926:6BAF
2926:6BB4  8B 46 FC				mov	ax,[bp-4]
2926:6BB7  48					dec	ax
2926:6BB8  89 46 FC				mov	[bp-4],ax
2926:6BBB			loc_618:					;  xref 2926:6B7D
2926:6BBB  E9 FF7A				jmp	loc_613			; (6B38)
2926:6BBE			loc_619:					;  xref 2926:6B35, 6B4A
2926:6BBE  C4 3E 83AF				les	di,dword ptr ds:data_342e	; (2926:83AF=0) Load seg:offset ptr
2926:6BC2  83 C7 26				add	di,26h
2926:6BC5  26: 8A 05				mov	al,es:[di]
2926:6BC8  3C 03				cmp	al,3
2926:6BCA  7F 03				jg	loc_620			; Jump if >
2926:6BCC  E9 0007				jmp	loc_621			; (6BD6)
2926:6BCF			loc_620:					;  xref 2926:6BCA
2926:6BCF  8B 46 FC				mov	ax,[bp-4]
2926:6BD2  48					dec	ax
2926:6BD3  89 46 FC				mov	[bp-4],ax
2926:6BD6			loc_621:					;  xref 2926:6BCC
2926:6BD6  C4 7E 06				les	di,dword ptr [bp+6]	; Load seg:offset ptr
           ICON0.lst       ICON0.OVL		Sourcer	v8.01  20-Jul-2026 12:17 am   Page 232

2926:6BD9  06					push	es
2926:6BDA  57					push	di
2926:6BDB  58					pop	ax
2926:6BDC  05 0000				add	ax,0
2926:6BDF  97					xchg	di,ax
2926:6BE0  8B 46 FC				mov	ax,[bp-4]
2926:6BE3  07					pop	es
2926:6BE4  26: 88 05				mov	es:[di],al
2926:6BE7			loc_622:					;  xref 2926:6AD2
2926:6BE7  8B E5				mov	sp,bp
2926:6BE9  5D					pop	bp
2926:6BEA  C2 0006				retn	6
				sub_265		endp

2926:6BED  E9 00 00				db	0E9h, 00h, 00h

				;ßßßßßßßßßßßßßßßßßßßßßßßßßßßßßßßßßßßßßßßßßßßßßßßßßßßßßßßßßßßßßßßßßßßßßßßßßß
				;                              SUBROUTINE
				;
				;         Called from:   2926:69FD
				;ÜÜÜÜÜÜÜÜÜÜÜÜÜÜÜÜÜÜÜÜÜÜÜÜÜÜÜÜÜÜÜÜÜÜÜÜÜÜÜÜÜÜÜÜÜÜÜÜÜÜÜÜÜÜÜÜÜÜÜÜÜÜÜÜÜÜÜÜÜÜÜÜÜÜ

2926:6BF0			sub_267		proc	near
2926:6BF0  E9 0000				jmp	loc_623			; (6BF3)
2926:6BF3			loc_623:					;  xref 2926:6BF0
2926:6BF3  55					push	bp
2926:6BF4  8B EC				mov	bp,sp
2926:6BF6  55					push	bp
2926:6BF7  81 EC 0009				sub	sp,9
2926:6BFB  C4 7E 06				les	di,dword ptr [bp+6]	; Load seg:offset ptr
2926:6BFE  26: C7 05 0000			mov	word ptr es:[di],0
2926:6C03  C4 7E 0A				les	di,dword ptr [bp+0Ah]	; Load seg:offset ptr
2926:6C06  26: 8A 05				mov	al,es:[di]
2926:6C09  3C 00				cmp	al,0
2926:6C0B  74 03				je	loc_624			; Jump if equal
2926:6C0D  E9 0003				jmp	loc_625			; (6C13)
2926:6C10			loc_624:					;  xref 2926:6C0B
2926:6C10  E9 00FF				jmp	loc_636			; (6D12)
2926:6C13			loc_625:					;  xref 2926:6C0D
2926:6C13  C4 7E 0A				les	di,dword ptr [bp+0Ah]	; Load seg:offset ptr
2926:6C16  06					push	es
2926:6C17  57					push	di
2926:6C18  58					pop	ax
2926:6C19  05 0001				add	ax,1
2926:6C1C  97					xchg	di,ax
2926:6C1D  07					pop	es
2926:6C1E  26: 8A 05				mov	al,es:[di]
2926:6C21  32 E4				xor	ah,ah			; Zero register
2926:6C23  50					push	ax
2926:6C24  B8 002B				mov	ax,2Bh
2926:6C27  50					push	ax
2926:6C28  E8 07E8				call	sub_290			; (7413)
2926:6C2B  B8 002D				mov	ax,2Dh
2926:6C2E  50					push	ax
2926:6C2F  E8 07E1				call	sub_290			; (7413)
2926:6C32  E8 06C2				call	sub_282			; (72F7)
2926:6C35  E8 00E3				call	sub_268			; (6D1B)
           ICON0.lst       ICON0.OVL		Sourcer	v8.01  20-Jul-2026 12:17 am   Page 233

2926:6C38  D0 D8				rcr	al,1			; Rotate thru carry
2926:6C3A  72 03				jc	loc_626			; Jump if carry Set
2926:6C3C  E9 0019				jmp	loc_627			; (6C58)
2926:6C3F			loc_626:					;  xref 2926:6C3A
2926:6C3F  C4 7E 0A				les	di,dword ptr [bp+0Ah]	; Load seg:offset ptr
2926:6C42  06					push	es
2926:6C43  57					push	di
2926:6C44  58					pop	ax
2926:6C45  05 0001				add	ax,1
2926:6C48  97					xchg	di,ax
2926:6C49  07					pop	es
2926:6C4A  26: 8A 05				mov	al,es:[di]
2926:6C4D  88 46 FD				mov	[bp-3],al
2926:6C50  C7 46 FB 0002			mov	word ptr [bp-5],2
2926:6C55  E9 0009				jmp	loc_628			; (6C61)
2926:6C58			loc_627:					;  xref 2926:6C3C
2926:6C58  C6 46 FD 2B				mov	byte ptr [bp-3],2Bh	; '+'
2926:6C5C  C7 46 FB 0001			mov	word ptr [bp-5],1
2926:6C61			loc_628:					;  xref 2926:6C55
2926:6C61  8B 46 FB				mov	ax,[bp-5]
2926:6C64  50					push	ax
2926:6C65  C4 7E 0A				les	di,dword ptr [bp+0Ah]	; Load seg:offset ptr
2926:6C68  26: 8A 05				mov	al,es:[di]
2926:6C6B  32 E4				xor	ah,ah			; Zero register
2926:6C6D  5B					pop	bx
2926:6C6E  93					xchg	bx,ax
2926:6C6F  89 46 F9				mov	[bp-7],ax
2926:6C72  93					xchg	bx,ax
2926:6C73  FF 4E F9				dec	word ptr [bp-7]
2926:6C76  2B C3				sub	ax,bx
2926:6C78  40					inc	ax
2926:6C79  89 46 F7				mov	[bp-9],ax
2926:6C7C			loc_629:					;  xref 2926:6CF5
2926:6C7C úFF 46 F9				inc	word ptr [bp-7]
2926:6C7F  FF 4E F7				dec	word ptr [bp-9]
2926:6C82  7D 03				jge	loc_630			; Jump if > or =
2926:6C84  E9 0070				jmp	loc_634			; (6CF7)
2926:6C87			loc_630:					;  xref 2926:6C82
2926:6C87  F6 46 04 01				test	byte ptr [bp+4],1
2926:6C8B  75 03				jnz	loc_631			; Jump if not zero
2926:6C8D  E9 0033				jmp	loc_632			; (6CC3)
2926:6C90			loc_631:					;  xref 2926:6C8B
2926:6C90  C4 7E 06				les	di,dword ptr [bp+6]	; Load seg:offset ptr
2926:6C93  06					push	es
2926:6C94  57					push	di
2926:6C95  C4 7E 06				les	di,dword ptr [bp+6]	; Load seg:offset ptr
2926:6C98  26: 8B 05				mov	ax,es:[di]
2926:6C9B  93					xchg	bx,ax
2926:6C9C  B8 0010				mov	ax,10h
2926:6C9F  F7 EB				imul	bx			; dx:ax = reg * ax
2926:6CA1  50					push	ax
2926:6CA2  C4 7E 0A				les	di,dword ptr [bp+0Ah]	; Load seg:offset ptr
2926:6CA5  06					push	es
2926:6CA6  57					push	di
2926:6CA7  8B 46 F9				mov	ax,[bp-7]
2926:6CAA  5B					pop	bx
2926:6CAB  03 C3				add	ax,bx
           ICON0.lst       ICON0.OVL		Sourcer	v8.01  20-Jul-2026 12:17 am   Page 234

2926:6CAD  97					xchg	di,ax
2926:6CAE  07					pop	es
2926:6CAF  26: 8A 05				mov	al,es:[di]
2926:6CB2  32 E4				xor	ah,ah			; Zero register
2926:6CB4  50					push	ax
2926:6CB5  E8 F902				call	sub_259			; (65BA)
2926:6CB8  5B					pop	bx
2926:6CB9  03 C3				add	ax,bx
2926:6CBB  5F					pop	di
2926:6CBC  07					pop	es
2926:6CBD  26: 89 05				mov	es:[di],ax
2926:6CC0  E9 0032				jmp	loc_633			; (6CF5)
2926:6CC3			loc_632:					;  xref 2926:6C8D
2926:6CC3  C4 7E 06				les	di,dword ptr [bp+6]	; Load seg:offset ptr
2926:6CC6  06					push	es
2926:6CC7  57					push	di
2926:6CC8  C4 7E 06				les	di,dword ptr [bp+6]	; Load seg:offset ptr
2926:6CCB  26: 8B 05				mov	ax,es:[di]
2926:6CCE  93					xchg	bx,ax
2926:6CCF  B8 000A				mov	ax,0Ah
2926:6CD2  F7 EB				imul	bx			; dx:ax = reg * ax
2926:6CD4  50					push	ax
2926:6CD5  C4 7E 0A				les	di,dword ptr [bp+0Ah]	; Load seg:offset ptr
2926:6CD8  06					push	es
2926:6CD9  57					push	di
2926:6CDA  8B 46 F9				mov	ax,[bp-7]
2926:6CDD  5B					pop	bx
2926:6CDE  03 C3				add	ax,bx
2926:6CE0  97					xchg	di,ax
2926:6CE1  07					pop	es
2926:6CE2  26: 8A 05				mov	al,es:[di]
2926:6CE5  32 E4				xor	ah,ah			; Zero register
2926:6CE7  93					xchg	bx,ax
2926:6CE8  B8 000F				mov	ax,0Fh
2926:6CEB  23 C3				and	ax,bx
2926:6CED  5B					pop	bx
2926:6CEE  03 C3				add	ax,bx
2926:6CF0  5F					pop	di
2926:6CF1  07					pop	es
2926:6CF2  26: 89 05				mov	es:[di],ax
2926:6CF5			loc_633:					;  xref 2926:6CC0
2926:6CF5  EB 85				jmp	short loc_629		; (6C7C)
2926:6CF7			loc_634:					;  xref 2926:6C84
2926:6CF7  82 7E FD 2D				cmp	byte ptr [bp-3],2Dh	; '-'
2926:6CFB  74 03				je	loc_635			; Jump if equal
2926:6CFD  E9 0012				jmp	loc_636			; (6D12)
2926:6D00			loc_635:					;  xref 2926:6CFB
2926:6D00  C4 7E 06				les	di,dword ptr [bp+6]	; Load seg:offset ptr
2926:6D03  06					push	es
2926:6D04  57					push	di
2926:6D05  C4 7E 06				les	di,dword ptr [bp+6]	; Load seg:offset ptr
2926:6D08  26: 8B 05				mov	ax,es:[di]
2926:6D0B  F7 D8				neg	ax
2926:6D0D  5F					pop	di
2926:6D0E  07					pop	es
2926:6D0F  26: 89 05				mov	es:[di],ax
2926:6D12			loc_636:					;  xref 2926:6C10, 6CFD
           ICON0.lst       ICON0.OVL		Sourcer	v8.01  20-Jul-2026 12:17 am   Page 235

2926:6D12  8B E5				mov	sp,bp
2926:6D14  5D					pop	bp
2926:6D15  C2 000A				retn	0Ah
				sub_267		endp

2926:6D18  E9 00 00				db	0E9h, 00h, 00h

				;ßßßßßßßßßßßßßßßßßßßßßßßßßßßßßßßßßßßßßßßßßßßßßßßßßßßßßßßßßßßßßßßßßßßßßßßßßß
				;                              SUBROUTINE
				;
				;         Called from:   2926:517A, 5508, 567C, 66C0, 6980, 6C35
				;ÜÜÜÜÜÜÜÜÜÜÜÜÜÜÜÜÜÜÜÜÜÜÜÜÜÜÜÜÜÜÜÜÜÜÜÜÜÜÜÜÜÜÜÜÜÜÜÜÜÜÜÜÜÜÜÜÜÜÜÜÜÜÜÜÜÜÜÜÜÜÜÜÜÜ

2926:6D1B			sub_268		proc	near
2926:6D1B  E9 0000				jmp	loc_637			; (6D1E)
2926:6D1E			loc_637:					;  xref 2926:6D1B
2926:6D1E  55					push	bp
2926:6D1F  8B EC				mov	bp,sp
2926:6D21  55					push	bp
2926:6D22  81 EC 002C				sub	sp,2Ch
2926:6D26  16					push	ss
2926:6D27  8D 46 D4				lea	ax,[bp-2Ch]		; Load effective addr
2926:6D2A  50					push	ax
2926:6D2B  16					push	ss
2926:6D2C  8D 46 04				lea	ax,[bp+4]		; Load effective addr
2926:6D2F  50					push	ax
2926:6D30  E8 06C8				call	sub_289			; (73FB)
2926:6D33  E8 06A7				call	sub_288			; (73DD)
2926:6D36  16					push	ss
2926:6D37  8D 46 D4				lea	ax,[bp-2Ch]		; Load effective addr
2926:6D3A  50					push	ax
2926:6D3B  FF 76 24				push	word ptr [bp+24h]
2926:6D3E  B8 0004				mov	ax,4
2926:6D41  50					push	ax
2926:6D42  E8 068A				call	sub_286			; (73CF)
2926:6D45  D1 E0				shl	ax,1			; Shift w/zeros fill
2926:6D47  5B					pop	bx
2926:6D48  03 C3				add	ax,bx
2926:6D4A  97					xchg	di,ax
2926:6D4B  07					pop	es
2926:6D4C  26: 8B 05				mov	ax,es:[di]
2926:6D4F  50					push	ax
2926:6D50  8B 46 24				mov	ax,[bp+24h]
2926:6D53  93					xchg	bx,ax
2926:6D54  B8 000F				mov	ax,0Fh
2926:6D57  23 C3				and	ax,bx
2926:6D59  50					push	ax
2926:6D5A  E8 0672				call	sub_286			; (73CF)
2926:6D5D  88 46 F4				mov	[bp-0Ch],al
2926:6D60  8A 46 F4				mov	al,[bp-0Ch]
2926:6D63  32 E4				xor	ah,ah			; Zero register
2926:6D65  8B E5				mov	sp,bp
2926:6D67  5D					pop	bp
2926:6D68  C2 0022				retn	22h
				sub_268		endp

2926:6D6B  E9 00 00				db	0E9h, 00h, 00h
           ICON0.lst       ICON0.OVL		Sourcer	v8.01  20-Jul-2026 12:17 am   Page 236


				;ßßßßßßßßßßßßßßßßßßßßßßßßßßßßßßßßßßßßßßßßßßßßßßßßßßßßßßßßßßßßßßßßßßßßßßßßßß
				;                              SUBROUTINE
				;
				;         Called from:   2926:6DDC
				;ÜÜÜÜÜÜÜÜÜÜÜÜÜÜÜÜÜÜÜÜÜÜÜÜÜÜÜÜÜÜÜÜÜÜÜÜÜÜÜÜÜÜÜÜÜÜÜÜÜÜÜÜÜÜÜÜÜÜÜÜÜÜÜÜÜÜÜÜÜÜÜÜÜÜ

2926:6D6E			sub_269		proc	near
2926:6D6E  E9 0015				jmp	loc_638			; (6D86)

				;ßßßß External Entry into Subroutine ßßßßßßßßßßßßßßßßßßßßßßßßßßßßßßßßßßßßßß
				;
				;         Called from:   2926:6EA0, 6ECC, 6EF8, 6F24, 6F50, 6F8E

2926:6D71			sub_270:
2926:6D71  E9 0040				jmp	loc_642			; (6DB4)

				;ßßßß External Entry into Subroutine ßßßßßßßßßßßßßßßßßßßßßßßßßßßßßßßßßßßßßß
				;
				;         Called from:   2926:0383, 07D4, 080E, 0830, 089A, 53D9

2926:6D74			sub_271:
2926:6D74  E9 0117				jmp	loc_656			; (6E8E)
2926:6D77  E9 0140				jmp	loc_658			; (6EBA)
2926:6D7A  E9 0169				jmp	loc_660			; (6EE6)
2926:6D7D  E9 0192				jmp	loc_662			; (6F12)
2926:6D80  E9 01BB				jmp	loc_664			; (6F3E)
2926:6D83  E9 01F6				jmp	loc_667			; (6F7C)
2926:6D86			loc_638:					;  xref 2926:6D6E
2926:6D86  55					push	bp
2926:6D87  8B EC				mov	bp,sp
2926:6D89  55					push	bp
2926:6D8A  81 EC 000C				sub	sp,0Ch
2926:6D8E  8B 46 06				mov	ax,[bp+6]
2926:6D91  93					xchg	bx,ax
2926:6D92  8B 46 04				mov	ax,[bp+4]
2926:6D95  3B D8				cmp	bx,ax
2926:6D97  7C 03				jl	loc_639			; Jump if <
2926:6D99  E9 0009				jmp	loc_640			; (6DA5)
2926:6D9C			loc_639:					;  xref 2926:6D97
2926:6D9C  8B 46 06				mov	ax,[bp+6]
2926:6D9F  89 46 F4				mov	[bp-0Ch],ax
2926:6DA2  E9 0006				jmp	loc_641			; (6DAB)
2926:6DA5			loc_640:					;  xref 2926:6D99
2926:6DA5  8B 46 04				mov	ax,[bp+4]
2926:6DA8  89 46 F4				mov	[bp-0Ch],ax
2926:6DAB			loc_641:					;  xref 2926:6DA2
2926:6DAB  8B 46 F4				mov	ax,[bp-0Ch]
2926:6DAE  8B E5				mov	sp,bp
2926:6DB0  5D					pop	bp
2926:6DB1  C2 0004				retn	4
2926:6DB4			loc_642:					;  xref 2926:6D71
2926:6DB4  55					push	bp
2926:6DB5  8B EC				mov	bp,sp
2926:6DB7  55					push	bp
2926:6DB8  81 EC 0018				sub	sp,18h
2926:6DBC  C4 7E 08				les	di,dword ptr [bp+8]	; Load seg:offset ptr
           ICON0.lst       ICON0.OVL		Sourcer	v8.01  20-Jul-2026 12:17 am   Page 237

2926:6DBF  26: 8A 05				mov	al,es:[di]
2926:6DC2  32 E4				xor	ah,ah			; Zero register
2926:6DC4  89 46 EC				mov	[bp-14h],ax
2926:6DC7  C4 7E 04				les	di,dword ptr [bp+4]	; Load seg:offset ptr
2926:6DCA  26: 8A 05				mov	al,es:[di]
2926:6DCD  32 E4				xor	ah,ah			; Zero register
2926:6DCF  89 46 EE				mov	[bp-12h],ax
2926:6DD2  B8 0001				mov	ax,1
2926:6DD5 ú50					push	ax
2926:6DD6  FF 76 EC				push	word ptr [bp-14h]
2926:6DD9  FF 76 EE				push	word ptr [bp-12h]
2926:6DDC  E8 FF8F				call	sub_269			; (6D6E)
2926:6DDF  5B					pop	bx
2926:6DE0  93					xchg	bx,ax
2926:6DE1  89 46 F2				mov	[bp-0Eh],ax
2926:6DE4  93					xchg	bx,ax
2926:6DE5  FF 4E F2				dec	word ptr [bp-0Eh]
2926:6DE8  2B C3				sub	ax,bx
2926:6DEA  40					inc	ax
2926:6DEB  89 46 E8				mov	[bp-18h],ax
2926:6DEE			loc_643:					;  xref 2926:6E53
2926:6DEE úFF 46 F2				inc	word ptr [bp-0Eh]
2926:6DF1  FF 4E E8				dec	word ptr [bp-18h]
2926:6DF4  7D 03				jge	loc_644			; Jump if > or =
2926:6DF6  E9 005C				jmp	loc_650			; (6E55)
2926:6DF9			loc_644:					;  xref 2926:6DF4
2926:6DF9  C4 7E 08				les	di,dword ptr [bp+8]	; Load seg:offset ptr
2926:6DFC  06					push	es
2926:6DFD  57					push	di
2926:6DFE  8B 46 F2				mov	ax,[bp-0Eh]
2926:6E01  5B					pop	bx
2926:6E02  03 C3				add	ax,bx
2926:6E04  97					xchg	di,ax
2926:6E05  07					pop	es
2926:6E06  26: 8A 05				mov	al,es:[di]
2926:6E09  88 46 EA				mov	[bp-16h],al
2926:6E0C  C4 7E 04				les	di,dword ptr [bp+4]	; Load seg:offset ptr
2926:6E0F  06					push	es
2926:6E10  57					push	di
2926:6E11  8B 46 F2				mov	ax,[bp-0Eh]
2926:6E14  5B					pop	bx
2926:6E15  03 C3				add	ax,bx
2926:6E17  97					xchg	di,ax
2926:6E18  07					pop	es
2926:6E19  26: 8A 05				mov	al,es:[di]
2926:6E1C  88 46 EB				mov	[bp-15h],al
2926:6E1F  8A 46 EA				mov	al,[bp-16h]
2926:6E22  32 E4				xor	ah,ah			; Zero register
2926:6E24  50					push	ax
2926:6E25  8A 46 EB				mov	al,[bp-15h]
2926:6E28  32 E4				xor	ah,ah			; Zero register
2926:6E2A  5B					pop	bx
2926:6E2B  3B D8				cmp	bx,ax
2926:6E2D  75 03				jne	loc_645			; Jump if not equal
2926:6E2F  E9 0021				jmp	loc_649			; (6E53)
2926:6E32			loc_645:					;  xref 2926:6E2D
2926:6E32  8A 46 EA				mov	al,[bp-16h]
           ICON0.lst       ICON0.OVL		Sourcer	v8.01  20-Jul-2026 12:17 am   Page 238

2926:6E35  32 E4				xor	ah,ah			; Zero register
2926:6E37  50					push	ax
2926:6E38  8A 46 EB				mov	al,[bp-15h]
2926:6E3B  32 E4				xor	ah,ah			; Zero register
2926:6E3D  5B					pop	bx
2926:6E3E  3B D8				cmp	bx,ax
2926:6E40  7F 03				jg	loc_646			; Jump if >
2926:6E42  E9 0007				jmp	loc_647			; (6E4C)
2926:6E45			loc_646:					;  xref 2926:6E40
2926:6E45  C6 46 F4 02				mov	byte ptr [bp-0Ch],2
2926:6E49  E9 0004				jmp	loc_648			; (6E50)
2926:6E4C			loc_647:					;  xref 2926:6E42
2926:6E4C  C6 46 F4 03				mov	byte ptr [bp-0Ch],3
2926:6E50			loc_648:					;  xref 2926:6E49
2926:6E50  E9 0030				jmp	loc_655			; (6E83)
2926:6E53			loc_649:					;  xref 2926:6E2F
2926:6E53  EB 99				jmp	short loc_643		; (6DEE)
2926:6E55			loc_650:					;  xref 2926:6DF6
2926:6E55  8B 46 EC				mov	ax,[bp-14h]
2926:6E58  93					xchg	bx,ax
2926:6E59  8B 46 EE				mov	ax,[bp-12h]
2926:6E5C  3B D8				cmp	bx,ax
2926:6E5E  74 03				je	loc_651			; Jump if equal
2926:6E60  E9 0007				jmp	loc_652			; (6E6A)
2926:6E63			loc_651:					;  xref 2926:6E5E
2926:6E63  C6 46 F4 00				mov	byte ptr [bp-0Ch],0
2926:6E67  E9 0019				jmp	loc_655			; (6E83)
2926:6E6A			loc_652:					;  xref 2926:6E60
2926:6E6A  8B 46 EC				mov	ax,[bp-14h]
2926:6E6D  93					xchg	bx,ax
2926:6E6E  8B 46 EE				mov	ax,[bp-12h]
2926:6E71  3B D8				cmp	bx,ax
2926:6E73  7F 03				jg	loc_653			; Jump if >
2926:6E75  E9 0007				jmp	loc_654			; (6E7F)
2926:6E78			loc_653:					;  xref 2926:6E73
2926:6E78  C6 46 F4 02				mov	byte ptr [bp-0Ch],2
2926:6E7C  E9 0004				jmp	loc_655			; (6E83)
2926:6E7F			loc_654:					;  xref 2926:6E75
2926:6E7F  C6 46 F4 03				mov	byte ptr [bp-0Ch],3
2926:6E83			loc_655:					;  xref 2926:6E50, 6E67, 6E7C
2926:6E83  8A 46 F4				mov	al,[bp-0Ch]
2926:6E86  32 E4				xor	ah,ah			; Zero register
2926:6E88  8B E5				mov	sp,bp
2926:6E8A  5D					pop	bp
2926:6E8B  C2 0008				retn	8
2926:6E8E			loc_656:					;  xref 2926:6D74
2926:6E8E  55					push	bp
2926:6E8F  8B EC				mov	bp,sp
2926:6E91  55					push	bp
2926:6E92  81 EC 000C				sub	sp,0Ch
2926:6E96  C4 7E 08				les	di,dword ptr [bp+8]	; Load seg:offset ptr
2926:6E99  06					push	es
2926:6E9A  57					push	di
2926:6E9B  C4 7E 04				les	di,dword ptr [bp+4]	; Load seg:offset ptr
2926:6E9E  06					push	es
2926:6E9F  57					push	di
2926:6EA0  E8 FECE				call	sub_270			; (6D71)
           ICON0.lst       ICON0.OVL		Sourcer	v8.01  20-Jul-2026 12:17 am   Page 239

2926:6EA3  3D 0000				cmp	ax,0
2926:6EA6  B8 0000				mov	ax,0
2926:6EA9  75 01				jnz	loc_657			; Jump if not zero
2926:6EAB  40					inc	ax
2926:6EAC			loc_657:					;  xref 2926:6EA9
2926:6EAC  88 46 F4				mov	[bp-0Ch],al
2926:6EAF  8A 46 F4				mov	al,[bp-0Ch]
2926:6EB2  32 E4				xor	ah,ah			; Zero register
2926:6EB4  8B E5				mov	sp,bp
2926:6EB6  5D					pop	bp
2926:6EB7  C2 0008				retn	8
2926:6EBA			loc_658:					;  xref 2926:6D77
2926:6EBA  55					push	bp
2926:6EBB  8B EC				mov	bp,sp
2926:6EBD  55					push	bp
2926:6EBE  81 EC 000C				sub	sp,0Ch
2926:6EC2  C4 7E 08				les	di,dword ptr [bp+8]	; Load seg:offset ptr
2926:6EC5  06					push	es
2926:6EC6  57					push	di
2926:6EC7  C4 7E 04				les	di,dword ptr [bp+4]	; Load seg:offset ptr
2926:6ECA  06					push	es
2926:6ECB  57					push	di
2926:6ECC  E8 FEA2				call	sub_270			; (6D71)
2926:6ECF  3D 0000				cmp	ax,0
2926:6ED2  B8 0000				mov	ax,0
2926:6ED5  74 01				jz	loc_659			; Jump if zero
2926:6ED7  40					inc	ax
2926:6ED8			loc_659:					;  xref 2926:6ED5
2926:6ED8  88 46 F4				mov	[bp-0Ch],al
2926:6EDB  8A 46 F4				mov	al,[bp-0Ch]
2926:6EDE  32 E4				xor	ah,ah			; Zero register
2926:6EE0  8B E5				mov	sp,bp
2926:6EE2  5D					pop	bp
2926:6EE3  C2 0008				retn	8
2926:6EE6			loc_660:					;  xref 2926:6D7A
2926:6EE6  55					push	bp
2926:6EE7  8B EC				mov	bp,sp
2926:6EE9  55					push	bp
2926:6EEA  81 EC 000C				sub	sp,0Ch
2926:6EEE  C4 7E 08				les	di,dword ptr [bp+8]	; Load seg:offset ptr
2926:6EF1  06					push	es
2926:6EF2  57					push	di
2926:6EF3  C4 7E 04				les	di,dword ptr [bp+4]	; Load seg:offset ptr
2926:6EF6  06					push	es
2926:6EF7  57					push	di
2926:6EF8  E8 FE76				call	sub_270			; (6D71)
2926:6EFB  3D 0002				cmp	ax,2
2926:6EFE  B8 0000				mov	ax,0
2926:6F01  75 01				jnz	loc_661			; Jump if not zero
2926:6F03  40					inc	ax
2926:6F04			loc_661:					;  xref 2926:6F01
2926:6F04  88 46 F4				mov	[bp-0Ch],al
2926:6F07  8A 46 F4				mov	al,[bp-0Ch]
2926:6F0A  32 E4				xor	ah,ah			; Zero register
2926:6F0C  8B E5				mov	sp,bp
2926:6F0E  5D					pop	bp
2926:6F0F  C2 0008				retn	8
           ICON0.lst       ICON0.OVL		Sourcer	v8.01  20-Jul-2026 12:17 am   Page 240

2926:6F12			loc_662:					;  xref 2926:6D7D
2926:6F12  55					push	bp
2926:6F13  8B EC				mov	bp,sp
2926:6F15  55					push	bp
2926:6F16  81 EC 000C				sub	sp,0Ch
2926:6F1A  C4 7E 08				les	di,dword ptr [bp+8]	; Load seg:offset ptr
2926:6F1D  06					push	es
2926:6F1E  57					push	di
2926:6F1F  C4 7E 04				les	di,dword ptr [bp+4]	; Load seg:offset ptr
2926:6F22  06					push	es
2926:6F23  57					push	di
2926:6F24  E8 FE4A				call	sub_270			; (6D71)
2926:6F27  3D 0003				cmp	ax,3
2926:6F2A  B8 0000				mov	ax,0
2926:6F2D  75 01				jnz	loc_663			; Jump if not zero
2926:6F2F  40					inc	ax
2926:6F30			loc_663:					;  xref 2926:6F2D
2926:6F30  88 46 F4				mov	[bp-0Ch],al
2926:6F33  8A 46 F4				mov	al,[bp-0Ch]
2926:6F36  32 E4				xor	ah,ah			; Zero register
2926:6F38  8B E5				mov	sp,bp
2926:6F3A  5D					pop	bp
2926:6F3B  C2 0008				retn	8
2926:6F3E			loc_664:					;  xref 2926:6D80
2926:6F3E  55					push	bp
2926:6F3F  8B EC				mov	bp,sp
2926:6F41  55					push	bp
2926:6F42  81 EC 000D				sub	sp,0Dh
2926:6F46  C4 7E 08				les	di,dword ptr [bp+8]	; Load seg:offset ptr
2926:6F49  06					push	es
2926:6F4A  57					push	di
2926:6F4B  C4 7E 04				les	di,dword ptr [bp+4]	; Load seg:offset ptr
2926:6F4E  06					push	es
2926:6F4F  57					push	di
2926:6F50  E8 FE1E				call	sub_270			; (6D71)
2926:6F53  88 46 F3				mov	[bp-0Dh],al
2926:6F56  82 7E F3 00				cmp	byte ptr [bp-0Dh],0
2926:6F5A  B8 0000				mov	ax,0
2926:6F5D  75 01				jnz	loc_665			; Jump if not zero
2926:6F5F  40					inc	ax
2926:6F60			loc_665:					;  xref 2926:6F5D
2926:6F60  50					push	ax
2926:6F61  82 7E F3 02				cmp	byte ptr [bp-0Dh],2
2926:6F65  B8 0000				mov	ax,0
2926:6F68  75 01				jnz	loc_666			; Jump if not zero
2926:6F6A  40					inc	ax
2926:6F6B			loc_666:					;  xref 2926:6F68
2926:6F6B  5B					pop	bx
2926:6F6C  0B C3				or	ax,bx
2926:6F6E  88 46 F4				mov	[bp-0Ch],al
2926:6F71  8A 46 F4				mov	al,[bp-0Ch]
2926:6F74  32 E4				xor	ah,ah			; Zero register
2926:6F76  8B E5				mov	sp,bp
2926:6F78  5D					pop	bp
2926:6F79  C2 0008				retn	8
2926:6F7C			loc_667:					;  xref 2926:6D83
2926:6F7C  55					push	bp
           ICON0.lst       ICON0.OVL		Sourcer	v8.01  20-Jul-2026 12:17 am   Page 241

2926:6F7D  8B EC				mov	bp,sp
2926:6F7F  55					push	bp
2926:6F80  81 EC 000D				sub	sp,0Dh
2926:6F84  C4 7E 08				les	di,dword ptr [bp+8]	; Load seg:offset ptr
2926:6F87  06					push	es
2926:6F88  57					push	di
2926:6F89  C4 7E 04				les	di,dword ptr [bp+4]	; Load seg:offset ptr
2926:6F8C  06					push	es
2926:6F8D  57					push	di
2926:6F8E  E8 FDE0				call	sub_270			; (6D71)
2926:6F91  88 46 F3				mov	[bp-0Dh],al
2926:6F94  82 7E F3 00				cmp	byte ptr [bp-0Dh],0
2926:6F98  B8 0000				mov	ax,0
2926:6F9B  75 01				jnz	loc_668			; Jump if not zero
2926:6F9D  40					inc	ax
2926:6F9E			loc_668:					;  xref 2926:6F9B
2926:6F9E  50					push	ax
2926:6F9F  82 7E F3 03				cmp	byte ptr [bp-0Dh],3
2926:6FA3  B8 0000				mov	ax,0
2926:6FA6  75 01				jnz	loc_669			; Jump if not zero
2926:6FA8  40					inc	ax
2926:6FA9			loc_669:					;  xref 2926:6FA6
2926:6FA9  5B					pop	bx
2926:6FAA  0B C3				or	ax,bx
2926:6FAC  88 46 F4				mov	[bp-0Ch],al
2926:6FAF  8A 46 F4				mov	al,[bp-0Ch]
2926:6FB2  32 E4				xor	ah,ah			; Zero register
2926:6FB4  8B E5				mov	sp,bp
2926:6FB6  5D					pop	bp
2926:6FB7  C2 0008				retn	8
				sub_269		endp

2926:6FBA  E9 00 00				db	0E9h, 00h, 00h

				;ßßßßßßßßßßßßßßßßßßßßßßßßßßßßßßßßßßßßßßßßßßßßßßßßßßßßßßßßßßßßßßßßßßßßßßßßßß
				;                              SUBROUTINE
				;
				;         Called from:   2926:0255, 02B1, 02FA, 0315, 2CB6, 2D03, 2D43
				;                             2D83, 2DBF, 2DFB, 2E39, 2E79, 2EB6, 2EF6
				;                             2F41, 2F82, 2FBD, 2FF7, 3033, 3059, 30A1
				;                             30E8, 312A, 316A, 31AA, 31EB, 322B, 326A
				;                             32AD, 32ED, 332D, 336D, 33AC, 33EE, 342F
				;                             3472, 34B1, 34F3, 3534, 3573, 35B2, 35F5
				;                             362B, 3676, 36C4, 36FE, 373C, 377D, 37BA
				;                             37F9, 383A, 387B, 38BD, 38FA, 3939, 3979
				;                             39B8, 39F3, 3A33, 3A75, 3AB6, 3AF8, 3B23
				;                             3B65, 3BB1, 3BEE, 3C2D, 3C6E, 3CB0, 3CF2
				;                             3D32, 3D74, 3DB5, 3DF6, 3E38, 3E7A, 3EB6
				;                             3EF8, 3F39, 3F7A, 3FBB, 3FFE, 403E, 405D
				;                             40A2, 40EA, 4126, 4167, 41AA, 41E9, 4224
				;                             4262, 42A2, 42DF, 431F, 435C, 4386, 43CC
				;                             4419, 4457, 4499, 44DC, 451B, 455D, 45A0
				;                             45DF, 461F, 4658, 4696, 46D7, 4717, 4755
				;                             4796, 47D6, 4813, 4840, 4888, 48CF, 4911
				;                             4951, 4992, 49CD, 4A0D, 4A49, 4A86, 4AC4
				;                             4B07, 4B44, 4B84, 4BC2, 4BE2, 4F64, 4F74
				;                             4F8D, 4FB7, 52BA, 69D1
           ICON0.lst       ICON0.OVL		Sourcer	v8.01  20-Jul-2026 12:17 am   Page 242

				;ÜÜÜÜÜÜÜÜÜÜÜÜÜÜÜÜÜÜÜÜÜÜÜÜÜÜÜÜÜÜÜÜÜÜÜÜÜÜÜÜÜÜÜÜÜÜÜÜÜÜÜÜÜÜÜÜÜÜÜÜÜÜÜÜÜÜÜÜÜÜÜÜÜÜ

2926:6FBD			sub_272		proc	near
2926:6FBD  E9 0000				jmp	loc_670			; (6FC0)
2926:6FC0			loc_670:					;  xref 2926:6FBD
2926:6FC0  55					push	bp
2926:6FC1  8B EC				mov	bp,sp
2926:6FC3  55					push	bp
2926:6FC4  81 EC 0004				sub	sp,4
2926:6FC8  C4 7E 08				les	di,dword ptr [bp+8]	; Load seg:offset ptr
2926:6FCB  06					push	es
2926:6FCC  57					push	di
2926:6FCD  58					pop	ax
2926:6FCE  05 0001				add	ax,1
2926:6FD1  50					push	ax
2926:6FD2  C4 7E 08				les	di,dword ptr [bp+8]	; Load seg:offset ptr
2926:6FD5  26: 8A 05				mov	al,es:[di]
2926:6FD8  32 E4				xor	ah,ah			; Zero register
2926:6FDA  50					push	ax
2926:6FDB  FF 76 06				push	word ptr [bp+6]
2926:6FDE  FF 76 04				push	word ptr [bp+4]
2926:6FE1  E8 000C				call	sub_274			; (6FF0)
2926:6FE4  8B E5				mov	sp,bp
2926:6FE6  5D					pop	bp
2926:6FE7  C2 0008				retn	8
				sub_272		endp

2926:6FEA  E9 00 00				db	0E9h, 00h, 00h

				;ßßßßßßßßßßßßßßßßßßßßßßßßßßßßßßßßßßßßßßßßßßßßßßßßßßßßßßßßßßßßßßßßßßßßßßßßßß
				;                              SUBROUTINE
				;
				;         Called from:   2926:10E5
				;ÜÜÜÜÜÜÜÜÜÜÜÜÜÜÜÜÜÜÜÜÜÜÜÜÜÜÜÜÜÜÜÜÜÜÜÜÜÜÜÜÜÜÜÜÜÜÜÜÜÜÜÜÜÜÜÜÜÜÜÜÜÜÜÜÜÜÜÜÜÜÜÜÜÜ

2926:6FED			sub_273		proc	near
2926:6FED  E9 0003				jmp	loc_671			; (6FF3)

				;ßßßß External Entry into Subroutine ßßßßßßßßßßßßßßßßßßßßßßßßßßßßßßßßßßßßßß
				;
				;         Called from:   2926:6FE1

2926:6FF0			sub_274:
2926:6FF0  E9 003B				jmp	loc_675			; (702E)
2926:6FF3			loc_671:					;  xref 2926:6FED
2926:6FF3  55					push	bp
2926:6FF4  8B EC				mov	bp,sp
2926:6FF6  55					push	bp
2926:6FF7  81 EC 0002				sub	sp,2
2926:6FFB  81 7E 06 FFFF			cmp	word ptr [bp+6],0FFFFh
2926:7000  75 03				jne	loc_672			; Jump if not equal
2926:7002  E9 001A				jmp	loc_674			; (701F)
2926:7005			loc_672:					;  xref 2926:7000, 701D
2926:7005 ú81 7E 06 0001			cmp	word ptr [bp+6],1
2926:700A  7F 03				jg	loc_673			; Jump if >
2926:700C  E9 0010				jmp	loc_674			; (701F)
2926:700F			loc_673:					;  xref 2926:700A
           ICON0.lst       ICON0.OVL		Sourcer	v8.01  20-Jul-2026 12:17 am   Page 243

2926:700F  B8 0020				mov	ax,20h
2926:7012 ú50					push	ax
2926:7013  E8 0094				call	sub_275			; (70AA)
2926:7016  8B 46 06				mov	ax,[bp+6]
2926:7019  48					dec	ax
2926:701A  89 46 06				mov	[bp+6],ax
2926:701D  EB E6				jmp	short loc_672		; (7005)
2926:701F			loc_674:					;  xref 2926:7002, 700C
2926:701F  8A 46 08				mov	al,[bp+8]
2926:7022  32 E4				xor	ah,ah			; Zero register
2926:7024 ú50					push	ax
2926:7025  E8 0082				call	sub_275			; (70AA)
2926:7028  8B E5				mov	sp,bp
2926:702A  5D					pop	bp
2926:702B  C2 0006				retn	6
2926:702E			loc_675:					;  xref 2926:6FF0
2926:702E  55					push	bp
2926:702F  8B EC				mov	bp,sp
2926:7031  55					push	bp
2926:7032  81 EC 0008				sub	sp,8
2926:7036  B8 0001				mov	ax,1
2926:7039  50					push	ax
2926:703A  8B 46 06				mov	ax,[bp+6]
2926:703D  93					xchg	bx,ax
2926:703E  8B 46 08				mov	ax,[bp+8]
2926:7041  2B D8				sub	bx,ax
2926:7043  93					xchg	bx,ax
2926:7044  5B					pop	bx
2926:7045  93					xchg	bx,ax
2926:7046  89 46 FC				mov	[bp-4],ax
2926:7049  93					xchg	bx,ax
2926:704A  FF 4E FC				dec	word ptr [bp-4]
2926:704D  2B C3				sub	ax,bx
2926:704F  40					inc	ax
2926:7050  89 46 FA				mov	[bp-6],ax
2926:7053			loc_676:					;  xref 2926:7065
2926:7053 úFF 46 FC				inc	word ptr [bp-4]
2926:7056  FF 4E FA				dec	word ptr [bp-6]
2926:7059  7D 03				jge	loc_677			; Jump if > or =
2926:705B  E9 0009				jmp	loc_678			; (7067)
2926:705E			loc_677:					;  xref 2926:7059
2926:705E  B8 0020				mov	ax,20h
2926:7061 ú50					push	ax
2926:7062  E8 0045				call	sub_275			; (70AA)
2926:7065  EB EC				jmp	short loc_676		; (7053)
2926:7067			loc_678:					;  xref 2926:705B
2926:7067  B8 0001				mov	ax,1
2926:706A  50					push	ax
2926:706B  8B 46 08				mov	ax,[bp+8]
2926:706E  5B					pop	bx
2926:706F  93					xchg	bx,ax
2926:7070  89 46 FC				mov	[bp-4],ax
2926:7073  93					xchg	bx,ax
2926:7074  FF 4E FC				dec	word ptr [bp-4]
2926:7077  2B C3				sub	ax,bx
2926:7079  40					inc	ax
2926:707A  89 46 F8				mov	[bp-8],ax
           ICON0.lst       ICON0.OVL		Sourcer	v8.01  20-Jul-2026 12:17 am   Page 244

2926:707D			loc_679:					;  xref 2926:709F
2926:707D úFF 46 FC				inc	word ptr [bp-4]
2926:7080  FF 4E F8				dec	word ptr [bp-8]
2926:7083  7D 03				jge	loc_680			; Jump if > or =
2926:7085  E9 0019				jmp	loc_681			; (70A1)
2926:7088			loc_680:					;  xref 2926:7083
2926:7088  C4 7E 0A				les	di,dword ptr [bp+0Ah]	; Load seg:offset ptr
2926:708B  06					push	es
2926:708C  57					push	di
2926:708D  8B 46 FC				mov	ax,[bp-4]
2926:7090  48					dec	ax
2926:7091  5B					pop	bx
2926:7092  03 C3				add	ax,bx
2926:7094  97					xchg	di,ax
2926:7095  07					pop	es
2926:7096  26: 8A 05				mov	al,es:[di]
2926:7099  32 E4				xor	ah,ah			; Zero register
2926:709B ú50					push	ax
2926:709C  E8 000B				call	sub_275			; (70AA)
2926:709F  EB DC				jmp	short loc_679		; (707D)
2926:70A1			loc_681:					;  xref 2926:7085
2926:70A1  8B E5				mov	sp,bp
2926:70A3  5D					pop	bp
2926:70A4  C2 000A				retn	0Ah
				sub_273		endp

2926:70A7  E9 00 00				db	0E9h, 00h, 00h

				;ßßßßßßßßßßßßßßßßßßßßßßßßßßßßßßßßßßßßßßßßßßßßßßßßßßßßßßßßßßßßßßßßßßßßßßßßßß
				;                              SUBROUTINE
				;
				;         Called from:   2926:6073, 607A, 7013, 7025, 7062, 709C
				;ÜÜÜÜÜÜÜÜÜÜÜÜÜÜÜÜÜÜÜÜÜÜÜÜÜÜÜÜÜÜÜÜÜÜÜÜÜÜÜÜÜÜÜÜÜÜÜÜÜÜÜÜÜÜÜÜÜÜÜÜÜÜÜÜÜÜÜÜÜÜÜÜÜÜ

2926:70AA			sub_275		proc	near
2926:70AA  E9 0000				jmp	loc_682			; (70AD)
2926:70AD			loc_682:					;  xref 2926:70AA
2926:70AD  55					push	bp
2926:70AE  8B EC				mov	bp,sp
2926:70B0  55					push	bp
2926:70B1  81 EC 0002				sub	sp,2
2926:70B5  A1 8389				mov	ax,word ptr ds:data_63e+2	; (2916:8389=0)
2926:70B8  50					push	ax
2926:70B9  A1 8387				mov	ax,ds:data_63e		; (2916:8387=0)
2926:70BC  50					push	ax
2926:70BD  0E					push	cs
2926:70BE  B8 004F				mov	ax,4Fh
2926:70C1  93					xchg	bx,ax
2926:70C2  B8 7041				mov	ax,7041h
2926:70C5  03 C3				add	ax,bx
2926:70C7  50					push	ax
2926:70C8  E8 043D				call	sub_296			; (7508)
2926:70CB  D0 D8				rcr	al,1			; Rotate thru carry
2926:70CD  72 03				jc	loc_683			; Jump if carry Set
2926:70CF  E9 000C				jmp	loc_684			; (70DE)
2926:70D2			loc_683:					;  xref 2926:70CD
2926:70D2  8A 46 04				mov	al,[bp+4]
           ICON0.lst       ICON0.OVL		Sourcer	v8.01  20-Jul-2026 12:17 am   Page 245

2926:70D5  32 E4				xor	ah,ah			; Zero register
2926:70D7  50					push	ax
2926:70D8  E8 05C7				call	sub_301			; (76A2)
2926:70DB  E9 0029				jmp	loc_685			; (7107)
2926:70DE			loc_684:					;  xref 2926:70CF
2926:70DE  C4 3E 83AF				les	di,dword ptr ds:data_65e	; (2916:83AF=0) Load seg:offset ptr
2926:70E2  83 C7 38				add	di,38h
2926:70E5  06					push	es
2926:70E6  57					push	di
2926:70E7  58					pop	ax
2926:70E8  05 0000				add	ax,0
2926:70EB  97					xchg	di,ax
2926:70EC  8A 46 04				mov	al,[bp+4]
2926:70EF  07					pop	es
2926:70F0  26: 88 05				mov	es:[di],al
2926:70F3  C4 3E 83AF				les	di,dword ptr ds:data_65e	; (2916:83AF=0) Load seg:offset ptr
2926:70F7  06					push	es
2926:70F8 ú57					push	di
2926:70F9  C4 3E 83AF				les	di,dword ptr ds:data_65e	; (2916:83AF=0) Load seg:offset ptr
2926:70FD  83 C7 28				add	di,28h
2926:7100  26: 8B 05				mov	ax,es:[di]
2926:7103  50					push	ax
2926:7104  E8 0009				call	sub_276			; (7110)
2926:7107			loc_685:					;  xref 2926:70DB
2926:7107  8B E5				mov	sp,bp
2926:7109  5D					pop	bp
2926:710A  C2 0002				retn	2
				sub_275		endp

2926:710D  E9 00 00				db	0E9h, 00h, 00h

				;ßßßßßßßßßßßßßßßßßßßßßßßßßßßßßßßßßßßßßßßßßßßßßßßßßßßßßßßßßßßßßßßßßßßßßßßßßß
				;                              SUBROUTINE
				;
				;         Called from:   2926:7104
				;ÜÜÜÜÜÜÜÜÜÜÜÜÜÜÜÜÜÜÜÜÜÜÜÜÜÜÜÜÜÜÜÜÜÜÜÜÜÜÜÜÜÜÜÜÜÜÜÜÜÜÜÜÜÜÜÜÜÜÜÜÜÜÜÜÜÜÜÜÜÜÜÜÜÜ

2926:7110			sub_276		proc	near
2926:7110  E9 0000				jmp	loc_686			; (7113)
2926:7113			loc_686:					;  xref 2926:7110
2926:7113  55					push	bp
2926:7114  8B EC				mov	bp,sp
2926:7116  55					push	bp
2926:7117  81 EC 0002				sub	sp,2
2926:711B  C4 7E 06				les	di,dword ptr [bp+6]	; Load seg:offset ptr
2926:711E  06					push	es
2926:711F  57					push	di
2926:7120  58					pop	ax
2926:7121  A3 83AF				mov	ds:data_65e,ax		; (2916:83AF=0)
2926:7124  58					pop	ax
2926:7125  A3 83B1				mov	word ptr ds:data_65e+2,ax	; (2916:83B1=0)
2926:7128  E8 E0F9				call	sub_238			; (5224)
2926:712B  8B E5				mov	sp,bp
2926:712D  5D					pop	bp
2926:712E  C2 0006				retn	6
				sub_276		endp

           ICON0.lst       ICON0.OVL		Sourcer	v8.01  20-Jul-2026 12:17 am   Page 246

2926:7131  E9 00 00				db	0E9h, 00h, 00h

				;ßßßßßßßßßßßßßßßßßßßßßßßßßßßßßßßßßßßßßßßßßßßßßßßßßßßßßßßßßßßßßßßßßßßßßßßßßß
				;                              SUBROUTINE
				;
				;         Called from:   2926:0112, 051F, 0587, 0ADD, 0BFE, 0C34, 1018
				;                             14B8, 6902
				;ÜÜÜÜÜÜÜÜÜÜÜÜÜÜÜÜÜÜÜÜÜÜÜÜÜÜÜÜÜÜÜÜÜÜÜÜÜÜÜÜÜÜÜÜÜÜÜÜÜÜÜÜÜÜÜÜÜÜÜÜÜÜÜÜÜÜÜÜÜÜÜÜÜÜ

2926:7134			sub_277		proc	near
2926:7134  E9 0009				jmp	loc_687			; (7140)

				;ßßßß External Entry into Subroutine ßßßßßßßßßßßßßßßßßßßßßßßßßßßßßßßßßßßßßß
				;
				;         Called from:   2926:00EC, 0500, 0575, 0ABE, 0BD9, 0C19, 0FFF
				;                             149D, 68EE

2926:7137			sub_278:
2926:7137  E9 0024				jmp	loc_688			; (715E)

				;ßßßß External Entry into Subroutine ßßßßßßßßßßßßßßßßßßßßßßßßßßßßßßßßßßßßßß
				;
				;         Called from:   2926:010F, 0514, 057C, 0AC5, 0ACE, 0C20, 0C29
				;                             1015, 14A4, 14AD, 68FF

2926:713A			sub_279:
2926:713A  E9 003B				jmp	loc_689			; (7178)

				;ßßßß External Entry into Subroutine ßßßßßßßßßßßßßßßßßßßßßßßßßßßßßßßßßßßßßß
				;
				;         Called from:   2926:0105, 051C, 0584, 0ADA, 0BF3, 0BFB, 0C31
				;                             100C, 14B5, 68F6

2926:713D			sub_280:
2926:713D  E9 007C				jmp	loc_692			; (71BC)
2926:7140			loc_687:					;  xref 2926:7134
2926:7140  55					push	bp
2926:7141  8B EC				mov	bp,sp
2926:7143  55					push	bp
2926:7144  81 EC 000C				sub	sp,0Ch
2926:7148  1E					push	ds
2926:7149  B8 8AA1				mov	ax,8AA1h
2926:714C  89 46 F4				mov	[bp-0Ch],ax
2926:714F  58					pop	ax
2926:7150  89 46 F6				mov	[bp-0Ah],ax
2926:7153  8B 46 F6				mov	ax,[bp-0Ah]
2926:7156  93					xchg	bx,ax
2926:7157  8B 46 F4				mov	ax,[bp-0Ch]
2926:715A  8B E5				mov	sp,bp
2926:715C  5D					pop	bp
2926:715D  C3					retn
2926:715E			loc_688:					;  xref 2926:7137
2926:715E  55					push	bp
2926:715F  8B EC				mov	bp,sp
2926:7161  55					push	bp
2926:7162  81 EC 0002				sub	sp,2
2926:7166  C7 06 8BA1 0001			mov	word ptr ds:data_68e,1	; (2916:8BA1=0)
           ICON0.lst       ICON0.OVL		Sourcer	v8.01  20-Jul-2026 12:17 am   Page 247

2926:716C  90					nop
2926:716D  B8 8AA1				mov	ax,8AA1h
2926:7170  97					xchg	di,ax
2926:7171  C6 05 00				mov	byte ptr [di],0
2926:7174  8B E5				mov	sp,bp
2926:7176  5D					pop	bp
2926:7177  C3					retn
2926:7178			loc_689:					;  xref 2926:713A
2926:7178  55					push	bp
2926:7179  8B EC				mov	bp,sp
2926:717B  55					push	bp
2926:717C  81 EC 0002				sub	sp,2
2926:7180  81 3E 8BA1 0100			cmp	word ptr ds:data_68e,100h	; (2916:8BA1=0)
2926:7186  7C 03				jl	loc_690			; Jump if <
2926:7188  E9 002B				jmp	loc_691			; (71B6)
2926:718B			loc_690:					;  xref 2926:7186
2926:718B  90					nop
2926:718C  B8 8AA1				mov	ax,8AA1h
2926:718F  03 06 8BA1				add	ax,ds:data_68e		; (2916:8BA1=0)
2926:7193  97					xchg	di,ax
2926:7194  8A 46 04				mov	al,[bp+4]
2926:7197  88 05				mov	[di],al
2926:7199  1E					push	ds
2926:719A  B8 8AA1				mov	ax,8AA1h
2926:719D  50					push	ax
2926:719E  1E					push	ds
2926:719F  B8 8AA1				mov	ax,8AA1h
2926:71A2  97					xchg	di,ax
2926:71A3  07					pop	es
2926:71A4  26: 8A 05				mov	al,es:[di]
2926:71A7  32 E4				xor	ah,ah			; Zero register
2926:71A9  40					inc	ax
2926:71AA  5F					pop	di
2926:71AB  07					pop	es
2926:71AC  26: 88 05				mov	es:[di],al
2926:71AF  A1 8BA1				mov	ax,ds:data_68e		; (2916:8BA1=0)
2926:71B2  40					inc	ax
2926:71B3  A3 8BA1				mov	ds:data_68e,ax		; (2916:8BA1=0)
2926:71B6			loc_691:					;  xref 2926:7188
2926:71B6  8B E5				mov	sp,bp
2926:71B8  5D					pop	bp
2926:71B9  C2 0002				retn	2
2926:71BC			loc_692:					;  xref 2926:713D
2926:71BC  55					push	bp
2926:71BD  8B EC				mov	bp,sp
2926:71BF  55					push	bp
2926:71C0  81 EC 0104				sub	sp,104h
2926:71C4  16					push	ss
2926:71C5  8D 86 FEFE				lea	ax,cs:[0FEFEh][bp]	; Load effective addr
2926:71C9  50					push	ax
2926:71CA  8B 46 06				mov	ax,[bp+6]
2926:71CD  50					push	ax
2926:71CE  8B 46 04				mov	ax,[bp+4]
2926:71D1  50					push	ax
2926:71D2  B8 00FF				mov	ax,0FFh
2926:71D5  50					push	ax
2926:71D6  E8 DCD5				call	sub_215			; (4EAE)
           ICON0.lst       ICON0.OVL		Sourcer	v8.01  20-Jul-2026 12:17 am   Page 248

2926:71D9  16					push	ss
2926:71DA  8D 86 FEFE				lea	ax,cs:[0FEFEh][bp]	; Load effective addr
2926:71DE  97					xchg	di,ax
2926:71DF  07					pop	es
2926:71E0  26: 8A 05				mov	al,es:[di]
2926:71E3  32 E4				xor	ah,ah			; Zero register
2926:71E5  89 86 FEFC				mov	[bp-104h],ax
2926:71E9  8B 86 FEFC				mov	ax,[bp-104h]
2926:71ED  03 06 8BA1				add	ax,ds:data_68e		; (2916:8BA1=0)
2926:71F1  3D 0100				cmp	ax,100h
2926:71F4  7F 03				jg	loc_693			; Jump if >
2926:71F6  E9 0010				jmp	loc_694			; (7209)
2926:71F9			loc_693:					;  xref 2926:71F4
2926:71F9  B8 0100				mov	ax,100h
2926:71FC  50					push	ax
2926:71FD  8B 86 FEFC				mov	ax,[bp-104h]
2926:7201  5B					pop	bx
2926:7202  2B D8				sub	bx,ax
2926:7204  93					xchg	bx,ax
2926:7205  89 86 FEFC				mov	[bp-104h],ax
2926:7209			loc_694:					;  xref 2926:71F6
2926:7209  16					push	ss
2926:720A  8D 86 FEFE				lea	ax,cs:[0FEFEh][bp]	; Load effective addr
2926:720E  05 0001				add	ax,1
2926:7211  50					push	ax
2926:7212  1E					push	ds
2926:7213  B8 8AA1				mov	ax,8AA1h
2926:7216  03 06 8BA1				add	ax,ds:data_68e		; (2916:8BA1=0)
2926:721A ú50					push	ax
2926:721B  8B 86 FEFC				mov	ax,[bp-104h]
2926:721F  50					push	ax
2926:7220  E8 010D				call	sub_284			; (7330)
2926:7223  1E					push	ds
2926:7224  B8 8AA1				mov	ax,8AA1h
2926:7227  50					push	ax
2926:7228  1E					push	ds
2926:7229  B8 8AA1				mov	ax,8AA1h
2926:722C  97					xchg	di,ax
2926:722D  07					pop	es
2926:722E  26: 8A 05				mov	al,es:[di]
2926:7231  32 E4				xor	ah,ah			; Zero register
2926:7233  50					push	ax
2926:7234  8B 86 FEFC				mov	ax,[bp-104h]
2926:7238  5B					pop	bx
2926:7239  03 C3				add	ax,bx
2926:723B  5F					pop	di
2926:723C  07					pop	es
2926:723D  26: 88 05				mov	es:[di],al
2926:7240  A1 8BA1				mov	ax,ds:data_68e		; (2916:8BA1=0)
2926:7243  50					push	ax
2926:7244  8B 86 FEFC				mov	ax,[bp-104h]
2926:7248  5B					pop	bx
2926:7249  03 C3				add	ax,bx
2926:724B  A3 8BA1				mov	ds:data_68e,ax		; (2916:8BA1=0)
2926:724E  8B E5				mov	sp,bp
2926:7250  5D					pop	bp
2926:7251  C2 0004				retn	4
           ICON0.lst       ICON0.OVL		Sourcer	v8.01  20-Jul-2026 12:17 am   Page 249

				sub_277		endp

2926:7254  E9 00 00				db	0E9h, 00h, 00h

				;ßßßßßßßßßßßßßßßßßßßßßßßßßßßßßßßßßßßßßßßßßßßßßßßßßßßßßßßßßßßßßßßßßßßßßßßßßß
				;                              SUBROUTINE
				;
				;         Called from:   2926:60A4, 60C8, 6763, 6782, 6798, 67FB, 6AF4
				;                             6B54
				;ÜÜÜÜÜÜÜÜÜÜÜÜÜÜÜÜÜÜÜÜÜÜÜÜÜÜÜÜÜÜÜÜÜÜÜÜÜÜÜÜÜÜÜÜÜÜÜÜÜÜÜÜÜÜÜÜÜÜÜÜÜÜÜÜÜÜÜÜÜÜÜÜÜÜ

2926:7257			sub_281		proc	near
2926:7257  E9 0000				jmp	loc_695			; (725A)
2926:725A			loc_695:					;  xref 2926:7257
2926:725A  55					push	bp
2926:725B  8B EC				mov	bp,sp
2926:725D  55					push	bp
2926:725E  81 EC 000C				sub	sp,0Ch
2926:7262  A1 8385				mov	ax,word ptr ds:data_320e+2	; (2926:8385=0)
2926:7265  50					push	ax
2926:7266  A1 8383				mov	ax,ds:data_320e		; (2926:8383=0)
2926:7269  50					push	ax
2926:726A  0E					push	cs
2926:726B  B8 EF0A				mov	ax,0EF0Ah
2926:726E  93					xchg	bx,ax
2926:726F  B8 71EE				mov	ax,71EEh
2926:7272  03 C3				add	ax,bx
2926:7274  50					push	ax
2926:7275  E8 0290				call	sub_296			; (7508)
2926:7278  D0 D8				rcr	al,1			; Rotate thru carry
2926:727A  72 03				jc	loc_696			; Jump if carry Set
2926:727C  E9 0009				jmp	loc_697			; (7288)
2926:727F			loc_696:					;  xref 2926:727A
2926:727F  E8 041C				call	sub_300			; (769E)
2926:7282  88 46 F4				mov	[bp-0Ch],al
2926:7285  E9 0066				jmp	loc_700			; (72EE)
2926:7288			loc_697:					;  xref 2926:727C
2926:7288  C4 3E 83AF				les	di,dword ptr ds:data_342e	; (2926:83AF=0) Load seg:offset ptr
2926:728C  83 C7 26				add	di,26h
2926:728F  26: 8A 05				mov	al,es:[di]
2926:7292  3C 03				cmp	al,3
2926:7294  7F 03				jg	loc_698			; Jump if >
2926:7296  E9 002C				jmp	loc_699			; (72C5)
2926:7299			loc_698:					;  xref 2926:7294
2926:7299  C4 3E 83AF				les	di,dword ptr ds:data_342e	; (2926:83AF=0) Load seg:offset ptr
2926:729D  06					push	es
2926:729E ú57					push	di
2926:729F  C4 3E 83AF				les	di,dword ptr ds:data_342e	; (2926:83AF=0) Load seg:offset ptr
2926:72A3  83 C7 28				add	di,28h
2926:72A6  26: 8B 05				mov	ax,es:[di]
2926:72A9  50					push	ax
2926:72AA  E8 EECB				call	sub_252			; (6178)
2926:72AD  C4 3E 83AF				les	di,dword ptr ds:data_342e	; (2926:83AF=0) Load seg:offset ptr
2926:72B1  83 C7 38				add	di,38h
2926:72B4  06					push	es
2926:72B5  57					push	di
2926:72B6  58					pop	ax
           ICON0.lst       ICON0.OVL		Sourcer	v8.01  20-Jul-2026 12:17 am   Page 250

2926:72B7  05 0000				add	ax,0
2926:72BA  97					xchg	di,ax
2926:72BB  07					pop	es
2926:72BC  26: 8A 05				mov	al,es:[di]
2926:72BF  88 46 F4				mov	[bp-0Ch],al
2926:72C2  E9 0029				jmp	loc_700			; (72EE)
2926:72C5			loc_699:					;  xref 2926:7296
2926:72C5  C4 3E 83AF				les	di,dword ptr ds:data_342e	; (2926:83AF=0) Load seg:offset ptr
2926:72C9  83 C7 38				add	di,38h
2926:72CC  06					push	es
2926:72CD  57					push	di
2926:72CE  58					pop	ax
2926:72CF  05 0000				add	ax,0
2926:72D2  97					xchg	di,ax
2926:72D3  07					pop	es
2926:72D4  26: 8A 05				mov	al,es:[di]
2926:72D7  88 46 F4				mov	[bp-0Ch],al
2926:72DA  C4 3E 83AF				les	di,dword ptr ds:data_342e	; (2926:83AF=0) Load seg:offset ptr
2926:72DE  06					push	es
2926:72DF ú57					push	di
2926:72E0  C4 3E 83AF				les	di,dword ptr ds:data_342e	; (2926:83AF=0) Load seg:offset ptr
2926:72E4  83 C7 28				add	di,28h
2926:72E7  26: 8B 05				mov	ax,es:[di]
2926:72EA  50					push	ax
2926:72EB  E8 EE8A				call	sub_252			; (6178)
2926:72EE			loc_700:					;  xref 2926:7285, 72C2
2926:72EE  8A 46 F4				mov	al,[bp-0Ch]
2926:72F1  32 E4				xor	ah,ah			; Zero register
2926:72F3  8B E5				mov	sp,bp
2926:72F5  5D					pop	bp
2926:72F6  C3					retn
				sub_281		endp


				;ßßßßßßßßßßßßßßßßßßßßßßßßßßßßßßßßßßßßßßßßßßßßßßßßßßßßßßßßßßßßßßßßßßßßßßßßßß
				;                              SUBROUTINE
				;
				;         Called from:   2926:5163, 516D, 5177, 5679, 664C, 6656, 6660
				;                             685C, 6C32
				;ÜÜÜÜÜÜÜÜÜÜÜÜÜÜÜÜÜÜÜÜÜÜÜÜÜÜÜÜÜÜÜÜÜÜÜÜÜÜÜÜÜÜÜÜÜÜÜÜÜÜÜÜÜÜÜÜÜÜÜÜÜÜÜÜÜÜÜÜÜÜÜÜÜÜ

2926:72F7			sub_282		proc	near
2926:72F7  B9 0010				mov	cx,10h
2926:72FA  8B FC				mov	di,sp
2926:72FC  83 C7 02				add	di,2
2926:72FF  8B DC				mov	bx,sp
2926:7301  83 C3 22				add	bx,22h

2926:7304			locloop_701:					;  xref 2926:7310
2926:7304  36: 8B 05				mov	ax,ss:[di]
2926:7307  36: 09 07				or	ss:[bx],ax
2926:730A  83 C7 02				add	di,2
2926:730D  83 C3 02				add	bx,2
2926:7310  E2 F2				loop	locloop_701		; Loop if cx > 0

2926:7312  58					pop	ax
2926:7313  83 C4 20				add	sp,20h
           ICON0.lst       ICON0.OVL		Sourcer	v8.01  20-Jul-2026 12:17 am   Page 251

2926:7316  50					push	ax
2926:7317  C3					retn
				sub_282		endp


				;ßßßßßßßßßßßßßßßßßßßßßßßßßßßßßßßßßßßßßßßßßßßßßßßßßßßßßßßßßßßßßßßßßßßßßßßßßß
				;                              SUBROUTINE
				;
				;         Called from:   2926:4F00, 4F2A, 5053, 50BA, 55F4, 560B
				;ÜÜÜÜÜÜÜÜÜÜÜÜÜÜÜÜÜÜÜÜÜÜÜÜÜÜÜÜÜÜÜÜÜÜÜÜÜÜÜÜÜÜÜÜÜÜÜÜÜÜÜÜÜÜÜÜÜÜÜÜÜÜÜÜÜÜÜÜÜÜÜÜÜÜ

2926:7318			sub_283		proc	near

				PARAMETER_1	=	4			; bp+4
				PARAMETER_2	=	6			; bp+6

2926:7318  55					push	bp
2926:7319  8B EC				mov	bp,sp
2926:731B  83 C5 04				add	bp,4
2926:731E  8B 4E 00				mov	cx,[bp]
2926:7321  1E					push	ds
2926:7322  C4 7E 06				les	di,dword ptr [bp+PARAMETER_2]	; Load seg:offset ptr
2926:7325  C5 76 02				lds	si,dword ptr [bp+2]	; Load seg:offset ptr
2926:7328  FC					cld				; Clear direction
2926:7329  F3/ A4				rep	movsb			; Rep when cx >0 Mov [si] to es:[di]
2926:732B  1F					pop	ds
2926:732C  5D					pop	bp
2926:732D  C2 000A				retn	0Ah
				sub_283		endp


				;ßßßßßßßßßßßßßßßßßßßßßßßßßßßßßßßßßßßßßßßßßßßßßßßßßßßßßßßßßßßßßßßßßßßßßßßßßß
				;                              SUBROUTINE
				;
				;         Called from:   2926:4D9E, 4DFB, 57D8, 57EE, 6115, 6441, 7220
				;ÜÜÜÜÜÜÜÜÜÜÜÜÜÜÜÜÜÜÜÜÜÜÜÜÜÜÜÜÜÜÜÜÜÜÜÜÜÜÜÜÜÜÜÜÜÜÜÜÜÜÜÜÜÜÜÜÜÜÜÜÜÜÜÜÜÜÜÜÜÜÜÜÜÜ

2926:7330			sub_284		proc	near
2926:7330  E9 0000				jmp	loc_702			; (7333)
2926:7333			loc_702:					;  xref 2926:7330
2926:7333  55					push	bp
2926:7334  8B EC				mov	bp,sp
2926:7336  83 C5 04				add	bp,4
2926:7339  8B 4E 00				mov	cx,[bp]
2926:733C  1E					push	ds
2926:733D  C4 7E 02				les	di,dword ptr [bp+2]	; Load seg:offset ptr
2926:7340  C5 76 06				lds	si,dword ptr [bp+6]	; Load seg:offset ptr
2926:7343  FC					cld				; Clear direction
2926:7344  F3/ A4				rep	movsb			; Rep when cx >0 Mov [si] to es:[di]
2926:7346  1F					pop	ds
2926:7347  5D					pop	bp
2926:7348  C2 000A				retn	0Ah
				sub_284		endp

							                        ;* No entry point to code
2926:734B  55					push	bp
2926:734C  8B EC				mov	bp,sp
           ICON0.lst       ICON0.OVL		Sourcer	v8.01  20-Jul-2026 12:17 am   Page 252

2926:734E  83 C5 04				add	bp,4
2926:7351  8B 4E 00				mov	cx,[bp]
2926:7354  1E					push	ds
2926:7355  C4 7E 06				les	di,dword ptr [bp+6]	; Load seg:offset ptr
2926:7358  03 F9				add	di,cx
2926:735A  4F					dec	di
2926:735B  C5 76 02				lds	si,dword ptr [bp+2]	; Load seg:offset ptr
2926:735E  03 F1				add	si,cx
2926:7360  4E					dec	si
2926:7361  FD					std				; Set direction flag
2926:7362  F3/ A4				rep	movsb			; Rep when cx >0 Mov [si] to es:[di]
2926:7364  1F					pop	ds
2926:7365  5D					pop	bp
2926:7366  FC					cld				; Clear direction
2926:7367  C2 000A				retn	0Ah
							                        ;* No entry point to code
2926:736A  55					push	bp
2926:736B  8B EC				mov	bp,sp
2926:736D  83 C5 04				add	bp,4
2926:7370  8B 4E 00				mov	cx,[bp]
2926:7373  1E					push	ds
2926:7374  C4 7E 02				les	di,dword ptr [bp+2]	; Load seg:offset ptr
2926:7377  03 F9				add	di,cx
2926:7379  4F					dec	di
2926:737A  C5 76 06				lds	si,dword ptr [bp+6]	; Load seg:offset ptr
2926:737D  03 F1				add	si,cx
2926:737F  4E					dec	si
2926:7380  FD					std				; Set direction flag
2926:7381  F3/ A4				rep	movsb			; Rep when cx >0 Mov [si] to es:[di]
2926:7383  1F					pop	ds
2926:7384  5D					pop	bp
2926:7385  FC					cld				; Clear direction
2926:7386  C2 000A				retn	0Ah

				;ßßßßßßßßßßßßßßßßßßßßßßßßßßßßßßßßßßßßßßßßßßßßßßßßßßßßßßßßßßßßßßßßßßßßßßßßßß
				;                              SUBROUTINE
				;
				;         Called from:   2926:5491, 6642, 6859
				;ÜÜÜÜÜÜÜÜÜÜÜÜÜÜÜÜÜÜÜÜÜÜÜÜÜÜÜÜÜÜÜÜÜÜÜÜÜÜÜÜÜÜÜÜÜÜÜÜÜÜÜÜÜÜÜÜÜÜÜÜÜÜÜÜÜÜÜÜÜÜÜÜÜÜ

2926:7389			sub_285		proc	near
2926:7389  5A					pop	dx
2926:738A  5B					pop	bx
2926:738B  58					pop	ax
2926:738C  83 EC 20				sub	sp,20h
2926:738F  8B FC				mov	di,sp
2926:7391  50					push	ax
2926:7392  53					push	bx
2926:7393  52					push	dx
2926:7394  55					push	bp
2926:7395  8B EC				mov	bp,sp
2926:7397  45					inc	bp
2926:7398  45					inc	bp
2926:7399  8C D1				mov	cx,ss
2926:739B  8E C1				mov	es,cx
2926:739D  B9 0010				mov	cx,10h
2926:73A0  33 C0				xor	ax,ax			; Zero register
           ICON0.lst       ICON0.OVL		Sourcer	v8.01  20-Jul-2026 12:17 am   Page 253

2926:73A2  FC					cld				; Clear direction
2926:73A3  F3/ AB				rep	stosw			; Rep when cx >0 Store ax to es:[di]
2926:73A5			loc_703:					;  xref 2926:73C8
2926:73A5 ú8B 46 04				mov	ax,[bp+4]
2926:73A8  3B 46 02				cmp	ax,[bp+2]
2926:73AB  7F 1E				jg	loc_704			; Jump if >
2926:73AD  8B C8				mov	cx,ax
2926:73AF  8B D8				mov	bx,ax
2926:73B1  B8 0001				mov	ax,1
2926:73B4  81 E1 000F				and	cx,0Fh
2926:73B8  D3 E0				shl	ax,cl			; Shift w/zeros fill
2926:73BA  B1 04				mov	cl,4
2926:73BC  D3 EB				shr	bx,cl			; Shift w/zeros fill
2926:73BE  D1 E3				shl	bx,1			; Shift w/zeros fill
2926:73C0  8B FB				mov	di,bx
2926:73C2  09 43 06				or	[bp+di+6],ax
2926:73C5  FF 46 04				inc	word ptr [bp+4]
2926:73C8  E9 FFDA				jmp	loc_703			; (73A5)
						nop	                                        ;*jump fixup
2926:73CB			loc_704:					;  xref 2926:73AB
2926:73CB  5D					pop	bp
2926:73CC  C2 0004				retn	4
				sub_285		endp


				;ßßßßßßßßßßßßßßßßßßßßßßßßßßßßßßßßßßßßßßßßßßßßßßßßßßßßßßßßßßßßßßßßßßßßßßßßßß
				;                              SUBROUTINE
				;
				;         Called from:   2926:16F3, 1C65, 1CDA, 6D42, 6D5A
				;ÜÜÜÜÜÜÜÜÜÜÜÜÜÜÜÜÜÜÜÜÜÜÜÜÜÜÜÜÜÜÜÜÜÜÜÜÜÜÜÜÜÜÜÜÜÜÜÜÜÜÜÜÜÜÜÜÜÜÜÜÜÜÜÜÜÜÜÜÜÜÜÜÜÜ

2926:73CF			sub_286		proc	near
2926:73CF  5B					pop	bx
2926:73D0  59					pop	cx
2926:73D1  58					pop	ax
2926:73D2  D3 E8				shr	ax,cl			; Shift w/zeros fill
2926:73D4  53					push	bx
2926:73D5  C3					retn
				sub_286		endp


				;ßßßßßßßßßßßßßßßßßßßßßßßßßßßßßßßßßßßßßßßßßßßßßßßßßßßßßßßßßßßßßßßßßßßßßßßßßß
				;                              SUBROUTINE
				;
				;         Called from:   2926:0140, 04A3, 0B8C
				;ÜÜÜÜÜÜÜÜÜÜÜÜÜÜÜÜÜÜÜÜÜÜÜÜÜÜÜÜÜÜÜÜÜÜÜÜÜÜÜÜÜÜÜÜÜÜÜÜÜÜÜÜÜÜÜÜÜÜÜÜÜÜÜÜÜÜÜÜÜÜÜÜÜÜ

2926:73D6			sub_287		proc	near
2926:73D6  5B					pop	bx
2926:73D7  59					pop	cx
2926:73D8  58					pop	ax
2926:73D9  D3 E0				shl	ax,cl			; Shift w/zeros fill
2926:73DB  53					push	bx
2926:73DC  C3					retn
				sub_287		endp


           ICON0.lst       ICON0.OVL		Sourcer	v8.01  20-Jul-2026 12:17 am   Page 254

				;ßßßßßßßßßßßßßßßßßßßßßßßßßßßßßßßßßßßßßßßßßßßßßßßßßßßßßßßßßßßßßßßßßßßßßßßßßß
				;                              SUBROUTINE
				;
				;         Called from:   2926:5494, 6663, 685F, 6879, 6D33
				;ÜÜÜÜÜÜÜÜÜÜÜÜÜÜÜÜÜÜÜÜÜÜÜÜÜÜÜÜÜÜÜÜÜÜÜÜÜÜÜÜÜÜÜÜÜÜÜÜÜÜÜÜÜÜÜÜÜÜÜÜÜÜÜÜÜÜÜÜÜÜÜÜÜÜ

2926:73DD			sub_288		proc	near
2926:73DD  5B					pop	bx
2926:73DE  8B F4				mov	si,sp
2926:73E0  1E					push	ds
2926:73E1  8C D0				mov	ax,ss
2926:73E3  8E D8				mov	ds,ax
2926:73E5  55					push	bp
2926:73E6  8B EC				mov	bp,sp
2926:73E8  83 C5 04				add	bp,4
2926:73EB  C4 7E 20				les	di,dword ptr [bp+20h]	; Load seg:offset ptr
2926:73EE  B9 0020				mov	cx,20h
2926:73F1  FC					cld				; Clear direction
2926:73F2  F3/ A4				rep	movsb			; Rep when cx >0 Mov [si] to es:[di]
2926:73F4  5D					pop	bp
2926:73F5  1F					pop	ds
2926:73F6  83 C4 24				add	sp,24h
2926:73F9  53					push	bx
2926:73FA  C3					retn
				sub_288		endp


				;ßßßßßßßßßßßßßßßßßßßßßßßßßßßßßßßßßßßßßßßßßßßßßßßßßßßßßßßßßßßßßßßßßßßßßßßßßß
				;                              SUBROUTINE
				;
				;         Called from:   2926:5505, 66BD, 684E, 686C, 697D, 6D30
				;ÜÜÜÜÜÜÜÜÜÜÜÜÜÜÜÜÜÜÜÜÜÜÜÜÜÜÜÜÜÜÜÜÜÜÜÜÜÜÜÜÜÜÜÜÜÜÜÜÜÜÜÜÜÜÜÜÜÜÜÜÜÜÜÜÜÜÜÜÜÜÜÜÜÜ

2926:73FB			sub_289		proc	near
2926:73FB  5B					pop	bx
2926:73FC  5E					pop	si
2926:73FD  8C D8				mov	ax,ds
2926:73FF  1F					pop	ds
2926:7400  83 EC 20				sub	sp,20h
2926:7403  8C D1				mov	cx,ss
2926:7405  8E C1				mov	es,cx
2926:7407  8B FC				mov	di,sp
2926:7409  B9 0020				mov	cx,20h
2926:740C  FC					cld				; Clear direction
2926:740D  F3/ A4				rep	movsb			; Rep when cx >0 Mov [si] to es:[di]
2926:740F  8E D8				mov	ds,ax
2926:7411  53					push	bx
2926:7412  C3					retn
				sub_289		endp


				;ßßßßßßßßßßßßßßßßßßßßßßßßßßßßßßßßßßßßßßßßßßßßßßßßßßßßßßßßßßßßßßßßßßßßßßßßßß
				;                              SUBROUTINE
				;
				;         Called from:   2926:5159, 5160, 516A, 5174, 566F, 5676, 6649
				;                             6653, 665D, 6873, 6C28, 6C2F
				;ÜÜÜÜÜÜÜÜÜÜÜÜÜÜÜÜÜÜÜÜÜÜÜÜÜÜÜÜÜÜÜÜÜÜÜÜÜÜÜÜÜÜÜÜÜÜÜÜÜÜÜÜÜÜÜÜÜÜÜÜÜÜÜÜÜÜÜÜÜÜÜÜÜÜ
           ICON0.lst       ICON0.OVL		Sourcer	v8.01  20-Jul-2026 12:17 am   Page 255


2926:7413			sub_290		proc	near
2926:7413  5A					pop	dx
2926:7414  5B					pop	bx
2926:7415  83 EC 20				sub	sp,20h
2926:7418  8B FC				mov	di,sp
2926:741A  8C D1				mov	cx,ss
2926:741C  8E C1				mov	es,cx
2926:741E  33 C0				xor	ax,ax			; Zero register
2926:7420  B9 0010				mov	cx,10h
2926:7423  FC					cld				; Clear direction
2926:7424  F3/ AB				rep	stosw			; Rep when cx >0 Store ax to es:[di]
2926:7426  8B FC				mov	di,sp
2926:7428  8B CB				mov	cx,bx
2926:742A  81 E1 000F				and	cx,0Fh
2926:742E  B8 0001				mov	ax,1
2926:7431  D3 E0				shl	ax,cl			; Shift w/zeros fill
2926:7433  B1 04				mov	cl,4
2926:7435  D3 EB				shr	bx,cl			; Shift w/zeros fill
2926:7437  D1 E3				shl	bx,1			; Shift w/zeros fill
2926:7439  36: 89 01				mov	ss:[bx+di],ax
2926:743C  52					push	dx
2926:743D  C3					retn
				sub_290		endp


				;ßßßßßßßßßßßßßßßßßßßßßßßßßßßßßßßßßßßßßßßßßßßßßßßßßßßßßßßßßßßßßßßßßßßßßßßßßß
				;                              SUBROUTINE
				;
				;         Called from:   2926:1028, 4C50
				;ÜÜÜÜÜÜÜÜÜÜÜÜÜÜÜÜÜÜÜÜÜÜÜÜÜÜÜÜÜÜÜÜÜÜÜÜÜÜÜÜÜÜÜÜÜÜÜÜÜÜÜÜÜÜÜÜÜÜÜÜÜÜÜÜÜÜÜÜÜÜÜÜÜÜ

2926:743E			sub_291		proc	near
2926:743E  5B					pop	bx
2926:743F  58					pop	ax
2926:7440  2E: 3B 07				cmp	ax,cs:[bx]
2926:7443  7C 20				jl	loc_705			; Jump if <
2926:7445  2E: 8B 0F				mov	cx,cs:[bx]
2926:7448  2E: 03 4F 02				add	cx,cs:[bx+2]
2926:744C  3B C1				cmp	ax,cx
2926:744E  7F 15				jg	loc_705			; Jump if >
2926:7450  2E: 2B 07				sub	ax,cs:[bx]
2926:7453  D1 E0				shl	ax,1			; Shift w/zeros fill
2926:7455  8B F0				mov	si,ax
2926:7457  2E: 8B 40 04				mov	ax,cs:[bx+si+4]
2926:745B  8D 58 04				lea	bx,[bx+si+4]		; Load effective addr
2926:745E  03 C3				add	ax,bx
2926:7460 ú05 0002		;*		add	ax,offset loc_3		;*
2926:7460  05 02 00				db	5, 2, 0
2926:7463  FF E0				jmp	ax			;*Register jump
2926:7465			loc_705:					;  xref 2926:7443, 744E
2926:7465  2E: 8B 47 02				mov	ax,cs:[bx+2]
2926:7469  40					inc	ax
2926:746A  D1 E0				shl	ax,1			; Shift w/zeros fill
2926:746C  8B F0				mov	si,ax
2926:746E  2E: 8B 40 04				mov	ax,cs:[bx+si+4]
2926:7472  8D 58 04				lea	bx,[bx+si+4]		; Load effective addr
           ICON0.lst       ICON0.OVL		Sourcer	v8.01  20-Jul-2026 12:17 am   Page 256

2926:7475  03 C3				add	ax,bx
2926:7477 ú05 0002		;*		add	ax,offset loc_3		;*
2926:7477  05 02 00				db	5, 2, 0
2926:747A  FF E0				jmp	ax			;*Register jump

				;ßßßß External Entry into Subroutine ßßßßßßßßßßßßßßßßßßßßßßßßßßßßßßßßßßßßßß
				;
				;         Called from:   2926:02B7, 0324, 10FE, 1F40, 4FBD, 52C0

2926:747C			sub_292:
2926:747C  33 C0				xor	ax,ax			; Zero register
2926:747E  8B F0				mov	si,ax
2926:7480  E9 0269				jmp	loc_732			; (76EC)

				;ßßßß External Entry into Subroutine ßßßßßßßßßßßßßßßßßßßßßßßßßßßßßßßßßßßßßß
				;
				;         Called from:   2926:6876

2926:7483			sub_293:
2926:7483  B9 0010				mov	cx,10h
2926:7486  8B FC				mov	di,sp
2926:7488  83 C7 02				add	di,2
2926:748B  8B DC				mov	bx,sp
2926:748D  83 C3 22				add	bx,22h

2926:7490			locloop_706:					;  xref 2926:749E
2926:7490  36: 8B 05				mov	ax,ss:[di]
2926:7493  F7 D0				not	ax
2926:7495  36: 21 07				and	ss:[bx],ax
2926:7498  83 C7 02				add	di,2
2926:749B  83 C3 02				add	bx,2
2926:749E  E2 F0				loop	locloop_706		; Loop if cx > 0

2926:74A0  58					pop	ax
2926:74A1  83 C4 20				add	sp,20h
2926:74A4  50					push	ax
2926:74A5  C3					retn

				;ßßßß External Entry into Subroutine ßßßßßßßßßßßßßßßßßßßßßßßßßßßßßßßßßßßßßß
				;
				;         Called from:   2926:57A7, 580C, 584B, 5971, 5BB1, 74D8

2926:74A6			sub_294:
2926:74A6  5B					pop	bx
2926:74A7  58					pop	ax
2926:74A8  59					pop	cx
2926:74A9  5F					pop	di
2926:74AA  07					pop	es
2926:74AB  51					push	cx
2926:74AC  D1 E9				shr	cx,1			; Shift w/zeros fill
2926:74AE  8A E0				mov	ah,al
2926:74B0  FC					cld				; Clear direction
2926:74B1  F3/ AB				rep	stosw			; Rep when cx >0 Store ax to es:[di]
2926:74B3  59					pop	cx
2926:74B4  81 E1 0001				and	cx,1
2926:74B8  74 01				jz	loc_707			; Jump if zero
2926:74BA  AA					stosb				; Store al to es:[di]
           ICON0.lst       ICON0.OVL		Sourcer	v8.01  20-Jul-2026 12:17 am   Page 257

2926:74BB			loc_707:					;  xref 2926:74B8
2926:74BB  53					push	bx
2926:74BC  C3					retn
2926:74BD  E9 00 00				db	0E9h, 00h, 00h

				;ßßßß External Entry into Subroutine ßßßßßßßßßßßßßßßßßßßßßßßßßßßßßßßßßßßßßß
				;
				;         Called from:   2926:0AF7, 0C4E, 11F1, 157F, 1AAF, 1EEF, 64A9

2926:74C0			sub_295:
2926:74C0  E9 0000				jmp	loc_708			; (74C3)
2926:74C3			loc_708:					;  xref 2926:74C0
2926:74C3  55					push	bp
2926:74C4  8B EC				mov	bp,sp
2926:74C6  55					push	bp
2926:74C7  81 EC 0002				sub	sp,2
2926:74CB  C4 7E 0A				les	di,dword ptr [bp+0Ah]	; Load seg:offset ptr
2926:74CE  06					push	es
2926:74CF  57					push	di
2926:74D0  B8 0039				mov	ax,39h
2926:74D3  50					push	ax
2926:74D4  B8 0000				mov	ax,0
2926:74D7  50					push	ax
2926:74D8  E8 FFCB				call	sub_294			; (74A6)
2926:74DB  C4 7E 0A				les	di,dword ptr [bp+0Ah]	; Load seg:offset ptr
2926:74DE  06					push	es
2926:74DF  57					push	di
2926:74E0  C4 7E 04				les	di,dword ptr [bp+4]	; Load seg:offset ptr
2926:74E3  06					push	es
2926:74E4  57					push	di
2926:74E5  B8 0025				mov	ax,25h
2926:74E8  50					push	ax
2926:74E9  E8 D9C2				call	sub_215			; (4EAE)
2926:74EC  8B E5				mov	sp,bp
2926:74EE  5D					pop	bp
2926:74EF  C2 000A				retn	0Ah
							                        ;* No entry point to code
2926:74F2  5F					pop	di
2926:74F3  5A					pop	dx
2926:74F4  59					pop	cx
2926:74F5  5B					pop	bx
2926:74F6  58					pop	ax
2926:74F7  3B C1				cmp	ax,cx
2926:74F9  75 09				jne	loc_710			; Jump if not equal
2926:74FB  3B DA				cmp	bx,dx
2926:74FD  75 05				jne	loc_710			; Jump if not equal
2926:74FF			loc_709:					;  xref 2926:750F, 7515, 7525, 752F
										;            753B, 7541, 754B, 754F
2926:74FF úB8 0001				mov	ax,1
2926:7502  FF E7				jmp	di			;*Register jump
2926:7504			loc_710:					;  xref 2926:74F9, 74FD, 7513, 751F
										;            7523, 7531, 753F, 7551
2926:7504 ú33 C0				xor	ax,ax			; Zero register
2926:7506  FF E7				jmp	di			;*Register jump

				;ßßßß External Entry into Subroutine ßßßßßßßßßßßßßßßßßßßßßßßßßßßßßßßßßßßßßß
				;
           ICON0.lst       ICON0.OVL				Sourcer	v8.01  20-Jul-2026 12:17 am   Page 258

				;         Called from:   2926:6749, 70C8, 7275

2926:7508			sub_296:
2926:7508  5F					pop	di
2926:7509  5A					pop	dx
2926:750A  59					pop	cx
2926:750B  5B					pop	bx
2926:750C  58					pop	ax
2926:750D  3B C1				cmp	ax,cx
2926:750F  75 EE				jne	loc_709			; Jump if not equal
2926:7511  3B DA				cmp	bx,dx
2926:7513  74 EF				je	loc_710			; Jump if equal
2926:7515  EB E8				jmp	short loc_709		; (74FF)
							                        ;* No entry point to code
2926:7517  5E					pop	si
2926:7518  E8 0038				call	sub_298			; (7553)
2926:751B  8B FE				mov	di,si
2926:751D  0B DB				or	bx,bx			; Zero ?
2926:751F  78 E3				js	loc_710			; Jump if sign=1
2926:7521  0B C3				or	ax,bx
2926:7523  74 DF				jz	loc_710			; Jump if zero
2926:7525  EB D8				jmp	short loc_709		; (74FF)
							                        ;* No entry point to code
2926:7527  5E					pop	si
2926:7528  E8 0028				call	sub_298			; (7553)
2926:752B  8B FE				mov	di,si
2926:752D  0B DB				or	bx,bx			; Zero ?
2926:752F  78 CE				js	loc_709			; Jump if sign=1
2926:7531  EB D1				jmp	short loc_710		; (7504)

				;ßßßß External Entry into Subroutine ßßßßßßßßßßßßßßßßßßßßßßßßßßßßßßßßßßßßßß
				;
				;         Called from:   2926:75E5

2926:7533			sub_297:
2926:7533  5E					pop	si
2926:7534  E8 001C				call	sub_298			; (7553)
2926:7537  8B FE				mov	di,si
2926:7539  0B C3				or	ax,bx
2926:753B  74 C2				jz	loc_709			; Jump if zero
2926:753D  0B DB				or	bx,bx			; Zero ?
2926:753F  78 C3				js	loc_710			; Jump if sign=1
2926:7541  EB BC				jmp	short loc_709		; (74FF)
							                        ;* No entry point to code
2926:7543  5E					pop	si
2926:7544  E8 000C				call	sub_298			; (7553)
2926:7547  8B FE				mov	di,si
2926:7549  0B C3				or	ax,bx
2926:754B  74 B2				jz	loc_709			; Jump if zero
2926:754D  0B DB				or	bx,bx			; Zero ?
2926:754F  78 AE				js	loc_709			; Jump if sign=1
2926:7551  EB B1				jmp	short loc_710		; (7504)

				;ßßßß External Entry into Subroutine ßßßßßßßßßßßßßßßßßßßßßßßßßßßßßßßßßßßßßß
				;
				;         Called from:   2926:7518, 7528, 7534, 7544, 75FA

           ICON0.lst       ICON0.OVL		Sourcer	v8.01  20-Jul-2026 12:17 am   Page 259

2926:7553			sub_298:
2926:7553  5F					pop	di
2926:7554  59					pop	cx
2926:7555  5A					pop	dx
2926:7556  58					pop	ax
2926:7557  5B					pop	bx
2926:7558  2B C1				sub	ax,cx
2926:755A  1B DA				sbb	bx,dx
2926:755C  FF E7				jmp	di			;*
							                        ;* No entry point to code
2926:755E  55					push	bp
2926:755F  8B EC				mov	bp,sp
2926:7561  83 EC 0E				sub	sp,0Eh
2926:7564  C7 46 F2 0001			mov	word ptr [bp-0Eh],1
2926:7569  EB 0B				jmp	short loc_711		; (7576)
							                        ;* No entry point to code
2926:756B  55					push	bp
2926:756C  8B EC				mov	bp,sp
2926:756E  83 EC 0E				sub	sp,0Eh
2926:7571  C7 46 F2 0000			mov	word ptr [bp-0Eh],0
2926:7576			loc_711:					;  xref 2926:7569
2926:7576  8B 46 0A				mov	ax,[bp+0Ah]
2926:7579  33 46 06				xor	ax,[bp+6]
2926:757C  89 46 FE				mov	[bp-2],ax
2926:757F  F7 46 0A 8000			test	word ptr [bp+0Ah],8000h
2926:7584  74 0E				jz	loc_712			; Jump if zero
2926:7586  F7 56 08				not	word ptr [bp+8]
2926:7589  F7 56 0A				not	word ptr [bp+0Ah]
2926:758C  83 46 08 01				add	word ptr [bp+8],1
2926:7590  83 56 0A 00				adc	word ptr [bp+0Ah],0
2926:7594			loc_712:					;  xref 2926:7584
2926:7594  F7 46 06 8000			test	word ptr [bp+6],8000h
2926:7599  74 0E				jz	loc_713			; Jump if zero
2926:759B  F7 56 06				not	word ptr [bp+6]
2926:759E  F7 56 04				not	word ptr [bp+4]
2926:75A1  83 46 04 01				add	word ptr [bp+4],1
2926:75A5  83 56 06 00				adc	word ptr [bp+6],0
2926:75A9			loc_713:					;  xref 2926:7599
2926:75A9  B9 0020				mov	cx,20h
2926:75AC  8B 46 04				mov	ax,[bp+4]
2926:75AF  0B 46 06				or	ax,[bp+6]
2926:75B2  75 03				jnz	loc_714			; Jump if not zero
2926:75B4  E9 0091				jmp	loc_ret_720		; (7648)
2926:75B7			loc_714:					;  xref 2926:75B2
2926:75B7  C7 46 FA 0000			mov	word ptr [bp-6],0
2926:75BC  C7 46 F8 0000			mov	word ptr [bp-8],0
2926:75C1  C7 46 F6 0000			mov	word ptr [bp-0Ah],0
2926:75C6  C7 46 F4 0000			mov	word ptr [bp-0Ch],0

2926:75CB			locloop_715:					;  xref 2926:760B, 7616
2926:75CB  F8					clc				; Clear carry flag
2926:75CC  D1 56 08				rcl	word ptr [bp+8],1	; Rotate thru carry
2926:75CF  D1 56 0A				rcl	word ptr [bp+0Ah],1	; Rotate thru carry
2926:75D2  D1 56 F4				rcl	word ptr [bp-0Ch],1	; Rotate thru carry
2926:75D5  D1 56 F6				rcl	word ptr [bp-0Ah],1	; Rotate thru carry
2926:75D8  51					push	cx
2926:75D9  FF 76 F6				push	word ptr [bp-0Ah]
           ICON0.lst       ICON0.OVL		Sourcer	v8.01  20-Jul-2026 12:17 am   Page 260

2926:75DC  FF 76 F4				push	word ptr [bp-0Ch]
2926:75DF  FF 76 06				push	word ptr [bp+6]
2926:75E2  FF 76 04				push	word ptr [bp+4]
2926:75E5  E8 FF4B				call	sub_297			; (7533)
2926:75E8  59					pop	cx
2926:75E9  D0 D8				rcr	al,1			; Rotate thru carry
2926:75EB  73 22				jnc	loc_716			; Jump if carry=0
2926:75ED  51					push	cx
2926:75EE  FF 76 F6				push	word ptr [bp-0Ah]
2926:75F1  FF 76 F4				push	word ptr [bp-0Ch]
2926:75F4  FF 76 06				push	word ptr [bp+6]
2926:75F7  FF 76 04				push	word ptr [bp+4]
2926:75FA  E8 FF56				call	sub_298			; (7553)
2926:75FD  59					pop	cx
2926:75FE  89 46 F4				mov	[bp-0Ch],ax
2926:7601  89 5E F6				mov	[bp-0Ah],bx
2926:7604  F9					stc				; Set carry flag
2926:7605  D1 56 F8				rcl	word ptr [bp-8],1	; Rotate thru carry
2926:7608  D1 56 FA				rcl	word ptr [bp-6],1	; Rotate thru carry
2926:760B  E2 BE				loop	locloop_715		; Loop if cx > 0

2926:760D  EB 09				jmp	short loc_717		; (7618)
2926:760F			loc_716:					;  xref 2926:75EB
2926:760F  F8					clc				; Clear carry flag
2926:7610  D1 56 F8				rcl	word ptr [bp-8],1	; Rotate thru carry
2926:7613  D1 56 FA				rcl	word ptr [bp-6],1	; Rotate thru carry
2926:7616  E2 B3				loop	locloop_715		; Loop if cx > 0

2926:7618			loc_717:					;  xref 2926:760D
2926:7618  F7 46 F2 0001			test	word ptr [bp-0Eh],1
2926:761D  75 1D				jnz	loc_719			; Jump if not zero
2926:761F  8B 46 F8				mov	ax,[bp-8]
2926:7622  8B 5E FA				mov	bx,[bp-6]
2926:7625  F7 46 FE 8000			test	word ptr [bp-2],8000h
2926:762A  74 0A				jz	loc_718			; Jump if zero
2926:762C  F7 D0				not	ax
2926:762E  F7 D3				not	bx
2926:7630  05 0001				add	ax,1
2926:7633  83 D3 00				adc	bx,0
2926:7636			loc_718:					;  xref 2926:762A
2926:7636  8B E5				mov	sp,bp
2926:7638  5D					pop	bp
2926:7639  C2 0008				retn	8
2926:763C			loc_719:					;  xref 2926:761D
2926:763C  8B 46 F4				mov	ax,[bp-0Ch]
2926:763F  8B 5E F6				mov	bx,[bp-0Ah]
2926:7642  8B E5				mov	sp,bp
2926:7644  5D					pop	bp
2926:7645  C2 0008				retn	8

2926:7648			loc_ret_720:					;  xref 2926:75B4
2926:7648  C2 0008				retn	8
							                        ;* No entry point to code
2926:764B  5F					pop	di
2926:764C  58					pop	ax
2926:764D  5B					pop	bx
2926:764E  F7 D0				not	ax
           ICON0.lst       ICON0.OVL		Sourcer	v8.01  20-Jul-2026 12:17 am   Page 261

2926:7650  F7 D3				not	bx
2926:7652  05 0001				add	ax,1
2926:7655  83 D3 00				adc	bx,0
2926:7658  53					push	bx
2926:7659  50					push	ax
2926:765A  FF E7				jmp	di			;*
							                        ;* No entry point to code
2926:765C  5A					pop	dx
2926:765D  5F					pop	di
2926:765E  07					pop	es
2926:765F  26: 8A 05				mov	al,es:[di]
2926:7662  32 E4				xor	ah,ah			; Zero register
2926:7664  50					push	ax
2926:7665  FF E2				jmp	dx			;*
							                        ;* No entry point to code
2926:7667  5A					pop	dx
2926:7668  5F					pop	di
2926:7669  07					pop	es
2926:766A  26: 8B 05				mov	ax,es:[di]
2926:766D  50					push	ax
2926:766E  FF E2				jmp	dx			;*
							                        ;* No entry point to code
2926:7670  5A					pop	dx
2926:7671  5F					pop	di
2926:7672  07					pop	es
2926:7673  26: 8B 45 02				mov	ax,es:[di+2]
2926:7677  50					push	ax
2926:7678  26: 8B 05				mov	ax,es:[di]
2926:767B  50					push	ax
2926:767C  FF E2				jmp	dx			;*
							                        ;* No entry point to code
2926:767E  5A					pop	dx
2926:767F  58					pop	ax
2926:7680  5F					pop	di
2926:7681  07					pop	es
2926:7682  26: 88 05				mov	es:[di],al
2926:7685  FF E2				jmp	dx			;*
							                        ;* No entry point to code
2926:7687  5A					pop	dx
2926:7688  58					pop	ax
2926:7689  5F					pop	di
2926:768A  07					pop	es
2926:768B  26: 89 05				mov	es:[di],ax
2926:768E  FF E2				jmp	dx			;*Register jump

				;ßßßß External Entry into Subroutine ßßßßßßßßßßßßßßßßßßßßßßßßßßßßßßßßßßßßßß
				;
				;         Called from:   2926:4DC3, 4DD1, 4DE5, 6526

2926:7690			sub_299:
2926:7690  5A					pop	dx
2926:7691  58					pop	ax
2926:7692  5B					pop	bx
2926:7693  5F					pop	di
2926:7694  07					pop	es
2926:7695  26: 89 05				mov	es:[di],ax
2926:7698  26: 89 5D 02				mov	es:[di+2],bx
           ICON0.lst       ICON0.OVL		Sourcer	v8.01  20-Jul-2026 12:17 am   Page 262

2926:769C  FF E2				jmp	dx			;*Register jump

				;ßßßß External Entry into Subroutine ßßßßßßßßßßßßßßßßßßßßßßßßßßßßßßßßßßßßßß
				;
				;         Called from:   2926:727F

2926:769E			sub_300:
2926:769E  FF 2E 8383				jmp	dword ptr ds:data_320e	; (2926:8383=0)

				;ßßßß External Entry into Subroutine ßßßßßßßßßßßßßßßßßßßßßßßßßßßßßßßßßßßßßß
				;
				;         Called from:   2926:70D8

2926:76A2			sub_301:
2926:76A2			loc_722:					;  xref 2926:7717
2926:76A2  FF 2E 8387				jmp	dword ptr ds:data_63e	; (2916:8387=0)

				;ßßßß External Entry into Subroutine ßßßßßßßßßßßßßßßßßßßßßßßßßßßßßßßßßßßßßß
				;
				;         Called from:   2926:4D5B, 4D61

2926:76A6			sub_302:
2926:76A6  8C D8				mov	ax,ds
2926:76A8  C3					retn

				;ßßßß External Entry into Subroutine ßßßßßßßßßßßßßßßßßßßßßßßßßßßßßßßßßßßßßß
				;
				;         Called from:   2926:530E, 532A, 535A, 5376, 58D5, 59FB, 5A17
				;                             5AD1, 5BD0, 5D2E, 5DD9, 5E2A, 6A63

2926:76A9			sub_303:
2926:76A9			loc_723:					;  xref 2926:7719
2926:76A9  5B					pop	bx
2926:76AA  5A					pop	dx
2926:76AB  07					pop	es
2926:76AC  58					pop	ax
2926:76AD  53					push	bx
2926:76AE  3C 1A				cmp	al,1Ah
2926:76B0			loc_724:					;  xref 2926:771B
2926:76B0  75 0A				jne	loc_726			; Jump if not equal
2926:76B2  8C 06 8BA3				mov	ds:data_346e,es		; (2926:8BA3=0)
2926:76B6  C7 06 8BA7 00FF			mov	word ptr ds:data_348e,0FFh	; (2926:8BA7=0)
2926:76BC			loc_726:					;  xref 2926:76B0
2926:76BC  55					push	bp
2926:76BD  2A E4				sub	ah,ah
2926:76BF  8B F0				mov	si,ax
2926:76C1  8A E0				mov	ah,al
2926:76C3  E8 0026				call	sub_306			; (76EC)
2926:76C6  5D					pop	bp
2926:76C7  32 E4				xor	ah,ah			; Zero register
2926:76C9  C3					retn

				;ßßßß External Entry into Subroutine ßßßßßßßßßßßßßßßßßßßßßßßßßßßßßßßßßßßßßß
				;
				;         Called from:   2926:5D52, 5D5D, 5D81, 5F27, 5F5A, 5F8D, 5FC0
				;                             6A82

           ICON0.lst       ICON0.OVL		Sourcer	v8.01  20-Jul-2026 12:17 am   Page 263

2926:76CA			sub_304:
2926:76CA  5B					pop	bx
2926:76CB  5A					pop	dx
2926:76CC			loc_728:					;  xref 2926:7721
2926:76CC  58					pop	ax
2926:76CD  53					push	bx
2926:76CE  55					push	bp
2926:76CF  2A E4				sub	ah,ah
2926:76D1  8B F0				mov	si,ax
2926:76D3			loc_729:					;  xref 2926:7723
2926:76D3  8A E0				mov	ah,al
2926:76D5  E8 0014				call	sub_306			; (76EC)
2926:76D8  5D					pop	bp
2926:76D9  C3					retn

				;ßßßß External Entry into Subroutine ßßßßßßßßßßßßßßßßßßßßßßßßßßßßßßßßßßßßßß
				;
				;         Called from:   2926:03B7, 0417, 05B6

2926:76DA			sub_305:
2926:76DA  5B					pop	bx
2926:76DB  8C D9				mov	cx,ds
2926:76DD  5A					pop	dx
2926:76DE  1F					pop	ds
2926:76DF  58					pop	ax
2926:76E0  8A E0				mov	ah,al
2926:76E2  E8 0089		;*		call	sub_307			;*(776E)
2926:76E2  E8 89 00				db	0E8h, 89h, 00h
2926:76E5  32 E4				xor	ah,ah			; Zero register
2926:76E7  50					push	ax
2926:76E8  8E D9				mov	ds,cx
2926:76EA  FF E3				jmp	bx			;*Register jump

				;ßßßß External Entry into Subroutine ßßßßßßßßßßßßßßßßßßßßßßßßßßßßßßßßßßßßßß
				;
				;         Called from:   2926:76C3, 76D5

2926:76EC			sub_306:
2926:76EC			loc_732:					;  xref 2926:7480
2926:76EC  8B DE				mov	bx,si
2926:76EE  03 F3				add	si,bx
2926:76F0 úBB 7676				mov	bx,7676h		; (2926:7676=2)
2926:76F3  2E: FF 20				jmp	word ptr cs:[bx+si]	;*
				sub_291		endp

2926:76F6  13 77 1D 77				db	 13h, 77h, 1Dh, 77h
2926:76FA			loc_733:					;  xref 2926:7703
2926:76FA  22 77 27				and	dh,[bx+27h]
2926:76FD			loc_735:					;  xref 2926:772B
2926:76FD  77 2C				ja	loc_744			; Jump if above
2926:76FF  77 31		;*		ja	loc_746			;*Jump if above
2926:76FF  77 31				db	 77h, 31h
2926:7701  77 36				ja	loc_749			; Jump if above
2926:7703  77 F5				ja	loc_733			; Jump if above
2926:7705  76 F5		;*		jbe	loc_734			;*Jump if below or =
2926:7705  76 F5				db	 76h,0F5h
2926:7707  76 59		;*		jbe	loc_761			;*Jump if below or =
           ICON0.lst       ICON0.OVL		Sourcer	v8.01  20-Jul-2026 12:17 am   Page 264

2926:7707  76 59				db	 76h, 59h
2926:7709  77 5E				ja	loc_762			; Jump if above
2926:770B  77 63				ja	loc_765			; Jump if above
2926:770D  77 6F				ja	$+71h			; Jump if above
2926:770F  77 72				ja	$+74h			; Jump if above
2926:7711  77 77				ja	$+79h			; Jump if above
2926:7713  77 7F		;*		ja	loc_771			;*Jump if above
2926:7713  77 7F				db	 77h, 7Fh
2926:7715			loc_737:					;  xref 2926:7739
2926:7715  77 84		;*		ja	loc_721			;*Jump if above
2926:7715  77 84				db	 77h, 84h
2926:7717  77 89				ja	loc_722			; Jump if above
2926:7719  77 8E				ja	loc_723			; Jump if above
2926:771B  77 93				ja	loc_724			; Jump if above
2926:771D  77 98		;*		ja	loc_725			;*Jump if above
2926:771D  77 98				db	 77h, 98h
2926:771F  77 A4		;*		ja	loc_727			;*Jump if above
2926:771F  77 A4				db	 77h,0A4h
2926:7721  77 A9				ja	loc_728			; Jump if above
2926:7723			loc_739:					;  xref 2926:773D
2926:7723  77 AE				ja	loc_729			; Jump if above
2926:7725  77 F5		;*		ja	loc_738			;*Jump if above
2926:7725  77 F5				db	 77h,0F5h
2926:7727  76 B3		;*		jbe	loc_730			;*Jump if below or =
2926:7727  76 B3				db	 76h,0B3h
2926:7729  77 B8		;*		ja	loc_731			;*Jump if above
2926:7729  77 B8				db	 77h,0B8h
2926:772B			loc_744:					;  xref 2926:76FD
2926:772B  77 D0				ja	loc_735			; Jump if above
2926:772D  77 F5		;*		ja	loc_740			;*Jump if above
2926:772D  77 F5				db	 77h,0F5h
2926:772F  76 F5		;*		jbe	loc_741			;*Jump if below or =
2926:772F  76 F5				db	 76h,0F5h
2926:7731  76 F5		;*		jbe	loc_742			;*Jump if below or =
2926:7731  76 F5				db	 76h,0F5h
2926:7733  76 F5		;*		jbe	loc_743			;*Jump if below or =
2926:7733  76 F5				db	 76h,0F5h
2926:7735			loc_747:					;  xref 2926:7745
2926:7735  76 F5		;*		jbe	loc_745			;*Jump if below or =
2926:7735  76 F5				db	 76h,0F5h
2926:7737  76 D5		;*		jbe	loc_736			;*Jump if below or =
2926:7737  76 D5				db	 76h,0D5h
2926:7739			loc_749:					;  xref 2926:7701
2926:7739  77 DA				ja	loc_737			; Jump if above
2926:773B  77 DF		;*		ja	loc_738			;*Jump if above
2926:773B  77 DF				db	 77h,0DFh
2926:773D  77 E4				ja	loc_739			; Jump if above
2926:773F  77 E9		;*		ja	loc_743			;*Jump if above
2926:773F  77 E9				db	 77h,0E9h
2926:7741  77 F5		;*		ja	loc_748			;*Jump if above
2926:7741  77 F5				db	 77h,0F5h
2926:7743  76 F5		;*		jbe	loc_750			;*Jump if below or =
2926:7743  76 F5				db	 76h,0F5h
2926:7745  76 EE				jbe	loc_747			; Jump if below or =
2926:7747  77 F5		;*		ja	loc_751			;*Jump if above
2926:7747  77 F5				db	 77h,0F5h
2926:7749  76 F5		;*		jbe	loc_752			;*Jump if below or =
           ICON0.lst       ICON0.OVL		Sourcer	v8.01  20-Jul-2026 12:17 am   Page 265

2926:7749  76 F5				db	 76h,0F5h
2926:774B  76 F5		;*		jbe	loc_753			;*Jump if below or =
2926:774B  76 F5				db	 76h,0F5h
2926:774D  76 F5		;*		jbe	loc_754			;*Jump if below or =
2926:774D  76 F5				db	 76h,0F5h
2926:774F  76 F5		;*		jbe	loc_755			;*Jump if below or =
2926:774F  76 F5				db	 76h,0F5h
2926:7751  76 F5		;*		jbe	loc_756			;*Jump if below or =
2926:7751  76 F5				db	 76h,0F5h
2926:7753			loc_760:					;  xref 2926:775B
2926:7753  76 F5		;*		jbe	loc_757			;*Jump if below or =
2926:7753  76 F5				db	 76h,0F5h
2926:7755  76 F5		;*		jbe	loc_758			;*Jump if below or =
2926:7755  76 F5				db	 76h,0F5h
2926:7757  76 F5		;*		jbe	loc_759			;*Jump if below or =
2926:7757  76 F5				db	 76h,0F5h
2926:7759  76 F3		;*		jbe	loc_759			;*Jump if below or =
2926:7759  76 F3				db	 76h,0F3h
2926:775B  77 F6				ja	loc_760			; Jump if above
2926:775D  77 0E				ja	loc_763			; Jump if above
2926:775F  78 17		;*		js	loc_767			;*Jump if sign=1
2926:775F  78 17				db	 78h, 17h
2926:7761  78 1A				js	loc_768			; Jump if sign=1
2926:7763  78 1D				js	$+1Fh			; Jump if sign=1
2926:7765  78 20				js	loc_769			; Jump if sign=1
2926:7767  78 23				js	$+25h			; Jump if sign=1
2926:7769			loc_762:					;  xref 2926:7709
2926:7769  78 26				js	loc_770			; Jump if sign=1
2926:776B  78 29		;*		js	loc_772			;*Jump if sign=1
2926:776B  78 29				db	 78h, 29h
2926:776D			loc_763:					;  xref 2926:775D
2926:776D  78 1E				js	$+20h			; Jump if sign=1
2926:776F  06					push	es
2926:7770			loc_765:					;  xref 2926:770B
2926:7770  1F					pop	ds
2926:7771  CD 21				int	21h			; DOS Services  ah=function 00h
										;  terminate, cs=progm seg prefx
2926:7773  1F					pop	ds
2926:7774  C3					retn
2926:7775			loc_766:					;  xref 2926:7873
2926:7775 úB4 09				mov	ah,9
2926:7777  BA 76FD				mov	dx,76FDh
2926:777A  E9 FFF1		;*		jmp	loc_764			;*(776E)
2926:777A  E9 F1 FF				db	0E9h,0F1h,0FFh
2926:777D			loc_768:					;  xref 2926:7761
2926:777D  55					push	bp
2926:777E  6E 64 65 66 69 6E			db	'ndefined '
2926:7784  65 64 20
2926:7787			loc_769:					;  xref 2926:7765
2926:7787  46					inc	si
2926:7788  75 6E				jnz	loc_778			; Jump if not zero
2926:778A  63 74 69 6F 6E 21			db	 63h, 74h, 69h, 6Fh, 6Eh, 21h
2926:7790  0D					db	 0Dh
2926:7791			loc_770:					;  xref 2926:7769
2926:7791  0A 24				or	ah,[si]
2926:7793  C7 06 003E 0000			mov	data_77,0		; (2926:003E=0)
2926:7799  FF 2E 003E				jmp	dword ptr data_77	; (2926:003E=0)
           ICON0.lst       ICON0.OVL		Sourcer	v8.01  20-Jul-2026 12:17 am   Page 266

							                        ;* No entry point to code
2926:779D  B4 01				mov	ah,1
2926:779F  E9 FFCC		;*		jmp	loc_764			;*(776E)
2926:779F  E9 CC FF				db	0E9h,0CCh,0FFh
							                        ;* No entry point to code
2926:77A2  B4 02				mov	ah,2
2926:77A4  E9 FFC7		;*		jmp	loc_764			;*(776E)
2926:77A4  E9 C7 FF				db	0E9h,0C7h,0FFh
							                        ;* No entry point to code
2926:77A7  B4 03				mov	ah,3
2926:77A9  E9 FFC2		;*		jmp	loc_764			;*(776E)
2926:77A9  E9 C2 FF				db	0E9h,0C2h,0FFh
							                        ;* No entry point to code
2926:77AC  B4 04				mov	ah,4
2926:77AE  E9 FFBD		;*		jmp	loc_764			;*(776E)
2926:77AE  E9 BD FF				db	0E9h,0BDh,0FFh
							                        ;* No entry point to code
2926:77B1  B4 05				mov	ah,5
2926:77B3  E9 FFB8		;*		jmp	loc_764			;*(776E)
2926:77B3  E9 B8 FF				db	0E9h,0B8h,0FFh
							                        ;* No entry point to code
2926:77B6  B4 06				mov	ah,6
2926:77B8  80 FA FE				cmp	dl,0FEh
2926:77BB  75 0D				jne	loc_774			; Jump if not equal
2926:77BD  FE C2				inc	dl
2926:77BF  E8 FFAC		;*		call	sub_307			;*(776E)
2926:77BF  E8 AC FF				db	0E8h,0ACh,0FFh
2926:77C2  74 03				jz	loc_773			; Jump if zero
2926:77C4  B0 FF				mov	al,0FFh
2926:77C6  C3					retn
2926:77C7			loc_773:					;  xref 2926:77C2
2926:77C7  32 C0				xor	al,al			; Zero register
2926:77C9  C3					retn
2926:77CA			loc_774:					;  xref 2926:77BB
2926:77CA  80 FA FF				cmp	dl,0FFh
2926:77CD  75 06				jne	loc_776			; Jump if not equal
2926:77CF			loc_775:					;  xref 2926:77D2
2926:77CF  E8 FF9C		;*		call	sub_307			;*(776E)
2926:77CF  E8 9C FF				db	0E8h, 9Ch,0FFh
2926:77D2  74 FB				jz	loc_775			; Jump if zero
2926:77D4  C3					retn
2926:77D5			loc_776:					;  xref 2926:77CD
2926:77D5  E8 FF96		;*		call	sub_307			;*(776E)
2926:77D5  E8 96 FF				db	0E8h, 96h,0FFh
2926:77D8  C3					retn
							                        ;* No entry point to code
2926:77D9  B4 09				mov	ah,9
2926:77DB  E9 FF90		;*		jmp	loc_764			;*(776E)
2926:77DB  E9 90 FF				db	0E9h, 90h,0FFh
							                        ;* No entry point to code
2926:77DE  B4 0A				mov	ah,0Ah
2926:77E0  E9 FF8B		;*		jmp	loc_764			;*(776E)
2926:77E0  E9 8B FF				db	0E9h, 8Bh,0FFh
							                        ;* No entry point to code
2926:77E3  B4 0B				mov	ah,0Bh
2926:77E5  E8 FF86		;*		call	sub_307			;*(776E)
2926:77E5  E8 86 FF				db	0E8h, 86h,0FFh
           ICON0.lst       ICON0.OVL		Sourcer	v8.01  20-Jul-2026 12:17 am   Page 267

2926:77E8  3C 00				cmp	al,0
2926:77EA  74 02				je	loc_ret_777		; Jump if equal
2926:77EC  B0 FF				mov	al,0FFh

2926:77EE			loc_ret_777:					;  xref 2926:77EA
2926:77EE  C3					retn
							                        ;* No entry point to code
2926:77EF  B0 22				mov	al,22h			; '"'
2926:77F1  C3					retn
							                        ;* No entry point to code
2926:77F2  B4 0D				mov	ah,0Dh
2926:77F4  E9 FF77		;*		jmp	loc_764			;*(776E)
2926:77F4  E9 77 FF				db	0E9h, 77h,0FFh
2926:77F7  50					db	50h
2926:77F8			loc_778:					;  xref 2926:7788
2926:77F8  B4 0E				mov	ah,0Eh
2926:77FA  E8 FF71		;*		call	sub_307			;*(776E)
2926:77FA  E8 71 FF				db	0E8h, 71h,0FFh
2926:77FD  58					pop	ax
2926:77FE  C3					retn
							                        ;* No entry point to code
2926:77FF  B4 0F				mov	ah,0Fh
2926:7801  E9 FF6A		;*		jmp	loc_764			;*(776E)
2926:7801  E9 6A FF				db	0E9h, 6Ah,0FFh
							                        ;* No entry point to code
2926:7804  B4 10				mov	ah,10h
2926:7806  E9 FF65		;*		jmp	loc_764			;*(776E)
2926:7806  E9 65 FF				db	0E9h, 65h,0FFh
							                        ;* No entry point to code
2926:7809  B4 11				mov	ah,11h
2926:780B  E9 FF60		;*		jmp	loc_764			;*(776E)
2926:780B  E9 60 FF				db	0E9h, 60h,0FFh
							                        ;* No entry point to code
2926:780E  B4 12				mov	ah,12h
2926:7810  E9 FF5B		;*		jmp	loc_764			;*(776E)
2926:7810  E9 5B FF				db	0E9h, 5Bh,0FFh
							                        ;* No entry point to code
2926:7813  B4 13				mov	ah,13h
2926:7815  E9 FF56		;*		jmp	loc_764			;*(776E)
2926:7815  E9 56 FF				db	0E9h, 56h,0FFh
							                        ;* No entry point to code
2926:7818  B4 14				mov	ah,14h
2926:781A  E8 FF51		;*		call	sub_307			;*(776E)
2926:781A  E8 51 FF				db	0E8h, 51h,0FFh
2926:781D  3C 03				cmp	al,3
2926:781F  75 02				jne	loc_ret_779		; Jump if not equal
2926:7821  B0 00				mov	al,0

2926:7823			loc_ret_779:					;  xref 2926:781F
2926:7823  C3					retn
							                        ;* No entry point to code
2926:7824  B4 15				mov	ah,15h
2926:7826  E9 FF45		;*		jmp	loc_764			;*(776E)
2926:7826  E9 45 FF				db	0E9h, 45h,0FFh
							                        ;* No entry point to code
2926:7829  B4 16				mov	ah,16h
2926:782B  E9 FF40		;*		jmp	loc_764			;*(776E)
           ICON0.lst       ICON0.OVL		Sourcer	v8.01  20-Jul-2026 12:17 am   Page 268

2926:782B  E9 40 FF				db	0E9h, 40h,0FFh
							                        ;* No entry point to code
2926:782E  B4 17				mov	ah,17h
2926:7830  E9 FF3B		;*		jmp	loc_764			;*(776E)
2926:7830  E9 3B FF				db	0E9h, 3Bh,0FFh
							                        ;* No entry point to code
2926:7833  B4 19				mov	ah,19h
2926:7835  E9 FF36		;*		jmp	loc_764			;*(776E)
2926:7835  E9 36 FF				db	0E9h, 36h,0FFh
							                        ;* No entry point to code
2926:7838  1E					push	ds
2926:7839  89 16 8BA5				mov	ds:data_347e,dx		; (2926:8BA5=0)
2926:783D  81 3E 8BA7 00FF			cmp	word ptr ds:data_348e,0FFh	; (2926:8BA7=0)
2926:7843  75 04				jne	loc_780			; Jump if not equal
2926:7845  8E 1E 8BA3				mov	ds,ds:data_346e		; (2926:8BA3=0)
2926:7849			loc_780:					;  xref 2926:7843
2926:7849  B4 1A				mov	ah,1Ah
2926:784B  E8 FF20		;*		call	sub_307			;*(776E)
2926:784B  E8 20 FF				db	0E8h, 20h,0FFh
2926:784E  1F					pop	ds
2926:784F  C3					retn
							                        ;* No entry point to code
2926:7850  B4 1B				mov	ah,1Bh
2926:7852  E9 FF19		;*		jmp	loc_764			;*(776E)
2926:7852  E9 19 FF				db	0E9h, 19h,0FFh
							                        ;* No entry point to code
2926:7855  B4 21				mov	ah,21h			; '!'
2926:7857  E9 FF14		;*		jmp	loc_764			;*(776E)
2926:7857  E9 14 FF				db	0E9h, 14h,0FFh
							                        ;* No entry point to code
2926:785A  B4 22				mov	ah,22h			; '"'
2926:785C  E9 FF0F		;*		jmp	loc_764			;*(776E)
2926:785C  E9 0F FF				db	0E9h, 0Fh,0FFh
							                        ;* No entry point to code
2926:785F  B4 23				mov	ah,23h			; '#'
2926:7861  E9 FF0A		;*		jmp	loc_764			;*(776E)
2926:7861  E9 0A FF				db	0E9h, 0Ah,0FFh
							                        ;* No entry point to code
2926:7864  B4 24				mov	ah,24h			; '$'
2926:7866  E9 FF05		;*		jmp	loc_764			;*(776E)
2926:7866  E9 05 FF				db	0E9h, 05h,0FFh
							                        ;* No entry point to code
2926:7869  B4 25				mov	ah,25h			; '%'
2926:786B  E9 FF00		;*		jmp	loc_764			;*(776E)
2926:786B  E9 00 FF				db	0E9h, 00h,0FFh
							                        ;* No entry point to code
2926:786E  B4 28				mov	ah,28h			; '('
2926:7870  E9 FEFB		;*		jmp	loc_764			;*(776E)
2926:7870  E9 FB FE				db	0E9h,0FBh,0FEh
2926:7873  E9 FEFF				jmp	loc_766			; (7775)
							                        ;* No entry point to code
2926:7876  1E					push	ds
2926:7877  52					push	dx
2926:7878  C7 06 8BA7 00FF			mov	word ptr ds:data_348e,0FFh	; (2926:8BA7=0)
2926:787E  89 16 8BA3				mov	ds:data_346e,dx		; (2926:8BA3=0)
2926:7882  8B 16 8BA5				mov	dx,ds:data_347e		; (2926:8BA5=0)
2926:7886  1F					pop	ds
           ICON0.lst       ICON0.OVL		Sourcer	v8.01  20-Jul-2026 12:17 am   Page 269

2926:7887  B4 1A				mov	ah,1Ah
2926:7889  E8 FEE2		;*		call	sub_307			;*(776E)
2926:7889  E8 E2 FE				db	0E8h,0E2h,0FEh
2926:788C  1F					pop	ds
2926:788D  C3					retn
2926:788E  8B 1E A5 8B 8E 06			db	 8Bh, 1Eh,0A5h, 8Bh, 8Eh, 06h
2926:7894  A3 8B C3 E9 DB FE			db	0A3h, 8Bh,0C3h,0E9h,0DBh,0FEh
2926:789A  E9 D8 FE E9 D5 FE			db	0E9h,0D8h,0FEh,0E9h,0D5h,0FEh
2926:78A0  E9 D2 FE E9 CF FE			db	0E9h,0D2h,0FEh,0E9h,0CFh,0FEh
2926:78A6  E9 CC FE E9 C9 FE			db	0E9h,0CCh,0FEh,0E9h,0C9h,0FEh
2926:78AC  0154[00]				db	340 dup (0)

				seg_a		ends



						end	start
           ICON0.lst       ICON0.OVL		Sourcer	v8.01  20-Jul-2026 12:17 am   Page 270


				±±±±±±±±±±±±±±±±±±±± CROSS REFERENCE - KEY ENTRY POINTS ±±±±±±±±±±±±±±±±±±±

				    seg:off    type	   label
				   ---- ----   ----   --------------------------------
				   2926:0000   far    start

				 ±±±±±±±±±±±±±±±±±± Interrupt Usage Synopsis ±±±±±±±±±±±±±±±±±±

				        Interrupt 10h : Video display	ah=functn xxh
				        Interrupt 10h :  ah=00h	 set display mode in al
				        Interrupt 10h :  ah=02h	 set cursor location in dx
				        Interrupt 10h :  ah=03h	 get cursor loc in dx, mode cx
				        Interrupt 10h :  ah=05h	 set display page al
				        Interrupt 10h :  ah=09h	 set char al & attrib bl @curs
				        Interrupt 10h :  ah=0Bh	 set color from bx (CGA modes)
				        Interrupt 10h :  ah=0Fh	 get state, al=mode, bh=page
				        Interrupt 10h :  ax=1102h  load	8x8 font, bl=block
				        Interrupt 10h :  ax=1130h  get font type bh info into
				        Interrupt 13h : Disk  dl=drive #  ah=func xxh
				        Interrupt 13h :  ah=04h	 verify	sectors with mem es:bx
				        Interrupt 21h : DOS Services  ah=function xxh
				        Interrupt 21h :  ah=00h	 terminate, cs=progm seg prefx
				        Interrupt 21h :  ah=06h	 special char i/o, dl=subfunc
				        Interrupt 21h :  ah=09h	 display char string at ds:dx
				        Interrupt 21h :  ah=0Ch	 clear keybd buffer & input al
				        Interrupt 21h :  ah=1Ah	 set DTA(disk xfer area) ds:dx
				        Interrupt 21h :  ah=27h	 random	block read, FCB @ds:dx
				            1 Ocurrences of non-standard interrupts used (search for ??).

				 ±±±±±±±±±±±±±±±±±± I/O Port Usage Synopsis  ±±±±±±±±±±±±±±±±±±

				        Port 0     : DMA-1 bas&add ch 0
				        Port 20h   : 8259-1 int	command
				        Port 20h   :  al = 20h,	end of interrupt
				        Port 61h   : 8255 port B, read
				        Port 61h   : 8255 B - spkr, etc
				        Port 201h  : start game	1-shots
				        Port 3C0h  : EGA attributes
				        Port 3C0h  :  al = 10h,	mode control
				        Port 3D4h  : CGA/EGA reg index
				        Port 3D4h  :  al = 9, max raster address
				        Port 3D5h  : CGA/EGA indxd data
				        Port 3DAh  : CGA/EGA vid status
				        Port 3DAh  : VGA feature contrl

